
start.elf:     file format elf32-littlearm

Disassembly of section .text:

30000000 <_start>:
30000000:	ea000006 	b	30000020 <Reset>

30000004 <HandleUndef>:
30000004:	eafffffe 	b	30000004 <HandleUndef>

30000008 <HandleSvc>:
30000008:	eafffffe 	b	30000008 <HandleSvc>

3000000c <HandlePrefetchAbort>:
3000000c:	eafffffe 	b	3000000c <HandlePrefetchAbort>

30000010 <HandleDataAbort>:
30000010:	eafffffe 	b	30000010 <HandleDataAbort>

30000014 <HandleNotUsed>:
30000014:	eafffffe 	b	30000014 <HandleNotUsed>
30000018:	ea000012 	b	30000068 <HandleIRQ>

3000001c <HandleFIQ>:
3000001c:	eafffffe 	b	3000001c <HandleFIQ>

30000020 <Reset>:
30000020:	e3a0da01 	mov	sp, #4096	; 0x1000
30000024:	eb000043 	bl	30000138 <disable_watch_dog>
30000028:	eb000046 	bl	30000148 <clock_init>
3000002c:	eb00004f 	bl	30000170 <sdram_init>
30000030:	eb000271 	bl	300009fc <nand_init>
30000034:	e3a01203 	mov	r1, #805306368	; 0x30000000
30000038:	e3a00000 	mov	r0, #0	; 0x0
3000003c:	e3a02b1e 	mov	r2, #30720	; 0x7800
30000040:	eb0002dd 	bl	30000bbc <nand_read>
30000044:	e59ff1a8 	ldr	pc, [pc, #424]	; 300001f4 <mem_cfg_val+0x34>

30000048 <on_sdram>:
30000048:	e321f0d2 	msr	CPSR_c, #210	; 0xd2
3000004c:	e3a0d433 	mov	sp, #855638016	; 0x33000000
30000050:	e321f0df 	msr	CPSR_c, #223	; 0xdf
30000054:	e3a0d30d 	mov	sp, #872415232	; 0x34000000
30000058:	e321f05f 	msr	CPSR_c, #95	; 0x5f
3000005c:	e59fe194 	ldr	lr, [pc, #404]	; 300001f8 <mem_cfg_val+0x38>
30000060:	e59ff194 	ldr	pc, [pc, #404]	; 300001fc <mem_cfg_val+0x3c>

30000064 <loop>:
30000064:	eafffffe 	b	30000064 <loop>

30000068 <HandleIRQ>:
30000068:	e24ee004 	sub	lr, lr, #4	; 0x4
3000006c:	e92d5fff 	stmdb	sp!, {r0, r1, r2, r3, r4, r5, r6, r7, r8, r9, sl, fp, ip, lr}
30000070:	e59f0188 	ldr	r0, [pc, #392]	; 30000200 <mem_cfg_val+0x40>
30000074:	e5901000 	ldr	r1, [r0]
30000078:	e3a0200a 	mov	r2, #10	; 0xa
3000007c:	e1510002 	cmp	r1, r2
30000080:	0a00000b 	beq	300000b4 <timer0_irq>
30000084:	e59fe178 	ldr	lr, [pc, #376]	; 30000204 <mem_cfg_val+0x44>
30000088:	e59ff178 	ldr	pc, [pc, #376]	; 30000208 <mem_cfg_val+0x48>

3000008c <ret>:
3000008c:	e92d000e 	stmdb	sp!, {r1, r2, r3}
30000090:	e3a0244a 	mov	r2, #1241513984	; 0x4a000000
30000094:	e2821010 	add	r1, r2, #16	; 0x10
30000098:	e5910000 	ldr	r0, [r1]
3000009c:	e5923000 	ldr	r3, [r2]
300000a0:	e1833001 	orr	r3, r3, r1
300000a4:	e5823000 	str	r3, [r2]
300000a8:	e5810000 	str	r0, [r1]
300000ac:	e8bd000e 	ldmia	sp!, {r1, r2, r3}
300000b0:	e8fd9fff 	ldmia	sp!, {r0, r1, r2, r3, r4, r5, r6, r7, r8, r9, sl, fp, ip, pc}^

300000b4 <timer0_irq>:
300000b4:	e8bd5fff 	ldmia	sp!, {r0, r1, r2, r3, r4, r5, r6, r7, r8, r9, sl, fp, ip, lr}
300000b8:	e92d0001 	stmdb	sp!, {r0}
300000bc:	e92d000e 	stmdb	sp!, {r1, r2, r3}
300000c0:	e3a0244a 	mov	r2, #1241513984	; 0x4a000000
300000c4:	e2821010 	add	r1, r2, #16	; 0x10
300000c8:	e5910000 	ldr	r0, [r1]
300000cc:	e5923000 	ldr	r3, [r2]
300000d0:	e1833001 	orr	r3, r3, r1
300000d4:	e5823000 	str	r3, [r2]
300000d8:	e5810000 	str	r0, [r1]
300000dc:	e8bd000e 	ldmia	sp!, {r1, r2, r3}
300000e0:	e1a0000e 	mov	r0, lr
300000e4:	e321f0df 	msr	CPSR_c, #223	; 0xdf
300000e8:	e92d0001 	stmdb	sp!, {r0}
300000ec:	e92d4000 	stmdb	sp!, {lr}
300000f0:	e321f0d2 	msr	CPSR_c, #210	; 0xd2
300000f4:	e8bd0001 	ldmia	sp!, {r0}
300000f8:	e59fe10c 	ldr	lr, [pc, #268]	; 3000020c <mem_cfg_val+0x4c>
300000fc:	e92d4000 	stmdb	sp!, {lr}
30000100:	e8fd8000 	ldmia	sp!, {pc}^

30000104 <__asm_schedule>:
30000104:	e92d1fff 	stmdb	sp!, {r0, r1, r2, r3, r4, r5, r6, r7, r8, r9, sl, fp, ip}
30000108:	e10f1000 	mrs	r1, CPSR
3000010c:	e92d0002 	stmdb	sp!, {r1}
30000110:	e1a0100d 	mov	r1, sp
30000114:	e3c11eff 	bic	r1, r1, #4080	; 0xff0
30000118:	e3c1100f 	bic	r1, r1, #15	; 0xf
3000011c:	e1a0000d 	mov	r0, sp
30000120:	e5810000 	str	r0, [r1]

30000124 <__switch_to>:
30000124:	eb00019c 	bl	3000079c <__common_schedule>
30000128:	e590d000 	ldr	sp, [r0]
3000012c:	e8bd0002 	ldmia	sp!, {r1}
30000130:	e12ff001 	msr	CPSR_fsxc, r1
30000134:	e8bddfff 	ldmia	sp!, {r0, r1, r2, r3, r4, r5, r6, r7, r8, r9, sl, fp, ip, lr, pc}

30000138 <disable_watch_dog>:
30000138:	e3a00453 	mov	r0, #1392508928	; 0x53000000
3000013c:	e3a01000 	mov	r1, #0	; 0x0
30000140:	e5801000 	str	r1, [r0]
30000144:	e1a0f00e 	mov	pc, lr

30000148 <clock_init>:
30000148:	e59f00c0 	ldr	r0, [pc, #192]	; 30000210 <mem_cfg_val+0x50>
3000014c:	e3a01003 	mov	r1, #3	; 0x3
30000150:	e5801000 	str	r1, [r0]
30000154:	ee111f10 	mrc	15, 0, r1, cr1, cr0, {0}
30000158:	e3811103 	orr	r1, r1, #-1073741824	; 0xc0000000
3000015c:	ee011f10 	mcr	15, 0, r1, cr1, cr0, {0}
30000160:	e59f00ac 	ldr	r0, [pc, #172]	; 30000214 <mem_cfg_val+0x54>
30000164:	e59f10ac 	ldr	r1, [pc, #172]	; 30000218 <mem_cfg_val+0x58>
30000168:	e5801000 	str	r1, [r0]
3000016c:	e1a0f00e 	mov	pc, lr

30000170 <sdram_init>:
30000170:	e3a01312 	mov	r1, #1207959552	; 0x48000000
30000174:	e28f2044 	add	r2, pc, #68	; 0x44
30000178:	e1a00000 	nop			(mov r0,r0)
3000017c:	e2813034 	add	r3, r1, #52	; 0x34
30000180:	e4924004 	ldr	r4, [r2], #4
30000184:	e4814004 	str	r4, [r1], #4
30000188:	e1510003 	cmp	r1, r3
3000018c:	1afffffb 	bne	30000180 <sdram_init+0x10>
30000190:	e1a0f00e 	mov	pc, lr

30000194 <copy_steppingstone_to_sdram>:
30000194:	e3a01000 	mov	r1, #0	; 0x0
30000198:	e3a02203 	mov	r2, #805306368	; 0x30000000
3000019c:	e3a03a01 	mov	r3, #4096	; 0x1000
300001a0:	e4914004 	ldr	r4, [r1], #4
300001a4:	e4824004 	str	r4, [r2], #4
300001a8:	e1510003 	cmp	r1, r3
300001ac:	1afffffb 	bne	300001a0 <copy_steppingstone_to_sdram+0xc>
300001b0:	e1a0f00e 	mov	pc, lr
	...

300001c0 <mem_cfg_val>:
300001c0:	22011110 	andcs	r1, r1, #4	; 0x4
300001c4:	00000700 	andeq	r0, r0, r0, lsl #14
300001c8:	00000700 	andeq	r0, r0, r0, lsl #14
300001cc:	00000700 	andeq	r0, r0, r0, lsl #14
300001d0:	00000700 	andeq	r0, r0, r0, lsl #14
300001d4:	00000700 	andeq	r0, r0, r0, lsl #14
300001d8:	00000700 	andeq	r0, r0, r0, lsl #14
300001dc:	00018005 	andeq	r8, r1, r5
300001e0:	00018005 	andeq	r8, r1, r5
300001e4:	008c07a3 	addeq	r0, ip, r3, lsr #15
300001e8:	000000b1 	streqh	r0, [r0], -r1
300001ec:	00000030 	andeq	r0, r0, r0, lsr r0
300001f0:	00000030 	andeq	r0, r0, r0, lsr r0
300001f4:	30000048 	andcc	r0, r0, r8, asr #32
300001f8:	30000064 	andcc	r0, r0, r4, rrx
300001fc:	300006c4 	andcc	r0, r0, r4, asr #13
30000200:	4a000014 	bmi	30000258 <delay+0x4>
30000204:	3000008c 	andcc	r0, r0, ip, lsl #1
30000208:	30000350 	andcc	r0, r0, r0, asr r3
3000020c:	30000104 	andcc	r0, r0, r4, lsl #2
30000210:	4c000014 	stcmi	0, cr0, [r0], {20}
30000214:	4c000004 	stcmi	0, cr0, [r0], {4}
30000218:	0005c012 	andeq	ip, r5, r2, lsl r0
3000021c:	e1a00000 	nop			(mov r0,r0)

30000220 <led_init>:
30000220:	e3a01456 	mov	r1, #1442840576	; 0x56000000
30000224:	e5913050 	ldr	r3, [r1, #80]
30000228:	e3833c01 	orr	r3, r3, #256	; 0x100
3000022c:	e5813050 	str	r3, [r1, #80]
30000230:	e5912050 	ldr	r2, [r1, #80]
30000234:	e3822b01 	orr	r2, r2, #1024	; 0x400
30000238:	e5812050 	str	r2, [r1, #80]
3000023c:	e3a020ff 	mov	r2, #255	; 0xff
30000240:	e5913050 	ldr	r3, [r1, #80]
30000244:	e3833a01 	orr	r3, r3, #4096	; 0x1000
30000248:	e5813050 	str	r3, [r1, #80]
3000024c:	e5812054 	str	r2, [r1, #84]
30000250:	e1a0f00e 	mov	pc, lr

30000254 <delay>:
30000254:	e24dd008 	sub	sp, sp, #8	; 0x8
30000258:	e3a02000 	mov	r2, #0	; 0x0
3000025c:	e58d2004 	str	r2, [sp, #4]
30000260:	e59d3004 	ldr	r3, [sp, #4]
30000264:	e3a01f4a 	mov	r1, #296	; 0x128
30000268:	e2811003 	add	r1, r1, #3	; 0x3
3000026c:	e1530001 	cmp	r3, r1
30000270:	8a000013 	bhi	300002c4 <delay+0x70>
30000274:	e1a0c002 	mov	ip, r2
30000278:	e1a00001 	mov	r0, r1
3000027c:	e58dc000 	str	ip, [sp]
30000280:	e59d3000 	ldr	r3, [sp]
30000284:	e1530001 	cmp	r3, r1
30000288:	8a000005 	bhi	300002a4 <delay+0x50>
3000028c:	e59d3000 	ldr	r3, [sp]
30000290:	e2833001 	add	r3, r3, #1	; 0x1
30000294:	e58d3000 	str	r3, [sp]
30000298:	e59d2000 	ldr	r2, [sp]
3000029c:	e1520000 	cmp	r2, r0
300002a0:	9afffff9 	bls	3000028c <delay+0x38>
300002a4:	e59d3004 	ldr	r3, [sp, #4]
300002a8:	e2833001 	add	r3, r3, #1	; 0x1
300002ac:	e58d3004 	str	r3, [sp, #4]
300002b0:	e59d2004 	ldr	r2, [sp, #4]
300002b4:	e3a01f4a 	mov	r1, #296	; 0x128
300002b8:	e2811003 	add	r1, r1, #3	; 0x3
300002bc:	e1520001 	cmp	r2, r1
300002c0:	9affffed 	bls	3000027c <delay+0x28>
300002c4:	e28dd008 	add	sp, sp, #8	; 0x8
300002c8:	e1a0f00e 	mov	pc, lr

300002cc <timer0_init>:
300002cc:	e3a01451 	mov	r1, #1358954496	; 0x51000000
300002d0:	e3a03063 	mov	r3, #99	; 0x63
300002d4:	e3a02d61 	mov	r2, #6208	; 0x1840
300002d8:	e5813000 	str	r3, [r1]
300002dc:	e282202a 	add	r2, r2, #42	; 0x2a
300002e0:	e2433060 	sub	r3, r3, #96	; 0x60
300002e4:	e3a0044a 	mov	r0, #1241513984	; 0x4a000000
300002e8:	e5813004 	str	r3, [r1, #4]
300002ec:	e581200c 	str	r2, [r1, #12]
300002f0:	e3a02009 	mov	r2, #9	; 0x9
300002f4:	e5913008 	ldr	r3, [r1, #8]
300002f8:	e3833002 	orr	r3, r3, #2	; 0x2
300002fc:	e5813008 	str	r3, [r1, #8]
30000300:	e5812008 	str	r2, [r1, #8]
30000304:	e5903008 	ldr	r3, [r0, #8]
30000308:	e3c33b01 	bic	r3, r3, #1024	; 0x400
3000030c:	e5803008 	str	r3, [r0, #8]
30000310:	e1a0f00e 	mov	pc, lr

30000314 <key_init>:
30000314:	e3a01456 	mov	r1, #1442840576	; 0x56000000
30000318:	e5913050 	ldr	r3, [r1, #80]
3000031c:	e3c33033 	bic	r3, r3, #51	; 0x33
30000320:	e5813050 	str	r3, [r1, #80]
30000324:	e3a0044a 	mov	r0, #1241513984	; 0x4a000000
30000328:	e5913050 	ldr	r3, [r1, #80]
3000032c:	e3833022 	orr	r3, r3, #34	; 0x22
30000330:	e5813050 	str	r3, [r1, #80]
30000334:	e590200c 	ldr	r2, [r0, #12]
30000338:	e3c22001 	bic	r2, r2, #1	; 0x1
3000033c:	e580200c 	str	r2, [r0, #12]
30000340:	e5903008 	ldr	r3, [r0, #8]
30000344:	e3c33005 	bic	r3, r3, #5	; 0x5
30000348:	e5803008 	str	r3, [r0, #8]
3000034c:	e1a0f00e 	mov	pc, lr

30000350 <irq_handler>:
30000350:	e52de004 	str	lr, [sp, #-4]!
30000354:	e59f3078 	ldr	r3, [pc, #120]	; 300003d4 <.text+0x3d4>
30000358:	e3a02000 	mov	r2, #0	; 0x0
3000035c:	e3a01203 	mov	r1, #805306368	; 0x30000000
30000360:	e2811603 	add	r1, r1, #3145728	; 0x300000
30000364:	e2811f43 	add	r1, r1, #268	; 0x10c
30000368:	e5930004 	ldr	r0, [r3, #4]
3000036c:	e2403f43 	sub	r3, r0, #268	; 0x10c
30000370:	e5832008 	str	r2, [r3, #8]
30000374:	e3a03456 	mov	r3, #1442840576	; 0x56000000
30000378:	e24dd004 	sub	sp, sp, #4	; 0x4
3000037c:	e5832054 	str	r2, [r3, #84]
30000380:	eb000301 	bl	30000f8c <list_add>
30000384:	ebffffb2 	bl	30000254 <delay>
30000388:	e3a000c8 	mov	r0, #200	; 0xc8
3000038c:	e3a020fa 	mov	r2, #250	; 0xfa
30000390:	e3a0c8ff 	mov	ip, #16711680	; 0xff0000
30000394:	e28cccff 	add	ip, ip, #65280	; 0xff00
30000398:	e1a01000 	mov	r1, r0
3000039c:	e1a03002 	mov	r3, r2
300003a0:	e58dc000 	str	ip, [sp]
300003a4:	eb0002c8 	bl	30000ecc <draw_rect>
300003a8:	ebffffa9 	bl	30000254 <delay>
300003ac:	e3a000c8 	mov	r0, #200	; 0xc8
300003b0:	e3a020fa 	mov	r2, #250	; 0xfa
300003b4:	e3e0c4ff 	mvn	ip, #-16777216	; 0xff000000
300003b8:	e1a01000 	mov	r1, r0
300003bc:	e1a03002 	mov	r3, r2
300003c0:	e58dc000 	str	ip, [sp]
300003c4:	eb0002c0 	bl	30000ecc <draw_rect>
300003c8:	e28dd004 	add	sp, sp, #4	; 0x4
300003cc:	e49de004 	ldr	lr, [sp], #4
300003d0:	eaffff9f 	b	30000254 <delay>
300003d4:	3000985c 	andcc	r9, r0, ip, asr r8

300003d8 <clear_irq>:
300003d8:	e3a0144a 	mov	r1, #1241513984	; 0x4a000000
300003dc:	e5912014 	ldr	r2, [r1, #20]
300003e0:	e3a03001 	mov	r3, #1	; 0x1
300003e4:	e1a03213 	mov	r3, r3, lsl r2
300003e8:	e5813000 	str	r3, [r1]
300003ec:	e5912010 	ldr	r2, [r1, #16]
300003f0:	e5812010 	str	r2, [r1, #16]
300003f4:	e1a0f00e 	mov	pc, lr

300003f8 <romfs_task>:
300003f8:	e92d4070 	stmdb	sp!, {r4, r5, r6, lr}
300003fc:	e1a04000 	mov	r4, r0
30000400:	e59f0138 	ldr	r0, [pc, #312]	; 30000540 <.text+0x540>
30000404:	e59f6138 	ldr	r6, [pc, #312]	; 30000544 <.text+0x544>
30000408:	e24dd044 	sub	sp, sp, #68	; 0x44
3000040c:	eb0008bf 	bl	30002710 <printk>
30000410:	e1a02004 	mov	r2, r4
30000414:	e3a01000 	mov	r1, #0	; 0x0
30000418:	e1a0000d 	mov	r0, sp
3000041c:	eb00033a 	bl	3000110c <simple_romfs_namei>
30000420:	e59f0120 	ldr	r0, [pc, #288]	; 30000548 <.text+0x548>
30000424:	eb0008b9 	bl	30002710 <printk>
30000428:	e1a0000d 	mov	r0, sp
3000042c:	eb000325 	bl	300010c8 <romfs_get_daddr>
30000430:	e1a04000 	mov	r4, r0
30000434:	e1a01000 	mov	r1, r0
30000438:	e59f010c 	ldr	r0, [pc, #268]	; 3000054c <.text+0x54c>
3000043c:	eb0008b3 	bl	30002710 <printk>
30000440:	e59d2038 	ldr	r2, [sp, #56]
30000444:	e1a054a4 	mov	r5, r4, lsr #9
30000448:	e1a024a2 	mov	r2, r2, lsr #9
3000044c:	e2822002 	add	r2, r2, #2	; 0x2
30000450:	e1a01005 	mov	r1, r5
30000454:	e5960000 	ldr	r0, [r6]
30000458:	eb000504 	bl	30001870 <sd_read_sector>
3000045c:	e5963000 	ldr	r3, [r6]
30000460:	e0833004 	add	r3, r3, r4
30000464:	e0433485 	sub	r3, r3, r5, lsl #9
30000468:	e59f00e0 	ldr	r0, [pc, #224]	; 30000550 <.text+0x550>
3000046c:	e59d1038 	ldr	r1, [sp, #56]
30000470:	e5863000 	str	r3, [r6]
30000474:	eb0008a5 	bl	30002710 <printk>
30000478:	e59d3038 	ldr	r3, [sp, #56]
3000047c:	e3a04000 	mov	r4, #0	; 0x0
30000480:	e1540003 	cmp	r4, r3
30000484:	2a000007 	bcs	300004a8 <romfs_task+0xb0>
30000488:	e5963000 	ldr	r3, [r6]
3000048c:	e59f00c0 	ldr	r0, [pc, #192]	; 30000554 <.text+0x554>
30000490:	e7d31004 	ldrb	r1, [r3, r4]
30000494:	eb00089d 	bl	30002710 <printk>
30000498:	e2844001 	add	r4, r4, #1	; 0x1
3000049c:	e59d3038 	ldr	r3, [sp, #56]
300004a0:	e1540003 	cmp	r4, r3
300004a4:	3afffff7 	bcc	30000488 <romfs_task+0x90>
300004a8:	e59f00a8 	ldr	r0, [pc, #168]	; 30000558 <.text+0x558>
300004ac:	eb000897 	bl	30002710 <printk>
300004b0:	e59d3038 	ldr	r3, [sp, #56]
300004b4:	e3a04000 	mov	r4, #0	; 0x0
300004b8:	e1540003 	cmp	r4, r3
300004bc:	2a000007 	bcs	300004e0 <romfs_task+0xe8>
300004c0:	e5963000 	ldr	r3, [r6]
300004c4:	e59f0090 	ldr	r0, [pc, #144]	; 3000055c <.text+0x55c>
300004c8:	e7d31004 	ldrb	r1, [r3, r4]
300004cc:	eb00088f 	bl	30002710 <printk>
300004d0:	e2844001 	add	r4, r4, #1	; 0x1
300004d4:	e59d3038 	ldr	r3, [sp, #56]
300004d8:	e1540003 	cmp	r4, r3
300004dc:	3afffff7 	bcc	300004c0 <romfs_task+0xc8>
300004e0:	e59f0070 	ldr	r0, [pc, #112]	; 30000558 <.text+0x558>
300004e4:	eb000889 	bl	30002710 <printk>
300004e8:	e5961000 	ldr	r1, [r6]
300004ec:	e59f006c 	ldr	r0, [pc, #108]	; 30000560 <.text+0x560>
300004f0:	eb000886 	bl	30002710 <printk>
300004f4:	e3a005cd 	mov	r0, #859832320	; 0x33400000
300004f8:	e3a02e5d 	mov	r2, #1488	; 0x5d0
300004fc:	e2800601 	add	r0, r0, #1048576	; 0x100000
30000500:	e5961000 	ldr	r1, [r6]
30000504:	e282200c 	add	r2, r2, #12	; 0xc
30000508:	eb0009be 	bl	30002c08 <memcpy>
3000050c:	e3a055cd 	mov	r5, #859832320	; 0x33400000
30000510:	e2855601 	add	r5, r5, #1048576	; 0x100000
30000514:	e3a04000 	mov	r4, #0	; 0x0
30000518:	e7d41005 	ldrb	r1, [r4, r5]
3000051c:	e59f0030 	ldr	r0, [pc, #48]	; 30000554 <.text+0x554>
30000520:	e2844001 	add	r4, r4, #1	; 0x1
30000524:	eb000879 	bl	30002710 <printk>
30000528:	e3540013 	cmp	r4, #19	; 0x13
3000052c:	dafffff9 	ble	30000518 <romfs_task+0x120>
30000530:	e59f0020 	ldr	r0, [pc, #32]	; 30000558 <.text+0x558>
30000534:	eb000875 	bl	30002710 <printk>
30000538:	e28dd044 	add	sp, sp, #68	; 0x44
3000053c:	e8bd8070 	ldmia	sp!, {r4, r5, r6, pc}
30000540:	300041a0 	andcc	r4, r0, r0, lsr #3
30000544:	30004744 	andcc	r4, r0, r4, asr #14
30000548:	300041b8 	strcch	r4, [r0], -r8
3000054c:	300041e4 	andcc	r4, r0, r4, ror #3
30000550:	30004200 	andcc	r4, r0, r0, lsl #4
30000554:	30004220 	andcc	r4, r0, r0, lsr #4
30000558:	30004640 	andcc	r4, r0, r0, asr #12
3000055c:	30004224 	andcc	r4, r0, r4, lsr #4
30000560:	30004228 	andcc	r4, r0, r8, lsr #4

30000564 <lcd_task>:
30000564:	e92d4070 	stmdb	sp!, {r4, r5, r6, lr}
30000568:	e59f0074 	ldr	r0, [pc, #116]	; 300005e4 <.text+0x5e4>
3000056c:	e3a06000 	mov	r6, #0	; 0x0
30000570:	e3a05456 	mov	r5, #1442840576	; 0x56000000
30000574:	e24dd004 	sub	sp, sp, #4	; 0x4
30000578:	eb000271 	bl	30000f44 <list_init>
3000057c:	e3a00096 	mov	r0, #150	; 0x96
30000580:	e3a020be 	mov	r2, #190	; 0xbe
30000584:	e3e0c040 	mvn	ip, #64	; 0x40
30000588:	e1a01000 	mov	r1, r0
3000058c:	e1a03002 	mov	r3, r2
30000590:	e585c054 	str	ip, [r5, #84]
30000594:	e3a048ff 	mov	r4, #16711680	; 0xff0000
30000598:	e58d4000 	str	r4, [sp]
3000059c:	eb00024a 	bl	30000ecc <draw_rect>
300005a0:	ebffff2b 	bl	30000254 <delay>
300005a4:	e3a00096 	mov	r0, #150	; 0x96
300005a8:	e3a020be 	mov	r2, #190	; 0xbe
300005ac:	e3a0c0ff 	mov	ip, #255	; 0xff
300005b0:	e1a01000 	mov	r1, r0
300005b4:	e585c054 	str	ip, [r5, #84]
300005b8:	e1a03002 	mov	r3, r2
300005bc:	e3e044ff 	mvn	r4, #-16777216	; 0xff000000
300005c0:	e58d4000 	str	r4, [sp]
300005c4:	eb000240 	bl	30000ecc <draw_rect>
300005c8:	ebffff21 	bl	30000254 <delay>
300005cc:	e3560000 	cmp	r6, #0	; 0x0
300005d0:	e59f000c 	ldr	r0, [pc, #12]	; 300005e4 <.text+0x5e4>
300005d4:	1affffe8 	bne	3000057c <lcd_task+0x18>
300005d8:	eb000088 	bl	30000800 <sleep_on>
300005dc:	e2866001 	add	r6, r6, #1	; 0x1
300005e0:	eaffffe5 	b	3000057c <lcd_task+0x18>
300005e4:	3000985c 	andcc	r9, r0, ip, asr r8

300005e8 <execv>:
300005e8:	e1a0f000 	mov	pc, r0
300005ec:	e3a00000 	mov	r0, #0	; 0x0
300005f0:	e1a0f00e 	mov	pc, lr

300005f4 <run_commond>:
300005f4:	e92d4010 	stmdb	sp!, {r4, lr}
300005f8:	e59f104c 	ldr	r1, [pc, #76]	; 3000064c <.text+0x64c>
300005fc:	e1a04000 	mov	r4, r0
30000600:	eb0008be 	bl	30002900 <strcmp>
30000604:	e3500000 	cmp	r0, #0	; 0x0
30000608:	e59f103c 	ldr	r1, [pc, #60]	; 3000064c <.text+0x64c>
3000060c:	e1a00004 	mov	r0, r4
30000610:	0a000005 	beq	3000062c <run_commond+0x38>
30000614:	ebffff77 	bl	300003f8 <romfs_task>
30000618:	e3a005cd 	mov	r0, #859832320	; 0x33400000
3000061c:	e2800601 	add	r0, r0, #1048576	; 0x100000
30000620:	e3a01001 	mov	r1, #1	; 0x1
30000624:	e8bd4010 	ldmia	sp!, {r4, lr}
30000628:	ea00008e 	b	30000868 <do_fork>
3000062c:	e1a00004 	mov	r0, r4
30000630:	eb0008b2 	bl	30002900 <strcmp>
30000634:	e3500000 	cmp	r0, #0	; 0x0
30000638:	e1a01004 	mov	r1, r4
3000063c:	e59f000c 	ldr	r0, [pc, #12]	; 30000650 <.text+0x650>
30000640:	08bd8010 	ldmeqia	sp!, {r4, pc}
30000644:	e8bd4010 	ldmia	sp!, {r4, lr}
30000648:	ea000830 	b	30002710 <printk>
3000064c:	30004658 	andcc	r4, r0, r8, asr r6
30000650:	30004188 	andcc	r4, r0, r8, lsl #3

30000654 <shell>:
30000654:	e92d4070 	stmdb	sp!, {r4, r5, r6, lr}
30000658:	e24dd020 	sub	sp, sp, #32	; 0x20
3000065c:	e1a0600d 	mov	r6, sp
30000660:	e59f0054 	ldr	r0, [pc, #84]	; 300006bc <.text+0x6bc>
30000664:	eb000829 	bl	30002710 <printk>
30000668:	e3a05000 	mov	r5, #0	; 0x0
3000066c:	ea000004 	b	30000684 <shell+0x30>
30000670:	eb00025d 	bl	30000fec <putc>
30000674:	e28d2020 	add	r2, sp, #32	; 0x20
30000678:	e0853002 	add	r3, r5, r2
3000067c:	e5434020 	strb	r4, [r3, #-32]
30000680:	e2855001 	add	r5, r5, #1	; 0x1
30000684:	eb00025f 	bl	30001008 <getc>
30000688:	e20040ff 	and	r4, r0, #255	; 0xff
3000068c:	e354000d 	cmp	r4, #13	; 0xd
30000690:	e1a00004 	mov	r0, r4
30000694:	1afffff5 	bne	30000670 <shell+0x1c>
30000698:	e28d3020 	add	r3, sp, #32	; 0x20
3000069c:	e0832005 	add	r2, r3, r5
300006a0:	e3a03000 	mov	r3, #0	; 0x0
300006a4:	e5423020 	strb	r3, [r2, #-32]
300006a8:	e59f0010 	ldr	r0, [pc, #16]	; 300006c0 <.text+0x6c0>
300006ac:	eb000817 	bl	30002710 <printk>
300006b0:	e1a00006 	mov	r0, r6
300006b4:	ebffffce 	bl	300005f4 <run_commond>
300006b8:	eaffffe8 	b	30000660 <shell+0xc>
300006bc:	30004248 	andcc	r4, r0, r8, asr #4
300006c0:	30004640 	andcc	r4, r0, r0, asr #12

300006c4 <init>:
300006c4:	e92d4030 	stmdb	sp!, {r4, r5, lr}
300006c8:	e3a05456 	mov	r5, #1442840576	; 0x56000000
300006cc:	e3a040ff 	mov	r4, #255	; 0xff
300006d0:	e24dd004 	sub	sp, sp, #4	; 0x4
300006d4:	ebffff0e 	bl	30000314 <key_init>
300006d8:	eb000230 	bl	30000fa0 <uart0_init>
300006dc:	ebfffecf 	bl	30000220 <led_init>
300006e0:	eb00020f 	bl	30000f24 <lcd_init>
300006e4:	eb00001b 	bl	30000758 <task_init>
300006e8:	eb000580 	bl	30001cf0 <sdi_init>
300006ec:	ebfffef6 	bl	300002cc <timer0_init>
300006f0:	e59f0050 	ldr	r0, [pc, #80]	; 30000748 <.text+0x748>
300006f4:	e3a01003 	mov	r1, #3	; 0x3
300006f8:	eb00005a 	bl	30000868 <do_fork>
300006fc:	e3a0000a 	mov	r0, #10	; 0xa
30000700:	e3a02032 	mov	r2, #50	; 0x32
30000704:	e3e0c010 	mvn	ip, #16	; 0x10
30000708:	e585c054 	str	ip, [r5, #84]
3000070c:	e1a01000 	mov	r1, r0
30000710:	e1a03002 	mov	r3, r2
30000714:	e58d4000 	str	r4, [sp]
30000718:	eb0001eb 	bl	30000ecc <draw_rect>
3000071c:	ebfffecc 	bl	30000254 <delay>
30000720:	e3a0000a 	mov	r0, #10	; 0xa
30000724:	e3a02032 	mov	r2, #50	; 0x32
30000728:	e3e0c4ff 	mvn	ip, #-16777216	; 0xff000000
3000072c:	e1a01000 	mov	r1, r0
30000730:	e1a03002 	mov	r3, r2
30000734:	e5854054 	str	r4, [r5, #84]
30000738:	e58dc000 	str	ip, [sp]
3000073c:	eb0001e2 	bl	30000ecc <draw_rect>
30000740:	ebfffec3 	bl	30000254 <delay>
30000744:	eaffffec 	b	300006fc <init+0x38>
30000748:	30000654 	andcc	r0, r0, r4, asr r6

3000074c <get_current>:
3000074c:	e3cd0eff 	bic	r0, sp, #4080	; 0xff0
30000750:	e3c0000f 	bic	r0, r0, #15	; 0xf
30000754:	e1a0f00e 	mov	pc, lr

30000758 <task_init>:
30000758:	e52de004 	str	lr, [sp, #-4]!
3000075c:	ebfffffa 	bl	3000074c <get_current>
30000760:	e2800f43 	add	r0, r0, #268	; 0x10c
30000764:	e49de004 	ldr	lr, [sp], #4
30000768:	ea0001f5 	b	30000f44 <list_init>

3000076c <enable_irq>:
3000076c:	e52d4004 	str	r4, [sp, #-4]!
30000770:	e10f4000 	mrs	r4, CPSR
30000774:	e3c44080 	bic	r4, r4, #128	; 0x80
30000778:	e129f004 	msr	CPSR_fc, r4
3000077c:	e8bd0010 	ldmia	sp!, {r4}
30000780:	e1a0f00e 	mov	pc, lr

30000784 <disable_irq>:
30000784:	e52d4004 	str	r4, [sp, #-4]!
30000788:	e10f4000 	mrs	r4, CPSR
3000078c:	e3844080 	orr	r4, r4, #128	; 0x80
30000790:	e129f004 	msr	CPSR_fc, r4
30000794:	e8bd0010 	ldmia	sp!, {r4}
30000798:	e1a0f00e 	mov	pc, lr

3000079c <__common_schedule>:
3000079c:	e52de004 	str	lr, [sp, #-4]!
300007a0:	ebffffe9 	bl	3000074c <get_current>
300007a4:	e5903008 	ldr	r3, [r0, #8]
300007a8:	e3530000 	cmp	r3, #0	; 0x0
300007ac:	159f3010 	ldrne	r3, [pc, #16]	; 300007c4 <.text+0x7c4>
300007b0:	05903110 	ldreq	r3, [r0, #272]
300007b4:	15932000 	ldrne	r2, [r3]
300007b8:	02430f43 	subeq	r0, r3, #268	; 0x10c
300007bc:	12420f43 	subne	r0, r2, #268	; 0x10c
300007c0:	e49df004 	ldr	pc, [sp], #4
300007c4:	30009864 	andcc	r9, r0, r4, ror #16

300007c8 <switch_to>:
300007c8:	e1a0f00e 	mov	pc, lr

300007cc <schedule>:
300007cc:	e1a0f00e 	mov	pc, lr

300007d0 <wake_up>:
300007d0:	e92d4030 	stmdb	sp!, {r4, r5, lr}
300007d4:	e1a04000 	mov	r4, r0
300007d8:	ebffffe9 	bl	30000784 <disable_irq>
300007dc:	e5945004 	ldr	r5, [r4, #4]
300007e0:	e3a03000 	mov	r3, #0	; 0x0
300007e4:	e5053104 	str	r3, [r5, #-260]
300007e8:	ebffffd7 	bl	3000074c <get_current>
300007ec:	e2801f43 	add	r1, r0, #268	; 0x10c
300007f0:	e1a00005 	mov	r0, r5
300007f4:	eb0001e4 	bl	30000f8c <list_add>
300007f8:	e8bd4030 	ldmia	sp!, {r4, r5, lr}
300007fc:	eaffffda 	b	3000076c <enable_irq>

30000800 <sleep_on>:
30000800:	e92d4030 	stmdb	sp!, {r4, r5, lr}
30000804:	e1a05000 	mov	r5, r0
30000808:	ebffffcf 	bl	3000074c <get_current>
3000080c:	e3a03001 	mov	r3, #1	; 0x1
30000810:	e5902110 	ldr	r2, [r0, #272]
30000814:	e5803008 	str	r3, [r0, #8]
30000818:	e59f3024 	ldr	r3, [pc, #36]	; 30000844 <.text+0x844>
3000081c:	e2804f43 	add	r4, r0, #268	; 0x10c
30000820:	e5832000 	str	r2, [r3]
30000824:	ebffffd6 	bl	30000784 <disable_irq>
30000828:	e1a00004 	mov	r0, r4
3000082c:	eb0001ca 	bl	30000f5c <list_del>
30000830:	e1a00004 	mov	r0, r4
30000834:	e1a01005 	mov	r1, r5
30000838:	eb0001d3 	bl	30000f8c <list_add>
3000083c:	e8bd4030 	ldmia	sp!, {r4, r5, lr}
30000840:	eaffffc9 	b	3000076c <enable_irq>
30000844:	30009864 	andcc	r9, r0, r4, ror #16

30000848 <get_task_struct_addr>:
30000848:	e59f300c 	ldr	r3, [pc, #12]	; 3000085c <.text+0x85c>
3000084c:	e5930000 	ldr	r0, [r3]
30000850:	e2802a01 	add	r2, r0, #4096	; 0x1000
30000854:	e5832000 	str	r2, [r3]
30000858:	e1a0f00e 	mov	pc, lr
3000085c:	30004748 	andcc	r4, r0, r8, asr #14

30000860 <get_cpsr>:
30000860:	e10f0000 	mrs	r0, CPSR
30000864:	e1a0f00e 	mov	pc, lr

30000868 <do_fork>:
30000868:	e92d40f0 	stmdb	sp!, {r4, r5, r6, r7, lr}
3000086c:	e1a07001 	mov	r7, r1
30000870:	e1a04000 	mov	r4, r0
30000874:	ebfffff3 	bl	30000848 <get_task_struct_addr>
30000878:	e3a06000 	mov	r6, #0	; 0x0
3000087c:	e2505000 	subs	r5, r0, #0	; 0x0
30000880:	e3a02f45 	mov	r2, #276	; 0x114
30000884:	e1a01006 	mov	r1, r6
30000888:	e3e03000 	mvn	r3, #0	; 0x0
3000088c:	0a00001a 	beq	300008fc <do_fork+0x94>
30000890:	eb0008cb 	bl	30002bc4 <memset>
30000894:	e2853eff 	add	r3, r5, #4080	; 0xff0
30000898:	e283300c 	add	r3, r3, #12	; 0xc
3000089c:	e2432004 	sub	r2, r3, #4	; 0x4
300008a0:	e5852000 	str	r2, [r5]
300008a4:	e5854ffc 	str	r4, [r5, #4092]
300008a8:	e5036004 	str	r6, [r3, #-4]
300008ac:	e5952000 	ldr	r2, [r5]
300008b0:	e2423034 	sub	r3, r2, #52	; 0x34
300008b4:	e5853000 	str	r3, [r5]
300008b8:	e5027034 	str	r7, [r2, #-52]
300008bc:	e5954000 	ldr	r4, [r5]
300008c0:	e2443004 	sub	r3, r4, #4	; 0x4
300008c4:	e5853000 	str	r3, [r5]
300008c8:	ebffffe4 	bl	30000860 <get_cpsr>
300008cc:	e200001f 	and	r0, r0, #31	; 0x1f
300008d0:	e5040004 	str	r0, [r4, #-4]
300008d4:	e5856008 	str	r6, [r5, #8]
300008d8:	ebffff9b 	bl	3000074c <get_current>
300008dc:	e5806008 	str	r6, [r0, #8]
300008e0:	ebffffa7 	bl	30000784 <disable_irq>
300008e4:	ebffff98 	bl	3000074c <get_current>
300008e8:	e2801f43 	add	r1, r0, #268	; 0x10c
300008ec:	e2850f43 	add	r0, r5, #268	; 0x10c
300008f0:	eb0001a7 	bl	30000f94 <list_add_tail>
300008f4:	ebffff9c 	bl	3000076c <enable_irq>
300008f8:	e1a03006 	mov	r3, r6
300008fc:	e1a00003 	mov	r0, r3
30000900:	e8bd80f0 	ldmia	sp!, {r4, r5, r6, r7, pc}

30000904 <exec>:
30000904:	e92d4030 	stmdb	sp!, {r4, r5, lr}
30000908:	e1a04000 	mov	r4, r0
3000090c:	eb000006 	bl	3000092c <get_free_page>
30000910:	e1a05000 	mov	r5, r0
30000914:	e1a01005 	mov	r1, r5
30000918:	e1a00004 	mov	r0, r4
3000091c:	e3a02a01 	mov	r2, #4096	; 0x1000
30000920:	eb0000a5 	bl	30000bbc <nand_read>
30000924:	e1a00005 	mov	r0, r5
30000928:	e8bd8030 	ldmia	sp!, {r4, r5, pc}

3000092c <get_free_page>:
3000092c:	e3a01dff 	mov	r1, #16320	; 0x3fc0
30000930:	e59fc03c 	ldr	ip, [pc, #60]	; 30000974 <.text+0x974>
30000934:	e281103f 	add	r1, r1, #63	; 0x3f
30000938:	e3a02000 	mov	r2, #0	; 0x0
3000093c:	e3a00432 	mov	r0, #838860800	; 0x32000000
30000940:	ea000003 	b	30000954 <get_free_page+0x28>
30000944:	e2822001 	add	r2, r2, #1	; 0x1
30000948:	e1520001 	cmp	r2, r1
3000094c:	e2800a01 	add	r0, r0, #4096	; 0x1000
30000950:	ca000005 	bgt	3000096c <get_free_page+0x40>
30000954:	e7dc3002 	ldrb	r3, [ip, r2]
30000958:	e3530000 	cmp	r3, #0	; 0x0
3000095c:	1afffff8 	bne	30000944 <get_free_page+0x18>
30000960:	e2833001 	add	r3, r3, #1	; 0x1
30000964:	e7cc3002 	strb	r3, [ip, r2]
30000968:	e1a0f00e 	mov	pc, lr
3000096c:	e3e00000 	mvn	r0, #0	; 0x0
30000970:	e1a0f00e 	mov	pc, lr
30000974:	3000485c 	andcc	r4, r0, ip, asr r8

30000978 <free_page>:
30000978:	e1a03fc0 	mov	r3, r0, asr #31
3000097c:	e59f201c 	ldr	r2, [pc, #28]	; 300009a0 <.text+0x9a0>
30000980:	e0800a23 	add	r0, r0, r3, lsr #20
30000984:	e1a00640 	mov	r0, r0, asr #12
30000988:	e7d23000 	ldrb	r3, [r2, r0]
3000098c:	e3530000 	cmp	r3, #0	; 0x0
30000990:	13a03000 	movne	r3, #0	; 0x0
30000994:	17c23000 	strneb	r3, [r2, r0]
30000998:	e3a00000 	mov	r0, #0	; 0x0
3000099c:	e1a0f00e 	mov	pc, lr
300009a0:	3000485c 	andcc	r4, r0, ip, asr r8

300009a4 <isBootFromNorFlash>:
300009a4:	e59f2020 	ldr	r2, [pc, #32]	; 300009cc <.text+0x9cc>
300009a8:	e3a01000 	mov	r1, #0	; 0x0
300009ac:	e591c000 	ldr	ip, [r1]
300009b0:	e5812000 	str	r2, [r1]
300009b4:	e1a00001 	mov	r0, r1
300009b8:	e5913000 	ldr	r3, [r1]
300009bc:	e1530002 	cmp	r3, r2
300009c0:	13a00001 	movne	r0, #1	; 0x1
300009c4:	0581c000 	streq	ip, [r1]
300009c8:	e1a0f00e 	mov	pc, lr
300009cc:	12345678 	eornes	r5, r4, #125829120	; 0x7800000

300009d0 <clear_bss>:
300009d0:	e59f301c 	ldr	r3, [pc, #28]	; 300009f4 <.text+0x9f4>
300009d4:	e59f101c 	ldr	r1, [pc, #28]	; 300009f8 <.text+0x9f8>
300009d8:	e1530001 	cmp	r3, r1
300009dc:	21a0f00e 	movcs	pc, lr
300009e0:	e3a02000 	mov	r2, #0	; 0x0
300009e4:	e4832004 	str	r2, [r3], #4
300009e8:	e1530001 	cmp	r3, r1
300009ec:	3afffffc 	bcc	300009e4 <clear_bss+0x14>
300009f0:	e1a0f00e 	mov	pc, lr
300009f4:	3000485c 	andcc	r4, r0, ip, asr r8
300009f8:	30009ca8 	andcc	r9, r0, r8, lsr #25

300009fc <nand_init>:
300009fc:	e3a0344e 	mov	r3, #1308622848	; 0x4e000000
30000a00:	e3a02c01 	mov	r2, #256	; 0x100
30000a04:	e3a01013 	mov	r1, #19	; 0x13
30000a08:	e5832000 	str	r2, [r3]
30000a0c:	e5831004 	str	r1, [r3, #4]
30000a10:	e1a0f00e 	mov	pc, lr

30000a14 <nand_select>:
30000a14:	e3a0244e 	mov	r2, #1308622848	; 0x4e000000
30000a18:	e5923004 	ldr	r3, [r2, #4]
30000a1c:	e3c33002 	bic	r3, r3, #2	; 0x2
30000a20:	e5823004 	str	r3, [r2, #4]
30000a24:	e1a0f00e 	mov	pc, lr

30000a28 <nand_deselect>:
30000a28:	e3a0244e 	mov	r2, #1308622848	; 0x4e000000
30000a2c:	e5923004 	ldr	r3, [r2, #4]
30000a30:	e3833002 	orr	r3, r3, #2	; 0x2
30000a34:	e5823004 	str	r3, [r2, #4]
30000a38:	e1a0f00e 	mov	pc, lr

30000a3c <nand_cmd>:
30000a3c:	e24dd004 	sub	sp, sp, #4	; 0x4
30000a40:	e3a0344e 	mov	r3, #1308622848	; 0x4e000000
30000a44:	e20000ff 	and	r0, r0, #255	; 0xff
30000a48:	e3a02000 	mov	r2, #0	; 0x0
30000a4c:	e5c30008 	strb	r0, [r3, #8]
30000a50:	e58d2000 	str	r2, [sp]
30000a54:	e59d3000 	ldr	r3, [sp]
30000a58:	e3530009 	cmp	r3, #9	; 0x9
30000a5c:	ca000005 	bgt	30000a78 <nand_cmd+0x3c>
30000a60:	e59d3000 	ldr	r3, [sp]
30000a64:	e2833001 	add	r3, r3, #1	; 0x1
30000a68:	e58d3000 	str	r3, [sp]
30000a6c:	e59d2000 	ldr	r2, [sp]
30000a70:	e3520009 	cmp	r2, #9	; 0x9
30000a74:	dafffff9 	ble	30000a60 <nand_cmd+0x24>
30000a78:	e28dd004 	add	sp, sp, #4	; 0x4
30000a7c:	e1a0f00e 	mov	pc, lr

30000a80 <nand_addr>:
30000a80:	e1a01a80 	mov	r1, r0, lsl #21
30000a84:	e3a0344e 	mov	r3, #1308622848	; 0x4e000000
30000a88:	e1a01aa1 	mov	r1, r1, lsr #21
30000a8c:	e5c3100c 	strb	r1, [r3, #12]
30000a90:	e24dd004 	sub	sp, sp, #4	; 0x4
30000a94:	e1a005a0 	mov	r0, r0, lsr #11
30000a98:	e28334b2 	add	r3, r3, #-1308622848	; 0xb2000000
30000a9c:	ea000001 	b	30000aa8 <nand_addr+0x28>
30000aa0:	e59d3000 	ldr	r3, [sp]
30000aa4:	e2833001 	add	r3, r3, #1	; 0x1
30000aa8:	e58d3000 	str	r3, [sp]
30000aac:	e59d2000 	ldr	r2, [sp]
30000ab0:	e3520009 	cmp	r2, #9	; 0x9
30000ab4:	dafffff9 	ble	30000aa0 <nand_addr+0x20>
30000ab8:	e3a0344e 	mov	r3, #1308622848	; 0x4e000000
30000abc:	e1a01421 	mov	r1, r1, lsr #8
30000ac0:	e3a02000 	mov	r2, #0	; 0x0
30000ac4:	e5c3100c 	strb	r1, [r3, #12]
30000ac8:	e58d2000 	str	r2, [sp]
30000acc:	e59d3000 	ldr	r3, [sp]
30000ad0:	e3530009 	cmp	r3, #9	; 0x9
30000ad4:	ca000005 	bgt	30000af0 <nand_addr+0x70>
30000ad8:	e59d3000 	ldr	r3, [sp]
30000adc:	e2833001 	add	r3, r3, #1	; 0x1
30000ae0:	e58d3000 	str	r3, [sp]
30000ae4:	e59d2000 	ldr	r2, [sp]
30000ae8:	e3520009 	cmp	r2, #9	; 0x9
30000aec:	dafffff9 	ble	30000ad8 <nand_addr+0x58>
30000af0:	e3a0344e 	mov	r3, #1308622848	; 0x4e000000
30000af4:	e3a02000 	mov	r2, #0	; 0x0
30000af8:	e5c3000c 	strb	r0, [r3, #12]
30000afc:	e58d2000 	str	r2, [sp]
30000b00:	e59d3000 	ldr	r3, [sp]
30000b04:	e3530009 	cmp	r3, #9	; 0x9
30000b08:	ca000005 	bgt	30000b24 <nand_addr+0xa4>
30000b0c:	e59d3000 	ldr	r3, [sp]
30000b10:	e2833001 	add	r3, r3, #1	; 0x1
30000b14:	e58d3000 	str	r3, [sp]
30000b18:	e59d2000 	ldr	r2, [sp]
30000b1c:	e3520009 	cmp	r2, #9	; 0x9
30000b20:	dafffff9 	ble	30000b0c <nand_addr+0x8c>
30000b24:	e3a0344e 	mov	r3, #1308622848	; 0x4e000000
30000b28:	e1a01420 	mov	r1, r0, lsr #8
30000b2c:	e3a02000 	mov	r2, #0	; 0x0
30000b30:	e5c3100c 	strb	r1, [r3, #12]
30000b34:	e58d2000 	str	r2, [sp]
30000b38:	e59d3000 	ldr	r3, [sp]
30000b3c:	e3530009 	cmp	r3, #9	; 0x9
30000b40:	ca000005 	bgt	30000b5c <nand_addr+0xdc>
30000b44:	e59d3000 	ldr	r3, [sp]
30000b48:	e2833001 	add	r3, r3, #1	; 0x1
30000b4c:	e58d3000 	str	r3, [sp]
30000b50:	e59d2000 	ldr	r2, [sp]
30000b54:	e3520009 	cmp	r2, #9	; 0x9
30000b58:	dafffff9 	ble	30000b44 <nand_addr+0xc4>
30000b5c:	e3a0344e 	mov	r3, #1308622848	; 0x4e000000
30000b60:	e1a01820 	mov	r1, r0, lsr #16
30000b64:	e3a02000 	mov	r2, #0	; 0x0
30000b68:	e5c3100c 	strb	r1, [r3, #12]
30000b6c:	e58d2000 	str	r2, [sp]
30000b70:	e59d3000 	ldr	r3, [sp]
30000b74:	e3530009 	cmp	r3, #9	; 0x9
30000b78:	ca000005 	bgt	30000b94 <nand_addr+0x114>
30000b7c:	e59d3000 	ldr	r3, [sp]
30000b80:	e2833001 	add	r3, r3, #1	; 0x1
30000b84:	e58d3000 	str	r3, [sp]
30000b88:	e59d2000 	ldr	r2, [sp]
30000b8c:	e3520009 	cmp	r2, #9	; 0x9
30000b90:	dafffff9 	ble	30000b7c <nand_addr+0xfc>
30000b94:	e28dd004 	add	sp, sp, #4	; 0x4
30000b98:	e1a0f00e 	mov	pc, lr

30000b9c <nand_wait_ready>:
30000b9c:	e3a0244e 	mov	r2, #1308622848	; 0x4e000000
30000ba0:	e5d23020 	ldrb	r3, [r2, #32]
30000ba4:	e3130001 	tst	r3, #1	; 0x1
30000ba8:	0afffffc 	beq	30000ba0 <nand_wait_ready+0x4>
30000bac:	e1a0f00e 	mov	pc, lr

30000bb0 <nand_data>:
30000bb0:	e3a0344e 	mov	r3, #1308622848	; 0x4e000000
30000bb4:	e5d30010 	ldrb	r0, [r3, #16]
30000bb8:	e1a0f00e 	mov	pc, lr

30000bbc <nand_read>:
30000bbc:	e92d45f0 	stmdb	sp!, {r4, r5, r6, r7, r8, sl, lr}
30000bc0:	e1a06000 	mov	r6, r0
30000bc4:	e1a07002 	mov	r7, r2
30000bc8:	e3a05000 	mov	r5, #0	; 0x0
30000bcc:	e1a0a001 	mov	sl, r1
30000bd0:	e1a04a86 	mov	r4, r6, lsl #21
30000bd4:	ebffff8e 	bl	30000a14 <nand_select>
30000bd8:	e1550007 	cmp	r5, r7
30000bdc:	e1a04aa4 	mov	r4, r4, lsr #21
30000be0:	2a00001f 	bcs	30000c64 <nand_read+0xa8>
30000be4:	e3a00000 	mov	r0, #0	; 0x0
30000be8:	ebffff93 	bl	30000a3c <nand_cmd>
30000bec:	e1a00006 	mov	r0, r6
30000bf0:	ebffffa2 	bl	30000a80 <nand_addr>
30000bf4:	e3a00030 	mov	r0, #48	; 0x30
30000bf8:	ebffff8f 	bl	30000a3c <nand_cmd>
30000bfc:	ebffffe6 	bl	30000b9c <nand_wait_ready>
30000c00:	e3a02e7f 	mov	r2, #2032	; 0x7f0
30000c04:	e282200f 	add	r2, r2, #15	; 0xf
30000c08:	e1540002 	cmp	r4, r2
30000c0c:	c3a03000 	movgt	r3, #0	; 0x0
30000c10:	d3a03001 	movle	r3, #1	; 0x1
30000c14:	e1550007 	cmp	r5, r7
30000c18:	23a03000 	movcs	r3, #0	; 0x0
30000c1c:	e3530000 	cmp	r3, #0	; 0x0
30000c20:	0a00000c 	beq	30000c58 <nand_read+0x9c>
30000c24:	e1a08002 	mov	r8, r2
30000c28:	ebffffe0 	bl	30000bb0 <nand_data>
30000c2c:	e2844001 	add	r4, r4, #1	; 0x1
30000c30:	e7ca0005 	strb	r0, [sl, r5]
30000c34:	e2855001 	add	r5, r5, #1	; 0x1
30000c38:	e1540008 	cmp	r4, r8
30000c3c:	c3a03000 	movgt	r3, #0	; 0x0
30000c40:	d3a03001 	movle	r3, #1	; 0x1
30000c44:	e1550007 	cmp	r5, r7
30000c48:	23a03000 	movcs	r3, #0	; 0x0
30000c4c:	e3530000 	cmp	r3, #0	; 0x0
30000c50:	e2866001 	add	r6, r6, #1	; 0x1
30000c54:	1afffff3 	bne	30000c28 <nand_read+0x6c>
30000c58:	e1550007 	cmp	r5, r7
30000c5c:	e3a04000 	mov	r4, #0	; 0x0
30000c60:	3affffdf 	bcc	30000be4 <nand_read+0x28>
30000c64:	e8bd45f0 	ldmia	sp!, {r4, r5, r6, r7, r8, sl, lr}
30000c68:	eaffff6e 	b	30000a28 <nand_deselect>

30000c6c <copy_code_to_sdram>:
30000c6c:	e92d4070 	stmdb	sp!, {r4, r5, r6, lr}
30000c70:	e1a04002 	mov	r4, r2
30000c74:	e1a05000 	mov	r5, r0
30000c78:	e1a06001 	mov	r6, r1
30000c7c:	ebffff48 	bl	300009a4 <isBootFromNorFlash>
30000c80:	e3500000 	cmp	r0, #0	; 0x0
30000c84:	e3a02000 	mov	r2, #0	; 0x0
30000c88:	0a000007 	beq	30000cac <copy_code_to_sdram+0x40>
30000c8c:	e1520004 	cmp	r2, r4
30000c90:	28bd8070 	ldmcsia	sp!, {r4, r5, r6, pc}
30000c94:	e7d53002 	ldrb	r3, [r5, r2]
30000c98:	e7c63002 	strb	r3, [r6, r2]
30000c9c:	e2822001 	add	r2, r2, #1	; 0x1
30000ca0:	e1520004 	cmp	r2, r4
30000ca4:	3afffffa 	bcc	30000c94 <copy_code_to_sdram+0x28>
30000ca8:	e8bd8070 	ldmia	sp!, {r4, r5, r6, pc}
30000cac:	e1a00005 	mov	r0, r5
30000cb0:	e1a01006 	mov	r1, r6
30000cb4:	e1a02004 	mov	r2, r4
30000cb8:	e8bd4070 	ldmia	sp!, {r4, r5, r6, lr}
30000cbc:	eaffffbe 	b	30000bbc <nand_read>

30000cc0 <lcd_port_init>:
30000cc0:	e3a02caa 	mov	r2, #43520	; 0xaa00
30000cc4:	e28220aa 	add	r2, r2, #170	; 0xaa
30000cc8:	e3a01456 	mov	r1, #1442840576	; 0x56000000
30000ccc:	e1822802 	orr	r2, r2, r2, lsl #16
30000cd0:	e3e03000 	mvn	r3, #0	; 0x0
30000cd4:	e5813028 	str	r3, [r1, #40]
30000cd8:	e5812020 	str	r2, [r1, #32]
30000cdc:	e5813038 	str	r3, [r1, #56]
30000ce0:	e5812030 	str	r2, [r1, #48]
30000ce4:	e5913010 	ldr	r3, [r1, #16]
30000ce8:	e3c33003 	bic	r3, r3, #3	; 0x3
30000cec:	e5813010 	str	r3, [r1, #16]
30000cf0:	e5912010 	ldr	r2, [r1, #16]
30000cf4:	e3822001 	orr	r2, r2, #1	; 0x1
30000cf8:	e5812010 	str	r2, [r1, #16]
30000cfc:	e5913014 	ldr	r3, [r1, #20]
30000d00:	e3c33001 	bic	r3, r3, #1	; 0x1
30000d04:	e5813014 	str	r3, [r1, #20]
30000d08:	e1a0f00e 	mov	pc, lr

30000d0c <lcd_controler_init>:
30000d0c:	e92d4010 	stmdb	sp!, {r4, lr}
30000d10:	e3a02505 	mov	r2, #20971520	; 0x1400000
30000d14:	e3a01a9d 	mov	r1, #643072	; 0x9d000
30000d18:	e282290f 	add	r2, r2, #245760	; 0x3c000
30000d1c:	e3a00e47 	mov	r0, #1136	; 0x470
30000d20:	e3a0344d 	mov	r3, #1291845632	; 0x4d000000
30000d24:	e2822049 	add	r2, r2, #73	; 0x49
30000d28:	e2811c0f 	add	r1, r1, #3840	; 0xf00
30000d2c:	e2800008 	add	r0, r0, #8	; 0x8
30000d30:	e2811001 	add	r1, r1, #1	; 0x1
30000d34:	e3a0cc0b 	mov	ip, #2816	; 0xb00
30000d38:	e5830000 	str	r0, [r3]
30000d3c:	e3a0e306 	mov	lr, #402653184	; 0x18000000
30000d40:	e3a04b7f 	mov	r4, #130048	; 0x1fc00
30000d44:	e28cc002 	add	ip, ip, #2	; 0x2
30000d48:	e28ee602 	add	lr, lr, #2097152	; 0x200000
30000d4c:	e5832004 	str	r2, [r3, #4]
30000d50:	e3a02028 	mov	r2, #40	; 0x28
30000d54:	e2844c02 	add	r4, r4, #512	; 0x200
30000d58:	e5831008 	str	r1, [r3, #8]
30000d5c:	e3a01000 	mov	r1, #0	; 0x0
30000d60:	e583200c 	str	r2, [r3, #12]
30000d64:	e2822f6e 	add	r2, r2, #440	; 0x1b8
30000d68:	e583c010 	str	ip, [r3, #16]
30000d6c:	e583e014 	str	lr, [r3, #20]
30000d70:	e5834018 	str	r4, [r3, #24]
30000d74:	e583201c 	str	r2, [r3, #28]
30000d78:	e5831050 	str	r1, [r3, #80]
30000d7c:	e8bd8010 	ldmia	sp!, {r4, pc}

30000d80 <lcd_power_enable>:
30000d80:	e3a01456 	mov	r1, #1442840576	; 0x56000000
30000d84:	e5913060 	ldr	r3, [r1, #96]
30000d88:	e3833c03 	orr	r3, r3, #768	; 0x300
30000d8c:	e5813060 	str	r3, [r1, #96]
30000d90:	e3a0044d 	mov	r0, #1291845632	; 0x4d000000
30000d94:	e5913068 	ldr	r3, [r1, #104]
30000d98:	e3833010 	orr	r3, r3, #16	; 0x10
30000d9c:	e5813068 	str	r3, [r1, #104]
30000da0:	e5902010 	ldr	r2, [r0, #16]
30000da4:	e3c22020 	bic	r2, r2, #32	; 0x20
30000da8:	e5802010 	str	r2, [r0, #16]
30000dac:	e5903010 	ldr	r3, [r0, #16]
30000db0:	e3833008 	orr	r3, r3, #8	; 0x8
30000db4:	e5803010 	str	r3, [r0, #16]
30000db8:	e1a0f00e 	mov	pc, lr

30000dbc <lcd_envid_on>:
30000dbc:	e3a0244d 	mov	r2, #1291845632	; 0x4d000000
30000dc0:	e5923000 	ldr	r3, [r2]
30000dc4:	e3833001 	orr	r3, r3, #1	; 0x1
30000dc8:	e5823000 	str	r3, [r2]
30000dcc:	e3a01456 	mov	r1, #1442840576	; 0x56000000
30000dd0:	e5913014 	ldr	r3, [r1, #20]
30000dd4:	e3833001 	orr	r3, r3, #1	; 0x1
30000dd8:	e5813014 	str	r3, [r1, #20]
30000ddc:	e1a0f00e 	mov	pc, lr

30000de0 <lcd_envid_off>:
30000de0:	e3a0144d 	mov	r1, #1291845632	; 0x4d000000
30000de4:	e5913000 	ldr	r3, [r1]
30000de8:	e3c3337f 	bic	r3, r3, #-67108863	; 0xfc000001
30000dec:	e3c337ff 	bic	r3, r3, #66846720	; 0x3fc0000
30000df0:	e5813000 	str	r3, [r1]
30000df4:	e3a02456 	mov	r2, #1442840576	; 0x56000000
30000df8:	e5923014 	ldr	r3, [r2, #20]
30000dfc:	e3c33001 	bic	r3, r3, #1	; 0x1
30000e00:	e5823014 	str	r3, [r2, #20]
30000e04:	e1a0f00e 	mov	pc, lr

30000e08 <draw_pixel>:
30000e08:	e52de004 	str	lr, [sp, #-4]!
30000e0c:	e59f3044 	ldr	r3, [pc, #68]	; 30000e58 <.text+0xe58>
30000e10:	e593c000 	ldr	ip, [r3]
30000e14:	e02e019c 	mla	lr, ip, r1, r0
30000e18:	e1a032a2 	mov	r3, r2, lsr #5
30000e1c:	e1a0c002 	mov	ip, r2
30000e20:	e1a01422 	mov	r1, r2, lsr #8
30000e24:	e59f2030 	ldr	r2, [pc, #48]	; 30000e5c <.text+0xe5c>
30000e28:	e2033e7e 	and	r3, r3, #2016	; 0x7e0
30000e2c:	e2011b3e 	and	r1, r1, #63488	; 0xf800
30000e30:	e5920000 	ldr	r0, [r2]
30000e34:	e1811003 	orr	r1, r1, r3
30000e38:	e1a03c0c 	mov	r3, ip, lsl #24
30000e3c:	e181cda3 	orr	ip, r1, r3, lsr #27
30000e40:	e1a0e08e 	mov	lr, lr, lsl #1
30000e44:	e1a0244c 	mov	r2, ip, asr #8
30000e48:	e08e3000 	add	r3, lr, r0
30000e4c:	e7cec000 	strb	ip, [lr, r0]
30000e50:	e5c32001 	strb	r2, [r3, #1]
30000e54:	e49df004 	ldr	pc, [sp], #4
30000e58:	30004750 	andcc	r4, r0, r0, asr r7
30000e5c:	30004754 	andcc	r4, r0, r4, asr r7

30000e60 <clear_screen>:
30000e60:	e92d41f0 	stmdb	sp!, {r4, r5, r6, r7, r8, lr}
30000e64:	e59f8058 	ldr	r8, [pc, #88]	; 30000ec4 <.text+0xec4>
30000e68:	e5983000 	ldr	r3, [r8]
30000e6c:	e3a05000 	mov	r5, #0	; 0x0
30000e70:	e1550003 	cmp	r5, r3
30000e74:	e1a06000 	mov	r6, r0
30000e78:	28bd81f0 	ldmcsia	sp!, {r4, r5, r6, r7, r8, pc}
30000e7c:	e59f7044 	ldr	r7, [pc, #68]	; 30000ec8 <.text+0xec8>
30000e80:	e5973000 	ldr	r3, [r7]
30000e84:	e3a04000 	mov	r4, #0	; 0x0
30000e88:	e1540003 	cmp	r4, r3
30000e8c:	2a000007 	bcs	30000eb0 <clear_screen+0x50>
30000e90:	e1a00004 	mov	r0, r4
30000e94:	e1a01005 	mov	r1, r5
30000e98:	e1a02006 	mov	r2, r6
30000e9c:	ebffffd9 	bl	30000e08 <draw_pixel>
30000ea0:	e2844001 	add	r4, r4, #1	; 0x1
30000ea4:	e5973000 	ldr	r3, [r7]
30000ea8:	e1540003 	cmp	r4, r3
30000eac:	3afffff7 	bcc	30000e90 <clear_screen+0x30>
30000eb0:	e5983000 	ldr	r3, [r8]
30000eb4:	e2855001 	add	r5, r5, #1	; 0x1
30000eb8:	e1550003 	cmp	r5, r3
30000ebc:	3affffef 	bcc	30000e80 <clear_screen+0x20>
30000ec0:	e8bd81f0 	ldmia	sp!, {r4, r5, r6, r7, r8, pc}
30000ec4:	3000474c 	andcc	r4, r0, ip, asr #14
30000ec8:	30004750 	andcc	r4, r0, r0, asr r7

30000ecc <draw_rect>:
30000ecc:	e92d45f0 	stmdb	sp!, {r4, r5, r6, r7, r8, sl, lr}
30000ed0:	e1510003 	cmp	r1, r3
30000ed4:	e1a0a003 	mov	sl, r3
30000ed8:	e1a05001 	mov	r5, r1
30000edc:	e1a08000 	mov	r8, r0
30000ee0:	e1a06002 	mov	r6, r2
30000ee4:	e59d701c 	ldr	r7, [sp, #28]
30000ee8:	28bd85f0 	ldmcsia	sp!, {r4, r5, r6, r7, r8, sl, pc}
30000eec:	e1a04008 	mov	r4, r8
30000ef0:	e1540006 	cmp	r4, r6
30000ef4:	2a000006 	bcs	30000f14 <draw_rect+0x48>
30000ef8:	e1a00004 	mov	r0, r4
30000efc:	e1a01005 	mov	r1, r5
30000f00:	e1a02007 	mov	r2, r7
30000f04:	e2844001 	add	r4, r4, #1	; 0x1
30000f08:	ebffffbe 	bl	30000e08 <draw_pixel>
30000f0c:	e1540006 	cmp	r4, r6
30000f10:	3afffff8 	bcc	30000ef8 <draw_rect+0x2c>
30000f14:	e2855001 	add	r5, r5, #1	; 0x1
30000f18:	e155000a 	cmp	r5, sl
30000f1c:	3afffff2 	bcc	30000eec <draw_rect+0x20>
30000f20:	e8bd85f0 	ldmia	sp!, {r4, r5, r6, r7, r8, sl, pc}

30000f24 <lcd_init>:
30000f24:	e52de004 	str	lr, [sp, #-4]!
30000f28:	ebffff64 	bl	30000cc0 <lcd_port_init>
30000f2c:	ebffff76 	bl	30000d0c <lcd_controler_init>
30000f30:	ebffff92 	bl	30000d80 <lcd_power_enable>
30000f34:	e3e004ff 	mvn	r0, #-16777216	; 0xff000000
30000f38:	ebffffc8 	bl	30000e60 <clear_screen>
30000f3c:	e49de004 	ldr	lr, [sp], #4
30000f40:	eaffff9d 	b	30000dbc <lcd_envid_on>

30000f44 <list_init>:
30000f44:	e5800004 	str	r0, [r0, #4]
30000f48:	e5800000 	str	r0, [r0]
30000f4c:	e1a0f00e 	mov	pc, lr

30000f50 <__list_del>:
30000f50:	e5801004 	str	r1, [r0, #4]
30000f54:	e5810000 	str	r0, [r1]
30000f58:	e1a0f00e 	mov	pc, lr

30000f5c <list_del>:
30000f5c:	e8900003 	ldmia	r0, {r0, r1}
30000f60:	eafffffa 	b	30000f50 <__list_del>

30000f64 <list_empty>:
30000f64:	e5903004 	ldr	r3, [r0, #4]
30000f68:	e1530000 	cmp	r3, r0
30000f6c:	13a00000 	movne	r0, #0	; 0x0
30000f70:	03a00001 	moveq	r0, #1	; 0x1
30000f74:	e1a0f00e 	mov	pc, lr

30000f78 <__list_add>:
30000f78:	e5802004 	str	r2, [r0, #4]
30000f7c:	e5820000 	str	r0, [r2]
30000f80:	e5810004 	str	r0, [r1, #4]
30000f84:	e5801000 	str	r1, [r0]
30000f88:	e1a0f00e 	mov	pc, lr

30000f8c <list_add>:
30000f8c:	e5912004 	ldr	r2, [r1, #4]
30000f90:	eafffff8 	b	30000f78 <__list_add>

30000f94 <list_add_tail>:
30000f94:	e1a02001 	mov	r2, r1
30000f98:	e5911000 	ldr	r1, [r1]
30000f9c:	eafffff5 	b	30000f78 <__list_add>

30000fa0 <uart0_init>:
30000fa0:	e3a01456 	mov	r1, #1442840576	; 0x56000000
30000fa4:	e5913070 	ldr	r3, [r1, #112]
30000fa8:	e38330a0 	orr	r3, r3, #160	; 0xa0
30000fac:	e5813070 	str	r3, [r1, #112]
30000fb0:	e3a0c205 	mov	ip, #1342177280	; 0x50000000
30000fb4:	e3a0200c 	mov	r2, #12	; 0xc
30000fb8:	e3a03003 	mov	r3, #3	; 0x3
30000fbc:	e3a00000 	mov	r0, #0	; 0x0
30000fc0:	e5812078 	str	r2, [r1, #120]
30000fc4:	e242224b 	sub	r2, r2, #-1342177276	; 0xb0000004
30000fc8:	e3a01005 	mov	r1, #5	; 0x5
30000fcc:	e58c3000 	str	r3, [ip]
30000fd0:	e2833215 	add	r3, r3, #1342177281	; 0x50000001
30000fd4:	e4831008 	str	r1, [r3], #8
30000fd8:	e5820000 	str	r0, [r2]
30000fdc:	e3a0201a 	mov	r2, #26	; 0x1a
30000fe0:	e5830000 	str	r0, [r3]
30000fe4:	e58c2028 	str	r2, [ip, #40]
30000fe8:	e1a0f00e 	mov	pc, lr

30000fec <putc>:
30000fec:	e20000ff 	and	r0, r0, #255	; 0xff
30000ff0:	e3a02205 	mov	r2, #1342177280	; 0x50000000
30000ff4:	e5923010 	ldr	r3, [r2, #16]
30000ff8:	e3130004 	tst	r3, #4	; 0x4
30000ffc:	0afffffc 	beq	30000ff4 <putc+0x8>
30001000:	e5c20020 	strb	r0, [r2, #32]
30001004:	e1a0f00e 	mov	pc, lr

30001008 <getc>:
30001008:	e3a02205 	mov	r2, #1342177280	; 0x50000000
3000100c:	e5923010 	ldr	r3, [r2, #16]
30001010:	e3130001 	tst	r3, #1	; 0x1
30001014:	0afffffc 	beq	3000100c <getc+0x4>
30001018:	e5d20024 	ldrb	r0, [r2, #36]
3000101c:	e1a0f00e 	mov	pc, lr

30001020 <puts>:
30001020:	e92d4010 	stmdb	sp!, {r4, lr}
30001024:	e1a04000 	mov	r4, r0
30001028:	e5d00000 	ldrb	r0, [r0]
3000102c:	e3500000 	cmp	r0, #0	; 0x0
30001030:	08bd8010 	ldmeqia	sp!, {r4, pc}
30001034:	ebffffec 	bl	30000fec <putc>
30001038:	e5f40001 	ldrb	r0, [r4, #1]!
3000103c:	e3500000 	cmp	r0, #0	; 0x0
30001040:	1afffffb 	bne	30001034 <puts+0x14>
30001044:	e8bd8010 	ldmia	sp!, {r4, pc}

30001048 <gets>:
30001048:	e92d4010 	stmdb	sp!, {r4, lr}
3000104c:	e1a04000 	mov	r4, r0
30001050:	e5d03000 	ldrb	r3, [r0]
30001054:	ea000002 	b	30001064 <gets+0x1c>
30001058:	ebffffea 	bl	30001008 <getc>
3000105c:	e5c40000 	strb	r0, [r4]
30001060:	e5f43001 	ldrb	r3, [r4, #1]!
30001064:	e353000d 	cmp	r3, #13	; 0xd
30001068:	1afffffa 	bne	30001058 <gets+0x10>
3000106c:	e1a00004 	mov	r0, r4
30001070:	e8bd8010 	ldmia	sp!, {r4, pc}

30001074 <bmap>:
30001074:	e92d4070 	stmdb	sp!, {r4, r5, r6, lr}
30001078:	e1a04001 	mov	r4, r1
3000107c:	e1a06000 	mov	r6, r0
30001080:	e3a0102f 	mov	r1, #47	; 0x2f
30001084:	e1a00004 	mov	r0, r4
30001088:	eb00063a 	bl	30002978 <strchr>
3000108c:	e2505000 	subs	r5, r0, #0	; 0x0
30001090:	e1a01004 	mov	r1, r4
30001094:	e1a00006 	mov	r0, r6
30001098:	e0642005 	rsb	r2, r4, r5
3000109c:	0a000006 	beq	300010bc <bmap+0x48>
300010a0:	e3520080 	cmp	r2, #128	; 0x80
300010a4:	23a02080 	movcs	r2, #128	; 0x80
300010a8:	e1a00006 	mov	r0, r6
300010ac:	e1a01004 	mov	r1, r4
300010b0:	eb0005ec 	bl	30002868 <strncpy>
300010b4:	e2850001 	add	r0, r5, #1	; 0x1
300010b8:	e8bd8070 	ldmia	sp!, {r4, r5, r6, pc}
300010bc:	eb0005e2 	bl	3000284c <strcpy>
300010c0:	e1a00005 	mov	r0, r5
300010c4:	e8bd8070 	ldmia	sp!, {r4, r5, r6, pc}

300010c8 <romfs_get_daddr>:
300010c8:	e92d4030 	stmdb	sp!, {r4, r5, lr}
300010cc:	e1a04000 	mov	r4, r0
300010d0:	eb000635 	bl	300029ac <strlen>
300010d4:	e1a05000 	mov	r5, r0
300010d8:	e59f0024 	ldr	r0, [pc, #36]	; 30001104 <.text+0x1104>
300010dc:	eb00058b 	bl	30002710 <printk>
300010e0:	e1a01005 	mov	r1, r5
300010e4:	e59f001c 	ldr	r0, [pc, #28]	; 30001108 <.text+0x1108>
300010e8:	eb000588 	bl	30002710 <printk>
300010ec:	e2855010 	add	r5, r5, #16	; 0x10
300010f0:	e594303c 	ldr	r3, [r4, #60]
300010f4:	e3c5500f 	bic	r5, r5, #15	; 0xf
300010f8:	e0855003 	add	r5, r5, r3
300010fc:	e2850010 	add	r0, r5, #16	; 0x10
30001100:	e8bd8030 	ldmia	sp!, {r4, r5, pc}
30001104:	3000425c 	andcc	r4, r0, ip, asr r2
30001108:	30004278 	andcc	r4, r0, r8, ror r2

3000110c <simple_romfs_namei>:
3000110c:	e92d4ff0 	stmdb	sp!, {r4, r5, r6, r7, r8, r9, sl, fp, lr}
30001110:	e59fb1f8 	ldr	fp, [pc, #504]	; 30001310 <.text+0x1310>
30001114:	e24ddf43 	sub	sp, sp, #268	; 0x10c
30001118:	e58d0008 	str	r0, [sp, #8]
3000111c:	e59f01f0 	ldr	r0, [pc, #496]	; 30001314 <.text+0x1314>
30001120:	e58d2004 	str	r2, [sp, #4]
30001124:	eb000579 	bl	30002710 <printk>
30001128:	e59d1004 	ldr	r1, [sp, #4]
3000112c:	e5d13000 	ldrb	r3, [r1]
30001130:	e3530000 	cmp	r3, #0	; 0x0
30001134:	e1a02001 	mov	r2, r1
30001138:	e3a0c000 	mov	ip, #0	; 0x0
3000113c:	0a000007 	beq	30001160 <simple_romfs_namei+0x54>
30001140:	e353002f 	cmp	r3, #47	; 0x2f
30001144:	128d100c 	addne	r1, sp, #12	; 0xc
30001148:	17c1300c 	strneb	r3, [r1, ip]
3000114c:	03a0c000 	moveq	ip, #0	; 0x0
30001150:	128cc001 	addne	ip, ip, #1	; 0x1
30001154:	e5f23001 	ldrb	r3, [r2, #1]!
30001158:	e3530000 	cmp	r3, #0	; 0x0
3000115c:	1afffff7 	bne	30001140 <simple_romfs_namei+0x34>
30001160:	e3a04000 	mov	r4, #0	; 0x0
30001164:	e28d200c 	add	r2, sp, #12	; 0xc
30001168:	e59d1004 	ldr	r1, [sp, #4]
3000116c:	e28d008c 	add	r0, sp, #140	; 0x8c
30001170:	e7c2400c 	strb	r4, [r2, ip]
30001174:	ebffffbe 	bl	30001074 <bmap>
30001178:	e28d308c 	add	r3, sp, #140	; 0x8c
3000117c:	e1a01000 	mov	r1, r0
30001180:	e58d0004 	str	r0, [sp, #4]
30001184:	e28d200c 	add	r2, sp, #12	; 0xc
30001188:	e59f0188 	ldr	r0, [pc, #392]	; 30001318 <.text+0x1318>
3000118c:	eb00055f 	bl	30002710 <printk>
30001190:	e1a01004 	mov	r1, r4
30001194:	e3a02001 	mov	r2, #1	; 0x1
30001198:	e59f0170 	ldr	r0, [pc, #368]	; 30001310 <.text+0x1310>
3000119c:	eb0001b3 	bl	30001870 <sd_read_sector>
300011a0:	e59f0174 	ldr	r0, [pc, #372]	; 3000131c <.text+0x131c>
300011a4:	eb000600 	bl	300029ac <strlen>
300011a8:	e2800020 	add	r0, r0, #32	; 0x20
300011ac:	e3c0000f 	bic	r0, r0, #15	; 0xf
300011b0:	e1a04c00 	mov	r4, r0, lsl #24
300011b4:	e20490ff 	and	r9, r4, #255	; 0xff
300011b8:	e204acff 	and	sl, r4, #65280	; 0xff00
300011bc:	e20488ff 	and	r8, r4, #16711680	; 0xff0000
300011c0:	e20474ff 	and	r7, r4, #-16777216	; 0xff000000
300011c4:	e59f0154 	ldr	r0, [pc, #340]	; 30001320 <.text+0x1320>
300011c8:	eb000550 	bl	30002710 <printk>
300011cc:	e1a0340a 	mov	r3, sl, lsl #8
300011d0:	e1833c09 	orr	r3, r3, r9, lsl #24
300011d4:	e1833428 	orr	r3, r3, r8, lsr #8
300011d8:	e1833c27 	orr	r3, r3, r7, lsr #24
300011dc:	e3c3600f 	bic	r6, r3, #15	; 0xf
300011e0:	e1a01006 	mov	r1, r6
300011e4:	e1a02006 	mov	r2, r6
300011e8:	e1a03004 	mov	r3, r4
300011ec:	e59f0130 	ldr	r0, [pc, #304]	; 30001324 <.text+0x1324>
300011f0:	e1a054a6 	mov	r5, r6, lsr #9
300011f4:	e58d4000 	str	r4, [sp]
300011f8:	eb000544 	bl	30002710 <printk>
300011fc:	e3560000 	cmp	r6, #0	; 0x0
30001200:	e3a02001 	mov	r2, #1	; 0x1
30001204:	e1a01005 	mov	r1, r5
30001208:	e1a0000b 	mov	r0, fp
3000120c:	0affffec 	beq	300011c4 <simple_romfs_namei+0xb8>
30001210:	eb000196 	bl	30001870 <sd_read_sector>
30001214:	e08b3006 	add	r3, fp, r6
30001218:	e1a0b003 	mov	fp, r3
3000121c:	e73b1485 	ldr	r1, [fp, -r5, lsl #9]!
30001220:	e59f0100 	ldr	r0, [pc, #256]	; 30001328 <.text+0x1328>
30001224:	eb000539 	bl	30002710 <printk>
30001228:	e59b1004 	ldr	r1, [fp, #4]
3000122c:	e59f00f8 	ldr	r0, [pc, #248]	; 3000132c <.text+0x132c>
30001230:	eb000536 	bl	30002710 <printk>
30001234:	e59b1008 	ldr	r1, [fp, #8]
30001238:	e59f00f0 	ldr	r0, [pc, #240]	; 30001330 <.text+0x1330>
3000123c:	eb000533 	bl	30002710 <printk>
30001240:	e28b5010 	add	r5, fp, #16	; 0x10
30001244:	e59b100c 	ldr	r1, [fp, #12]
30001248:	e59f00e4 	ldr	r0, [pc, #228]	; 30001334 <.text+0x1334>
3000124c:	eb00052f 	bl	30002710 <printk>
30001250:	e1a01005 	mov	r1, r5
30001254:	e59f00dc 	ldr	r0, [pc, #220]	; 30001338 <.text+0x1338>
30001258:	eb00052c 	bl	30002710 <printk>
3000125c:	e28d108c 	add	r1, sp, #140	; 0x8c
30001260:	e1a00005 	mov	r0, r5
30001264:	eb0005a5 	bl	30002900 <strcmp>
30001268:	e3500000 	cmp	r0, #0	; 0x0
3000126c:	e28d100c 	add	r1, sp, #12	; 0xc
30001270:	e28d008c 	add	r0, sp, #140	; 0x8c
30001274:	159b4000 	ldrne	r4, [fp]
30001278:	1affffcd 	bne	300011b4 <simple_romfs_namei+0xa8>
3000127c:	eb00059f 	bl	30002900 <strcmp>
30001280:	e3500000 	cmp	r0, #0	; 0x0
30001284:	e59d1004 	ldr	r1, [sp, #4]
30001288:	e28d008c 	add	r0, sp, #140	; 0x8c
3000128c:	0a00001d 	beq	30001308 <simple_romfs_namei+0x1fc>
30001290:	ebffff77 	bl	30001074 <bmap>
30001294:	e28d308c 	add	r3, sp, #140	; 0x8c
30001298:	e58d0004 	str	r0, [sp, #4]
3000129c:	e1a01000 	mov	r1, r0
300012a0:	e28d200c 	add	r2, sp, #12	; 0xc
300012a4:	e59f006c 	ldr	r0, [pc, #108]	; 30001318 <.text+0x1318>
300012a8:	eb000518 	bl	30002710 <printk>
300012ac:	e59d3004 	ldr	r3, [sp, #4]
300012b0:	e3530000 	cmp	r3, #0	; 0x0
300012b4:	e59b4004 	ldr	r4, [fp, #4]
300012b8:	1affffbd 	bne	300011b4 <simple_romfs_namei+0xa8>
300012bc:	e59f0078 	ldr	r0, [pc, #120]	; 3000133c <.text+0x133c>
300012c0:	eb000512 	bl	30002710 <printk>
300012c4:	e59f0074 	ldr	r0, [pc, #116]	; 30001340 <.text+0x1340>
300012c8:	eb000510 	bl	30002710 <printk>
300012cc:	e1a01005 	mov	r1, r5
300012d0:	e59d0008 	ldr	r0, [sp, #8]
300012d4:	eb00055c 	bl	3000284c <strcpy>
300012d8:	e59b3008 	ldr	r3, [fp, #8]
300012dc:	e2032cff 	and	r2, r3, #65280	; 0xff00
300012e0:	e1a02402 	mov	r2, r2, lsl #8
300012e4:	e20318ff 	and	r1, r3, #16711680	; 0xff0000
300012e8:	e1822c03 	orr	r2, r2, r3, lsl #24
300012ec:	e1822421 	orr	r2, r2, r1, lsr #8
300012f0:	e59d1008 	ldr	r1, [sp, #8]
300012f4:	e1822c23 	orr	r2, r2, r3, lsr #24
300012f8:	e581603c 	str	r6, [r1, #60]
300012fc:	e5812038 	str	r2, [r1, #56]
30001300:	e28ddf43 	add	sp, sp, #268	; 0x10c
30001304:	e8bd8ff0 	ldmia	sp!, {r4, r5, r6, r7, r8, r9, sl, fp, pc}
30001308:	e59f0034 	ldr	r0, [pc, #52]	; 30001344 <.text+0x1344>
3000130c:	eaffffeb 	b	300012c0 <simple_romfs_namei+0x1b4>
30001310:	30009868 	andcc	r9, r0, r8, ror #16
30001314:	3000429c 	mulcc	r0, ip, r2
30001318:	300042bc 	strcch	r4, [r0], -ip
3000131c:	30009878 	andcc	r9, r0, r8, ror r8
30001320:	300042f4 	strccd	r4, [r0], -r4
30001324:	3000431c 	andcc	r4, r0, ip, lsl r3
30001328:	30004350 	andcc	r4, r0, r0, asr r3
3000132c:	30004378 	andcc	r4, r0, r8, ror r3
30001330:	300043a0 	andcc	r4, r0, r0, lsr #7
30001334:	300043c8 	andcc	r4, r0, r8, asr #7
30001338:	300043f4 	strccd	r4, [r0], -r4
3000133c:	3000441c 	andcc	r4, r0, ip, lsl r4
30001340:	30004444 	andcc	r4, r0, r4, asr #8
30001344:	30004468 	andcc	r4, r0, r8, ror #8

30001348 <SDI_Check_CMD_End>:
30001348:	e3510000 	cmp	r1, #0	; 0x0
3000134c:	e92d4010 	stmdb	sp!, {r4, lr}
30001350:	1a00000a 	bne	30001380 <SDI_Check_CMD_End+0x38>
30001354:	e3a0345a 	mov	r3, #1509949440	; 0x5a000000
30001358:	e5932010 	ldr	r2, [r3, #16]
3000135c:	e3120b02 	tst	r2, #2048	; 0x800
30001360:	0afffffc 	beq	30001358 <SDI_Check_CMD_End+0x10>
30001364:	e3a0345a 	mov	r3, #1509949440	; 0x5a000000
30001368:	e1a01002 	mov	r1, r2
3000136c:	e59f00d0 	ldr	r0, [pc, #208]	; 30001444 <.text+0x1444>
30001370:	e5832010 	str	r2, [r3, #16]
30001374:	eb0004e5 	bl	30002710 <printk>
30001378:	e3a00001 	mov	r0, #1	; 0x1
3000137c:	e8bd8010 	ldmia	sp!, {r4, pc}
30001380:	e3a0145a 	mov	r1, #1509949440	; 0x5a000000
30001384:	e5912010 	ldr	r2, [r1, #16]
30001388:	e1a03522 	mov	r3, r2, lsr #10
3000138c:	e18334a2 	orr	r3, r3, r2, lsr #9
30001390:	e3130001 	tst	r3, #1	; 0x1
30001394:	1a000005 	bne	300013b0 <SDI_Check_CMD_End+0x68>
30001398:	e1a0c001 	mov	ip, r1
3000139c:	e59c2010 	ldr	r2, [ip, #16]
300013a0:	e1a03522 	mov	r3, r2, lsr #10
300013a4:	e18334a2 	orr	r3, r3, r2, lsr #9
300013a8:	e3130001 	tst	r3, #1	; 0x1
300013ac:	0afffffa 	beq	3000139c <SDI_Check_CMD_End+0x54>
300013b0:	e3500029 	cmp	r0, #41	; 0x29
300013b4:	13500009 	cmpne	r0, #9	; 0x9
300013b8:	13a03000 	movne	r3, #0	; 0x0
300013bc:	03a03001 	moveq	r3, #1	; 0x1
300013c0:	e3500001 	cmp	r0, #1	; 0x1
300013c4:	11a04003 	movne	r4, r3
300013c8:	03834001 	orreq	r4, r3, #1	; 0x1
300013cc:	e3540000 	cmp	r4, #0	; 0x0
300013d0:	0a00000b 	beq	30001404 <SDI_Check_CMD_End+0xbc>
300013d4:	e2023c0f 	and	r3, r2, #3840	; 0xf00
300013d8:	e3530c0a 	cmp	r3, #2560	; 0xa00
300013dc:	0a00000f 	beq	30001420 <SDI_Check_CMD_End+0xd8>
300013e0:	e3a0345a 	mov	r3, #1509949440	; 0x5a000000
300013e4:	e3120b01 	tst	r2, #1024	; 0x400
300013e8:	e5832010 	str	r2, [r3, #16]
300013ec:	0a00000b 	beq	30001420 <SDI_Check_CMD_End+0xd8>
300013f0:	e1a01000 	mov	r1, r0
300013f4:	e59f004c 	ldr	r0, [pc, #76]	; 30001448 <.text+0x1448>
300013f8:	eb0004c4 	bl	30002710 <printk>
300013fc:	e3a00000 	mov	r0, #0	; 0x0
30001400:	e8bd8010 	ldmia	sp!, {r4, pc}
30001404:	e2023c1f 	and	r3, r2, #7936	; 0x1f00
30001408:	e3530c0a 	cmp	r3, #2560	; 0xa00
3000140c:	0a000003 	beq	30001420 <SDI_Check_CMD_End+0xd8>
30001410:	e3a0345a 	mov	r3, #1509949440	; 0x5a000000
30001414:	e3120b01 	tst	r2, #1024	; 0x400
30001418:	e5832010 	str	r2, [r3, #16]
3000141c:	1a000003 	bne	30001430 <SDI_Check_CMD_End+0xe8>
30001420:	e3a0345a 	mov	r3, #1509949440	; 0x5a000000
30001424:	e3a00001 	mov	r0, #1	; 0x1
30001428:	e5832010 	str	r2, [r3, #16]
3000142c:	e8bd8010 	ldmia	sp!, {r4, pc}
30001430:	e1a01000 	mov	r1, r0
30001434:	e59f000c 	ldr	r0, [pc, #12]	; 30001448 <.text+0x1448>
30001438:	eb0004b4 	bl	30002710 <printk>
3000143c:	e1a00004 	mov	r0, r4
30001440:	e8bd8010 	ldmia	sp!, {r4, pc}
30001444:	30004398 	mulcc	r0, r8, r3
30001448:	3000448c 	andcc	r4, r0, ip, lsl #9

3000144c <CMD13>:
3000144c:	e3a03fd3 	mov	r3, #844	; 0x34c
30001450:	e92d4010 	stmdb	sp!, {r4, lr}
30001454:	e1a02800 	mov	r2, r0, lsl #16
30001458:	e2833001 	add	r3, r3, #1	; 0x1
3000145c:	e3a0445a 	mov	r4, #1509949440	; 0x5a000000
30001460:	e3a01001 	mov	r1, #1	; 0x1
30001464:	e3a0000d 	mov	r0, #13	; 0xd
30001468:	e5842008 	str	r2, [r4, #8]
3000146c:	e584300c 	str	r3, [r4, #12]
30001470:	ebffffb4 	bl	30001348 <SDI_Check_CMD_End>
30001474:	e3500000 	cmp	r0, #0	; 0x0
30001478:	08bd8010 	ldmeqia	sp!, {r4, pc}
3000147c:	e3a02c0a 	mov	r2, #2560	; 0xa00
30001480:	e5842010 	str	r2, [r4, #16]
30001484:	e5943014 	ldr	r3, [r4, #20]
30001488:	e1a03803 	mov	r3, r3, lsl #16
3000148c:	e1a00823 	mov	r0, r3, lsr #16
30001490:	e8bd8010 	ldmia	sp!, {r4, pc}

30001494 <CMD9>:
30001494:	e3a03d1d 	mov	r3, #1856	; 0x740
30001498:	e92d4030 	stmdb	sp!, {r4, r5, lr}
3000149c:	e1a02800 	mov	r2, r0, lsl #16
300014a0:	e2833009 	add	r3, r3, #9	; 0x9
300014a4:	e3a0445a 	mov	r4, #1509949440	; 0x5a000000
300014a8:	e1a05001 	mov	r5, r1
300014ac:	e3a00009 	mov	r0, #9	; 0x9
300014b0:	e3a01001 	mov	r1, #1	; 0x1
300014b4:	e5842008 	str	r2, [r4, #8]
300014b8:	e584300c 	str	r3, [r4, #12]
300014bc:	ebffffa1 	bl	30001348 <SDI_Check_CMD_End>
300014c0:	e3500000 	cmp	r0, #0	; 0x0
300014c4:	08bd8030 	ldmeqia	sp!, {r4, r5, pc}
300014c8:	e5943014 	ldr	r3, [r4, #20]
300014cc:	e5853000 	str	r3, [r5]
300014d0:	e3a00001 	mov	r0, #1	; 0x1
300014d4:	e5943018 	ldr	r3, [r4, #24]
300014d8:	e5853004 	str	r3, [r5, #4]
300014dc:	e594201c 	ldr	r2, [r4, #28]
300014e0:	e5852008 	str	r2, [r5, #8]
300014e4:	e5943020 	ldr	r3, [r4, #32]
300014e8:	e585300c 	str	r3, [r5, #12]
300014ec:	e8bd8030 	ldmia	sp!, {r4, r5, pc}

300014f0 <CMD3>:
300014f0:	e1a00800 	mov	r0, r0, lsl #16
300014f4:	e92d4070 	stmdb	sp!, {r4, r5, r6, lr}
300014f8:	e3a03d0d 	mov	r3, #832	; 0x340
300014fc:	e1a06820 	mov	r6, r0, lsr #16
30001500:	e2833003 	add	r3, r3, #3	; 0x3
30001504:	e3a0445a 	mov	r4, #1509949440	; 0x5a000000
30001508:	e1a02806 	mov	r2, r6, lsl #16
3000150c:	e1a05001 	mov	r5, r1
30001510:	e3a00003 	mov	r0, #3	; 0x3
30001514:	e3a01001 	mov	r1, #1	; 0x1
30001518:	e5842008 	str	r2, [r4, #8]
3000151c:	e584300c 	str	r3, [r4, #12]
30001520:	ebffff88 	bl	30001348 <SDI_Check_CMD_End>
30001524:	e3500000 	cmp	r0, #0	; 0x0
30001528:	08bd8070 	ldmeqia	sp!, {r4, r5, r6, pc}
3000152c:	e3a03c0a 	mov	r3, #2560	; 0xa00
30001530:	e5843010 	str	r3, [r4, #16]
30001534:	e3560000 	cmp	r6, #0	; 0x0
30001538:	12433c0a 	subne	r3, r3, #2560	; 0xa00
3000153c:	13a02001 	movne	r2, #1	; 0x1
30001540:	05943014 	ldreq	r3, [r4, #20]
30001544:	01a03823 	moveq	r3, r3, lsr #16
30001548:	01a02443 	moveq	r2, r3, asr #8
3000154c:	15c53001 	strneb	r3, [r5, #1]
30001550:	05c53000 	streqb	r3, [r5]
30001554:	e3a0345a 	mov	r3, #1509949440	; 0x5a000000
30001558:	15c52000 	strneb	r2, [r5]
3000155c:	05c52001 	streqb	r2, [r5, #1]
30001560:	e5932014 	ldr	r2, [r3, #20]
30001564:	e3120001 	tst	r2, #1	; 0x1
30001568:	13a00000 	movne	r0, #0	; 0x0
3000156c:	03a00001 	moveq	r0, #1	; 0x1
30001570:	e8bd8070 	ldmia	sp!, {r4, r5, r6, pc}

30001574 <CMD2>:
30001574:	e3a03d1d 	mov	r3, #1856	; 0x740
30001578:	e92d4030 	stmdb	sp!, {r4, r5, lr}
3000157c:	e2833002 	add	r3, r3, #2	; 0x2
30001580:	e3a0545a 	mov	r5, #1509949440	; 0x5a000000
30001584:	e3a02000 	mov	r2, #0	; 0x0
30001588:	e1a04000 	mov	r4, r0
3000158c:	e3a01001 	mov	r1, #1	; 0x1
30001590:	e3a00002 	mov	r0, #2	; 0x2
30001594:	e5852008 	str	r2, [r5, #8]
30001598:	e585300c 	str	r3, [r5, #12]
3000159c:	ebffff69 	bl	30001348 <SDI_Check_CMD_End>
300015a0:	e3500000 	cmp	r0, #0	; 0x0
300015a4:	08bd8030 	ldmeqia	sp!, {r4, r5, pc}
300015a8:	e5953014 	ldr	r3, [r5, #20]
300015ac:	e1a03c23 	mov	r3, r3, lsr #24
300015b0:	e5c43000 	strb	r3, [r4]
300015b4:	e3a00001 	mov	r0, #1	; 0x1
300015b8:	e5953014 	ldr	r3, [r5, #20]
300015bc:	e1a03823 	mov	r3, r3, lsr #16
300015c0:	e5c43001 	strb	r3, [r4, #1]
300015c4:	e5952014 	ldr	r2, [r5, #20]
300015c8:	e1a02422 	mov	r2, r2, lsr #8
300015cc:	e5c42002 	strb	r2, [r4, #2]
300015d0:	e5951014 	ldr	r1, [r5, #20]
300015d4:	e5c41003 	strb	r1, [r4, #3]
300015d8:	e5953018 	ldr	r3, [r5, #24]
300015dc:	e1a03c23 	mov	r3, r3, lsr #24
300015e0:	e5c43004 	strb	r3, [r4, #4]
300015e4:	e5952018 	ldr	r2, [r5, #24]
300015e8:	e1a02822 	mov	r2, r2, lsr #16
300015ec:	e5c42005 	strb	r2, [r4, #5]
300015f0:	e5953018 	ldr	r3, [r5, #24]
300015f4:	e1a03423 	mov	r3, r3, lsr #8
300015f8:	e5c43006 	strb	r3, [r4, #6]
300015fc:	e5952018 	ldr	r2, [r5, #24]
30001600:	e5c42007 	strb	r2, [r4, #7]
30001604:	e595301c 	ldr	r3, [r5, #28]
30001608:	e1a03c23 	mov	r3, r3, lsr #24
3000160c:	e5c43008 	strb	r3, [r4, #8]
30001610:	e595201c 	ldr	r2, [r5, #28]
30001614:	e1a02822 	mov	r2, r2, lsr #16
30001618:	e5c42009 	strb	r2, [r4, #9]
3000161c:	e595301c 	ldr	r3, [r5, #28]
30001620:	e1a03423 	mov	r3, r3, lsr #8
30001624:	e5c4300a 	strb	r3, [r4, #10]
30001628:	e595201c 	ldr	r2, [r5, #28]
3000162c:	e5c4200b 	strb	r2, [r4, #11]
30001630:	e5953020 	ldr	r3, [r5, #32]
30001634:	e1a03c23 	mov	r3, r3, lsr #24
30001638:	e5c4300c 	strb	r3, [r4, #12]
3000163c:	e5952020 	ldr	r2, [r5, #32]
30001640:	e1a02822 	mov	r2, r2, lsr #16
30001644:	e5c4200d 	strb	r2, [r4, #13]
30001648:	e5953020 	ldr	r3, [r5, #32]
3000164c:	e1a03423 	mov	r3, r3, lsr #8
30001650:	e5c4300e 	strb	r3, [r4, #14]
30001654:	e3a03c0a 	mov	r3, #2560	; 0xa00
30001658:	e5952020 	ldr	r2, [r5, #32]
3000165c:	e5c4200f 	strb	r2, [r4, #15]
30001660:	e5853010 	str	r3, [r5, #16]
30001664:	e8bd8030 	ldmia	sp!, {r4, r5, pc}

30001668 <CMD0>:
30001668:	e92d4010 	stmdb	sp!, {r4, lr}
3000166c:	e3a02000 	mov	r2, #0	; 0x0
30001670:	e3a0445a 	mov	r4, #1509949440	; 0x5a000000
30001674:	e3a03d05 	mov	r3, #320	; 0x140
30001678:	e1a00002 	mov	r0, r2
3000167c:	e1a01002 	mov	r1, r2
30001680:	e5842008 	str	r2, [r4, #8]
30001684:	e584300c 	str	r3, [r4, #12]
30001688:	ebffff2e 	bl	30001348 <SDI_Check_CMD_End>
3000168c:	e3a03b02 	mov	r3, #2048	; 0x800
30001690:	e5843010 	str	r3, [r4, #16]
30001694:	e8bd8010 	ldmia	sp!, {r4, pc}

30001698 <CMD1>:
30001698:	e3a00001 	mov	r0, #1	; 0x1
3000169c:	e3a038ff 	mov	r3, #16711680	; 0xff0000
300016a0:	e3a02d0d 	mov	r2, #832	; 0x340
300016a4:	e92d4010 	stmdb	sp!, {r4, lr}
300016a8:	e0822000 	add	r2, r2, r0
300016ac:	e2833902 	add	r3, r3, #32768	; 0x8000
300016b0:	e3a0445a 	mov	r4, #1509949440	; 0x5a000000
300016b4:	e1a01000 	mov	r1, r0
300016b8:	e5843008 	str	r3, [r4, #8]
300016bc:	e584200c 	str	r2, [r4, #12]
300016c0:	ebffff20 	bl	30001348 <SDI_Check_CMD_End>
300016c4:	e3a02902 	mov	r2, #32768	; 0x8000
300016c8:	e3500000 	cmp	r0, #0	; 0x0
300016cc:	e28220ff 	add	r2, r2, #255	; 0xff
300016d0:	08bd8010 	ldmeqia	sp!, {r4, pc}
300016d4:	e5943014 	ldr	r3, [r4, #20]
300016d8:	e1520823 	cmp	r2, r3, lsr #16
300016dc:	e3a00001 	mov	r0, #1	; 0x1
300016e0:	03a03c0a 	moveq	r3, #2560	; 0xa00
300016e4:	13a00000 	movne	r0, #0	; 0x0
300016e8:	05843010 	streq	r3, [r4, #16]
300016ec:	e8bd8010 	ldmia	sp!, {r4, pc}

300016f0 <SDI_MMC_OCR>:
300016f0:	e92d4010 	stmdb	sp!, {r4, lr}
300016f4:	e3a04000 	mov	r4, #0	; 0x0
300016f8:	ebffffe6 	bl	30001698 <CMD1>
300016fc:	e21000ff 	ands	r0, r0, #255	; 0xff
30001700:	e2844001 	add	r4, r4, #1	; 0x1
30001704:	1a000002 	bne	30001714 <SDI_MMC_OCR+0x24>
30001708:	e3540009 	cmp	r4, #9	; 0x9
3000170c:	dafffff9 	ble	300016f8 <SDI_MMC_OCR+0x8>
30001710:	e8bd8010 	ldmia	sp!, {r4, pc}
30001714:	e3a00001 	mov	r0, #1	; 0x1
30001718:	e8bd8010 	ldmia	sp!, {r4, pc}

3000171c <CMD7>:
3000171c:	e1a02000 	mov	r2, r0
30001720:	e1a03801 	mov	r3, r1, lsl #16
30001724:	e92d4030 	stmdb	sp!, {r4, r5, lr}
30001728:	e3a0cf51 	mov	ip, #324	; 0x144
3000172c:	e3a0efd1 	mov	lr, #836	; 0x344
30001730:	e3a0445a 	mov	r4, #1509949440	; 0x5a000000
30001734:	e21220ff 	ands	r2, r2, #255	; 0xff
30001738:	e1a03823 	mov	r3, r3, lsr #16
3000173c:	e28ee003 	add	lr, lr, #3	; 0x3
30001740:	e28cc003 	add	ip, ip, #3	; 0x3
30001744:	e1a05004 	mov	r5, r4
30001748:	e3a00007 	mov	r0, #7	; 0x7
3000174c:	e1a01002 	mov	r1, r2
30001750:	e1a03803 	mov	r3, r3, lsl #16
30001754:	0a00000c 	beq	3000178c <CMD7+0x70>
30001758:	e5843008 	str	r3, [r4, #8]
3000175c:	e3a01001 	mov	r1, #1	; 0x1
30001760:	e584e00c 	str	lr, [r4, #12]
30001764:	ebfffef7 	bl	30001348 <SDI_Check_CMD_End>
30001768:	e3500000 	cmp	r0, #0	; 0x0
3000176c:	08bd8030 	ldmeqia	sp!, {r4, r5, pc}
30001770:	e3a03c0a 	mov	r3, #2560	; 0xa00
30001774:	e5843010 	str	r3, [r4, #16]
30001778:	e5942014 	ldr	r2, [r4, #20]
3000177c:	e3120001 	tst	r2, #1	; 0x1
30001780:	13a00000 	movne	r0, #0	; 0x0
30001784:	03a00001 	moveq	r0, #1	; 0x1
30001788:	e8bd8030 	ldmia	sp!, {r4, r5, pc}
3000178c:	e5842008 	str	r2, [r4, #8]
30001790:	e3a00007 	mov	r0, #7	; 0x7
30001794:	e584c00c 	str	ip, [r4, #12]
30001798:	ebfffeea 	bl	30001348 <SDI_Check_CMD_End>
3000179c:	e3500000 	cmp	r0, #0	; 0x0
300017a0:	13a03b02 	movne	r3, #2048	; 0x800
300017a4:	13a00001 	movne	r0, #1	; 0x1
300017a8:	15843010 	strne	r3, [r4, #16]
300017ac:	e8bd8030 	ldmia	sp!, {r4, r5, pc}

300017b0 <select_or_deselect>:
300017b0:	e1a01801 	mov	r1, r1, lsl #16
300017b4:	e52de004 	str	lr, [sp, #-4]!
300017b8:	e1a01821 	mov	r1, r1, lsr #16
300017bc:	e20000ff 	and	r0, r0, #255	; 0xff
300017c0:	ebffffd5 	bl	3000171c <CMD7>
300017c4:	e21000ff 	ands	r0, r0, #255	; 0xff
300017c8:	13a00001 	movne	r0, #1	; 0x1
300017cc:	e49df004 	ldr	pc, [sp], #4

300017d0 <CMD12>:
300017d0:	e92d4010 	stmdb	sp!, {r4, lr}
300017d4:	e3a03000 	mov	r3, #0	; 0x0
300017d8:	e3a0445a 	mov	r4, #1509949440	; 0x5a000000
300017dc:	e3a02fd3 	mov	r2, #844	; 0x34c
300017e0:	e3a01001 	mov	r1, #1	; 0x1
300017e4:	e3a0000c 	mov	r0, #12	; 0xc
300017e8:	e5843008 	str	r3, [r4, #8]
300017ec:	e584200c 	str	r2, [r4, #12]
300017f0:	ebfffed4 	bl	30001348 <SDI_Check_CMD_End>
300017f4:	e3500000 	cmp	r0, #0	; 0x0
300017f8:	13a03c0a 	movne	r3, #2560	; 0xa00
300017fc:	13a00001 	movne	r0, #1	; 0x1
30001800:	15843010 	strne	r3, [r4, #16]
30001804:	e8bd8010 	ldmia	sp!, {r4, pc}

30001808 <CMD17>:
30001808:	e3a03e35 	mov	r3, #848	; 0x350
3000180c:	e1a0c000 	mov	ip, r0
30001810:	e3a0245a 	mov	r2, #1509949440	; 0x5a000000
30001814:	e2833001 	add	r3, r3, #1	; 0x1
30001818:	e52de004 	str	lr, [sp, #-4]!
3000181c:	e3a01001 	mov	r1, #1	; 0x1
30001820:	e3a00011 	mov	r0, #17	; 0x11
30001824:	e582c008 	str	ip, [r2, #8]
30001828:	e582300c 	str	r3, [r2, #12]
3000182c:	ebfffec5 	bl	30001348 <SDI_Check_CMD_End>
30001830:	e2500000 	subs	r0, r0, #0	; 0x0
30001834:	13a00001 	movne	r0, #1	; 0x1
30001838:	e49df004 	ldr	pc, [sp], #4

3000183c <CMD18>:
3000183c:	e3a03e35 	mov	r3, #848	; 0x350
30001840:	e1a0c000 	mov	ip, r0
30001844:	e3a0245a 	mov	r2, #1509949440	; 0x5a000000
30001848:	e2833002 	add	r3, r3, #2	; 0x2
3000184c:	e52de004 	str	lr, [sp, #-4]!
30001850:	e3a01001 	mov	r1, #1	; 0x1
30001854:	e3a00012 	mov	r0, #18	; 0x12
30001858:	e582c008 	str	ip, [r2, #8]
3000185c:	e582300c 	str	r3, [r2, #12]
30001860:	ebfffeb8 	bl	30001348 <SDI_Check_CMD_End>
30001864:	e2500000 	subs	r0, r0, #0	; 0x0
30001868:	13a00001 	movne	r0, #1	; 0x1
3000186c:	e49df004 	ldr	pc, [sp], #4

30001870 <sd_read_sector>:
30001870:	e92d45f0 	stmdb	sp!, {r4, r5, r6, r7, r8, sl, lr}
30001874:	e3e034ff 	mvn	r3, #-16777216	; 0xff000000
30001878:	e3a0445a 	mov	r4, #1509949440	; 0x5a000000
3000187c:	e2433502 	sub	r3, r3, #8388608	; 0x800000
30001880:	e59fc10c 	ldr	ip, [pc, #268]	; 30001994 <.text+0x1994>
30001884:	e1a06004 	mov	r6, r4
30001888:	e1a08002 	mov	r8, r2
3000188c:	e1a0a000 	mov	sl, r0
30001890:	e1a05001 	mov	r5, r1
30001894:	e3a07000 	mov	r7, #0	; 0x0
30001898:	e5843024 	str	r3, [r4, #36]
3000189c:	e3a03c02 	mov	r3, #512	; 0x200
300018a0:	e5dce000 	ldrb	lr, [ip]
300018a4:	e5843028 	str	r3, [r4, #40]
300018a8:	e182e80e 	orr	lr, r2, lr, lsl #16
300018ac:	e38ee88a 	orr	lr, lr, #9043968	; 0x8a0000
300018b0:	e38eea06 	orr	lr, lr, #24576	; 0x6000
300018b4:	e5943038 	ldr	r3, [r4, #56]
300018b8:	e3833801 	orr	r3, r3, #65536	; 0x10000
300018bc:	e5843038 	str	r3, [r4, #56]
300018c0:	e584e02c 	str	lr, [r4, #44]
300018c4:	e3a04c1e 	mov	r4, #7680	; 0x1e00
300018c8:	ea000000 	b	300018d0 <sd_read_sector+0x60>
300018cc:	e5864010 	str	r4, [r6, #16]
300018d0:	e1a00005 	mov	r0, r5
300018d4:	ebffffd8 	bl	3000183c <CMD18>
300018d8:	e20000ff 	and	r0, r0, #255	; 0xff
300018dc:	e3500001 	cmp	r0, #1	; 0x1
300018e0:	1afffff9 	bne	300018cc <sd_read_sector+0x5c>
300018e4:	e1a00388 	mov	r0, r8, lsl #7
300018e8:	e3500000 	cmp	r0, #0	; 0x0
300018ec:	9a000011 	bls	30001938 <sd_read_sector+0xc8>
300018f0:	e3a0c45a 	mov	ip, #1509949440	; 0x5a000000
300018f4:	e59c3034 	ldr	r3, [ip, #52]
300018f8:	e3130060 	tst	r3, #96	; 0x60
300018fc:	1a000020 	bne	30001984 <sd_read_sector+0x114>
30001900:	e59c3038 	ldr	r3, [ip, #56]
30001904:	e3130a01 	tst	r3, #4096	; 0x1000
30001908:	0a000008 	beq	30001930 <sd_read_sector+0xc0>
3000190c:	e59c3040 	ldr	r3, [ip, #64]
30001910:	e2032cff 	and	r2, r3, #65280	; 0xff00
30001914:	e1a02402 	mov	r2, r2, lsl #8
30001918:	e1822c03 	orr	r2, r2, r3, lsl #24
3000191c:	e20318ff 	and	r1, r3, #16711680	; 0xff0000
30001920:	e1822421 	orr	r2, r2, r1, lsr #8
30001924:	e1822c23 	orr	r2, r2, r3, lsr #24
30001928:	e48a2004 	str	r2, [sl], #4
3000192c:	e2877001 	add	r7, r7, #1	; 0x1
30001930:	e1500007 	cmp	r0, r7
30001934:	8affffee 	bhi	300018f4 <sd_read_sector+0x84>
30001938:	e3a0145a 	mov	r1, #1509949440	; 0x5a000000
3000193c:	e591302c 	ldr	r3, [r1, #44]
30001940:	e3c33a07 	bic	r3, r3, #28672	; 0x7000
30001944:	e581302c 	str	r3, [r1, #44]
30001948:	e3a02010 	mov	r2, #16	; 0x10
3000194c:	e1a05001 	mov	r5, r1
30001950:	e3a04c1e 	mov	r4, #7680	; 0x1e00
30001954:	e5913038 	ldr	r3, [r1, #56]
30001958:	e2033c02 	and	r3, r3, #512	; 0x200
3000195c:	e5813038 	str	r3, [r1, #56]
30001960:	e5812034 	str	r2, [r1, #52]
30001964:	ea000000 	b	3000196c <sd_read_sector+0xfc>
30001968:	e5854010 	str	r4, [r5, #16]
3000196c:	ebffff97 	bl	300017d0 <CMD12>
30001970:	e20000ff 	and	r0, r0, #255	; 0xff
30001974:	e3500001 	cmp	r0, #1	; 0x1
30001978:	1afffffa 	bne	30001968 <sd_read_sector+0xf8>
3000197c:	e2400001 	sub	r0, r0, #1	; 0x1
30001980:	e8bd85f0 	ldmia	sp!, {r4, r5, r6, r7, r8, sl, pc}
30001984:	e3a03060 	mov	r3, #96	; 0x60
30001988:	e3a000ff 	mov	r0, #255	; 0xff
3000198c:	e58c3034 	str	r3, [ip, #52]
30001990:	e8bd85f0 	ldmia	sp!, {r4, r5, r6, r7, r8, sl, pc}
30001994:	30009c78 	andcc	r9, r0, r8, ror ip

30001998 <CMD24>:
30001998:	e1a0c000 	mov	ip, r0
3000199c:	e3a0245a 	mov	r2, #1509949440	; 0x5a000000
300019a0:	e3a03fd6 	mov	r3, #856	; 0x358
300019a4:	e52de004 	str	lr, [sp, #-4]!
300019a8:	e3a01001 	mov	r1, #1	; 0x1
300019ac:	e3a00018 	mov	r0, #24	; 0x18
300019b0:	e582c008 	str	ip, [r2, #8]
300019b4:	e582300c 	str	r3, [r2, #12]
300019b8:	ebfffe62 	bl	30001348 <SDI_Check_CMD_End>
300019bc:	e2500000 	subs	r0, r0, #0	; 0x0
300019c0:	13a00001 	movne	r0, #1	; 0x1
300019c4:	e49df004 	ldr	pc, [sp], #4

300019c8 <CMD25>:
300019c8:	e3a03fd6 	mov	r3, #856	; 0x358
300019cc:	e1a0c000 	mov	ip, r0
300019d0:	e3a0245a 	mov	r2, #1509949440	; 0x5a000000
300019d4:	e2833001 	add	r3, r3, #1	; 0x1
300019d8:	e52de004 	str	lr, [sp, #-4]!
300019dc:	e3a01001 	mov	r1, #1	; 0x1
300019e0:	e3a00019 	mov	r0, #25	; 0x19
300019e4:	e582c008 	str	ip, [r2, #8]
300019e8:	e582300c 	str	r3, [r2, #12]
300019ec:	ebfffe55 	bl	30001348 <SDI_Check_CMD_End>
300019f0:	e2500000 	subs	r0, r0, #0	; 0x0
300019f4:	13a00001 	movne	r0, #1	; 0x1
300019f8:	e49df004 	ldr	pc, [sp], #4

300019fc <sd_write_sector>:
300019fc:	e92d45f0 	stmdb	sp!, {r4, r5, r6, r7, r8, sl, lr}
30001a00:	e3e034ff 	mvn	r3, #-16777216	; 0xff000000
30001a04:	e3a0c45a 	mov	ip, #1509949440	; 0x5a000000
30001a08:	e2433502 	sub	r3, r3, #8388608	; 0x800000
30001a0c:	e1a0a002 	mov	sl, r2
30001a10:	e3822893 	orr	r2, r2, #9633792	; 0x930000
30001a14:	e3822a07 	orr	r2, r2, #28672	; 0x7000
30001a18:	e1a08000 	mov	r8, r0
30001a1c:	e1a04001 	mov	r4, r1
30001a20:	e1a0700c 	mov	r7, ip
30001a24:	e3a05000 	mov	r5, #0	; 0x0
30001a28:	e58c3024 	str	r3, [ip, #36]
30001a2c:	e3a03c02 	mov	r3, #512	; 0x200
30001a30:	e3a06c1e 	mov	r6, #7680	; 0x1e00
30001a34:	e58c3028 	str	r3, [ip, #40]
30001a38:	e59c3038 	ldr	r3, [ip, #56]
30001a3c:	e3833801 	orr	r3, r3, #65536	; 0x10000
30001a40:	e58c3038 	str	r3, [ip, #56]
30001a44:	e58c202c 	str	r2, [ip, #44]
30001a48:	ea000000 	b	30001a50 <sd_write_sector+0x54>
30001a4c:	e5876010 	str	r6, [r7, #16]
30001a50:	e1a00004 	mov	r0, r4
30001a54:	ebffffdb 	bl	300019c8 <CMD25>
30001a58:	e20000ff 	and	r0, r0, #255	; 0xff
30001a5c:	e3500001 	cmp	r0, #1	; 0x1
30001a60:	1afffff9 	bne	30001a4c <sd_write_sector+0x50>
30001a64:	e1a0238a 	mov	r2, sl, lsl #7
30001a68:	e1550002 	cmp	r5, r2
30001a6c:	2a000009 	bcs	30001a98 <sd_write_sector+0x9c>
30001a70:	e3a0045a 	mov	r0, #1509949440	; 0x5a000000
30001a74:	e5901038 	ldr	r1, [r0, #56]
30001a78:	e2853001 	add	r3, r5, #1	; 0x1
30001a7c:	e3110a02 	tst	r1, #8192	; 0x2000
30001a80:	e1a01803 	mov	r1, r3, lsl #16
30001a84:	14983004 	ldrne	r3, [r8], #4
30001a88:	11a05821 	movne	r5, r1, lsr #16
30001a8c:	15803040 	strne	r3, [r0, #64]
30001a90:	e1550002 	cmp	r5, r2
30001a94:	3afffff6 	bcc	30001a74 <sd_write_sector+0x78>
30001a98:	e3a0245a 	mov	r2, #1509949440	; 0x5a000000
30001a9c:	e592302c 	ldr	r3, [r2, #44]
30001aa0:	e3c33a07 	bic	r3, r3, #28672	; 0x7000
30001aa4:	e582302c 	str	r3, [r2, #44]
30001aa8:	e1a05002 	mov	r5, r2
30001aac:	e3a04c1e 	mov	r4, #7680	; 0x1e00
30001ab0:	ea000000 	b	30001ab8 <sd_write_sector+0xbc>
30001ab4:	e5854010 	str	r4, [r5, #16]
30001ab8:	ebffff44 	bl	300017d0 <CMD12>
30001abc:	e20000ff 	and	r0, r0, #255	; 0xff
30001ac0:	e3500001 	cmp	r0, #1	; 0x1
30001ac4:	1afffffa 	bne	30001ab4 <sd_write_sector+0xb8>
30001ac8:	e3a0245a 	mov	r2, #1509949440	; 0x5a000000
30001acc:	e5921034 	ldr	r1, [r2, #52]
30001ad0:	e2110002 	ands	r0, r1, #2	; 0x2
30001ad4:	1afffffc 	bne	30001acc <sd_write_sector+0xd0>
30001ad8:	e3a030f4 	mov	r3, #244	; 0xf4
30001adc:	e5821034 	str	r1, [r2, #52]
30001ae0:	e5823034 	str	r3, [r2, #52]
30001ae4:	e8bd85f0 	ldmia	sp!, {r4, r5, r6, r7, r8, sl, pc}

30001ae8 <CMD55>:
30001ae8:	e3a03fdd 	mov	r3, #884	; 0x374
30001aec:	e92d4010 	stmdb	sp!, {r4, lr}
30001af0:	e2833003 	add	r3, r3, #3	; 0x3
30001af4:	e1a02800 	mov	r2, r0, lsl #16
30001af8:	e3a0445a 	mov	r4, #1509949440	; 0x5a000000
30001afc:	e3a01001 	mov	r1, #1	; 0x1
30001b00:	e3a00037 	mov	r0, #55	; 0x37
30001b04:	e5842008 	str	r2, [r4, #8]
30001b08:	e584300c 	str	r3, [r4, #12]
30001b0c:	ebfffe0d 	bl	30001348 <SDI_Check_CMD_End>
30001b10:	e3500000 	cmp	r0, #0	; 0x0
30001b14:	13a03c0a 	movne	r3, #2560	; 0xa00
30001b18:	13a00001 	movne	r0, #1	; 0x1
30001b1c:	15843010 	strne	r3, [r4, #16]
30001b20:	e8bd8010 	ldmia	sp!, {r4, pc}

30001b24 <ACMD6>:
30001b24:	e1a01801 	mov	r1, r1, lsl #16
30001b28:	e92d4030 	stmdb	sp!, {r4, r5, lr}
30001b2c:	e1a04000 	mov	r4, r0
30001b30:	e1a00821 	mov	r0, r1, lsr #16
30001b34:	ebffffeb 	bl	30001ae8 <CMD55>
30001b38:	e1a03000 	mov	r3, r0
30001b3c:	e20440ff 	and	r4, r4, #255	; 0xff
30001b40:	e3a02fd1 	mov	r2, #836	; 0x344
30001b44:	e21330ff 	ands	r3, r3, #255	; 0xff
30001b48:	e2822002 	add	r2, r2, #2	; 0x2
30001b4c:	e1a04084 	mov	r4, r4, lsl #1
30001b50:	e3a0545a 	mov	r5, #1509949440	; 0x5a000000
30001b54:	e3a01001 	mov	r1, #1	; 0x1
30001b58:	e3a00006 	mov	r0, #6	; 0x6
30001b5c:	1a000001 	bne	30001b68 <ACMD6+0x44>
30001b60:	e1a00003 	mov	r0, r3
30001b64:	e8bd8030 	ldmia	sp!, {r4, r5, pc}
30001b68:	e5854008 	str	r4, [r5, #8]
30001b6c:	e585200c 	str	r2, [r5, #12]
30001b70:	ebfffdf4 	bl	30001348 <SDI_Check_CMD_End>
30001b74:	e3500000 	cmp	r0, #0	; 0x0
30001b78:	e1a03000 	mov	r3, r0
30001b7c:	13a03c0a 	movne	r3, #2560	; 0xa00
30001b80:	15853010 	strne	r3, [r5, #16]
30001b84:	13a03001 	movne	r3, #1	; 0x1
30001b88:	e1a00003 	mov	r0, r3
30001b8c:	e8bd8030 	ldmia	sp!, {r4, r5, pc}

30001b90 <Set_bus_Width>:
30001b90:	e20000ff 	and	r0, r0, #255	; 0xff
30001b94:	e1a02802 	mov	r2, r2, lsl #16
30001b98:	e20110ff 	and	r1, r1, #255	; 0xff
30001b9c:	e3500001 	cmp	r0, #1	; 0x1
30001ba0:	e1a02822 	mov	r2, r2, lsr #16
30001ba4:	e1a00001 	mov	r0, r1
30001ba8:	e52de004 	str	lr, [sp, #-4]!
30001bac:	e3a03000 	mov	r3, #0	; 0x0
30001bb0:	e1a01002 	mov	r1, r2
30001bb4:	0a000001 	beq	30001bc0 <Set_bus_Width+0x30>
30001bb8:	ebffffd9 	bl	30001b24 <ACMD6>
30001bbc:	e20030ff 	and	r3, r0, #255	; 0xff
30001bc0:	e1a00003 	mov	r0, r3
30001bc4:	e49df004 	ldr	pc, [sp], #4

30001bc8 <ACMD41>:
30001bc8:	e1a00800 	mov	r0, r0, lsl #16
30001bcc:	e92d4010 	stmdb	sp!, {r4, lr}
30001bd0:	e1a00820 	mov	r0, r0, lsr #16
30001bd4:	ebffffc3 	bl	30001ae8 <CMD55>
30001bd8:	e3a02101 	mov	r2, #1073741824	; 0x40000000
30001bdc:	e1a03000 	mov	r3, r0
30001be0:	e28228ff 	add	r2, r2, #16711680	; 0xff0000
30001be4:	e3a0cfda 	mov	ip, #872	; 0x368
30001be8:	e21330ff 	ands	r3, r3, #255	; 0xff
30001bec:	e2822902 	add	r2, r2, #32768	; 0x8000
30001bf0:	e28cc001 	add	ip, ip, #1	; 0x1
30001bf4:	e3a0445a 	mov	r4, #1509949440	; 0x5a000000
30001bf8:	e3a01001 	mov	r1, #1	; 0x1
30001bfc:	e3a00029 	mov	r0, #41	; 0x29
30001c00:	e1a0e003 	mov	lr, r3
30001c04:	1a000001 	bne	30001c10 <ACMD41+0x48>
30001c08:	e1a0000e 	mov	r0, lr
30001c0c:	e8bd8010 	ldmia	sp!, {r4, pc}
30001c10:	e5842008 	str	r2, [r4, #8]
30001c14:	e584c00c 	str	ip, [r4, #12]
30001c18:	ebfffdca 	bl	30001348 <SDI_Check_CMD_End>
30001c1c:	e3a02103 	mov	r2, #-1073741824	; 0xc0000000
30001c20:	e3500000 	cmp	r0, #0	; 0x0
30001c24:	e28228ff 	add	r2, r2, #16711680	; 0xff0000
30001c28:	03a03c0a 	moveq	r3, #2560	; 0xa00
30001c2c:	e2822902 	add	r2, r2, #32768	; 0x8000
30001c30:	05843010 	streq	r3, [r4, #16]
30001c34:	01a0e000 	moveq	lr, r0
30001c38:	0afffff2 	beq	30001c08 <ACMD41+0x40>
30001c3c:	e5943014 	ldr	r3, [r4, #20]
30001c40:	e3a01102 	mov	r1, #-2147483648	; 0x80000000
30001c44:	e28118ff 	add	r1, r1, #16711680	; 0xff0000
30001c48:	e1530002 	cmp	r3, r2
30001c4c:	e2811902 	add	r1, r1, #32768	; 0x8000
30001c50:	e3a00002 	mov	r0, #2	; 0x2
30001c54:	0a000003 	beq	30001c68 <ACMD41+0xa0>
30001c58:	e5943014 	ldr	r3, [r4, #20]
30001c5c:	e1530001 	cmp	r3, r1
30001c60:	13a00000 	movne	r0, #0	; 0x0
30001c64:	03a00001 	moveq	r0, #1	; 0x1
30001c68:	e1a0e000 	mov	lr, r0
30001c6c:	e3a02c0a 	mov	r2, #2560	; 0xa00
30001c70:	e3a0345a 	mov	r3, #1509949440	; 0x5a000000
30001c74:	e1a0000e 	mov	r0, lr
30001c78:	e5832010 	str	r2, [r3, #16]
30001c7c:	e8bd8010 	ldmia	sp!, {r4, pc}

30001c80 <file_delay>:
30001c80:	e2500001 	subs	r0, r0, #1	; 0x1
30001c84:	2afffffd 	bcs	30001c80 <file_delay>
30001c88:	e1a0f00e 	mov	pc, lr

30001c8c <SDI_SD_OCR>:
30001c8c:	e92d40f0 	stmdb	sp!, {r4, r5, r6, r7, lr}
30001c90:	e59f6054 	ldr	r6, [pc, #84]	; 30001cec <.text+0x1cec>
30001c94:	e3a03000 	mov	r3, #0	; 0x0
30001c98:	e1a04003 	mov	r4, r3
30001c9c:	e2867002 	add	r7, r6, #2	; 0x2
30001ca0:	e5c63002 	strb	r3, [r6, #2]
30001ca4:	e5c63003 	strb	r3, [r6, #3]
30001ca8:	ea000002 	b	30001cb8 <SDI_SD_OCR+0x2c>
30001cac:	ebfffff3 	bl	30001c80 <file_delay>
30001cb0:	e3540031 	cmp	r4, #49	; 0x31
30001cb4:	ca00000a 	bgt	30001ce4 <SDI_SD_OCR+0x58>
30001cb8:	e5d73001 	ldrb	r3, [r7, #1]
30001cbc:	e5d60002 	ldrb	r0, [r6, #2]
30001cc0:	e1800403 	orr	r0, r0, r3, lsl #8
30001cc4:	ebffffbf 	bl	30001bc8 <ACMD41>
30001cc8:	e1a03000 	mov	r3, r0
30001ccc:	e21350ff 	ands	r5, r3, #255	; 0xff
30001cd0:	e2844001 	add	r4, r4, #1	; 0x1
30001cd4:	e3a00ffa 	mov	r0, #1000	; 0x3e8
30001cd8:	0afffff3 	beq	30001cac <SDI_SD_OCR+0x20>
30001cdc:	e3a00001 	mov	r0, #1	; 0x1
30001ce0:	e8bd80f0 	ldmia	sp!, {r4, r5, r6, r7, pc}
30001ce4:	e1a00005 	mov	r0, r5
30001ce8:	e8bd80f0 	ldmia	sp!, {r4, r5, r6, r7, pc}
30001cec:	30009c78 	andcc	r9, r0, r8, ror ip

30001cf0 <sdi_init>:
30001cf0:	e92d41f0 	stmdb	sp!, {r4, r5, r6, r7, r8, lr}
30001cf4:	e59f0334 	ldr	r0, [pc, #820]	; 30002030 <.text+0x2030>
30001cf8:	eb000284 	bl	30002710 <printk>
30001cfc:	e3a03caa 	mov	r3, #43520	; 0xaa00
30001d00:	e28330aa 	add	r3, r3, #170	; 0xaa
30001d04:	e3a02b3e 	mov	r2, #63488	; 0xf800
30001d08:	e3a0c456 	mov	ip, #1442840576	; 0x56000000
30001d0c:	e282203f 	add	r2, r2, #63	; 0x3f
30001d10:	e1833803 	orr	r3, r3, r3, lsl #16
30001d14:	e3a00cff 	mov	r0, #65280	; 0xff00
30001d18:	e58c2048 	str	r2, [ip, #72]
30001d1c:	e3a0145a 	mov	r1, #1509949440	; 0x5a000000
30001d20:	e28000ff 	add	r0, r0, #255	; 0xff
30001d24:	e3a02011 	mov	r2, #17	; 0x11
30001d28:	e3e0e4ff 	mvn	lr, #-16777216	; 0xff000000
30001d2c:	e58c3040 	str	r3, [ip, #64]
30001d30:	e3a0307c 	mov	r3, #124	; 0x7c
30001d34:	e24ee502 	sub	lr, lr, #8388608	; 0x800000
30001d38:	e3a04eff 	mov	r4, #4080	; 0xff0
30001d3c:	e284400f 	add	r4, r4, #15	; 0xf
30001d40:	e5810010 	str	r0, [r1, #16]
30001d44:	e28cc4aa 	add	ip, ip, #-1442840576	; 0xaa000000
30001d48:	e5810034 	str	r0, [r1, #52]
30001d4c:	e5813004 	str	r3, [r1, #4]
30001d50:	e5812000 	str	r2, [r1]
30001d54:	e3a02c02 	mov	r2, #512	; 0x200
30001d58:	e5913038 	ldr	r3, [r1, #56]
30001d5c:	e3833801 	orr	r3, r3, #65536	; 0x10000
30001d60:	e5813038 	str	r3, [r1, #56]
30001d64:	e5812028 	str	r2, [r1, #40]
30001d68:	e581e024 	str	lr, [r1, #36]
30001d6c:	e28cc001 	add	ip, ip, #1	; 0x1
30001d70:	e15c0004 	cmp	ip, r4
30001d74:	dafffffc 	ble	30001d6c <sdi_init+0x7c>
30001d78:	ebfffe3a 	bl	30001668 <CMD0>
30001d7c:	ebfffe5b 	bl	300016f0 <SDI_MMC_OCR>
30001d80:	e3500000 	cmp	r0, #0	; 0x0
30001d84:	159f72a8 	ldrne	r7, [pc, #680]	; 30002034 <.text+0x2034>
30001d88:	059f72a4 	ldreq	r7, [pc, #676]	; 30002034 <.text+0x2034>
30001d8c:	13a03001 	movne	r3, #1	; 0x1
30001d90:	15c73001 	strneb	r3, [r7, #1]
30001d94:	05c70001 	streqb	r0, [r7, #1]
30001d98:	ebffffbb 	bl	30001c8c <SDI_SD_OCR>
30001d9c:	e2504000 	subs	r4, r0, #0	; 0x0
30001da0:	059f0290 	ldreq	r0, [pc, #656]	; 30002038 <.text+0x2038>
30001da4:	0a000007 	beq	30001dc8 <sdi_init+0xd8>
30001da8:	e59f628c 	ldr	r6, [pc, #652]	; 3000203c <.text+0x203c>
30001dac:	e59f028c 	ldr	r0, [pc, #652]	; 30002040 <.text+0x2040>
30001db0:	eb000256 	bl	30002710 <printk>
30001db4:	e1a00006 	mov	r0, r6
30001db8:	ebfffded 	bl	30001574 <CMD2>
30001dbc:	e21040ff 	ands	r4, r0, #255	; 0xff
30001dc0:	1a000003 	bne	30001dd4 <sdi_init+0xe4>
30001dc4:	e59f0278 	ldr	r0, [pc, #632]	; 30002044 <.text+0x2044>
30001dc8:	eb000250 	bl	30002710 <printk>
30001dcc:	e1a00004 	mov	r0, r4
30001dd0:	e8bd81f0 	ldmia	sp!, {r4, r5, r6, r7, r8, pc}
30001dd4:	e59f026c 	ldr	r0, [pc, #620]	; 30002048 <.text+0x2048>
30001dd8:	eb00024c 	bl	30002710 <printk>
30001ddc:	e5d71004 	ldrb	r1, [r7, #4]
30001de0:	e59f0264 	ldr	r0, [pc, #612]	; 3000204c <.text+0x204c>
30001de4:	eb000249 	bl	30002710 <printk>
30001de8:	e5d73005 	ldrb	r3, [r7, #5]
30001dec:	e5d71006 	ldrb	r1, [r7, #6]
30001df0:	e59f0258 	ldr	r0, [pc, #600]	; 30002050 <.text+0x2050>
30001df4:	e0811403 	add	r1, r1, r3, lsl #8
30001df8:	eb000244 	bl	30002710 <printk>
30001dfc:	e2861003 	add	r1, r6, #3	; 0x3
30001e00:	e59f024c 	ldr	r0, [pc, #588]	; 30002054 <.text+0x2054>
30001e04:	eb000241 	bl	30002710 <printk>
30001e08:	e5d72012 	ldrb	r2, [r7, #18]
30001e0c:	e5d71011 	ldrb	r1, [r7, #17]
30001e10:	e1a03222 	mov	r3, r2, lsr #4
30001e14:	e201100f 	and	r1, r1, #15	; 0xf
30001e18:	e0831201 	add	r1, r3, r1, lsl #4
30001e1c:	e202200f 	and	r2, r2, #15	; 0xf
30001e20:	e59f0230 	ldr	r0, [pc, #560]	; 30002058 <.text+0x2058>
30001e24:	eb000239 	bl	30002710 <printk>
30001e28:	e5d75001 	ldrb	r5, [r7, #1]
30001e2c:	e3550001 	cmp	r5, #1	; 0x1
30001e30:	0a000024 	beq	30001ec8 <sdi_init+0x1d8>
30001e34:	e2468002 	sub	r8, r6, #2	; 0x2
30001e38:	e3a00000 	mov	r0, #0	; 0x0
30001e3c:	e1a01008 	mov	r1, r8
30001e40:	ebfffdaa 	bl	300014f0 <CMD3>
30001e44:	e21040ff 	ands	r4, r0, #255	; 0xff
30001e48:	059f020c 	ldreq	r0, [pc, #524]	; 3000205c <.text+0x205c>
30001e4c:	0affffdd 	beq	30001dc8 <sdi_init+0xd8>
30001e50:	e3a03001 	mov	r3, #1	; 0x1
30001e54:	e3a0445a 	mov	r4, #1509949440	; 0x5a000000
30001e58:	e5843004 	str	r3, [r4, #4]
30001e5c:	e59f01fc 	ldr	r0, [pc, #508]	; 30002060 <.text+0x2060>
30001e60:	e5562002 	ldrb	r2, [r6, #-2]
30001e64:	e5d81001 	ldrb	r1, [r8, #1]
30001e68:	e1821401 	orr	r1, r2, r1, lsl #8
30001e6c:	eb000227 	bl	30002710 <printk>
30001e70:	e5941004 	ldr	r1, [r4, #4]
30001e74:	e3a007be 	mov	r0, #49807360	; 0x2f80000
30001e78:	e2800a2f 	add	r0, r0, #192512	; 0x2f000
30001e7c:	e2811001 	add	r1, r1, #1	; 0x1
30001e80:	e2800080 	add	r0, r0, #128	; 0x80
30001e84:	eb000121 	bl	30002310 <__udivsi3>
30001e88:	e1a01000 	mov	r1, r0
30001e8c:	e59f01d0 	ldr	r0, [pc, #464]	; 30002064 <.text+0x2064>
30001e90:	eb00021e 	bl	30002710 <printk>
30001e94:	e59f4198 	ldr	r4, [pc, #408]	; 30002034 <.text+0x2034>
30001e98:	e5d73002 	ldrb	r3, [r7, #2]
30001e9c:	e5d80001 	ldrb	r0, [r8, #1]
30001ea0:	e2841014 	add	r1, r4, #20	; 0x14
30001ea4:	e1830400 	orr	r0, r3, r0, lsl #8
30001ea8:	ebfffd79 	bl	30001494 <CMD9>
30001eac:	e21050ff 	ands	r5, r0, #255	; 0xff
30001eb0:	e2846002 	add	r6, r4, #2	; 0x2
30001eb4:	1a00001e 	bne	30001f34 <sdi_init+0x244>
30001eb8:	e59f01a8 	ldr	r0, [pc, #424]	; 30002068 <.text+0x2068>
30001ebc:	eb000213 	bl	30002710 <printk>
30001ec0:	e1a00005 	mov	r0, r5
30001ec4:	e8bd81f0 	ldmia	sp!, {r4, r5, r6, r7, r8, pc}
30001ec8:	e2468002 	sub	r8, r6, #2	; 0x2
30001ecc:	e1a00005 	mov	r0, r5
30001ed0:	e1a01008 	mov	r1, r8
30001ed4:	ebfffd85 	bl	300014f0 <CMD3>
30001ed8:	e21040ff 	ands	r4, r0, #255	; 0xff
30001edc:	059f0188 	ldreq	r0, [pc, #392]	; 3000206c <.text+0x206c>
30001ee0:	0affffb8 	beq	30001dc8 <sdi_init+0xd8>
30001ee4:	e3a02002 	mov	r2, #2	; 0x2
30001ee8:	e3a0445a 	mov	r4, #1509949440	; 0x5a000000
30001eec:	e3a03000 	mov	r3, #0	; 0x0
30001ef0:	e5842004 	str	r2, [r4, #4]
30001ef4:	e59f0174 	ldr	r0, [pc, #372]	; 30002070 <.text+0x2070>
30001ef8:	e5c75002 	strb	r5, [r7, #2]
30001efc:	e5c73003 	strb	r3, [r7, #3]
30001f00:	e5563002 	ldrb	r3, [r6, #-2]
30001f04:	e5d81001 	ldrb	r1, [r8, #1]
30001f08:	e1831401 	orr	r1, r3, r1, lsl #8
30001f0c:	eb0001ff 	bl	30002710 <printk>
30001f10:	e5941004 	ldr	r1, [r4, #4]
30001f14:	e3a007be 	mov	r0, #49807360	; 0x2f80000
30001f18:	e2800a2f 	add	r0, r0, #192512	; 0x2f000
30001f1c:	e2811001 	add	r1, r1, #1	; 0x1
30001f20:	e2800080 	add	r0, r0, #128	; 0x80
30001f24:	eb0000f9 	bl	30002310 <__udivsi3>
30001f28:	e1a01000 	mov	r1, r0
30001f2c:	e59f0140 	ldr	r0, [pc, #320]	; 30002074 <.text+0x2074>
30001f30:	eaffffd6 	b	30001e90 <sdi_init+0x1a0>
30001f34:	e594101c 	ldr	r1, [r4, #28]
30001f38:	e5942018 	ldr	r2, [r4, #24]
30001f3c:	e1a03821 	mov	r3, r1, lsr #16
30001f40:	e202203f 	and	r2, r2, #63	; 0x3f
30001f44:	e0833802 	add	r3, r3, r2, lsl #16
30001f48:	e1a01321 	mov	r1, r1, lsr #6
30001f4c:	e1a03483 	mov	r3, r3, lsl #9
30001f50:	e201107f 	and	r1, r1, #127	; 0x7f
30001f54:	e2833c02 	add	r3, r3, #512	; 0x200
30001f58:	e2811001 	add	r1, r1, #1	; 0x1
30001f5c:	e5843028 	str	r3, [r4, #40]
30001f60:	e59f0110 	ldr	r0, [pc, #272]	; 30002078 <.text+0x2078>
30001f64:	e5841024 	str	r1, [r4, #36]
30001f68:	eb0001e8 	bl	30002710 <printk>
30001f6c:	e5941014 	ldr	r1, [r4, #20]
30001f70:	e59f0104 	ldr	r0, [pc, #260]	; 3000207c <.text+0x207c>
30001f74:	eb0001e5 	bl	30002710 <printk>
30001f78:	e5941018 	ldr	r1, [r4, #24]
30001f7c:	e59f00f8 	ldr	r0, [pc, #248]	; 3000207c <.text+0x207c>
30001f80:	eb0001e2 	bl	30002710 <printk>
30001f84:	e594101c 	ldr	r1, [r4, #28]
30001f88:	e59f00ec 	ldr	r0, [pc, #236]	; 3000207c <.text+0x207c>
30001f8c:	eb0001df 	bl	30002710 <printk>
30001f90:	e5941020 	ldr	r1, [r4, #32]
30001f94:	e59f00e0 	ldr	r0, [pc, #224]	; 3000207c <.text+0x207c>
30001f98:	eb0001dc 	bl	30002710 <printk>
30001f9c:	e5941028 	ldr	r1, [r4, #40]
30001fa0:	e59f00d8 	ldr	r0, [pc, #216]	; 30002080 <.text+0x2080>
30001fa4:	e1a02521 	mov	r2, r1, lsr #10
30001fa8:	eb0001d8 	bl	30002710 <printk>
30001fac:	e5d43002 	ldrb	r3, [r4, #2]
30001fb0:	e5d61001 	ldrb	r1, [r6, #1]
30001fb4:	e3a00001 	mov	r0, #1	; 0x1
30001fb8:	e1831401 	orr	r1, r3, r1, lsl #8
30001fbc:	ebfffdfb 	bl	300017b0 <select_or_deselect>
30001fc0:	e21040ff 	ands	r4, r0, #255	; 0xff
30001fc4:	059f00b8 	ldreq	r0, [pc, #184]	; 30002084 <.text+0x2084>
30001fc8:	0affff7e 	beq	30001dc8 <sdi_init+0xd8>
30001fcc:	e59f00b4 	ldr	r0, [pc, #180]	; 30002088 <.text+0x2088>
30001fd0:	eb0001ce 	bl	30002710 <printk>
30001fd4:	e5d70002 	ldrb	r0, [r7, #2]
30001fd8:	e5d83001 	ldrb	r3, [r8, #1]
30001fdc:	e1800403 	orr	r0, r0, r3, lsl #8
30001fe0:	ebfffd19 	bl	3000144c <CMD13>
30001fe4:	e2000c1e 	and	r0, r0, #7680	; 0x1e00
30001fe8:	e3500b02 	cmp	r0, #2048	; 0x800
30001fec:	1afffff8 	bne	30001fd4 <sdi_init+0x2e4>
30001ff0:	e5d83001 	ldrb	r3, [r8, #1]
30001ff4:	e5d72002 	ldrb	r2, [r7, #2]
30001ff8:	e3a01001 	mov	r1, #1	; 0x1
30001ffc:	e1822403 	orr	r2, r2, r3, lsl #8
30002000:	e5d70001 	ldrb	r0, [r7, #1]
30002004:	ebfffee1 	bl	30001b90 <Set_bus_Width>
30002008:	e21020ff 	ands	r2, r0, #255	; 0xff
3000200c:	059f3020 	ldreq	r3, [pc, #32]	; 30002034 <.text+0x2034>
30002010:	13a03001 	movne	r3, #1	; 0x1
30002014:	15c73000 	strneb	r3, [r7]
30002018:	159f006c 	ldrne	r0, [pc, #108]	; 3000208c <.text+0x208c>
3000201c:	059f006c 	ldreq	r0, [pc, #108]	; 30002090 <.text+0x2090>
30002020:	05c32000 	streqb	r2, [r3]
30002024:	eb0001b9 	bl	30002710 <printk>
30002028:	e3a00001 	mov	r0, #1	; 0x1
3000202c:	e8bd81f0 	ldmia	sp!, {r4, r5, r6, r7, r8, pc}
30002030:	300044a0 	andcc	r4, r0, r0, lsr #9
30002034:	30009c78 	andcc	r9, r0, r8, ror ip
30002038:	300044b4 	strcch	r4, [r0], -r4
3000203c:	30009c7c 	andcc	r9, r0, ip, ror ip
30002040:	300044dc 	ldrccd	r4, [r0], -ip
30002044:	300044ec 	andcc	r4, r0, ip, ror #9
30002048:	30004508 	andcc	r4, r0, r8, lsl #10
3000204c:	30004510 	andcc	r4, r0, r0, lsl r5
30002050:	3000451c 	andcc	r4, r0, ip, lsl r5
30002054:	30004528 	andcc	r4, r0, r8, lsr #10
30002058:	30004538 	andcc	r4, r0, r8, lsr r5
3000205c:	3000454c 	andcc	r4, r0, ip, asr #10
30002060:	30004564 	andcc	r4, r0, r4, ror #10
30002064:	3000457c 	andcc	r4, r0, ip, ror r5
30002068:	30004594 	mulcc	r0, r4, r5
3000206c:	300045ac 	andcc	r4, r0, ip, lsr #11
30002070:	300045c4 	andcc	r4, r0, r4, asr #11
30002074:	300045dc 	ldrccd	r4, [r0], -ip
30002078:	300045f4 	strccd	r4, [r0], -r4
3000207c:	30004608 	andcc	r4, r0, r8, lsl #12
30002080:	30004614 	andcc	r4, r0, r4, lsl r6
30002084:	3000462c 	andcc	r4, r0, ip, lsr #12
30002088:	30004644 	andcc	r4, r0, r4, asr #12
3000208c:	3000465c 	andcc	r4, r0, ip, asr r6
30002090:	30004670 	andcc	r4, r0, r0, ror r6

30002094 <sdi_test>:
30002094:	e92d4070 	stmdb	sp!, {r4, r5, r6, lr}
30002098:	ebffff14 	bl	30001cf0 <sdi_init>
3000209c:	e31000ff 	tst	r0, #255	; 0xff
300020a0:	0a000038 	beq	30002188 <sdi_test+0xf4>
300020a4:	e59f00fc 	ldr	r0, [pc, #252]	; 300021a8 <.text+0x21a8>
300020a8:	eb000198 	bl	30002710 <printk>
300020ac:	e59f00f8 	ldr	r0, [pc, #248]	; 300021ac <.text+0x21ac>
300020b0:	e3a04000 	mov	r4, #0	; 0x0
300020b4:	ea000004 	b	300020cc <sdi_test+0x38>
300020b8:	e59f30f0 	ldr	r3, [pc, #240]	; 300021b0 <.text+0x21b0>
300020bc:	e3a02000 	mov	r2, #0	; 0x0
300020c0:	e7c32004 	strb	r2, [r3, r4]
300020c4:	e7c01004 	strb	r1, [r0, r4]
300020c8:	e1a04001 	mov	r4, r1
300020cc:	e3540c02 	cmp	r4, #512	; 0x200
300020d0:	e2841001 	add	r1, r4, #1	; 0x1
300020d4:	3afffff7 	bcc	300020b8 <sdi_test+0x24>
300020d8:	e59f00cc 	ldr	r0, [pc, #204]	; 300021ac <.text+0x21ac>
300020dc:	e3a01000 	mov	r1, #0	; 0x0
300020e0:	e3a02001 	mov	r2, #1	; 0x1
300020e4:	ebfffe44 	bl	300019fc <sd_write_sector>
300020e8:	e31000ff 	tst	r0, #255	; 0xff
300020ec:	0a000029 	beq	30002198 <sdi_test+0x104>
300020f0:	e59f60b8 	ldr	r6, [pc, #184]	; 300021b0 <.text+0x21b0>
300020f4:	e59f00b8 	ldr	r0, [pc, #184]	; 300021b4 <.text+0x21b4>
300020f8:	eb000184 	bl	30002710 <printk>
300020fc:	e1a00006 	mov	r0, r6
30002100:	e3a01000 	mov	r1, #0	; 0x0
30002104:	e3a02001 	mov	r2, #1	; 0x1
30002108:	ebfffdd8 	bl	30001870 <sd_read_sector>
3000210c:	e31000ff 	tst	r0, #255	; 0xff
30002110:	0a000022 	beq	300021a0 <sdi_test+0x10c>
30002114:	e59f009c 	ldr	r0, [pc, #156]	; 300021b8 <.text+0x21b8>
30002118:	eb00017c 	bl	30002710 <printk>
3000211c:	e59f0098 	ldr	r0, [pc, #152]	; 300021bc <.text+0x21bc>
30002120:	eb00017a 	bl	30002710 <printk>
30002124:	e3a04000 	mov	r4, #0	; 0x0
30002128:	ea00000e 	b	30002168 <sdi_test+0xd4>
3000212c:	e7d61004 	ldrb	r1, [r6, r4]
30002130:	e59f0088 	ldr	r0, [pc, #136]	; 300021c0 <.text+0x21c0>
30002134:	eb000175 	bl	30002710 <printk>
30002138:	e5d51001 	ldrb	r1, [r5, #1]
3000213c:	e59f007c 	ldr	r0, [pc, #124]	; 300021c0 <.text+0x21c0>
30002140:	eb000172 	bl	30002710 <printk>
30002144:	e5d51002 	ldrb	r1, [r5, #2]
30002148:	e59f0070 	ldr	r0, [pc, #112]	; 300021c0 <.text+0x21c0>
3000214c:	eb00016f 	bl	30002710 <printk>
30002150:	e2844004 	add	r4, r4, #4	; 0x4
30002154:	e5d51003 	ldrb	r1, [r5, #3]
30002158:	e59f0060 	ldr	r0, [pc, #96]	; 300021c0 <.text+0x21c0>
3000215c:	eb00016b 	bl	30002710 <printk>
30002160:	e3540c02 	cmp	r4, #512	; 0x200
30002164:	2a000005 	bcs	30002180 <sdi_test+0xec>
30002168:	e314001f 	tst	r4, #31	; 0x1f
3000216c:	e0845006 	add	r5, r4, r6
30002170:	e59f004c 	ldr	r0, [pc, #76]	; 300021c4 <.text+0x21c4>
30002174:	0affffec 	beq	3000212c <sdi_test+0x98>
30002178:	eb000164 	bl	30002710 <printk>
3000217c:	eaffffea 	b	3000212c <sdi_test+0x98>
30002180:	e3a00000 	mov	r0, #0	; 0x0
30002184:	e8bd8070 	ldmia	sp!, {r4, r5, r6, pc}
30002188:	e59f0038 	ldr	r0, [pc, #56]	; 300021c8 <.text+0x21c8>
3000218c:	eb00015f 	bl	30002710 <printk>
30002190:	e3e00000 	mvn	r0, #0	; 0x0
30002194:	e8bd8070 	ldmia	sp!, {r4, r5, r6, pc}
30002198:	e59f002c 	ldr	r0, [pc, #44]	; 300021cc <.text+0x21cc>
3000219c:	eafffffa 	b	3000218c <sdi_test+0xf8>
300021a0:	e59f0028 	ldr	r0, [pc, #40]	; 300021d0 <.text+0x21d0>
300021a4:	eafffff8 	b	3000218c <sdi_test+0xf8>
300021a8:	30004684 	andcc	r4, r0, r4, lsl #13
300021ac:	30009a78 	andcc	r9, r0, r8, ror sl
300021b0:	30009878 	andcc	r9, r0, r8, ror r8
300021b4:	30004698 	mulcc	r0, r8, r6
300021b8:	300046b4 	strcch	r4, [r0], -r4
300021bc:	300046d0 	ldrccd	r4, [r0], -r0
300021c0:	300046e0 	andcc	r4, r0, r0, ror #13
300021c4:	30004640 	andcc	r4, r0, r0, asr #12
300021c8:	300046e4 	andcc	r4, r0, r4, ror #13
300021cc:	300046fc 	strccd	r4, [r0], -ip
300021d0:	3000471c 	andcc	r4, r0, ip, lsl r7
	...

300021e0 <__do_div64>:
300021e0:	e254c001 	subs	ip, r4, #1	; 0x1
300021e4:	9a00003f 	bls	300022e8 <__do_div64+0x108>
300021e8:	e11c0004 	tst	ip, r4
300021ec:	0a000028 	beq	30002294 <__do_div64+0xb4>
300021f0:	e1510004 	cmp	r1, r4
300021f4:	e3a03000 	mov	r3, #0	; 0x0
300021f8:	3a00000c 	bcc	30002230 <__do_div64+0x50>
300021fc:	e1a02004 	mov	r2, r4
30002200:	e3a0c001 	mov	ip, #1	; 0x1
30002204:	e3520102 	cmp	r2, #-2147483648	; 0x80000000
30002208:	31520001 	cmpcc	r2, r1
3000220c:	31a02082 	movcc	r2, r2, lsl #1
30002210:	31a0c08c 	movcc	ip, ip, lsl #1
30002214:	3afffffa 	bcc	30002204 <__do_div64+0x24>
30002218:	e1510002 	cmp	r1, r2
3000221c:	2183300c 	orrcs	r3, r3, ip
30002220:	20511002 	subcss	r1, r1, r2
30002224:	11b0c0ac 	movnes	ip, ip, lsr #1
30002228:	e1a020a2 	mov	r2, r2, lsr #1
3000222c:	1afffff9 	bne	30002218 <__do_div64+0x38>
30002230:	e3510000 	cmp	r1, #0	; 0x0
30002234:	e3a02000 	mov	r2, #0	; 0x0
30002238:	01500004 	cmpeq	r0, r4
3000223c:	31a01000 	movcc	r1, r0
30002240:	31a0f00e 	movcc	pc, lr
30002244:	e3a0c102 	mov	ip, #-2147483648	; 0x80000000
30002248:	e1b00080 	movs	r0, r0, lsl #1
3000224c:	e0b11001 	adcs	r1, r1, r1
30002250:	0a000005 	beq	3000226c <__do_div64+0x8c>
30002254:	31510004 	cmpcc	r1, r4
30002258:	2182200c 	orrcs	r2, r2, ip
3000225c:	20411004 	subcs	r1, r1, r4
30002260:	e1b0c0ac 	movs	ip, ip, lsr #1
30002264:	1afffff7 	bne	30002248 <__do_div64+0x68>
30002268:	e1a0f00e 	mov	pc, lr
3000226c:	2afffff9 	bcs	30002258 <__do_div64+0x78>
30002270:	e3500000 	cmp	r0, #0	; 0x0
30002274:	01a0f00e 	moveq	pc, lr
30002278:	e1b00080 	movs	r0, r0, lsl #1
3000227c:	e1a0c0ac 	mov	ip, ip, lsr #1
30002280:	3afffffc 	bcc	30002278 <__do_div64+0x98>
30002284:	e1b0c0ac 	movs	ip, ip, lsr #1
30002288:	e3a01001 	mov	r1, #1	; 0x1
3000228c:	1affffed 	bne	30002248 <__do_div64+0x68>
30002290:	e1a0f00e 	mov	pc, lr
30002294:	e1a02004 	mov	r2, r4
30002298:	e3540801 	cmp	r4, #65536	; 0x10000
3000229c:	e3a0c000 	mov	ip, #0	; 0x0
300022a0:	21a02822 	movcs	r2, r2, lsr #16
300022a4:	23a0c010 	movcs	ip, #16	; 0x10
300022a8:	e3520c01 	cmp	r2, #256	; 0x100
300022ac:	21a02422 	movcs	r2, r2, lsr #8
300022b0:	228cc008 	addcs	ip, ip, #8	; 0x8
300022b4:	e3520010 	cmp	r2, #16	; 0x10
300022b8:	21a02222 	movcs	r2, r2, lsr #4
300022bc:	228cc004 	addcs	ip, ip, #4	; 0x4
300022c0:	e3520004 	cmp	r2, #4	; 0x4
300022c4:	828cc003 	addhi	ip, ip, #3	; 0x3
300022c8:	908cc0a2 	addls	ip, ip, r2, lsr #1
300022cc:	e1a03c31 	mov	r3, r1, lsr ip
300022d0:	e1a02c30 	mov	r2, r0, lsr ip
300022d4:	e26cc020 	rsb	ip, ip, #32	; 0x20
300022d8:	e1822c11 	orr	r2, r2, r1, lsl ip
300022dc:	e1a01c10 	mov	r1, r0, lsl ip
300022e0:	e1a01c31 	mov	r1, r1, lsr ip
300022e4:	e1a0f00e 	mov	pc, lr
300022e8:	01a02000 	moveq	r2, r0
300022ec:	01a03001 	moveq	r3, r1
300022f0:	03a01000 	moveq	r1, #0	; 0x0
300022f4:	01a0f00e 	moveq	pc, lr
300022f8:	e52de004 	str	lr, [sp, #-4]!
300022fc:	e3a02000 	mov	r2, #0	; 0x0
30002300:	e3a03000 	mov	r3, #0	; 0x0
30002304:	e3a01000 	mov	r1, #0	; 0x0
30002308:	e49df004 	ldr	pc, [sp], #4
3000230c:	e1a00000 	nop			(mov r0,r0)

30002310 <__udivsi3>:
30002310:	e2512001 	subs	r2, r1, #1	; 0x1
30002314:	01a0f00e 	moveq	pc, lr
30002318:	3a0000e5 	bcc	300026b4 <Ldiv0>
3000231c:	e1500001 	cmp	r0, r1
30002320:	9a000022 	bls	300023b0 <__udivsi3+0xa0>
30002324:	e1110002 	tst	r1, r2
30002328:	0a000023 	beq	300023bc <__udivsi3+0xac>
3000232c:	e311020e 	tst	r1, #-536870912	; 0xe0000000
30002330:	01a01181 	moveq	r1, r1, lsl #3
30002334:	03a03008 	moveq	r3, #8	; 0x8
30002338:	13a03001 	movne	r3, #1	; 0x1
3000233c:	e3510201 	cmp	r1, #268435456	; 0x10000000
30002340:	31510000 	cmpcc	r1, r0
30002344:	31a01201 	movcc	r1, r1, lsl #4
30002348:	31a03203 	movcc	r3, r3, lsl #4
3000234c:	3afffffa 	bcc	3000233c <__udivsi3+0x2c>
30002350:	e3510102 	cmp	r1, #-2147483648	; 0x80000000
30002354:	31510000 	cmpcc	r1, r0
30002358:	31a01081 	movcc	r1, r1, lsl #1
3000235c:	31a03083 	movcc	r3, r3, lsl #1
30002360:	3afffffa 	bcc	30002350 <__udivsi3+0x40>
30002364:	e3a02000 	mov	r2, #0	; 0x0
30002368:	e1500001 	cmp	r0, r1
3000236c:	20400001 	subcs	r0, r0, r1
30002370:	21822003 	orrcs	r2, r2, r3
30002374:	e15000a1 	cmp	r0, r1, lsr #1
30002378:	204000a1 	subcs	r0, r0, r1, lsr #1
3000237c:	218220a3 	orrcs	r2, r2, r3, lsr #1
30002380:	e1500121 	cmp	r0, r1, lsr #2
30002384:	20400121 	subcs	r0, r0, r1, lsr #2
30002388:	21822123 	orrcs	r2, r2, r3, lsr #2
3000238c:	e15001a1 	cmp	r0, r1, lsr #3
30002390:	204001a1 	subcs	r0, r0, r1, lsr #3
30002394:	218221a3 	orrcs	r2, r2, r3, lsr #3
30002398:	e3500000 	cmp	r0, #0	; 0x0
3000239c:	11b03223 	movnes	r3, r3, lsr #4
300023a0:	11a01221 	movne	r1, r1, lsr #4
300023a4:	1affffef 	bne	30002368 <__udivsi3+0x58>
300023a8:	e1a00002 	mov	r0, r2
300023ac:	e1a0f00e 	mov	pc, lr
300023b0:	03a00001 	moveq	r0, #1	; 0x1
300023b4:	13a00000 	movne	r0, #0	; 0x0
300023b8:	e1a0f00e 	mov	pc, lr
300023bc:	e3510801 	cmp	r1, #65536	; 0x10000
300023c0:	21a01821 	movcs	r1, r1, lsr #16
300023c4:	23a02010 	movcs	r2, #16	; 0x10
300023c8:	33a02000 	movcc	r2, #0	; 0x0
300023cc:	e3510c01 	cmp	r1, #256	; 0x100
300023d0:	21a01421 	movcs	r1, r1, lsr #8
300023d4:	22822008 	addcs	r2, r2, #8	; 0x8
300023d8:	e3510010 	cmp	r1, #16	; 0x10
300023dc:	21a01221 	movcs	r1, r1, lsr #4
300023e0:	22822004 	addcs	r2, r2, #4	; 0x4
300023e4:	e3510004 	cmp	r1, #4	; 0x4
300023e8:	82822003 	addhi	r2, r2, #3	; 0x3
300023ec:	908220a1 	addls	r2, r2, r1, lsr #1
300023f0:	e1a00230 	mov	r0, r0, lsr r2
300023f4:	e1a0f00e 	mov	pc, lr
300023f8:	90909090 	umulllss	r9, r0, r0, r0
300023fc:	90909090 	umulllss	r9, r0, r0, r0

30002400 <__umodsi3>:
30002400:	e2512001 	subs	r2, r1, #1	; 0x1
30002404:	3a0000aa 	bcc	300026b4 <Ldiv0>
30002408:	11500001 	cmpne	r0, r1
3000240c:	03a00000 	moveq	r0, #0	; 0x0
30002410:	81110002 	tsthi	r1, r2
30002414:	00000002 	andeq	r0, r0, r2
30002418:	91a0f00e 	movls	pc, lr
3000241c:	e3a02000 	mov	r2, #0	; 0x0
30002420:	e3510201 	cmp	r1, #268435456	; 0x10000000
30002424:	31510000 	cmpcc	r1, r0
30002428:	31a01201 	movcc	r1, r1, lsl #4
3000242c:	32822004 	addcc	r2, r2, #4	; 0x4
30002430:	3afffffa 	bcc	30002420 <__umodsi3+0x20>
30002434:	e3510102 	cmp	r1, #-2147483648	; 0x80000000
30002438:	31510000 	cmpcc	r1, r0
3000243c:	31a01081 	movcc	r1, r1, lsl #1
30002440:	32822001 	addcc	r2, r2, #1	; 0x1
30002444:	3afffffa 	bcc	30002434 <__umodsi3+0x34>
30002448:	e2522003 	subs	r2, r2, #3	; 0x3
3000244c:	ba00000e 	blt	3000248c <__umodsi3+0x8c>
30002450:	e1500001 	cmp	r0, r1
30002454:	20400001 	subcs	r0, r0, r1
30002458:	e15000a1 	cmp	r0, r1, lsr #1
3000245c:	204000a1 	subcs	r0, r0, r1, lsr #1
30002460:	e1500121 	cmp	r0, r1, lsr #2
30002464:	20400121 	subcs	r0, r0, r1, lsr #2
30002468:	e15001a1 	cmp	r0, r1, lsr #3
3000246c:	204001a1 	subcs	r0, r0, r1, lsr #3
30002470:	e3500001 	cmp	r0, #1	; 0x1
30002474:	e1a01221 	mov	r1, r1, lsr #4
30002478:	a2522004 	subges	r2, r2, #4	; 0x4
3000247c:	aafffff3 	bge	30002450 <__umodsi3+0x50>
30002480:	e3120003 	tst	r2, #3	; 0x3
30002484:	13300000 	teqne	r0, #0	; 0x0
30002488:	0a00000a 	beq	300024b8 <__umodsi3+0xb8>
3000248c:	e3720002 	cmn	r2, #2	; 0x2
30002490:	ba000006 	blt	300024b0 <__umodsi3+0xb0>
30002494:	0a000002 	beq	300024a4 <__umodsi3+0xa4>
30002498:	e1500001 	cmp	r0, r1
3000249c:	20400001 	subcs	r0, r0, r1
300024a0:	e1a010a1 	mov	r1, r1, lsr #1
300024a4:	e1500001 	cmp	r0, r1
300024a8:	20400001 	subcs	r0, r0, r1
300024ac:	e1a010a1 	mov	r1, r1, lsr #1
300024b0:	e1500001 	cmp	r0, r1
300024b4:	20400001 	subcs	r0, r0, r1
300024b8:	e1a0f00e 	mov	pc, lr
300024bc:	90909090 	umulllss	r9, r0, r0, r0

300024c0 <__divsi3>:
300024c0:	e3510000 	cmp	r1, #0	; 0x0
300024c4:	e020c001 	eor	ip, r0, r1
300024c8:	0a000079 	beq	300026b4 <Ldiv0>
300024cc:	42611000 	rsbmi	r1, r1, #0	; 0x0
300024d0:	e2512001 	subs	r2, r1, #1	; 0x1
300024d4:	0a000027 	beq	30002578 <__divsi3+0xb8>
300024d8:	e1b03000 	movs	r3, r0
300024dc:	42603000 	rsbmi	r3, r0, #0	; 0x0
300024e0:	e1530001 	cmp	r3, r1
300024e4:	9a000026 	bls	30002584 <__divsi3+0xc4>
300024e8:	e1110002 	tst	r1, r2
300024ec:	0a000028 	beq	30002594 <__divsi3+0xd4>
300024f0:	e311020e 	tst	r1, #-536870912	; 0xe0000000
300024f4:	01a01181 	moveq	r1, r1, lsl #3
300024f8:	03a02008 	moveq	r2, #8	; 0x8
300024fc:	13a02001 	movne	r2, #1	; 0x1
30002500:	e3510201 	cmp	r1, #268435456	; 0x10000000
30002504:	31510003 	cmpcc	r1, r3
30002508:	31a01201 	movcc	r1, r1, lsl #4
3000250c:	31a02202 	movcc	r2, r2, lsl #4
30002510:	3afffffa 	bcc	30002500 <__divsi3+0x40>
30002514:	e3510102 	cmp	r1, #-2147483648	; 0x80000000
30002518:	31510003 	cmpcc	r1, r3
3000251c:	31a01081 	movcc	r1, r1, lsl #1
30002520:	31a02082 	movcc	r2, r2, lsl #1
30002524:	3afffffa 	bcc	30002514 <__divsi3+0x54>
30002528:	e3a00000 	mov	r0, #0	; 0x0
3000252c:	e1530001 	cmp	r3, r1
30002530:	20433001 	subcs	r3, r3, r1
30002534:	21800002 	orrcs	r0, r0, r2
30002538:	e15300a1 	cmp	r3, r1, lsr #1
3000253c:	204330a1 	subcs	r3, r3, r1, lsr #1
30002540:	218000a2 	orrcs	r0, r0, r2, lsr #1
30002544:	e1530121 	cmp	r3, r1, lsr #2
30002548:	20433121 	subcs	r3, r3, r1, lsr #2
3000254c:	21800122 	orrcs	r0, r0, r2, lsr #2
30002550:	e15301a1 	cmp	r3, r1, lsr #3
30002554:	204331a1 	subcs	r3, r3, r1, lsr #3
30002558:	218001a2 	orrcs	r0, r0, r2, lsr #3
3000255c:	e3530000 	cmp	r3, #0	; 0x0
30002560:	11b02222 	movnes	r2, r2, lsr #4
30002564:	11a01221 	movne	r1, r1, lsr #4
30002568:	1affffef 	bne	3000252c <__divsi3+0x6c>
3000256c:	e35c0000 	cmp	ip, #0	; 0x0
30002570:	42600000 	rsbmi	r0, r0, #0	; 0x0
30002574:	e1a0f00e 	mov	pc, lr
30002578:	e13c0000 	teq	ip, r0
3000257c:	42600000 	rsbmi	r0, r0, #0	; 0x0
30002580:	e1a0f00e 	mov	pc, lr
30002584:	33a00000 	movcc	r0, #0	; 0x0
30002588:	01a00fcc 	moveq	r0, ip, asr #31
3000258c:	03800001 	orreq	r0, r0, #1	; 0x1
30002590:	e1a0f00e 	mov	pc, lr
30002594:	e3510801 	cmp	r1, #65536	; 0x10000
30002598:	21a01821 	movcs	r1, r1, lsr #16
3000259c:	23a02010 	movcs	r2, #16	; 0x10
300025a0:	33a02000 	movcc	r2, #0	; 0x0
300025a4:	e3510c01 	cmp	r1, #256	; 0x100
300025a8:	21a01421 	movcs	r1, r1, lsr #8
300025ac:	22822008 	addcs	r2, r2, #8	; 0x8
300025b0:	e3510010 	cmp	r1, #16	; 0x10
300025b4:	21a01221 	movcs	r1, r1, lsr #4
300025b8:	22822004 	addcs	r2, r2, #4	; 0x4
300025bc:	e3510004 	cmp	r1, #4	; 0x4
300025c0:	82822003 	addhi	r2, r2, #3	; 0x3
300025c4:	908220a1 	addls	r2, r2, r1, lsr #1
300025c8:	e35c0000 	cmp	ip, #0	; 0x0
300025cc:	e1a00233 	mov	r0, r3, lsr r2
300025d0:	42600000 	rsbmi	r0, r0, #0	; 0x0
300025d4:	e1a0f00e 	mov	pc, lr
300025d8:	90909090 	umulllss	r9, r0, r0, r0
300025dc:	90909090 	umulllss	r9, r0, r0, r0

300025e0 <__modsi3>:
300025e0:	e3510000 	cmp	r1, #0	; 0x0
300025e4:	0a000032 	beq	300026b4 <Ldiv0>
300025e8:	42611000 	rsbmi	r1, r1, #0	; 0x0
300025ec:	e1b0c000 	movs	ip, r0
300025f0:	42600000 	rsbmi	r0, r0, #0	; 0x0
300025f4:	e2512001 	subs	r2, r1, #1	; 0x1
300025f8:	11500001 	cmpne	r0, r1
300025fc:	03a00000 	moveq	r0, #0	; 0x0
30002600:	81110002 	tsthi	r1, r2
30002604:	00000002 	andeq	r0, r0, r2
30002608:	9a000026 	bls	300026a8 <__modsi3+0xc8>
3000260c:	e3a02000 	mov	r2, #0	; 0x0
30002610:	e3510201 	cmp	r1, #268435456	; 0x10000000
30002614:	31510000 	cmpcc	r1, r0
30002618:	31a01201 	movcc	r1, r1, lsl #4
3000261c:	32822004 	addcc	r2, r2, #4	; 0x4
30002620:	3afffffa 	bcc	30002610 <__modsi3+0x30>
30002624:	e3510102 	cmp	r1, #-2147483648	; 0x80000000
30002628:	31510000 	cmpcc	r1, r0
3000262c:	31a01081 	movcc	r1, r1, lsl #1
30002630:	32822001 	addcc	r2, r2, #1	; 0x1
30002634:	3afffffa 	bcc	30002624 <__modsi3+0x44>
30002638:	e2522003 	subs	r2, r2, #3	; 0x3
3000263c:	ba00000e 	blt	3000267c <__modsi3+0x9c>
30002640:	e1500001 	cmp	r0, r1
30002644:	20400001 	subcs	r0, r0, r1
30002648:	e15000a1 	cmp	r0, r1, lsr #1
3000264c:	204000a1 	subcs	r0, r0, r1, lsr #1
30002650:	e1500121 	cmp	r0, r1, lsr #2
30002654:	20400121 	subcs	r0, r0, r1, lsr #2
30002658:	e15001a1 	cmp	r0, r1, lsr #3
3000265c:	204001a1 	subcs	r0, r0, r1, lsr #3
30002660:	e3500001 	cmp	r0, #1	; 0x1
30002664:	e1a01221 	mov	r1, r1, lsr #4
30002668:	a2522004 	subges	r2, r2, #4	; 0x4
3000266c:	aafffff3 	bge	30002640 <__modsi3+0x60>
30002670:	e3120003 	tst	r2, #3	; 0x3
30002674:	13300000 	teqne	r0, #0	; 0x0
30002678:	0a00000a 	beq	300026a8 <__modsi3+0xc8>
3000267c:	e3720002 	cmn	r2, #2	; 0x2
30002680:	ba000006 	blt	300026a0 <__modsi3+0xc0>
30002684:	0a000002 	beq	30002694 <__modsi3+0xb4>
30002688:	e1500001 	cmp	r0, r1
3000268c:	20400001 	subcs	r0, r0, r1
30002690:	e1a010a1 	mov	r1, r1, lsr #1
30002694:	e1500001 	cmp	r0, r1
30002698:	20400001 	subcs	r0, r0, r1
3000269c:	e1a010a1 	mov	r1, r1, lsr #1
300026a0:	e1500001 	cmp	r0, r1
300026a4:	20400001 	subcs	r0, r0, r1
300026a8:	e35c0000 	cmp	ip, #0	; 0x0
300026ac:	42600000 	rsbmi	r0, r0, #0	; 0x0
300026b0:	e1a0f00e 	mov	pc, lr

300026b4 <Ldiv0>:
300026b4:	e52de004 	str	lr, [sp, #-4]!
300026b8:	e3a00000 	mov	r0, #0	; 0x0
300026bc:	e49df004 	ldr	pc, [sp], #4

300026c0 <__muldi3>:
300026c0:	e00c0192 	mul	ip, r2, r1
300026c4:	e92d41f0 	stmdb	sp!, {r4, r5, r6, r7, r8, lr}
300026c8:	e02ec093 	mla	lr, r3, r0, ip
300026cc:	e1a08820 	mov	r8, r0, lsr #16
300026d0:	e1a05822 	mov	r5, r2, lsr #16
300026d4:	e1c07808 	bic	r7, r0, r8, lsl #16
300026d8:	e1c26805 	bic	r6, r2, r5, lsl #16
300026dc:	e00c0697 	mul	ip, r7, r6
300026e0:	e0060698 	mul	r6, r8, r6
300026e4:	e0070795 	mul	r7, r5, r7
300026e8:	e0050598 	mul	r5, r8, r5
300026ec:	e0967007 	adds	r7, r6, r7
300026f0:	22855801 	addcs	r5, r5, #65536	; 0x10000
300026f4:	e09cc807 	adds	ip, ip, r7, lsl #16
300026f8:	e0a55827 	adc	r5, r5, r7, lsr #16
300026fc:	e1a0400c 	mov	r4, ip
30002700:	e1a01005 	mov	r1, r5
30002704:	e1a00004 	mov	r0, r4
30002708:	e08e1005 	add	r1, lr, r5
3000270c:	e8bd81f0 	ldmia	sp!, {r4, r5, r6, r7, r8, pc}

30002710 <printk>:
30002710:	e92d000f 	stmdb	sp!, {r0, r1, r2, r3}
30002714:	e59f0048 	ldr	r0, [pc, #72]	; 30002764 <.text+0x2764>
30002718:	e92d4070 	stmdb	sp!, {r4, r5, r6, lr}
3000271c:	e59d1010 	ldr	r1, [sp, #16]
30002720:	e3a04000 	mov	r4, #0	; 0x0
30002724:	e59f5038 	ldr	r5, [pc, #56]	; 30002764 <.text+0x2764>
30002728:	e28d2014 	add	r2, sp, #20	; 0x14
3000272c:	eb0004ac 	bl	300039e4 <vsprintf>
30002730:	e1a06000 	mov	r6, r0
30002734:	ea000002 	b	30002744 <printk+0x34>
30002738:	e7d50004 	ldrb	r0, [r5, r4]
3000273c:	ebfffa2a 	bl	30000fec <putc>
30002740:	e2844001 	add	r4, r4, #1	; 0x1
30002744:	e59f0018 	ldr	r0, [pc, #24]	; 30002764 <.text+0x2764>
30002748:	eb000097 	bl	300029ac <strlen>
3000274c:	e1540000 	cmp	r4, r0
30002750:	3afffff8 	bcc	30002738 <printk+0x28>
30002754:	e1a00006 	mov	r0, r6
30002758:	e8bd4070 	ldmia	sp!, {r4, r5, r6, lr}
3000275c:	e28dd010 	add	sp, sp, #16	; 0x10
30002760:	e1a0f00e 	mov	pc, lr
30002764:	3000905c 	andcc	r9, r0, ip, asr r0

30002768 <scanf>:
30002768:	e92d000f 	stmdb	sp!, {r0, r1, r2, r3}
3000276c:	e92d4030 	stmdb	sp!, {r4, r5, lr}
30002770:	e59f5044 	ldr	r5, [pc, #68]	; 300027bc <.text+0x27bc>
30002774:	e3a04000 	mov	r4, #0	; 0x0
30002778:	ea000001 	b	30002784 <scanf+0x1c>
3000277c:	e7c40005 	strb	r0, [r4, r5]
30002780:	e2844001 	add	r4, r4, #1	; 0x1
30002784:	ebfffa1f 	bl	30001008 <getc>
30002788:	e20000ff 	and	r0, r0, #255	; 0xff
3000278c:	e350000a 	cmp	r0, #10	; 0xa
30002790:	1350000d 	cmpne	r0, #13	; 0xd
30002794:	1afffff8 	bne	3000277c <scanf+0x14>
30002798:	e3a03000 	mov	r3, #0	; 0x0
3000279c:	e59d100c 	ldr	r1, [sp, #12]
300027a0:	e28d2010 	add	r2, sp, #16	; 0x10
300027a4:	e59f0010 	ldr	r0, [pc, #16]	; 300027bc <.text+0x27bc>
300027a8:	e7c53004 	strb	r3, [r5, r4]
300027ac:	eb000498 	bl	30003a14 <vsscanf>
300027b0:	e8bd4030 	ldmia	sp!, {r4, r5, lr}
300027b4:	e28dd010 	add	sp, sp, #16	; 0x10
300027b8:	e1a0f00e 	mov	pc, lr
300027bc:	3000945c 	andcc	r9, r0, ip, asr r4

300027c0 <strnicmp>:
300027c0:	e92d41f0 	stmdb	sp!, {r4, r5, r6, r7, r8, lr}
300027c4:	e3520000 	cmp	r2, #0	; 0x0
300027c8:	e3a0e000 	mov	lr, #0	; 0x0
300027cc:	e1a07000 	mov	r7, r0
300027d0:	e1a06001 	mov	r6, r1
300027d4:	e1a0c00e 	mov	ip, lr
300027d8:	0a000018 	beq	30002840 <strnicmp+0x80>
300027dc:	e4d7e001 	ldrb	lr, [r7], #1
300027e0:	e35e0000 	cmp	lr, #0	; 0x0
300027e4:	e59f805c 	ldr	r8, [pc, #92]	; 30002848 <.text+0x2848>
300027e8:	e4d6c001 	ldrb	ip, [r6], #1
300027ec:	0a000013 	beq	30002840 <strnicmp+0x80>
300027f0:	e35c0000 	cmp	ip, #0	; 0x0
300027f4:	e1a0100e 	mov	r1, lr
300027f8:	e1a0400c 	mov	r4, ip
300027fc:	0a00000f 	beq	30002840 <strnicmp+0x80>
30002800:	e15e000c 	cmp	lr, ip
30002804:	0a00000b 	beq	30002838 <strnicmp+0x78>
30002808:	e7d8300e 	ldrb	r3, [r8, lr]
3000280c:	e3130001 	tst	r3, #1	; 0x1
30002810:	e7d8300c 	ldrb	r3, [r8, ip]
30002814:	e28e0020 	add	r0, lr, #32	; 0x20
30002818:	e28c5020 	add	r5, ip, #32	; 0x20
3000281c:	120010ff 	andne	r1, r0, #255	; 0xff
30002820:	e3130001 	tst	r3, #1	; 0x1
30002824:	120540ff 	andne	r4, r5, #255	; 0xff
30002828:	e201e0ff 	and	lr, r1, #255	; 0xff
3000282c:	e204c0ff 	and	ip, r4, #255	; 0xff
30002830:	e15e000c 	cmp	lr, ip
30002834:	1a000001 	bne	30002840 <strnicmp+0x80>
30002838:	e2522001 	subs	r2, r2, #1	; 0x1
3000283c:	1affffe6 	bne	300027dc <strnicmp+0x1c>
30002840:	e06c000e 	rsb	r0, ip, lr
30002844:	e8bd81f0 	ldmia	sp!, {r4, r5, r6, r7, r8, pc}
30002848:	30004758 	andcc	r4, r0, r8, asr r7

3000284c <strcpy>:
3000284c:	e1a02000 	mov	r2, r0
30002850:	e4d13001 	ldrb	r3, [r1], #1
30002854:	e3530000 	cmp	r3, #0	; 0x0
30002858:	e4c03001 	strb	r3, [r0], #1
3000285c:	1afffffb 	bne	30002850 <strcpy+0x4>
30002860:	e1a00002 	mov	r0, r2
30002864:	e1a0f00e 	mov	pc, lr

30002868 <strncpy>:
30002868:	e1a0c000 	mov	ip, r0
3000286c:	e2522001 	subs	r2, r2, #1	; 0x1
30002870:	3a000003 	bcc	30002884 <strncpy+0x1c>
30002874:	e4d13001 	ldrb	r3, [r1], #1
30002878:	e3530000 	cmp	r3, #0	; 0x0
3000287c:	e4c03001 	strb	r3, [r0], #1
30002880:	1afffff9 	bne	3000286c <strncpy+0x4>
30002884:	e1a0000c 	mov	r0, ip
30002888:	e1a0f00e 	mov	pc, lr

3000288c <strcat>:
3000288c:	e5d03000 	ldrb	r3, [r0]
30002890:	e1a02000 	mov	r2, r0
30002894:	ea000000 	b	3000289c <strcat+0x10>
30002898:	e5f03001 	ldrb	r3, [r0, #1]!
3000289c:	e3530000 	cmp	r3, #0	; 0x0
300028a0:	1afffffc 	bne	30002898 <strcat+0xc>
300028a4:	e4d13001 	ldrb	r3, [r1], #1
300028a8:	e3530000 	cmp	r3, #0	; 0x0
300028ac:	e4c03001 	strb	r3, [r0], #1
300028b0:	1afffffb 	bne	300028a4 <strcat+0x18>
300028b4:	e1a00002 	mov	r0, r2
300028b8:	e1a0f00e 	mov	pc, lr

300028bc <strncat>:
300028bc:	e3520000 	cmp	r2, #0	; 0x0
300028c0:	e1a0c000 	mov	ip, r0
300028c4:	0a00000b 	beq	300028f8 <strncat+0x3c>
300028c8:	e5d03000 	ldrb	r3, [r0]
300028cc:	ea000000 	b	300028d4 <strncat+0x18>
300028d0:	e5f03001 	ldrb	r3, [r0, #1]!
300028d4:	e3530000 	cmp	r3, #0	; 0x0
300028d8:	1afffffc 	bne	300028d0 <strncat+0x14>
300028dc:	e4d13001 	ldrb	r3, [r1], #1
300028e0:	e3530000 	cmp	r3, #0	; 0x0
300028e4:	e4c03001 	strb	r3, [r0], #1
300028e8:	0a000002 	beq	300028f8 <strncat+0x3c>
300028ec:	e2522001 	subs	r2, r2, #1	; 0x1
300028f0:	1afffff9 	bne	300028dc <strncat+0x20>
300028f4:	e5c02000 	strb	r2, [r0]
300028f8:	e1a0000c 	mov	r0, ip
300028fc:	e1a0f00e 	mov	pc, lr

30002900 <strcmp>:
30002900:	e5d02000 	ldrb	r2, [r0]
30002904:	e4d13001 	ldrb	r3, [r1], #1
30002908:	e0633002 	rsb	r3, r3, r2
3000290c:	e1b0cc03 	movs	ip, r3, lsl #24
30002910:	e2800001 	add	r0, r0, #1	; 0x1
30002914:	e20330ff 	and	r3, r3, #255	; 0xff
30002918:	1a000001 	bne	30002924 <strcmp+0x24>
3000291c:	e3520000 	cmp	r2, #0	; 0x0
30002920:	1afffff6 	bne	30002900 <strcmp>
30002924:	e1a00c03 	mov	r0, r3, lsl #24
30002928:	e1a00c40 	mov	r0, r0, asr #24
3000292c:	e1a0f00e 	mov	pc, lr

30002930 <strncmp>:
30002930:	e3520000 	cmp	r2, #0	; 0x0
30002934:	e52de004 	str	lr, [sp, #-4]!
30002938:	e3a03000 	mov	r3, #0	; 0x0
3000293c:	0a00000a 	beq	3000296c <strncmp+0x3c>
30002940:	e5d0c000 	ldrb	ip, [r0]
30002944:	e4d13001 	ldrb	r3, [r1], #1
30002948:	e063300c 	rsb	r3, r3, ip
3000294c:	e1b0ec03 	movs	lr, r3, lsl #24
30002950:	e2800001 	add	r0, r0, #1	; 0x1
30002954:	e20330ff 	and	r3, r3, #255	; 0xff
30002958:	1a000003 	bne	3000296c <strncmp+0x3c>
3000295c:	e35c0000 	cmp	ip, #0	; 0x0
30002960:	0a000001 	beq	3000296c <strncmp+0x3c>
30002964:	e2522001 	subs	r2, r2, #1	; 0x1
30002968:	1afffff4 	bne	30002940 <strncmp+0x10>
3000296c:	e1a00c03 	mov	r0, r3, lsl #24
30002970:	e1a00c40 	mov	r0, r0, asr #24
30002974:	e49df004 	ldr	pc, [sp], #4

30002978 <strchr>:
30002978:	e5d02000 	ldrb	r2, [r0]
3000297c:	e20110ff 	and	r1, r1, #255	; 0xff
30002980:	e1520001 	cmp	r2, r1
30002984:	e1a03000 	mov	r3, r0
30002988:	0a000005 	beq	300029a4 <strchr+0x2c>
3000298c:	e1a00002 	mov	r0, r2
30002990:	e3500000 	cmp	r0, #0	; 0x0
30002994:	01a0f00e 	moveq	pc, lr
30002998:	e5f30001 	ldrb	r0, [r3, #1]!
3000299c:	e1500001 	cmp	r0, r1
300029a0:	1afffffa 	bne	30002990 <strchr+0x18>
300029a4:	e1a00003 	mov	r0, r3
300029a8:	e1a0f00e 	mov	pc, lr

300029ac <strlen>:
300029ac:	e5d03000 	ldrb	r3, [r0]
300029b0:	e3530000 	cmp	r3, #0	; 0x0
300029b4:	e1a02000 	mov	r2, r0
300029b8:	0a000002 	beq	300029c8 <strlen+0x1c>
300029bc:	e5f03001 	ldrb	r3, [r0, #1]!
300029c0:	e3530000 	cmp	r3, #0	; 0x0
300029c4:	1afffffc 	bne	300029bc <strlen+0x10>
300029c8:	e0620000 	rsb	r0, r2, r0
300029cc:	e1a0f00e 	mov	pc, lr

300029d0 <strrchr>:
300029d0:	e92d4030 	stmdb	sp!, {r4, r5, lr}
300029d4:	e1a04001 	mov	r4, r1
300029d8:	e1a05000 	mov	r5, r0
300029dc:	ebfffff2 	bl	300029ac <strlen>
300029e0:	e20440ff 	and	r4, r4, #255	; 0xff
300029e4:	e0800005 	add	r0, r0, r5
300029e8:	e5d03000 	ldrb	r3, [r0]
300029ec:	e1530004 	cmp	r3, r4
300029f0:	08bd8030 	ldmeqia	sp!, {r4, r5, pc}
300029f4:	e2400001 	sub	r0, r0, #1	; 0x1
300029f8:	e1500005 	cmp	r0, r5
300029fc:	2afffff9 	bcs	300029e8 <strrchr+0x18>
30002a00:	e3a00000 	mov	r0, #0	; 0x0
30002a04:	e8bd8030 	ldmia	sp!, {r4, r5, pc}

30002a08 <strnlen>:
30002a08:	e2411001 	sub	r1, r1, #1	; 0x1
30002a0c:	e3710001 	cmn	r1, #1	; 0x1
30002a10:	e1a02000 	mov	r2, r0
30002a14:	0a000009 	beq	30002a40 <strnlen+0x38>
30002a18:	e5d23000 	ldrb	r3, [r2]
30002a1c:	e3530000 	cmp	r3, #0	; 0x0
30002a20:	0a000006 	beq	30002a40 <strnlen+0x38>
30002a24:	e2411001 	sub	r1, r1, #1	; 0x1
30002a28:	e3710001 	cmn	r1, #1	; 0x1
30002a2c:	e2800001 	add	r0, r0, #1	; 0x1
30002a30:	0a000002 	beq	30002a40 <strnlen+0x38>
30002a34:	e5d03000 	ldrb	r3, [r0]
30002a38:	e3530000 	cmp	r3, #0	; 0x0
30002a3c:	1afffff8 	bne	30002a24 <strnlen+0x1c>
30002a40:	e0620000 	rsb	r0, r2, r0
30002a44:	e1a0f00e 	mov	pc, lr

30002a48 <strspn>:
30002a48:	e92d4010 	stmdb	sp!, {r4, lr}
30002a4c:	e3a0e000 	mov	lr, #0	; 0x0
30002a50:	e5d03000 	ldrb	r3, [r0]
30002a54:	e3530000 	cmp	r3, #0	; 0x0
30002a58:	0a00000a 	beq	30002a88 <strspn+0x40>
30002a5c:	e5d14000 	ldrb	r4, [r1]
30002a60:	e3540000 	cmp	r4, #0	; 0x0
30002a64:	e1a02001 	mov	r2, r1
30002a68:	0a000008 	beq	30002a90 <strspn+0x48>
30002a6c:	e5d0c000 	ldrb	ip, [r0]
30002a70:	e1a03004 	mov	r3, r4
30002a74:	e15c0003 	cmp	ip, r3
30002a78:	0a00000d 	beq	30002ab4 <strspn+0x6c>
30002a7c:	e5f23001 	ldrb	r3, [r2, #1]!
30002a80:	e3530000 	cmp	r3, #0	; 0x0
30002a84:	1afffffa 	bne	30002a74 <strspn+0x2c>
30002a88:	e1a0000e 	mov	r0, lr
30002a8c:	e8bd8010 	ldmia	sp!, {r4, pc}
30002a90:	e5d13000 	ldrb	r3, [r1]
30002a94:	e3530000 	cmp	r3, #0	; 0x0
30002a98:	0afffffa 	beq	30002a88 <strspn+0x40>
30002a9c:	e5f03001 	ldrb	r3, [r0, #1]!
30002aa0:	e3530000 	cmp	r3, #0	; 0x0
30002aa4:	e28ee001 	add	lr, lr, #1	; 0x1
30002aa8:	1affffec 	bne	30002a60 <strspn+0x18>
30002aac:	e1a0000e 	mov	r0, lr
30002ab0:	e8bd8010 	ldmia	sp!, {r4, pc}
30002ab4:	e5d23000 	ldrb	r3, [r2]
30002ab8:	eafffff5 	b	30002a94 <strspn+0x4c>

30002abc <strpbrk>:
30002abc:	e52de004 	str	lr, [sp, #-4]!
30002ac0:	e5d03000 	ldrb	r3, [r0]
30002ac4:	e3530000 	cmp	r3, #0	; 0x0
30002ac8:	0a00000c 	beq	30002b00 <strpbrk+0x44>
30002acc:	e5d1e000 	ldrb	lr, [r1]
30002ad0:	e25e3000 	subs	r3, lr, #0	; 0x0
30002ad4:	e1a02001 	mov	r2, r1
30002ad8:	0a000005 	beq	30002af4 <strpbrk+0x38>
30002adc:	e5d0c000 	ldrb	ip, [r0]
30002ae0:	e15c0003 	cmp	ip, r3
30002ae4:	049df004 	ldreq	pc, [sp], #4
30002ae8:	e5f23001 	ldrb	r3, [r2, #1]!
30002aec:	e3530000 	cmp	r3, #0	; 0x0
30002af0:	1afffffa 	bne	30002ae0 <strpbrk+0x24>
30002af4:	e5f03001 	ldrb	r3, [r0, #1]!
30002af8:	e3530000 	cmp	r3, #0	; 0x0
30002afc:	1afffff3 	bne	30002ad0 <strpbrk+0x14>
30002b00:	e3a00000 	mov	r0, #0	; 0x0
30002b04:	e49df004 	ldr	pc, [sp], #4

30002b08 <strtok>:
30002b08:	e92d4070 	stmdb	sp!, {r4, r5, r6, lr}
30002b0c:	e2504000 	subs	r4, r0, #0	; 0x0
30002b10:	e1a05001 	mov	r5, r1
30002b14:	159f606c 	ldrne	r6, [pc, #108]	; 30002b88 <.text+0x2b88>
30002b18:	0a000014 	beq	30002b70 <strtok+0x68>
30002b1c:	e1a00004 	mov	r0, r4
30002b20:	e1a01005 	mov	r1, r5
30002b24:	ebffffc7 	bl	30002a48 <strspn>
30002b28:	e7f43000 	ldrb	r3, [r4, r0]!
30002b2c:	e20330ff 	and	r3, r3, #255	; 0xff
30002b30:	e3530000 	cmp	r3, #0	; 0x0
30002b34:	01a00003 	moveq	r0, r3
30002b38:	05863000 	streq	r3, [r6]
30002b3c:	08bd8070 	ldmeqia	sp!, {r4, r5, r6, pc}
30002b40:	e1a01005 	mov	r1, r5
30002b44:	e1a00004 	mov	r0, r4
30002b48:	ebffffdb 	bl	30002abc <strpbrk>
30002b4c:	e3500000 	cmp	r0, #0	; 0x0
30002b50:	0a000003 	beq	30002b64 <strtok+0x5c>
30002b54:	e5d03000 	ldrb	r3, [r0]
30002b58:	e3530000 	cmp	r3, #0	; 0x0
30002b5c:	13a03000 	movne	r3, #0	; 0x0
30002b60:	14c03001 	strneb	r3, [r0], #1
30002b64:	e5860000 	str	r0, [r6]
30002b68:	e1a00004 	mov	r0, r4
30002b6c:	e8bd8070 	ldmia	sp!, {r4, r5, r6, pc}
30002b70:	e59f6010 	ldr	r6, [pc, #16]	; 30002b88 <.text+0x2b88>
30002b74:	e5964000 	ldr	r4, [r6]
30002b78:	e3540000 	cmp	r4, #0	; 0x0
30002b7c:	01a00004 	moveq	r0, r4
30002b80:	1affffe5 	bne	30002b1c <strtok+0x14>
30002b84:	e8bd8070 	ldmia	sp!, {r4, r5, r6, pc}
30002b88:	30009ca4 	andcc	r9, r0, r4, lsr #25

30002b8c <strsep>:
30002b8c:	e92d4030 	stmdb	sp!, {r4, r5, lr}
30002b90:	e1a05000 	mov	r5, r0
30002b94:	e5904000 	ldr	r4, [r0]
30002b98:	e2540000 	subs	r0, r4, #0	; 0x0
30002b9c:	e1a03004 	mov	r3, r4
30002ba0:	0a000005 	beq	30002bbc <strsep+0x30>
30002ba4:	ebffffc4 	bl	30002abc <strpbrk>
30002ba8:	e3500000 	cmp	r0, #0	; 0x0
30002bac:	13a03000 	movne	r3, #0	; 0x0
30002bb0:	14c03001 	strneb	r3, [r0], #1
30002bb4:	e1a03004 	mov	r3, r4
30002bb8:	e5850000 	str	r0, [r5]
30002bbc:	e1a00003 	mov	r0, r3
30002bc0:	e8bd8030 	ldmia	sp!, {r4, r5, pc}

30002bc4 <memset>:
30002bc4:	e2422001 	sub	r2, r2, #1	; 0x1
30002bc8:	e3720001 	cmn	r2, #1	; 0x1
30002bcc:	e1a03000 	mov	r3, r0
30002bd0:	01a0f00e 	moveq	pc, lr
30002bd4:	e2422001 	sub	r2, r2, #1	; 0x1
30002bd8:	e3720001 	cmn	r2, #1	; 0x1
30002bdc:	e4c31001 	strb	r1, [r3], #1
30002be0:	1afffffb 	bne	30002bd4 <memset+0x10>
30002be4:	e1a0f00e 	mov	pc, lr

30002be8 <bcopy>:
30002be8:	e2522001 	subs	r2, r2, #1	; 0x1
30002bec:	31a0f00e 	movcc	pc, lr
30002bf0:	e2422001 	sub	r2, r2, #1	; 0x1
30002bf4:	e4d03001 	ldrb	r3, [r0], #1
30002bf8:	e3720001 	cmn	r2, #1	; 0x1
30002bfc:	e4c13001 	strb	r3, [r1], #1
30002c00:	1afffffa 	bne	30002bf0 <bcopy+0x8>
30002c04:	e1a0f00e 	mov	pc, lr

30002c08 <memcpy>:
30002c08:	e2422001 	sub	r2, r2, #1	; 0x1
30002c0c:	e3720001 	cmn	r2, #1	; 0x1
30002c10:	e1a0c000 	mov	ip, r0
30002c14:	01a0f00e 	moveq	pc, lr
30002c18:	e2422001 	sub	r2, r2, #1	; 0x1
30002c1c:	e4d13001 	ldrb	r3, [r1], #1
30002c20:	e3720001 	cmn	r2, #1	; 0x1
30002c24:	e4cc3001 	strb	r3, [ip], #1
30002c28:	1afffffa 	bne	30002c18 <memcpy+0x10>
30002c2c:	e1a0f00e 	mov	pc, lr

30002c30 <memmove>:
30002c30:	e1500001 	cmp	r0, r1
30002c34:	8a000009 	bhi	30002c60 <memmove+0x30>
30002c38:	e2422001 	sub	r2, r2, #1	; 0x1
30002c3c:	e3720001 	cmn	r2, #1	; 0x1
30002c40:	e1a0c000 	mov	ip, r0
30002c44:	01a0f00e 	moveq	pc, lr
30002c48:	e2422001 	sub	r2, r2, #1	; 0x1
30002c4c:	e4d13001 	ldrb	r3, [r1], #1
30002c50:	e3720001 	cmn	r2, #1	; 0x1
30002c54:	e4cc3001 	strb	r3, [ip], #1
30002c58:	1afffffa 	bne	30002c48 <memmove+0x18>
30002c5c:	e1a0f00e 	mov	pc, lr
30002c60:	e0811002 	add	r1, r1, r2
30002c64:	e080c002 	add	ip, r0, r2
30002c68:	e2522001 	subs	r2, r2, #1	; 0x1
30002c6c:	31a0f00e 	movcc	pc, lr
30002c70:	e2422001 	sub	r2, r2, #1	; 0x1
30002c74:	e5713001 	ldrb	r3, [r1, #-1]!
30002c78:	e3720001 	cmn	r2, #1	; 0x1
30002c7c:	e56c3001 	strb	r3, [ip, #-1]!
30002c80:	1afffffa 	bne	30002c70 <memmove+0x40>
30002c84:	e1a0f00e 	mov	pc, lr

30002c88 <memcmp>:
30002c88:	e252c000 	subs	ip, r2, #0	; 0x0
30002c8c:	e3a02000 	mov	r2, #0	; 0x0
30002c90:	0a000007 	beq	30002cb4 <memcmp+0x2c>
30002c94:	e5d02000 	ldrb	r2, [r0]
30002c98:	e5d13000 	ldrb	r3, [r1]
30002c9c:	e0522003 	subs	r2, r2, r3
30002ca0:	e2800001 	add	r0, r0, #1	; 0x1
30002ca4:	e2811001 	add	r1, r1, #1	; 0x1
30002ca8:	1a000001 	bne	30002cb4 <memcmp+0x2c>
30002cac:	e25cc001 	subs	ip, ip, #1	; 0x1
30002cb0:	1afffff7 	bne	30002c94 <memcmp+0xc>
30002cb4:	e1a00002 	mov	r0, r2
30002cb8:	e1a0f00e 	mov	pc, lr

30002cbc <memscan>:
30002cbc:	e3520000 	cmp	r2, #0	; 0x0
30002cc0:	01a0f00e 	moveq	pc, lr
30002cc4:	e5d03000 	ldrb	r3, [r0]
30002cc8:	e1530001 	cmp	r3, r1
30002ccc:	01a0f00e 	moveq	pc, lr
30002cd0:	e2522001 	subs	r2, r2, #1	; 0x1
30002cd4:	e2800001 	add	r0, r0, #1	; 0x1
30002cd8:	1afffff9 	bne	30002cc4 <memscan+0x8>
30002cdc:	e1a0f00e 	mov	pc, lr

30002ce0 <strstr>:
30002ce0:	e92d40f0 	stmdb	sp!, {r4, r5, r6, r7, lr}
30002ce4:	e1a05000 	mov	r5, r0
30002ce8:	e1a00001 	mov	r0, r1
30002cec:	e1a07001 	mov	r7, r1
30002cf0:	ebffff2d 	bl	300029ac <strlen>
30002cf4:	e2506000 	subs	r6, r0, #0	; 0x0
30002cf8:	1a000001 	bne	30002d04 <strstr+0x24>
30002cfc:	e1a00005 	mov	r0, r5
30002d00:	e8bd80f0 	ldmia	sp!, {r4, r5, r6, r7, pc}
30002d04:	e1a00005 	mov	r0, r5
30002d08:	ebffff27 	bl	300029ac <strlen>
30002d0c:	e1500006 	cmp	r0, r6
30002d10:	e1a04000 	mov	r4, r0
30002d14:	ba000009 	blt	30002d40 <strstr+0x60>
30002d18:	e1a00005 	mov	r0, r5
30002d1c:	e1a01007 	mov	r1, r7
30002d20:	e1a02006 	mov	r2, r6
30002d24:	ebffffd7 	bl	30002c88 <memcmp>
30002d28:	e3500000 	cmp	r0, #0	; 0x0
30002d2c:	e2444001 	sub	r4, r4, #1	; 0x1
30002d30:	0afffff1 	beq	30002cfc <strstr+0x1c>
30002d34:	e1540006 	cmp	r4, r6
30002d38:	e2855001 	add	r5, r5, #1	; 0x1
30002d3c:	aafffff5 	bge	30002d18 <strstr+0x38>
30002d40:	e3a00000 	mov	r0, #0	; 0x0
30002d44:	e8bd80f0 	ldmia	sp!, {r4, r5, r6, r7, pc}

30002d48 <memchr>:
30002d48:	e2522001 	subs	r2, r2, #1	; 0x1
30002d4c:	3a000007 	bcc	30002d70 <memchr+0x28>
30002d50:	e20110ff 	and	r1, r1, #255	; 0xff
30002d54:	e2400001 	sub	r0, r0, #1	; 0x1
30002d58:	e5f03001 	ldrb	r3, [r0, #1]!
30002d5c:	e1530001 	cmp	r3, r1
30002d60:	e2422001 	sub	r2, r2, #1	; 0x1
30002d64:	01a0f00e 	moveq	pc, lr
30002d68:	e3720001 	cmn	r2, #1	; 0x1
30002d6c:	1afffff9 	bne	30002d58 <memchr+0x10>
30002d70:	e3a00000 	mov	r0, #0	; 0x0
30002d74:	e1a0f00e 	mov	pc, lr

30002d78 <simple_strtoul>:
30002d78:	e92d4030 	stmdb	sp!, {r4, r5, lr}
30002d7c:	e252e000 	subs	lr, r2, #0	; 0x0
30002d80:	e1a04001 	mov	r4, r1
30002d84:	e3a01000 	mov	r1, #0	; 0x0
30002d88:	1a000018 	bne	30002df0 <simple_strtoul+0x78>
30002d8c:	e5d0c000 	ldrb	ip, [r0]
30002d90:	e35c0030 	cmp	ip, #48	; 0x30
30002d94:	e3a0e00a 	mov	lr, #10	; 0xa
30002d98:	0a000023 	beq	30002e2c <simple_strtoul+0xb4>
30002d9c:	e59f50c8 	ldr	r5, [pc, #200]	; 30002e6c <.text+0x2e6c>
30002da0:	ea000009 	b	30002dcc <simple_strtoul+0x54>
30002da4:	e3120004 	tst	r2, #4	; 0x4
30002da8:	1a000003 	bne	30002dbc <simple_strtoul+0x44>
30002dac:	e3120002 	tst	r2, #2	; 0x2
30002db0:	e2432020 	sub	r2, r3, #32	; 0x20
30002db4:	120230ff 	andne	r3, r2, #255	; 0xff
30002db8:	e243c037 	sub	ip, r3, #55	; 0x37
30002dbc:	e15c000e 	cmp	ip, lr
30002dc0:	2a000006 	bcs	30002de0 <simple_strtoul+0x68>
30002dc4:	e021c19e 	mla	r1, lr, r1, ip
30002dc8:	e5f0c001 	ldrb	ip, [r0, #1]!
30002dcc:	e20c30ff 	and	r3, ip, #255	; 0xff
30002dd0:	e7d52003 	ldrb	r2, [r5, r3]
30002dd4:	e3120044 	tst	r2, #68	; 0x44
30002dd8:	e243c030 	sub	ip, r3, #48	; 0x30
30002ddc:	1afffff0 	bne	30002da4 <simple_strtoul+0x2c>
30002de0:	e3540000 	cmp	r4, #0	; 0x0
30002de4:	15840000 	strne	r0, [r4]
30002de8:	e1a00001 	mov	r0, r1
30002dec:	e8bd8030 	ldmia	sp!, {r4, r5, pc}
30002df0:	e35e0010 	cmp	lr, #16	; 0x10
30002df4:	15d0c000 	ldrneb	ip, [r0]
30002df8:	1affffe7 	bne	30002d9c <simple_strtoul+0x24>
30002dfc:	e5d0c000 	ldrb	ip, [r0]
30002e00:	e35c0030 	cmp	ip, #48	; 0x30
30002e04:	1affffe4 	bne	30002d9c <simple_strtoul+0x24>
30002e08:	e5d02001 	ldrb	r2, [r0, #1]
30002e0c:	e59f5058 	ldr	r5, [pc, #88]	; 30002e6c <.text+0x2e6c>
30002e10:	e7d53002 	ldrb	r3, [r5, r2]
30002e14:	e3130002 	tst	r3, #2	; 0x2
30002e18:	12423020 	subne	r3, r2, #32	; 0x20
30002e1c:	120320ff 	andne	r2, r3, #255	; 0xff
30002e20:	e3520058 	cmp	r2, #88	; 0x58
30002e24:	05f0c002 	ldreqb	ip, [r0, #2]!
30002e28:	eaffffe7 	b	30002dcc <simple_strtoul+0x54>
30002e2c:	e5f0c001 	ldrb	ip, [r0, #1]!
30002e30:	e59f5034 	ldr	r5, [pc, #52]	; 30002e6c <.text+0x2e6c>
30002e34:	e20c20ff 	and	r2, ip, #255	; 0xff
30002e38:	e7d53002 	ldrb	r3, [r5, r2]
30002e3c:	e3130002 	tst	r3, #2	; 0x2
30002e40:	12423020 	subne	r3, r2, #32	; 0x20
30002e44:	120320ff 	andne	r2, r3, #255	; 0xff
30002e48:	e3520058 	cmp	r2, #88	; 0x58
30002e4c:	e24ee002 	sub	lr, lr, #2	; 0x2
30002e50:	1affffdd 	bne	30002dcc <simple_strtoul+0x54>
30002e54:	e5d03001 	ldrb	r3, [r0, #1]
30002e58:	e7d52003 	ldrb	r2, [r5, r3]
30002e5c:	e3120044 	tst	r2, #68	; 0x44
30002e60:	15f0c001 	ldrneb	ip, [r0, #1]!
30002e64:	13a0e010 	movne	lr, #16	; 0x10
30002e68:	eaffffd7 	b	30002dcc <simple_strtoul+0x54>
30002e6c:	30004758 	andcc	r4, r0, r8, asr r7

30002e70 <simple_strtol>:
30002e70:	e52de004 	str	lr, [sp, #-4]!
30002e74:	e5d03000 	ldrb	r3, [r0]
30002e78:	e353002d 	cmp	r3, #45	; 0x2d
30002e7c:	0a000001 	beq	30002e88 <simple_strtol+0x18>
30002e80:	e49de004 	ldr	lr, [sp], #4
30002e84:	eaffffbb 	b	30002d78 <simple_strtoul>
30002e88:	e2800001 	add	r0, r0, #1	; 0x1
30002e8c:	ebffffb9 	bl	30002d78 <simple_strtoul>
30002e90:	e2600000 	rsb	r0, r0, #0	; 0x0
30002e94:	e49df004 	ldr	pc, [sp], #4

30002e98 <simple_strtoull>:
30002e98:	e92d4ff0 	stmdb	sp!, {r4, r5, r6, r7, r8, r9, sl, fp, lr}
30002e9c:	e252e000 	subs	lr, r2, #0	; 0x0
30002ea0:	e1a08000 	mov	r8, r0
30002ea4:	e1a09001 	mov	r9, r1
30002ea8:	e3a0b000 	mov	fp, #0	; 0x0
30002eac:	e3a0a000 	mov	sl, #0	; 0x0
30002eb0:	1a000029 	bne	30002f5c <simple_strtoull+0xc4>
30002eb4:	e5d0c000 	ldrb	ip, [r0]
30002eb8:	e35c0030 	cmp	ip, #48	; 0x30
30002ebc:	e3a0e00a 	mov	lr, #10	; 0xa
30002ec0:	0a000034 	beq	30002f98 <simple_strtoull+0x100>
30002ec4:	e1a0600e 	mov	r6, lr
30002ec8:	e3a07000 	mov	r7, #0	; 0x0
30002ecc:	ea000017 	b	30002f30 <simple_strtoull+0x98>
30002ed0:	e3120004 	tst	r2, #4	; 0x4
30002ed4:	1a000004 	bne	30002eec <simple_strtoull+0x54>
30002ed8:	e2413020 	sub	r3, r1, #32	; 0x20
30002edc:	e20330ff 	and	r3, r3, #255	; 0xff
30002ee0:	e3120002 	tst	r2, #2	; 0x2
30002ee4:	e243c037 	sub	ip, r3, #55	; 0x37
30002ee8:	0241c037 	subeq	ip, r1, #55	; 0x37
30002eec:	e1a0400c 	mov	r4, ip
30002ef0:	e1a05fc4 	mov	r5, r4, asr #31
30002ef4:	e1570005 	cmp	r7, r5
30002ef8:	e1a0300b 	mov	r3, fp
30002efc:	e1a0200a 	mov	r2, sl
30002f00:	e1a01007 	mov	r1, r7
30002f04:	e1a00006 	mov	r0, r6
30002f08:	8a000002 	bhi	30002f18 <simple_strtoull+0x80>
30002f0c:	1a00000d 	bne	30002f48 <simple_strtoull+0xb0>
30002f10:	e1560004 	cmp	r6, r4
30002f14:	9a00000b 	bls	30002f48 <simple_strtoull+0xb0>
30002f18:	ebfffde8 	bl	300026c0 <__muldi3>
30002f1c:	e5f8c001 	ldrb	ip, [r8, #1]!
30002f20:	e1a0b001 	mov	fp, r1
30002f24:	e1a0a000 	mov	sl, r0
30002f28:	e090a004 	adds	sl, r0, r4
30002f2c:	e0abb005 	adc	fp, fp, r5
30002f30:	e59f30a4 	ldr	r3, [pc, #164]	; 30002fdc <.text+0x2fdc>
30002f34:	e20c10ff 	and	r1, ip, #255	; 0xff
30002f38:	e7d32001 	ldrb	r2, [r3, r1]
30002f3c:	e3120044 	tst	r2, #68	; 0x44
30002f40:	e241c030 	sub	ip, r1, #48	; 0x30
30002f44:	1affffe1 	bne	30002ed0 <simple_strtoull+0x38>
30002f48:	e3590000 	cmp	r9, #0	; 0x0
30002f4c:	e1a0100b 	mov	r1, fp
30002f50:	e1a0000a 	mov	r0, sl
30002f54:	15898000 	strne	r8, [r9]
30002f58:	e8bd8ff0 	ldmia	sp!, {r4, r5, r6, r7, r8, r9, sl, fp, pc}
30002f5c:	e35e0010 	cmp	lr, #16	; 0x10
30002f60:	15d0c000 	ldrneb	ip, [r0]
30002f64:	1affffd6 	bne	30002ec4 <simple_strtoull+0x2c>
30002f68:	e5d0c000 	ldrb	ip, [r0]
30002f6c:	e35c0030 	cmp	ip, #48	; 0x30
30002f70:	1affffd3 	bne	30002ec4 <simple_strtoull+0x2c>
30002f74:	e5d02001 	ldrb	r2, [r0, #1]
30002f78:	e59f105c 	ldr	r1, [pc, #92]	; 30002fdc <.text+0x2fdc>
30002f7c:	e7d13002 	ldrb	r3, [r1, r2]
30002f80:	e3130002 	tst	r3, #2	; 0x2
30002f84:	12423020 	subne	r3, r2, #32	; 0x20
30002f88:	120320ff 	andne	r2, r3, #255	; 0xff
30002f8c:	e3520058 	cmp	r2, #88	; 0x58
30002f90:	05f8c002 	ldreqb	ip, [r8, #2]!
30002f94:	eaffffca 	b	30002ec4 <simple_strtoull+0x2c>
30002f98:	e5f8c001 	ldrb	ip, [r8, #1]!
30002f9c:	e59f1038 	ldr	r1, [pc, #56]	; 30002fdc <.text+0x2fdc>
30002fa0:	e20c20ff 	and	r2, ip, #255	; 0xff
30002fa4:	e7d13002 	ldrb	r3, [r1, r2]
30002fa8:	e3130002 	tst	r3, #2	; 0x2
30002fac:	12423020 	subne	r3, r2, #32	; 0x20
30002fb0:	120320ff 	andne	r2, r3, #255	; 0xff
30002fb4:	e3520058 	cmp	r2, #88	; 0x58
30002fb8:	e24ee002 	sub	lr, lr, #2	; 0x2
30002fbc:	1affffc0 	bne	30002ec4 <simple_strtoull+0x2c>
30002fc0:	e5d83001 	ldrb	r3, [r8, #1]
30002fc4:	e59f1010 	ldr	r1, [pc, #16]	; 30002fdc <.text+0x2fdc>
30002fc8:	e7d12003 	ldrb	r2, [r1, r3]
30002fcc:	e3120044 	tst	r2, #68	; 0x44
30002fd0:	15f8c001 	ldrneb	ip, [r8, #1]!
30002fd4:	13a0e010 	movne	lr, #16	; 0x10
30002fd8:	eaffffb9 	b	30002ec4 <simple_strtoull+0x2c>
30002fdc:	30004758 	andcc	r4, r0, r8, asr r7

30002fe0 <simple_strtoll>:
30002fe0:	e52de004 	str	lr, [sp, #-4]!
30002fe4:	e5d03000 	ldrb	r3, [r0]
30002fe8:	e353002d 	cmp	r3, #45	; 0x2d
30002fec:	0a000001 	beq	30002ff8 <simple_strtoll+0x18>
30002ff0:	e49de004 	ldr	lr, [sp], #4
30002ff4:	eaffffa7 	b	30002e98 <simple_strtoull>
30002ff8:	e2800001 	add	r0, r0, #1	; 0x1
30002ffc:	ebffffa5 	bl	30002e98 <simple_strtoull>
30003000:	e2700000 	rsbs	r0, r0, #0	; 0x0
30003004:	e2e11000 	rsc	r1, r1, #0	; 0x0
30003008:	e49df004 	ldr	pc, [sp], #4

3000300c <skip_atoi>:
3000300c:	e92d4010 	stmdb	sp!, {r4, lr}
30003010:	e59f4040 	ldr	r4, [pc, #64]	; 30003058 <.text+0x3058>
30003014:	e1a0e000 	mov	lr, r0
30003018:	e590c000 	ldr	ip, [r0]
3000301c:	e5dc3000 	ldrb	r3, [ip]
30003020:	e7d42003 	ldrb	r2, [r4, r3]
30003024:	e3120004 	tst	r2, #4	; 0x4
30003028:	e3a00000 	mov	r0, #0	; 0x0
3000302c:	08bd8010 	ldmeqia	sp!, {r4, pc}
30003030:	e4dc1001 	ldrb	r1, [ip], #1
30003034:	e58ec000 	str	ip, [lr]
30003038:	e0803100 	add	r3, r0, r0, lsl #2
3000303c:	e0811083 	add	r1, r1, r3, lsl #1
30003040:	e2410030 	sub	r0, r1, #48	; 0x30
30003044:	e5dc3000 	ldrb	r3, [ip]
30003048:	e7d42003 	ldrb	r2, [r4, r3]
3000304c:	e3120004 	tst	r2, #4	; 0x4
30003050:	1afffff6 	bne	30003030 <skip_atoi+0x24>
30003054:	e8bd8010 	ldmia	sp!, {r4, pc}
30003058:	30004758 	andcc	r4, r0, r8, asr r7

3000305c <number>:
3000305c:	e92d4ff0 	stmdb	sp!, {r4, r5, r6, r7, r8, r9, sl, fp, lr}
30003060:	e59fe2d4 	ldr	lr, [pc, #724]	; 3000333c <.text+0x333c>
30003064:	e1a09001 	mov	r9, r1
30003068:	e1a07003 	mov	r7, r3
3000306c:	e1a06002 	mov	r6, r2
30003070:	e1a05000 	mov	r5, r0
30003074:	e24dd054 	sub	sp, sp, #84	; 0x54
30003078:	e59dc084 	ldr	ip, [sp, #132]
3000307c:	e31c0040 	tst	ip, #64	; 0x40
30003080:	e59fc2b8 	ldr	ip, [pc, #696]	; 30003340 <.text+0x3340>
30003084:	11a0e00c 	movne	lr, ip
30003088:	e59dc084 	ldr	ip, [sp, #132]
3000308c:	e59d1078 	ldr	r1, [sp, #120]
30003090:	e31c0010 	tst	ip, #16	; 0x10
30003094:	13ccc001 	bicne	ip, ip, #1	; 0x1
30003098:	e2413002 	sub	r3, r1, #2	; 0x2
3000309c:	158dc084 	strne	ip, [sp, #132]
300030a0:	e3530022 	cmp	r3, #34	; 0x22
300030a4:	e28d807c 	add	r8, sp, #124	; 0x7c
300030a8:	e8980900 	ldmia	r8, {r8, fp}
300030ac:	e58de004 	str	lr, [sp, #4]
300030b0:	83a00000 	movhi	r0, #0	; 0x0
300030b4:	8a00007b 	bhi	300032a8 <number+0x24c>
300030b8:	e59d2084 	ldr	r2, [sp, #132]
300030bc:	e3120001 	tst	r2, #1	; 0x1
300030c0:	03a03020 	moveq	r3, #32	; 0x20
300030c4:	13a03030 	movne	r3, #48	; 0x30
300030c8:	e3a0c000 	mov	ip, #0	; 0x0
300030cc:	e3120002 	tst	r2, #2	; 0x2
300030d0:	e58d300c 	str	r3, [sp, #12]
300030d4:	e58dc008 	str	ip, [sp, #8]
300030d8:	1a000074 	bne	300032b0 <number+0x254>
300030dc:	e59d2084 	ldr	r2, [sp, #132]
300030e0:	e2122020 	ands	r2, r2, #32	; 0x20
300030e4:	e58d2000 	str	r2, [sp]
300030e8:	0a000006 	beq	30003108 <number+0xac>
300030ec:	e59d3078 	ldr	r3, [sp, #120]
300030f0:	e3530010 	cmp	r3, #16	; 0x10
300030f4:	02488002 	subeq	r8, r8, #2	; 0x2
300030f8:	0a000002 	beq	30003108 <number+0xac>
300030fc:	e59dc078 	ldr	ip, [sp, #120]
30003100:	e35c0008 	cmp	ip, #8	; 0x8
30003104:	02488001 	subeq	r8, r8, #1	; 0x1
30003108:	e1961007 	orrs	r1, r6, r7
3000310c:	e3a0a000 	mov	sl, #0	; 0x0
30003110:	03a03030 	moveq	r3, #48	; 0x30
30003114:	028aa001 	addeq	sl, sl, #1	; 0x1
30003118:	05cd3010 	streqb	r3, [sp, #16]
3000311c:	0a00000d 	beq	30003158 <number+0xfc>
30003120:	e59d4078 	ldr	r4, [sp, #120]
30003124:	e1a01007 	mov	r1, r7
30003128:	e1a00006 	mov	r0, r6
3000312c:	ebfffc2b 	bl	300021e0 <__do_div64>
30003130:	e1a07003 	mov	r7, r3
30003134:	e1a06002 	mov	r6, r2
30003138:	e59d3004 	ldr	r3, [sp, #4]
3000313c:	e7d12003 	ldrb	r2, [r1, r3]
30003140:	e28d1054 	add	r1, sp, #84	; 0x54
30003144:	e08a3001 	add	r3, sl, r1
30003148:	e196c007 	orrs	ip, r6, r7
3000314c:	e5432044 	strb	r2, [r3, #-68]
30003150:	e28aa001 	add	sl, sl, #1	; 0x1
30003154:	1afffff2 	bne	30003124 <number+0xc8>
30003158:	e59d2084 	ldr	r2, [sp, #132]
3000315c:	e15b000a 	cmp	fp, sl
30003160:	b1a0b00a 	movlt	fp, sl
30003164:	e3120011 	tst	r2, #17	; 0x11
30003168:	e06b8008 	rsb	r8, fp, r8
3000316c:	1a00000a 	bne	3000319c <number+0x140>
30003170:	e3580000 	cmp	r8, #0	; 0x0
30003174:	e2488001 	sub	r8, r8, #1	; 0x1
30003178:	da000007 	ble	3000319c <number+0x140>
3000317c:	e3a02020 	mov	r2, #32	; 0x20
30003180:	e1550009 	cmp	r5, r9
30003184:	e1a03008 	mov	r3, r8
30003188:	95c52000 	strlsb	r2, [r5]
3000318c:	e3530000 	cmp	r3, #0	; 0x0
30003190:	e2488001 	sub	r8, r8, #1	; 0x1
30003194:	e2855001 	add	r5, r5, #1	; 0x1
30003198:	cafffff8 	bgt	30003180 <number+0x124>
3000319c:	e59d3008 	ldr	r3, [sp, #8]
300031a0:	e3530000 	cmp	r3, #0	; 0x0
300031a4:	0a000002 	beq	300031b4 <number+0x158>
300031a8:	e1550009 	cmp	r5, r9
300031ac:	95c53000 	strlsb	r3, [r5]
300031b0:	e2855001 	add	r5, r5, #1	; 0x1
300031b4:	e59dc000 	ldr	ip, [sp]
300031b8:	e35c0000 	cmp	ip, #0	; 0x0
300031bc:	0a000005 	beq	300031d8 <number+0x17c>
300031c0:	e59d1078 	ldr	r1, [sp, #120]
300031c4:	e3510008 	cmp	r1, #8	; 0x8
300031c8:	0a000046 	beq	300032e8 <number+0x28c>
300031cc:	e59d2078 	ldr	r2, [sp, #120]
300031d0:	e3520010 	cmp	r2, #16	; 0x10
300031d4:	0a000048 	beq	300032fc <number+0x2a0>
300031d8:	e59d1084 	ldr	r1, [sp, #132]
300031dc:	e3110010 	tst	r1, #16	; 0x10
300031e0:	1a00000a 	bne	30003210 <number+0x1b4>
300031e4:	e3580000 	cmp	r8, #0	; 0x0
300031e8:	e2488001 	sub	r8, r8, #1	; 0x1
300031ec:	da000007 	ble	30003210 <number+0x1b4>
300031f0:	e1550009 	cmp	r5, r9
300031f4:	959d200c 	ldrls	r2, [sp, #12]
300031f8:	e1a03008 	mov	r3, r8
300031fc:	95c52000 	strlsb	r2, [r5]
30003200:	e2488001 	sub	r8, r8, #1	; 0x1
30003204:	e3530000 	cmp	r3, #0	; 0x0
30003208:	e2855001 	add	r5, r5, #1	; 0x1
3000320c:	cafffff7 	bgt	300031f0 <number+0x194>
30003210:	e15b000a 	cmp	fp, sl
30003214:	e24bb001 	sub	fp, fp, #1	; 0x1
30003218:	da000007 	ble	3000323c <number+0x1e0>
3000321c:	e3a02030 	mov	r2, #48	; 0x30
30003220:	e1550009 	cmp	r5, r9
30003224:	e1a0300b 	mov	r3, fp
30003228:	95c52000 	strlsb	r2, [r5]
3000322c:	e153000a 	cmp	r3, sl
30003230:	e24bb001 	sub	fp, fp, #1	; 0x1
30003234:	e2855001 	add	r5, r5, #1	; 0x1
30003238:	cafffff8 	bgt	30003220 <number+0x1c4>
3000323c:	e35a0000 	cmp	sl, #0	; 0x0
30003240:	e24aa001 	sub	sl, sl, #1	; 0x1
30003244:	da00000b 	ble	30003278 <number+0x21c>
30003248:	e28dc054 	add	ip, sp, #84	; 0x54
3000324c:	e08a300c 	add	r3, sl, ip
30003250:	e2432044 	sub	r2, r3, #68	; 0x44
30003254:	e1550009 	cmp	r5, r9
30003258:	95d23000 	ldrlsb	r3, [r2]
3000325c:	e1a0100a 	mov	r1, sl
30003260:	95c53000 	strlsb	r3, [r5]
30003264:	e3510000 	cmp	r1, #0	; 0x0
30003268:	e24aa001 	sub	sl, sl, #1	; 0x1
3000326c:	e2855001 	add	r5, r5, #1	; 0x1
30003270:	e2422001 	sub	r2, r2, #1	; 0x1
30003274:	cafffff6 	bgt	30003254 <number+0x1f8>
30003278:	e3580000 	cmp	r8, #0	; 0x0
3000327c:	e2488001 	sub	r8, r8, #1	; 0x1
30003280:	da000007 	ble	300032a4 <number+0x248>
30003284:	e3a02020 	mov	r2, #32	; 0x20
30003288:	e1550009 	cmp	r5, r9
3000328c:	e1a03008 	mov	r3, r8
30003290:	95c52000 	strlsb	r2, [r5]
30003294:	e3530000 	cmp	r3, #0	; 0x0
30003298:	e2488001 	sub	r8, r8, #1	; 0x1
3000329c:	e2855001 	add	r5, r5, #1	; 0x1
300032a0:	cafffff8 	bgt	30003288 <number+0x22c>
300032a4:	e1a00005 	mov	r0, r5
300032a8:	e28dd054 	add	sp, sp, #84	; 0x54
300032ac:	e8bd8ff0 	ldmia	sp!, {r4, r5, r6, r7, r8, r9, sl, fp, pc}
300032b0:	e157000c 	cmp	r7, ip
300032b4:	ba00001a 	blt	30003324 <number+0x2c8>
300032b8:	e59d2084 	ldr	r2, [sp, #132]
300032bc:	e3120004 	tst	r2, #4	; 0x4
300032c0:	13a0302b 	movne	r3, #43	; 0x2b
300032c4:	12488001 	subne	r8, r8, #1	; 0x1
300032c8:	158d3008 	strne	r3, [sp, #8]
300032cc:	1affff82 	bne	300030dc <number+0x80>
300032d0:	e59dc084 	ldr	ip, [sp, #132]
300032d4:	e31c0008 	tst	ip, #8	; 0x8
300032d8:	13a01020 	movne	r1, #32	; 0x20
300032dc:	12488001 	subne	r8, r8, #1	; 0x1
300032e0:	158d1008 	strne	r1, [sp, #8]
300032e4:	eaffff7c 	b	300030dc <number+0x80>
300032e8:	e1550009 	cmp	r5, r9
300032ec:	93a03030 	movls	r3, #48	; 0x30
300032f0:	9a000009 	bls	3000331c <number+0x2c0>
300032f4:	e2855001 	add	r5, r5, #1	; 0x1
300032f8:	eaffffb6 	b	300031d8 <number+0x17c>
300032fc:	e1550009 	cmp	r5, r9
30003300:	93a03030 	movls	r3, #48	; 0x30
30003304:	95c53000 	strlsb	r3, [r5]
30003308:	e2855001 	add	r5, r5, #1	; 0x1
3000330c:	e1550009 	cmp	r5, r9
30003310:	8afffff7 	bhi	300032f4 <number+0x298>
30003314:	e59dc004 	ldr	ip, [sp, #4]
30003318:	e5dc3021 	ldrb	r3, [ip, #33]
3000331c:	e4c53001 	strb	r3, [r5], #1
30003320:	eaffffac 	b	300031d8 <number+0x17c>
30003324:	e3a0102d 	mov	r1, #45	; 0x2d
30003328:	e2766000 	rsbs	r6, r6, #0	; 0x0
3000332c:	e2e77000 	rsc	r7, r7, #0	; 0x0
30003330:	e2488001 	sub	r8, r8, #1	; 0x1
30003334:	e58d1008 	str	r1, [sp, #8]
30003338:	eaffff67 	b	300030dc <number+0x80>
3000333c:	30004138 	andcc	r4, r0, r8, lsr r1
30003340:	30004160 	andcc	r4, r0, r0, ror #2

30003344 <vsnprintf>:
30003344:	e92d4ff0 	stmdb	sp!, {r4, r5, r6, r7, r8, r9, sl, fp, lr}
30003348:	e3510000 	cmp	r1, #0	; 0x0
3000334c:	e1a09003 	mov	r9, r3
30003350:	b59f360c 	ldrlt	r3, [pc, #1548]	; 30003964 <.text+0x3964>
30003354:	e1a0c002 	mov	ip, r2
30003358:	e1a0a000 	mov	sl, r0
3000335c:	e24dd018 	sub	sp, sp, #24	; 0x18
30003360:	e58d2014 	str	r2, [sp, #20]
30003364:	b3a02000 	movlt	r2, #0	; 0x0
30003368:	b1a00002 	movlt	r0, r2
3000336c:	e58d1010 	str	r1, [sp, #16]
30003370:	b5832000 	strlt	r2, [r3]
30003374:	ba000024 	blt	3000340c <vsnprintf+0xc8>
30003378:	e59d2010 	ldr	r2, [sp, #16]
3000337c:	e08a3002 	add	r3, sl, r2
30003380:	e2437001 	sub	r7, r3, #1	; 0x1
30003384:	e24a2001 	sub	r2, sl, #1	; 0x1
30003388:	e1520007 	cmp	r2, r7
3000338c:	826a3000 	rsbhi	r3, sl, #0	; 0x0
30003390:	858d3010 	strhi	r3, [sp, #16]
30003394:	e1a0300c 	mov	r3, ip
30003398:	e1a0c003 	mov	ip, r3
3000339c:	83e07000 	mvnhi	r7, #0	; 0x0
300033a0:	e1a0400a 	mov	r4, sl
300033a4:	e5d33000 	ldrb	r3, [r3]
300033a8:	e3530000 	cmp	r3, #0	; 0x0
300033ac:	0a00000d 	beq	300033e8 <vsnprintf+0xa4>
300033b0:	e3530025 	cmp	r3, #37	; 0x25
300033b4:	03a05000 	moveq	r5, #0	; 0x0
300033b8:	0a000016 	beq	30003418 <vsnprintf+0xd4>
300033bc:	e1540007 	cmp	r4, r7
300033c0:	8a000001 	bhi	300033cc <vsnprintf+0x88>
300033c4:	e5c43000 	strb	r3, [r4]
300033c8:	e59dc014 	ldr	ip, [sp, #20]
300033cc:	e2844001 	add	r4, r4, #1	; 0x1
300033d0:	e28c3001 	add	r3, ip, #1	; 0x1
300033d4:	e58d3014 	str	r3, [sp, #20]
300033d8:	e1a0c003 	mov	ip, r3
300033dc:	e5d33000 	ldrb	r3, [r3]
300033e0:	e3530000 	cmp	r3, #0	; 0x0
300033e4:	1afffff1 	bne	300033b0 <vsnprintf+0x6c>
300033e8:	e1540007 	cmp	r4, r7
300033ec:	93a03000 	movls	r3, #0	; 0x0
300033f0:	95c43000 	strlsb	r3, [r4]
300033f4:	9a000003 	bls	30003408 <vsnprintf+0xc4>
300033f8:	e59d2010 	ldr	r2, [sp, #16]
300033fc:	e3520000 	cmp	r2, #0	; 0x0
30003400:	13a03000 	movne	r3, #0	; 0x0
30003404:	15c73000 	strneb	r3, [r7]
30003408:	e06a0004 	rsb	r0, sl, r4
3000340c:	e28dd018 	add	sp, sp, #24	; 0x18
30003410:	e8bd8ff0 	ldmia	sp!, {r4, r5, r6, r7, r8, r9, sl, fp, pc}
30003414:	e3855001 	orr	r5, r5, #1	; 0x1
30003418:	e28cc001 	add	ip, ip, #1	; 0x1
3000341c:	e58dc014 	str	ip, [sp, #20]
30003420:	e5dc3000 	ldrb	r3, [ip]
30003424:	e2433020 	sub	r3, r3, #32	; 0x20
30003428:	e3530010 	cmp	r3, #16	; 0x10
3000342c:	979ff103 	ldrls	pc, [pc, r3, lsl #2]
30003430:	ea000010 	b	30003478 <.text+0x3478>
30003434:	30003654 	andcc	r3, r0, r4, asr r6
30003438:	30003478 	andcc	r3, r0, r8, ror r4
3000343c:	30003478 	andcc	r3, r0, r8, ror r4
30003440:	3000364c 	andcc	r3, r0, ip, asr #12
30003444:	30003478 	andcc	r3, r0, r8, ror r4
30003448:	30003478 	andcc	r3, r0, r8, ror r4
3000344c:	30003478 	andcc	r3, r0, r8, ror r4
30003450:	30003478 	andcc	r3, r0, r8, ror r4
30003454:	30003478 	andcc	r3, r0, r8, ror r4
30003458:	30003478 	andcc	r3, r0, r8, ror r4
3000345c:	30003478 	andcc	r3, r0, r8, ror r4
30003460:	30003644 	andcc	r3, r0, r4, asr #12
30003464:	30003478 	andcc	r3, r0, r8, ror r4
30003468:	3000363c 	andcc	r3, r0, ip, lsr r6
3000346c:	30003478 	andcc	r3, r0, r8, ror r4
30003470:	30003478 	andcc	r3, r0, r8, ror r4
30003474:	30003414 	andcc	r3, r0, r4, lsl r4
30003478:	e59f64e8 	ldr	r6, [pc, #1256]	; 30003968 <.text+0x3968>
3000347c:	e5dc2000 	ldrb	r2, [ip]
30003480:	e7d63002 	ldrb	r3, [r6, r2]
30003484:	e3130004 	tst	r3, #4	; 0x4
30003488:	e3e08000 	mvn	r8, #0	; 0x0
3000348c:	1a00007c 	bne	30003684 <.text+0x3684>
30003490:	e352002a 	cmp	r2, #42	; 0x2a
30003494:	0a000091 	beq	300036e0 <.text+0x36e0>
30003498:	e5dc3000 	ldrb	r3, [ip]
3000349c:	e353002e 	cmp	r3, #46	; 0x2e
300034a0:	e3e0b000 	mvn	fp, #0	; 0x0
300034a4:	0a00007e 	beq	300036a4 <.text+0x36a4>
300034a8:	e5dc3000 	ldrb	r3, [ip]
300034ac:	e353006c 	cmp	r3, #108	; 0x6c
300034b0:	13530068 	cmpne	r3, #104	; 0x68
300034b4:	e3e02000 	mvn	r2, #0	; 0x0
300034b8:	0a000067 	beq	3000365c <.text+0x365c>
300034bc:	e353004c 	cmp	r3, #76	; 0x4c
300034c0:	0a000065 	beq	3000365c <.text+0x365c>
300034c4:	e353005a 	cmp	r3, #90	; 0x5a
300034c8:	0a000063 	beq	3000365c <.text+0x365c>
300034cc:	e353007a 	cmp	r3, #122	; 0x7a
300034d0:	0a000061 	beq	3000365c <.text+0x365c>
300034d4:	e5dc3000 	ldrb	r3, [ip]
300034d8:	e2433025 	sub	r3, r3, #37	; 0x25
300034dc:	e3a0e00a 	mov	lr, #10	; 0xa
300034e0:	e3530053 	cmp	r3, #83	; 0x53
300034e4:	979ff103 	ldrls	pc, [pc, r3, lsl #2]
300034e8:	ea0000ac 	b	300037a0 <.text+0x37a0>
300034ec:	300037c8 	andcc	r3, r0, r8, asr #15
300034f0:	300037a0 	andcc	r3, r0, r0, lsr #15
300034f4:	300037a0 	andcc	r3, r0, r0, lsr #15
300034f8:	300037a0 	andcc	r3, r0, r0, lsr #15
300034fc:	300037a0 	andcc	r3, r0, r0, lsr #15
30003500:	300037a0 	andcc	r3, r0, r0, lsr #15
30003504:	300037a0 	andcc	r3, r0, r0, lsr #15
30003508:	300037a0 	andcc	r3, r0, r0, lsr #15
3000350c:	300037a0 	andcc	r3, r0, r0, lsr #15
30003510:	300037a0 	andcc	r3, r0, r0, lsr #15
30003514:	300037a0 	andcc	r3, r0, r0, lsr #15
30003518:	300037a0 	andcc	r3, r0, r0, lsr #15
3000351c:	300037a0 	andcc	r3, r0, r0, lsr #15
30003520:	300037a0 	andcc	r3, r0, r0, lsr #15
30003524:	300037a0 	andcc	r3, r0, r0, lsr #15
30003528:	300037a0 	andcc	r3, r0, r0, lsr #15
3000352c:	300037a0 	andcc	r3, r0, r0, lsr #15
30003530:	300037a0 	andcc	r3, r0, r0, lsr #15
30003534:	300037a0 	andcc	r3, r0, r0, lsr #15
30003538:	300037a0 	andcc	r3, r0, r0, lsr #15
3000353c:	300037a0 	andcc	r3, r0, r0, lsr #15
30003540:	300037a0 	andcc	r3, r0, r0, lsr #15
30003544:	300037a0 	andcc	r3, r0, r0, lsr #15
30003548:	300037a0 	andcc	r3, r0, r0, lsr #15
3000354c:	300037a0 	andcc	r3, r0, r0, lsr #15
30003550:	300037a0 	andcc	r3, r0, r0, lsr #15
30003554:	300037a0 	andcc	r3, r0, r0, lsr #15
30003558:	300037a0 	andcc	r3, r0, r0, lsr #15
3000355c:	300037a0 	andcc	r3, r0, r0, lsr #15
30003560:	300037a0 	andcc	r3, r0, r0, lsr #15
30003564:	300037a0 	andcc	r3, r0, r0, lsr #15
30003568:	300037a0 	andcc	r3, r0, r0, lsr #15
3000356c:	300037a0 	andcc	r3, r0, r0, lsr #15
30003570:	300037a0 	andcc	r3, r0, r0, lsr #15
30003574:	300037a0 	andcc	r3, r0, r0, lsr #15
30003578:	300037a0 	andcc	r3, r0, r0, lsr #15
3000357c:	300037a0 	andcc	r3, r0, r0, lsr #15
30003580:	300037a0 	andcc	r3, r0, r0, lsr #15
30003584:	300037a0 	andcc	r3, r0, r0, lsr #15
30003588:	300037a0 	andcc	r3, r0, r0, lsr #15
3000358c:	300037a0 	andcc	r3, r0, r0, lsr #15
30003590:	300037a0 	andcc	r3, r0, r0, lsr #15
30003594:	300037a0 	andcc	r3, r0, r0, lsr #15
30003598:	300037a0 	andcc	r3, r0, r0, lsr #15
3000359c:	300037a0 	andcc	r3, r0, r0, lsr #15
300035a0:	300037a0 	andcc	r3, r0, r0, lsr #15
300035a4:	300037a0 	andcc	r3, r0, r0, lsr #15
300035a8:	300037a0 	andcc	r3, r0, r0, lsr #15
300035ac:	300037a0 	andcc	r3, r0, r0, lsr #15
300035b0:	300037a0 	andcc	r3, r0, r0, lsr #15
300035b4:	300037a0 	andcc	r3, r0, r0, lsr #15
300035b8:	30003788 	andcc	r3, r0, r8, lsl #15
300035bc:	300037a0 	andcc	r3, r0, r0, lsr #15
300035c0:	300037a0 	andcc	r3, r0, r0, lsr #15
300035c4:	300037a0 	andcc	r3, r0, r0, lsr #15
300035c8:	300037a0 	andcc	r3, r0, r0, lsr #15
300035cc:	300037a0 	andcc	r3, r0, r0, lsr #15
300035d0:	300037a0 	andcc	r3, r0, r0, lsr #15
300035d4:	300037a0 	andcc	r3, r0, r0, lsr #15
300035d8:	300037a0 	andcc	r3, r0, r0, lsr #15
300035dc:	300037a0 	andcc	r3, r0, r0, lsr #15
300035e0:	300037a0 	andcc	r3, r0, r0, lsr #15
300035e4:	300038c8 	andcc	r3, r0, r8, asr #17
300035e8:	30003710 	andcc	r3, r0, r0, lsl r7
300035ec:	300037a0 	andcc	r3, r0, r0, lsr #15
300035f0:	300037a0 	andcc	r3, r0, r0, lsr #15
300035f4:	300037a0 	andcc	r3, r0, r0, lsr #15
300035f8:	300037a0 	andcc	r3, r0, r0, lsr #15
300035fc:	30003710 	andcc	r3, r0, r0, lsl r7
30003600:	300037a0 	andcc	r3, r0, r0, lsr #15
30003604:	300037a0 	andcc	r3, r0, r0, lsr #15
30003608:	300037a0 	andcc	r3, r0, r0, lsr #15
3000360c:	300037a0 	andcc	r3, r0, r0, lsr #15
30003610:	300038b8 	strcch	r3, [r0], -r8
30003614:	300038b0 	strcch	r3, [r0], -r0
30003618:	30003888 	andcc	r3, r0, r8, lsl #17
3000361c:	300037a0 	andcc	r3, r0, r0, lsr #15
30003620:	300037a0 	andcc	r3, r0, r0, lsr #15
30003624:	300037d8 	ldrccd	r3, [r0], -r8
30003628:	300037a0 	andcc	r3, r0, r0, lsr #15
3000362c:	30003714 	andcc	r3, r0, r4, lsl r7
30003630:	300037a0 	andcc	r3, r0, r0, lsr #15
30003634:	300037a0 	andcc	r3, r0, r0, lsr #15
30003638:	3000378c 	andcc	r3, r0, ip, lsl #15
3000363c:	e3855010 	orr	r5, r5, #16	; 0x10
30003640:	eaffff74 	b	30003418 <vsnprintf+0xd4>
30003644:	e3855004 	orr	r5, r5, #4	; 0x4
30003648:	eaffff72 	b	30003418 <vsnprintf+0xd4>
3000364c:	e3855020 	orr	r5, r5, #32	; 0x20
30003650:	eaffff70 	b	30003418 <vsnprintf+0xd4>
30003654:	e3855008 	orr	r5, r5, #8	; 0x8
30003658:	eaffff6e 	b	30003418 <vsnprintf+0xd4>
3000365c:	e4dc2001 	ldrb	r2, [ip], #1
30003660:	e352006c 	cmp	r2, #108	; 0x6c
30003664:	e58dc014 	str	ip, [sp, #20]
30003668:	1affff99 	bne	300034d4 <.text+0x34d4>
3000366c:	e5dc3000 	ldrb	r3, [ip]
30003670:	e353006c 	cmp	r3, #108	; 0x6c
30003674:	028cc001 	addeq	ip, ip, #1	; 0x1
30003678:	02422020 	subeq	r2, r2, #32	; 0x20
3000367c:	058dc014 	streq	ip, [sp, #20]
30003680:	eaffff93 	b	300034d4 <.text+0x34d4>
30003684:	e28d0014 	add	r0, sp, #20	; 0x14
30003688:	ebfffe5f 	bl	3000300c <skip_atoi>
3000368c:	e59dc014 	ldr	ip, [sp, #20]
30003690:	e5dc3000 	ldrb	r3, [ip]
30003694:	e353002e 	cmp	r3, #46	; 0x2e
30003698:	e1a08000 	mov	r8, r0
3000369c:	e3e0b000 	mvn	fp, #0	; 0x0
300036a0:	1affff80 	bne	300034a8 <.text+0x34a8>
300036a4:	e28cc001 	add	ip, ip, #1	; 0x1
300036a8:	e58dc014 	str	ip, [sp, #20]
300036ac:	e5dc2000 	ldrb	r2, [ip]
300036b0:	e7d63002 	ldrb	r3, [r6, r2]
300036b4:	e3130004 	tst	r3, #4	; 0x4
300036b8:	1a00000f 	bne	300036fc <.text+0x36fc>
300036bc:	e352002a 	cmp	r2, #42	; 0x2a
300036c0:	13a0b000 	movne	fp, #0	; 0x0
300036c4:	1affff77 	bne	300034a8 <.text+0x34a8>
300036c8:	e28cc001 	add	ip, ip, #1	; 0x1
300036cc:	e58dc014 	str	ip, [sp, #20]
300036d0:	e499b004 	ldr	fp, [r9], #4
300036d4:	e35b0000 	cmp	fp, #0	; 0x0
300036d8:	b3a0b000 	movlt	fp, #0	; 0x0
300036dc:	eaffff71 	b	300034a8 <.text+0x34a8>
300036e0:	e4998004 	ldr	r8, [r9], #4
300036e4:	e3580000 	cmp	r8, #0	; 0x0
300036e8:	e28cc001 	add	ip, ip, #1	; 0x1
300036ec:	b2688000 	rsblt	r8, r8, #0	; 0x0
300036f0:	b3855010 	orrlt	r5, r5, #16	; 0x10
300036f4:	e58dc014 	str	ip, [sp, #20]
300036f8:	eaffff66 	b	30003498 <.text+0x3498>
300036fc:	e28d0014 	add	r0, sp, #20	; 0x14
30003700:	ebfffe41 	bl	3000300c <skip_atoi>
30003704:	e59dc014 	ldr	ip, [sp, #20]
30003708:	e1a0b000 	mov	fp, r0
3000370c:	eafffff0 	b	300036d4 <.text+0x36d4>
30003710:	e3855002 	orr	r5, r5, #2	; 0x2
30003714:	e352004c 	cmp	r2, #76	; 0x4c
30003718:	0a00001e 	beq	30003798 <.text+0x3798>
3000371c:	e352006c 	cmp	r2, #108	; 0x6c
30003720:	0a000007 	beq	30003744 <.text+0x3744>
30003724:	e352007a 	cmp	r2, #122	; 0x7a
30003728:	1352005a 	cmpne	r2, #90	; 0x5a
3000372c:	04993004 	ldreq	r3, [r9], #4
30003730:	01a01003 	moveq	r1, r3
30003734:	03a02000 	moveq	r2, #0	; 0x0
30003738:	0a000007 	beq	3000375c <.text+0x375c>
3000373c:	e3520068 	cmp	r2, #104	; 0x68
30003740:	0a00007d 	beq	3000393c <.text+0x393c>
30003744:	e4993004 	ldr	r3, [r9], #4
30003748:	e3150002 	tst	r5, #2	; 0x2
3000374c:	e1a01003 	mov	r1, r3
30003750:	e3a02000 	mov	r2, #0	; 0x0
30003754:	0a000000 	beq	3000375c <.text+0x375c>
30003758:	e1a02fc1 	mov	r2, r1, asr #31
3000375c:	e58de000 	str	lr, [sp]
30003760:	e1a03002 	mov	r3, r2
30003764:	e1a02001 	mov	r2, r1
30003768:	e1a00004 	mov	r0, r4
3000376c:	e1a01007 	mov	r1, r7
30003770:	e98d0900 	stmib	sp, {r8, fp}
30003774:	e58d500c 	str	r5, [sp, #12]
30003778:	ebfffe37 	bl	3000305c <number>
3000377c:	e1a04000 	mov	r4, r0
30003780:	e59dc014 	ldr	ip, [sp, #20]
30003784:	eaffff11 	b	300033d0 <vsnprintf+0x8c>
30003788:	e3855040 	orr	r5, r5, #64	; 0x40
3000378c:	e352004c 	cmp	r2, #76	; 0x4c
30003790:	e3a0e010 	mov	lr, #16	; 0x10
30003794:	1affffe0 	bne	3000371c <.text+0x371c>
30003798:	e8b90006 	ldmia	r9!, {r1, r2}
3000379c:	eaffffee 	b	3000375c <.text+0x375c>
300037a0:	e1540007 	cmp	r4, r7
300037a4:	93a03025 	movls	r3, #37	; 0x25
300037a8:	95c43000 	strlsb	r3, [r4]
300037ac:	e2844001 	add	r4, r4, #1	; 0x1
300037b0:	959dc014 	ldrls	ip, [sp, #20]
300037b4:	e5dc3000 	ldrb	r3, [ip]
300037b8:	e3530000 	cmp	r3, #0	; 0x0
300037bc:	024cc001 	subeq	ip, ip, #1	; 0x1
300037c0:	0affff02 	beq	300033d0 <vsnprintf+0x8c>
300037c4:	eafffefc 	b	300033bc <vsnprintf+0x78>
300037c8:	e1540007 	cmp	r4, r7
300037cc:	93a03025 	movls	r3, #37	; 0x25
300037d0:	9afffefb 	bls	300033c4 <vsnprintf+0x80>
300037d4:	eafffefc 	b	300033cc <vsnprintf+0x88>
300037d8:	e4996004 	ldr	r6, [r9], #4
300037dc:	e59f3188 	ldr	r3, [pc, #392]	; 3000396c <.text+0x396c>
300037e0:	e3560b01 	cmp	r6, #1024	; 0x400
300037e4:	31a06003 	movcc	r6, r3
300037e8:	e1a0100b 	mov	r1, fp
300037ec:	e1a00006 	mov	r0, r6
300037f0:	ebfffc84 	bl	30002a08 <strnlen>
300037f4:	e3150010 	tst	r5, #16	; 0x10
300037f8:	1a00000a 	bne	30003828 <.text+0x3828>
300037fc:	e1580000 	cmp	r8, r0
30003800:	e2488001 	sub	r8, r8, #1	; 0x1
30003804:	da000007 	ble	30003828 <.text+0x3828>
30003808:	e3a02020 	mov	r2, #32	; 0x20
3000380c:	e1540007 	cmp	r4, r7
30003810:	e1a03008 	mov	r3, r8
30003814:	95c42000 	strlsb	r2, [r4]
30003818:	e1530000 	cmp	r3, r0
3000381c:	e2488001 	sub	r8, r8, #1	; 0x1
30003820:	e2844001 	add	r4, r4, #1	; 0x1
30003824:	cafffff8 	bgt	3000380c <.text+0x380c>
30003828:	e3a02000 	mov	r2, #0	; 0x0
3000382c:	e1520000 	cmp	r2, r0
30003830:	aa000007 	bge	30003854 <.text+0x3854>
30003834:	e1540007 	cmp	r4, r7
30003838:	95d63000 	ldrlsb	r3, [r6]
3000383c:	e2822001 	add	r2, r2, #1	; 0x1
30003840:	95c43000 	strlsb	r3, [r4]
30003844:	e2866001 	add	r6, r6, #1	; 0x1
30003848:	e1520000 	cmp	r2, r0
3000384c:	e2844001 	add	r4, r4, #1	; 0x1
30003850:	bafffff7 	blt	30003834 <.text+0x3834>
30003854:	e1580000 	cmp	r8, r0
30003858:	e2488001 	sub	r8, r8, #1	; 0x1
3000385c:	daffffc7 	ble	30003780 <.text+0x3780>
30003860:	e3a02020 	mov	r2, #32	; 0x20
30003864:	e1540007 	cmp	r4, r7
30003868:	e1a03008 	mov	r3, r8
3000386c:	95c42000 	strlsb	r2, [r4]
30003870:	e1530000 	cmp	r3, r0
30003874:	e2488001 	sub	r8, r8, #1	; 0x1
30003878:	e2844001 	add	r4, r4, #1	; 0x1
3000387c:	cafffff8 	bgt	30003864 <.text+0x3864>
30003880:	e59dc014 	ldr	ip, [sp, #20]
30003884:	eafffed1 	b	300033d0 <vsnprintf+0x8c>
30003888:	e4992004 	ldr	r2, [r9], #4
3000388c:	e3780001 	cmn	r8, #1	; 0x1
30003890:	e3a0c010 	mov	ip, #16	; 0x10
30003894:	03855001 	orreq	r5, r5, #1	; 0x1
30003898:	02888009 	addeq	r8, r8, #9	; 0x9
3000389c:	e1a00004 	mov	r0, r4
300038a0:	e3a03000 	mov	r3, #0	; 0x0
300038a4:	e1a01007 	mov	r1, r7
300038a8:	e58dc000 	str	ip, [sp]
300038ac:	eaffffaf 	b	30003770 <.text+0x3770>
300038b0:	e3a0e008 	mov	lr, #8	; 0x8
300038b4:	eaffff96 	b	30003714 <.text+0x3714>
300038b8:	e4992004 	ldr	r2, [r9], #4
300038bc:	e06a3004 	rsb	r3, sl, r4
300038c0:	e5823000 	str	r3, [r2]
300038c4:	eafffec1 	b	300033d0 <vsnprintf+0x8c>
300038c8:	e3150010 	tst	r5, #16	; 0x10
300038cc:	1a000009 	bne	300038f8 <.text+0x38f8>
300038d0:	e2488001 	sub	r8, r8, #1	; 0x1
300038d4:	e3580000 	cmp	r8, #0	; 0x0
300038d8:	da000006 	ble	300038f8 <.text+0x38f8>
300038dc:	e3a03020 	mov	r3, #32	; 0x20
300038e0:	e1540007 	cmp	r4, r7
300038e4:	e2488001 	sub	r8, r8, #1	; 0x1
300038e8:	95c43000 	strlsb	r3, [r4]
300038ec:	e3580000 	cmp	r8, #0	; 0x0
300038f0:	e2844001 	add	r4, r4, #1	; 0x1
300038f4:	cafffff9 	bgt	300038e0 <.text+0x38e0>
300038f8:	e4993004 	ldr	r3, [r9], #4
300038fc:	e1540007 	cmp	r4, r7
30003900:	e20330ff 	and	r3, r3, #255	; 0xff
30003904:	e2488001 	sub	r8, r8, #1	; 0x1
30003908:	95c43000 	strlsb	r3, [r4]
3000390c:	e3580000 	cmp	r8, #0	; 0x0
30003910:	e2844001 	add	r4, r4, #1	; 0x1
30003914:	daffff99 	ble	30003780 <.text+0x3780>
30003918:	e3a03020 	mov	r3, #32	; 0x20
3000391c:	e1540007 	cmp	r4, r7
30003920:	e2488001 	sub	r8, r8, #1	; 0x1
30003924:	95c43000 	strlsb	r3, [r4]
30003928:	e3580000 	cmp	r8, #0	; 0x0
3000392c:	e2844001 	add	r4, r4, #1	; 0x1
30003930:	cafffff9 	bgt	3000391c <.text+0x391c>
30003934:	e59dc014 	ldr	ip, [sp, #20]
30003938:	eafffea4 	b	300033d0 <vsnprintf+0x8c>
3000393c:	e4993004 	ldr	r3, [r9], #4
30003940:	e1a03803 	mov	r3, r3, lsl #16
30003944:	e1a01823 	mov	r1, r3, lsr #16
30003948:	e3150002 	tst	r5, #2	; 0x2
3000394c:	e3a02000 	mov	r2, #0	; 0x0
30003950:	11a03001 	movne	r3, r1
30003954:	11a03803 	movne	r3, r3, lsl #16
30003958:	11a01843 	movne	r1, r3, asr #16
3000395c:	1affff7d 	bne	30003758 <.text+0x3758>
30003960:	eaffff7d 	b	3000375c <.text+0x375c>
30003964:	30004858 	andcc	r4, r0, r8, asr r8
30003968:	30004758 	andcc	r4, r0, r8, asr r7
3000396c:	3000473c 	andcc	r4, r0, ip, lsr r7

30003970 <vscnprintf>:
30003970:	e92d4010 	stmdb	sp!, {r4, lr}
30003974:	e1a04001 	mov	r4, r1
30003978:	ebfffe71 	bl	30003344 <vsnprintf>
3000397c:	e1500004 	cmp	r0, r4
30003980:	e2444001 	sub	r4, r4, #1	; 0x1
30003984:	31a04000 	movcc	r4, r0
30003988:	e1a00004 	mov	r0, r4
3000398c:	e8bd8010 	ldmia	sp!, {r4, pc}

30003990 <snprintf>:
30003990:	e92d000c 	stmdb	sp!, {r2, r3}
30003994:	e52de004 	str	lr, [sp, #-4]!
30003998:	e59d2004 	ldr	r2, [sp, #4]
3000399c:	e28d3008 	add	r3, sp, #8	; 0x8
300039a0:	ebfffe67 	bl	30003344 <vsnprintf>
300039a4:	e49de004 	ldr	lr, [sp], #4
300039a8:	e28dd008 	add	sp, sp, #8	; 0x8
300039ac:	e1a0f00e 	mov	pc, lr

300039b0 <scnprintf>:
300039b0:	e92d000c 	stmdb	sp!, {r2, r3}
300039b4:	e92d4010 	stmdb	sp!, {r4, lr}
300039b8:	e59d2008 	ldr	r2, [sp, #8]
300039bc:	e1a04001 	mov	r4, r1
300039c0:	e28d300c 	add	r3, sp, #12	; 0xc
300039c4:	ebfffe5e 	bl	30003344 <vsnprintf>
300039c8:	e1500004 	cmp	r0, r4
300039cc:	e2444001 	sub	r4, r4, #1	; 0x1
300039d0:	31a04000 	movcc	r4, r0
300039d4:	e1a00004 	mov	r0, r4
300039d8:	e8bd4010 	ldmia	sp!, {r4, lr}
300039dc:	e28dd008 	add	sp, sp, #8	; 0x8
300039e0:	e1a0f00e 	mov	pc, lr

300039e4 <vsprintf>:
300039e4:	e1a03002 	mov	r3, r2
300039e8:	e1a02001 	mov	r2, r1
300039ec:	e3e01102 	mvn	r1, #-2147483648	; 0x80000000
300039f0:	eafffe53 	b	30003344 <vsnprintf>

300039f4 <sprintf>:
300039f4:	e92d000e 	stmdb	sp!, {r1, r2, r3}
300039f8:	e52de004 	str	lr, [sp, #-4]!
300039fc:	e59d1004 	ldr	r1, [sp, #4]
30003a00:	e28d2008 	add	r2, sp, #8	; 0x8
30003a04:	ebfffff6 	bl	300039e4 <vsprintf>
30003a08:	e49de004 	ldr	lr, [sp], #4
30003a0c:	e28dd00c 	add	sp, sp, #12	; 0xc
30003a10:	e1a0f00e 	mov	pc, lr

30003a14 <vsscanf>:
30003a14:	e92d45f0 	stmdb	sp!, {r4, r5, r6, r7, r8, sl, lr}
30003a18:	e1a05002 	mov	r5, r2
30003a1c:	e3a07000 	mov	r7, #0	; 0x0
30003a20:	e1a08000 	mov	r8, r0
30003a24:	e1a04000 	mov	r4, r0
30003a28:	e24dd008 	sub	sp, sp, #8	; 0x8
30003a2c:	e58d1004 	str	r1, [sp, #4]
30003a30:	e5d12000 	ldrb	r2, [r1]
30003a34:	e1520007 	cmp	r2, r7
30003a38:	0a000022 	beq	30003ac8 <vsscanf+0xb4>
30003a3c:	e5d03000 	ldrb	r3, [r0]
30003a40:	e1530007 	cmp	r3, r7
30003a44:	0a00001f 	beq	30003ac8 <vsscanf+0xb4>
30003a48:	e59fa6c4 	ldr	sl, [pc, #1732]	; 30004114 <.text+0x4114>
30003a4c:	e7da3002 	ldrb	r3, [sl, r2]
30003a50:	e3130020 	tst	r3, #32	; 0x20
30003a54:	e1a0c00a 	mov	ip, sl
30003a58:	0a000011 	beq	30003aa4 <vsscanf+0x90>
30003a5c:	e2810001 	add	r0, r1, #1	; 0x1
30003a60:	e58d0004 	str	r0, [sp, #4]
30003a64:	e1a01000 	mov	r1, r0
30003a68:	e2800001 	add	r0, r0, #1	; 0x1
30003a6c:	e5503001 	ldrb	r3, [r0, #-1]
30003a70:	e7dc2003 	ldrb	r2, [ip, r3]
30003a74:	e3120020 	tst	r2, #32	; 0x20
30003a78:	1afffff8 	bne	30003a60 <vsscanf+0x4c>
30003a7c:	e59fa690 	ldr	sl, [pc, #1680]	; 30004114 <.text+0x4114>
30003a80:	e5d43000 	ldrb	r3, [r4]
30003a84:	e7da2003 	ldrb	r2, [sl, r3]
30003a88:	e3120020 	tst	r2, #32	; 0x20
30003a8c:	e1a0000a 	mov	r0, sl
30003a90:	0a000003 	beq	30003aa4 <vsscanf+0x90>
30003a94:	e5f43001 	ldrb	r3, [r4, #1]!
30003a98:	e7d02003 	ldrb	r2, [r0, r3]
30003a9c:	e3120020 	tst	r2, #32	; 0x20
30003aa0:	1afffffb 	bne	30003a94 <vsscanf+0x80>
30003aa4:	e5d12000 	ldrb	r2, [r1]
30003aa8:	e3520025 	cmp	r2, #37	; 0x25
30003aac:	13520000 	cmpne	r2, #0	; 0x0
30003ab0:	0a000007 	beq	30003ad4 <vsscanf+0xc0>
30003ab4:	e2811001 	add	r1, r1, #1	; 0x1
30003ab8:	e4d43001 	ldrb	r3, [r4], #1
30003abc:	e58d1004 	str	r1, [sp, #4]
30003ac0:	e1520003 	cmp	r2, r3
30003ac4:	0a00008d 	beq	30003d00 <.text+0x3d00>
30003ac8:	e1a00007 	mov	r0, r7
30003acc:	e28dd008 	add	sp, sp, #8	; 0x8
30003ad0:	e8bd85f0 	ldmia	sp!, {r4, r5, r6, r7, r8, sl, pc}
30003ad4:	e3520000 	cmp	r2, #0	; 0x0
30003ad8:	0afffffa 	beq	30003ac8 <vsscanf+0xb4>
30003adc:	e2811001 	add	r1, r1, #1	; 0x1
30003ae0:	e58d1004 	str	r1, [sp, #4]
30003ae4:	e5d13000 	ldrb	r3, [r1]
30003ae8:	e353002a 	cmp	r3, #42	; 0x2a
30003aec:	0a000089 	beq	30003d18 <.text+0x3d18>
30003af0:	e7da3003 	ldrb	r3, [sl, r3]
30003af4:	e3130004 	tst	r3, #4	; 0x4
30003af8:	e3e00000 	mvn	r0, #0	; 0x0
30003afc:	1a0000a1 	bne	30003d88 <.text+0x3d88>
30003b00:	e5d13000 	ldrb	r3, [r1]
30003b04:	e353006c 	cmp	r3, #108	; 0x6c
30003b08:	13530068 	cmpne	r3, #104	; 0x68
30003b0c:	e3e0e000 	mvn	lr, #0	; 0x0
30003b10:	1a000066 	bne	30003cb0 <.text+0x3cb0>
30003b14:	e4d1e001 	ldrb	lr, [r1], #1
30003b18:	e58d1004 	str	r1, [sp, #4]
30003b1c:	e5d13000 	ldrb	r3, [r1]
30003b20:	e153000e 	cmp	r3, lr
30003b24:	0a000170 	beq	300040ec <.text+0x40ec>
30003b28:	e5d1c000 	ldrb	ip, [r1]
30003b2c:	e35c0000 	cmp	ip, #0	; 0x0
30003b30:	e3a0200a 	mov	r2, #10	; 0xa
30003b34:	e3a06000 	mov	r6, #0	; 0x0
30003b38:	0affffe2 	beq	30003ac8 <vsscanf+0xb4>
30003b3c:	e5d43000 	ldrb	r3, [r4]
30003b40:	e1530006 	cmp	r3, r6
30003b44:	0affffdf 	beq	30003ac8 <vsscanf+0xb4>
30003b48:	e2811001 	add	r1, r1, #1	; 0x1
30003b4c:	e24c3025 	sub	r3, ip, #37	; 0x25
30003b50:	e58d1004 	str	r1, [sp, #4]
30003b54:	e3530053 	cmp	r3, #83	; 0x53
30003b58:	979ff103 	ldrls	pc, [pc, r3, lsl #2]
30003b5c:	eaffffd9 	b	30003ac8 <vsscanf+0xb4>
30003b60:	30003f70 	andcc	r3, r0, r0, ror pc
30003b64:	30003ac8 	andcc	r3, r0, r8, asr #21
30003b68:	30003ac8 	andcc	r3, r0, r8, asr #21
30003b6c:	30003ac8 	andcc	r3, r0, r8, asr #21
30003b70:	30003ac8 	andcc	r3, r0, r8, asr #21
30003b74:	30003ac8 	andcc	r3, r0, r8, asr #21
30003b78:	30003ac8 	andcc	r3, r0, r8, asr #21
30003b7c:	30003ac8 	andcc	r3, r0, r8, asr #21
30003b80:	30003ac8 	andcc	r3, r0, r8, asr #21
30003b84:	30003ac8 	andcc	r3, r0, r8, asr #21
30003b88:	30003ac8 	andcc	r3, r0, r8, asr #21
30003b8c:	30003ac8 	andcc	r3, r0, r8, asr #21
30003b90:	30003ac8 	andcc	r3, r0, r8, asr #21
30003b94:	30003ac8 	andcc	r3, r0, r8, asr #21
30003b98:	30003ac8 	andcc	r3, r0, r8, asr #21
30003b9c:	30003ac8 	andcc	r3, r0, r8, asr #21
30003ba0:	30003ac8 	andcc	r3, r0, r8, asr #21
30003ba4:	30003ac8 	andcc	r3, r0, r8, asr #21
30003ba8:	30003ac8 	andcc	r3, r0, r8, asr #21
30003bac:	30003ac8 	andcc	r3, r0, r8, asr #21
30003bb0:	30003ac8 	andcc	r3, r0, r8, asr #21
30003bb4:	30003ac8 	andcc	r3, r0, r8, asr #21
30003bb8:	30003ac8 	andcc	r3, r0, r8, asr #21
30003bbc:	30003ac8 	andcc	r3, r0, r8, asr #21
30003bc0:	30003ac8 	andcc	r3, r0, r8, asr #21
30003bc4:	30003ac8 	andcc	r3, r0, r8, asr #21
30003bc8:	30003ac8 	andcc	r3, r0, r8, asr #21
30003bcc:	30003ac8 	andcc	r3, r0, r8, asr #21
30003bd0:	30003ac8 	andcc	r3, r0, r8, asr #21
30003bd4:	30003ac8 	andcc	r3, r0, r8, asr #21
30003bd8:	30003ac8 	andcc	r3, r0, r8, asr #21
30003bdc:	30003ac8 	andcc	r3, r0, r8, asr #21
30003be0:	30003ac8 	andcc	r3, r0, r8, asr #21
30003be4:	30003ac8 	andcc	r3, r0, r8, asr #21
30003be8:	30003ac8 	andcc	r3, r0, r8, asr #21
30003bec:	30003ac8 	andcc	r3, r0, r8, asr #21
30003bf0:	30003ac8 	andcc	r3, r0, r8, asr #21
30003bf4:	30003ac8 	andcc	r3, r0, r8, asr #21
30003bf8:	30003ac8 	andcc	r3, r0, r8, asr #21
30003bfc:	30003ac8 	andcc	r3, r0, r8, asr #21
30003c00:	30003ac8 	andcc	r3, r0, r8, asr #21
30003c04:	30003ac8 	andcc	r3, r0, r8, asr #21
30003c08:	30003ac8 	andcc	r3, r0, r8, asr #21
30003c0c:	30003ac8 	andcc	r3, r0, r8, asr #21
30003c10:	30003ac8 	andcc	r3, r0, r8, asr #21
30003c14:	30003ac8 	andcc	r3, r0, r8, asr #21
30003c18:	30003ac8 	andcc	r3, r0, r8, asr #21
30003c1c:	30003ac8 	andcc	r3, r0, r8, asr #21
30003c20:	30003ac8 	andcc	r3, r0, r8, asr #21
30003c24:	30003ac8 	andcc	r3, r0, r8, asr #21
30003c28:	30003ac8 	andcc	r3, r0, r8, asr #21
30003c2c:	30003f68 	andcc	r3, r0, r8, ror #30
30003c30:	30003ac8 	andcc	r3, r0, r8, asr #21
30003c34:	30003ac8 	andcc	r3, r0, r8, asr #21
30003c38:	30003ac8 	andcc	r3, r0, r8, asr #21
30003c3c:	30003ac8 	andcc	r3, r0, r8, asr #21
30003c40:	30003ac8 	andcc	r3, r0, r8, asr #21
30003c44:	30003ac8 	andcc	r3, r0, r8, asr #21
30003c48:	30003ac8 	andcc	r3, r0, r8, asr #21
30003c4c:	30003ac8 	andcc	r3, r0, r8, asr #21
30003c50:	30003ac8 	andcc	r3, r0, r8, asr #21
30003c54:	30003ac8 	andcc	r3, r0, r8, asr #21
30003c58:	30003f24 	andcc	r3, r0, r4, lsr #30
30003c5c:	30003d9c 	mulcc	r0, ip, sp
30003c60:	30003ac8 	andcc	r3, r0, r8, asr #21
30003c64:	30003ac8 	andcc	r3, r0, r8, asr #21
30003c68:	30003ac8 	andcc	r3, r0, r8, asr #21
30003c6c:	30003ac8 	andcc	r3, r0, r8, asr #21
30003c70:	30003d98 	mulcc	r0, r8, sp
30003c74:	30003ac8 	andcc	r3, r0, r8, asr #21
30003c78:	30003ac8 	andcc	r3, r0, r8, asr #21
30003c7c:	30003ac8 	andcc	r3, r0, r8, asr #21
30003c80:	30003ac8 	andcc	r3, r0, r8, asr #21
30003c84:	30003f7c 	andcc	r3, r0, ip, ror pc
30003c88:	30003f60 	andcc	r3, r0, r0, ror #30
30003c8c:	30003ac8 	andcc	r3, r0, r8, asr #21
30003c90:	30003ac8 	andcc	r3, r0, r8, asr #21
30003c94:	30003ac8 	andcc	r3, r0, r8, asr #21
30003c98:	30003ef0 	strccd	r3, [r0], -r0
30003c9c:	30003ac8 	andcc	r3, r0, r8, asr #21
30003ca0:	30003da0 	andcc	r3, r0, r0, lsr #27
30003ca4:	30003ac8 	andcc	r3, r0, r8, asr #21
30003ca8:	30003ac8 	andcc	r3, r0, r8, asr #21
30003cac:	30003f68 	andcc	r3, r0, r8, ror #30
30003cb0:	e353004c 	cmp	r3, #76	; 0x4c
30003cb4:	0affff96 	beq	30003b14 <vsscanf+0x100>
30003cb8:	e353005a 	cmp	r3, #90	; 0x5a
30003cbc:	0affff94 	beq	30003b14 <vsscanf+0x100>
30003cc0:	e353007a 	cmp	r3, #122	; 0x7a
30003cc4:	1affff97 	bne	30003b28 <vsscanf+0x114>
30003cc8:	eaffff91 	b	30003b14 <vsscanf+0x100>
30003ccc:	e3560000 	cmp	r6, #0	; 0x0
30003cd0:	0a0000ad 	beq	30003f8c <.text+0x3f8c>
30003cd4:	e1a00004 	mov	r0, r4
30003cd8:	e1a0100d 	mov	r1, sp
30003cdc:	e4954004 	ldr	r4, [r5], #4
30003ce0:	ebfffc62 	bl	30002e70 <simple_strtol>
30003ce4:	e5840000 	str	r0, [r4]
30003ce8:	e59d0000 	ldr	r0, [sp]
30003cec:	e3500000 	cmp	r0, #0	; 0x0
30003cf0:	e2877001 	add	r7, r7, #1	; 0x1
30003cf4:	0affff73 	beq	30003ac8 <vsscanf+0xb4>
30003cf8:	e59d1004 	ldr	r1, [sp, #4]
30003cfc:	e1a04000 	mov	r4, r0
30003d00:	e5d12000 	ldrb	r2, [r1]
30003d04:	e3520000 	cmp	r2, #0	; 0x0
30003d08:	0affff6e 	beq	30003ac8 <vsscanf+0xb4>
30003d0c:	e5d43000 	ldrb	r3, [r4]
30003d10:	e3530000 	cmp	r3, #0	; 0x0
30003d14:	eaffff4a 	b	30003a44 <vsscanf+0x30>
30003d18:	e59fa3f4 	ldr	sl, [pc, #1012]	; 30004114 <.text+0x4114>
30003d1c:	e7da3003 	ldrb	r3, [sl, r3]
30003d20:	e3130020 	tst	r3, #32	; 0x20
30003d24:	e1a0c00a 	mov	ip, sl
30003d28:	1a000009 	bne	30003d54 <.text+0x3d54>
30003d2c:	e2812001 	add	r2, r1, #1	; 0x1
30003d30:	e58d2004 	str	r2, [sp, #4]
30003d34:	e1a01002 	mov	r1, r2
30003d38:	e2822001 	add	r2, r2, #1	; 0x1
30003d3c:	e5520001 	ldrb	r0, [r2, #-1]
30003d40:	e7dc3000 	ldrb	r3, [ip, r0]
30003d44:	e3130020 	tst	r3, #32	; 0x20
30003d48:	1a000001 	bne	30003d54 <.text+0x3d54>
30003d4c:	e3500000 	cmp	r0, #0	; 0x0
30003d50:	1afffff6 	bne	30003d30 <.text+0x3d30>
30003d54:	e59fa3b8 	ldr	sl, [pc, #952]	; 30004114 <.text+0x4114>
30003d58:	e5d42000 	ldrb	r2, [r4]
30003d5c:	e1a0000a 	mov	r0, sl
30003d60:	e7d03002 	ldrb	r3, [r0, r2]
30003d64:	e3130020 	tst	r3, #32	; 0x20
30003d68:	1affffe4 	bne	30003d00 <.text+0x3d00>
30003d6c:	e3520000 	cmp	r2, #0	; 0x0
30003d70:	0affffe2 	beq	30003d00 <.text+0x3d00>
30003d74:	e5f42001 	ldrb	r2, [r4, #1]!
30003d78:	e7d03002 	ldrb	r3, [r0, r2]
30003d7c:	e3130020 	tst	r3, #32	; 0x20
30003d80:	0afffff9 	beq	30003d6c <.text+0x3d6c>
30003d84:	eaffffdd 	b	30003d00 <.text+0x3d00>
30003d88:	e28d0004 	add	r0, sp, #4	; 0x4
30003d8c:	ebfffc9e 	bl	3000300c <skip_atoi>
30003d90:	e59d1004 	ldr	r1, [sp, #4]
30003d94:	eaffff59 	b	30003b00 <vsscanf+0xec>
30003d98:	e3a02000 	mov	r2, #0	; 0x0
30003d9c:	e3a06001 	mov	r6, #1	; 0x1
30003da0:	e59fa36c 	ldr	sl, [pc, #876]	; 30004114 <.text+0x4114>
30003da4:	e5d41000 	ldrb	r1, [r4]
30003da8:	e7da3001 	ldrb	r3, [sl, r1]
30003dac:	e3130020 	tst	r3, #32	; 0x20
30003db0:	e1a0000a 	mov	r0, sl
30003db4:	0a000003 	beq	30003dc8 <.text+0x3dc8>
30003db8:	e5f41001 	ldrb	r1, [r4, #1]!
30003dbc:	e7d03001 	ldrb	r3, [r0, r1]
30003dc0:	e3130020 	tst	r3, #32	; 0x20
30003dc4:	1afffffb 	bne	30003db8 <.text+0x3db8>
30003dc8:	e20110ff 	and	r1, r1, #255	; 0xff
30003dcc:	e351002d 	cmp	r1, #45	; 0x2d
30003dd0:	13a03000 	movne	r3, #0	; 0x0
30003dd4:	02063001 	andeq	r3, r6, #1	; 0x1
30003dd8:	e3530000 	cmp	r3, #0	; 0x0
30003ddc:	15d41001 	ldrneb	r1, [r4, #1]
30003de0:	e3510000 	cmp	r1, #0	; 0x0
30003de4:	0affff37 	beq	30003ac8 <vsscanf+0xb4>
30003de8:	e3520010 	cmp	r2, #16	; 0x10
30003dec:	0a000085 	beq	30004008 <.text+0x4008>
30003df0:	e352000a 	cmp	r2, #10	; 0xa
30003df4:	0a00008f 	beq	30004038 <.text+0x4038>
30003df8:	e3520008 	cmp	r2, #8	; 0x8
30003dfc:	0a000085 	beq	30004018 <.text+0x4018>
30003e00:	e3520000 	cmp	r2, #0	; 0x0
30003e04:	1a000002 	bne	30003e14 <.text+0x3e14>
30003e08:	e7da3001 	ldrb	r3, [sl, r1]
30003e0c:	e3130004 	tst	r3, #4	; 0x4
30003e10:	0affff2c 	beq	30003ac8 <vsscanf+0xb4>
30003e14:	e24e3048 	sub	r3, lr, #72	; 0x48
30003e18:	e3530032 	cmp	r3, #50	; 0x32
30003e1c:	979ff103 	ldrls	pc, [pc, r3, lsl #2]
30003e20:	eaffffa9 	b	30003ccc <.text+0x3ccc>
30003e24:	30003fe8 	andcc	r3, r0, r8, ror #31
30003e28:	30003ccc 	andcc	r3, r0, ip, asr #25
30003e2c:	30003ccc 	andcc	r3, r0, ip, asr #25
30003e30:	30003ccc 	andcc	r3, r0, ip, asr #25
30003e34:	30003fc8 	andcc	r3, r0, r8, asr #31
30003e38:	30003ccc 	andcc	r3, r0, ip, asr #25
30003e3c:	30003ccc 	andcc	r3, r0, ip, asr #25
30003e40:	30003ccc 	andcc	r3, r0, ip, asr #25
30003e44:	30003ccc 	andcc	r3, r0, ip, asr #25
30003e48:	30003ccc 	andcc	r3, r0, ip, asr #25
30003e4c:	30003ccc 	andcc	r3, r0, ip, asr #25
30003e50:	30003ccc 	andcc	r3, r0, ip, asr #25
30003e54:	30003ccc 	andcc	r3, r0, ip, asr #25
30003e58:	30003ccc 	andcc	r3, r0, ip, asr #25
30003e5c:	30003ccc 	andcc	r3, r0, ip, asr #25
30003e60:	30003ccc 	andcc	r3, r0, ip, asr #25
30003e64:	30003ccc 	andcc	r3, r0, ip, asr #25
30003e68:	30003ccc 	andcc	r3, r0, ip, asr #25
30003e6c:	30003f8c 	andcc	r3, r0, ip, lsl #31
30003e70:	30003ccc 	andcc	r3, r0, ip, asr #25
30003e74:	30003ccc 	andcc	r3, r0, ip, asr #25
30003e78:	30003ccc 	andcc	r3, r0, ip, asr #25
30003e7c:	30003ccc 	andcc	r3, r0, ip, asr #25
30003e80:	30003ccc 	andcc	r3, r0, ip, asr #25
30003e84:	30003ccc 	andcc	r3, r0, ip, asr #25
30003e88:	30003ccc 	andcc	r3, r0, ip, asr #25
30003e8c:	30003ccc 	andcc	r3, r0, ip, asr #25
30003e90:	30003ccc 	andcc	r3, r0, ip, asr #25
30003e94:	30003ccc 	andcc	r3, r0, ip, asr #25
30003e98:	30003ccc 	andcc	r3, r0, ip, asr #25
30003e9c:	30003ccc 	andcc	r3, r0, ip, asr #25
30003ea0:	30003ccc 	andcc	r3, r0, ip, asr #25
30003ea4:	30003fa0 	andcc	r3, r0, r0, lsr #31
30003ea8:	30003ccc 	andcc	r3, r0, ip, asr #25
30003eac:	30003ccc 	andcc	r3, r0, ip, asr #25
30003eb0:	30003ccc 	andcc	r3, r0, ip, asr #25
30003eb4:	30003ccc 	andcc	r3, r0, ip, asr #25
30003eb8:	30003ccc 	andcc	r3, r0, ip, asr #25
30003ebc:	30003ccc 	andcc	r3, r0, ip, asr #25
30003ec0:	30003ccc 	andcc	r3, r0, ip, asr #25
30003ec4:	30003ccc 	andcc	r3, r0, ip, asr #25
30003ec8:	30003ccc 	andcc	r3, r0, ip, asr #25
30003ecc:	30003ccc 	andcc	r3, r0, ip, asr #25
30003ed0:	30003ccc 	andcc	r3, r0, ip, asr #25
30003ed4:	30003ccc 	andcc	r3, r0, ip, asr #25
30003ed8:	30003ccc 	andcc	r3, r0, ip, asr #25
30003edc:	30003ccc 	andcc	r3, r0, ip, asr #25
30003ee0:	30003ccc 	andcc	r3, r0, ip, asr #25
30003ee4:	30003ccc 	andcc	r3, r0, ip, asr #25
30003ee8:	30003ccc 	andcc	r3, r0, ip, asr #25
30003eec:	30003f8c 	andcc	r3, r0, ip, lsl #31
30003ef0:	e59fa21c 	ldr	sl, [pc, #540]	; 30004114 <.text+0x4114>
30003ef4:	e5d41000 	ldrb	r1, [r4]
30003ef8:	e7da3001 	ldrb	r3, [sl, r1]
30003efc:	e3700001 	cmn	r0, #1	; 0x1
30003f00:	e495c004 	ldr	ip, [r5], #4
30003f04:	03e00102 	mvneq	r0, #-2147483648	; 0x80000000
30003f08:	e1a0200a 	mov	r2, sl
30003f0c:	e3130020 	tst	r3, #32	; 0x20
30003f10:	0a00004c 	beq	30004048 <.text+0x4048>
30003f14:	e5f41001 	ldrb	r1, [r4, #1]!
30003f18:	e7d23001 	ldrb	r3, [r2, r1]
30003f1c:	e3130020 	tst	r3, #32	; 0x20
30003f20:	eafffffa 	b	30003f10 <.text+0x3f10>
30003f24:	e3700001 	cmn	r0, #1	; 0x1
30003f28:	e4953004 	ldr	r3, [r5], #4
30003f2c:	e5d41000 	ldrb	r1, [r4]
30003f30:	03a00001 	moveq	r0, #1	; 0x1
30003f34:	e2400001 	sub	r0, r0, #1	; 0x1
30003f38:	e3500000 	cmp	r0, #0	; 0x0
30003f3c:	e4c31001 	strb	r1, [r3], #1
30003f40:	e2844001 	add	r4, r4, #1	; 0x1
30003f44:	da000002 	ble	30003f54 <.text+0x3f54>
30003f48:	e5d41000 	ldrb	r1, [r4]
30003f4c:	e3510000 	cmp	r1, #0	; 0x0
30003f50:	1afffff7 	bne	30003f34 <.text+0x3f34>
30003f54:	e59d1004 	ldr	r1, [sp, #4]
30003f58:	e2877001 	add	r7, r7, #1	; 0x1
30003f5c:	eaffff67 	b	30003d00 <.text+0x3d00>
30003f60:	e3a02008 	mov	r2, #8	; 0x8
30003f64:	eaffff8d 	b	30003da0 <.text+0x3da0>
30003f68:	e3a02010 	mov	r2, #16	; 0x10
30003f6c:	eaffff8b 	b	30003da0 <.text+0x3da0>
30003f70:	e4d43001 	ldrb	r3, [r4], #1
30003f74:	e3530025 	cmp	r3, #37	; 0x25
30003f78:	eafffed1 	b	30003ac4 <vsscanf+0xb0>
30003f7c:	e4952004 	ldr	r2, [r5], #4
30003f80:	e0683004 	rsb	r3, r8, r4
30003f84:	e5823000 	str	r3, [r2]
30003f88:	eaffff5c 	b	30003d00 <.text+0x3d00>
30003f8c:	e1a00004 	mov	r0, r4
30003f90:	e1a0100d 	mov	r1, sp
30003f94:	e4954004 	ldr	r4, [r5], #4
30003f98:	ebfffb76 	bl	30002d78 <simple_strtoul>
30003f9c:	eaffff50 	b	30003ce4 <.text+0x3ce4>
30003fa0:	e3560000 	cmp	r6, #0	; 0x0
30003fa4:	0a00004b 	beq	300040d8 <.text+0x40d8>
30003fa8:	e1a00004 	mov	r0, r4
30003fac:	e1a0100d 	mov	r1, sp
30003fb0:	e4954004 	ldr	r4, [r5], #4
30003fb4:	ebfffbad 	bl	30002e70 <simple_strtol>
30003fb8:	e1a03440 	mov	r3, r0, asr #8
30003fbc:	e5c43001 	strb	r3, [r4, #1]
30003fc0:	e5c40000 	strb	r0, [r4]
30003fc4:	eaffff47 	b	30003ce8 <.text+0x3ce8>
30003fc8:	e3560000 	cmp	r6, #0	; 0x0
30003fcc:	0a00003c 	beq	300040c4 <.text+0x40c4>
30003fd0:	e1a00004 	mov	r0, r4
30003fd4:	e1a0100d 	mov	r1, sp
30003fd8:	e4954004 	ldr	r4, [r5], #4
30003fdc:	ebfffbff 	bl	30002fe0 <simple_strtoll>
30003fe0:	e8840003 	stmia	r4, {r0, r1}
30003fe4:	eaffff3f 	b	30003ce8 <.text+0x3ce8>
30003fe8:	e3560000 	cmp	r6, #0	; 0x0
30003fec:	0a00002e 	beq	300040ac <.text+0x40ac>
30003ff0:	e1a00004 	mov	r0, r4
30003ff4:	e1a0100d 	mov	r1, sp
30003ff8:	e4954004 	ldr	r4, [r5], #4
30003ffc:	ebfffb9b 	bl	30002e70 <simple_strtol>
30004000:	e5c40000 	strb	r0, [r4]
30004004:	eaffff37 	b	30003ce8 <.text+0x3ce8>
30004008:	e7da3001 	ldrb	r3, [sl, r1]
3000400c:	e3130044 	tst	r3, #68	; 0x44
30004010:	1affff78 	bne	30003df8 <.text+0x3df8>
30004014:	eafffeab 	b	30003ac8 <vsscanf+0xb4>
30004018:	e7da3001 	ldrb	r3, [sl, r1]
3000401c:	e1a03123 	mov	r3, r3, lsr #2
30004020:	e2233001 	eor	r3, r3, #1	; 0x1
30004024:	e3510037 	cmp	r1, #55	; 0x37
30004028:	83833001 	orrhi	r3, r3, #1	; 0x1
3000402c:	e3130001 	tst	r3, #1	; 0x1
30004030:	0affff77 	beq	30003e14 <.text+0x3e14>
30004034:	eafffea3 	b	30003ac8 <vsscanf+0xb4>
30004038:	e7da3001 	ldrb	r3, [sl, r1]
3000403c:	e3130004 	tst	r3, #4	; 0x4
30004040:	1affff6e 	bne	30003e00 <.text+0x3e00>
30004044:	eafffe9f 	b	30003ac8 <vsscanf+0xb4>
30004048:	e20130ff 	and	r3, r1, #255	; 0xff
3000404c:	e3530000 	cmp	r3, #0	; 0x0
30004050:	e1a02001 	mov	r2, r1
30004054:	0a000011 	beq	300040a0 <.text+0x40a0>
30004058:	e59fa0b4 	ldr	sl, [pc, #180]	; 30004114 <.text+0x4114>
3000405c:	e7da3003 	ldrb	r3, [sl, r3]
30004060:	e3130020 	tst	r3, #32	; 0x20
30004064:	e1a0100a 	mov	r1, sl
30004068:	1a00000c 	bne	300040a0 <.text+0x40a0>
3000406c:	e2400001 	sub	r0, r0, #1	; 0x1
30004070:	ea000008 	b	30004098 <.text+0x4098>
30004074:	e4cc2001 	strb	r2, [ip], #1
30004078:	e2400001 	sub	r0, r0, #1	; 0x1
3000407c:	e5f42001 	ldrb	r2, [r4, #1]!
30004080:	e20230ff 	and	r3, r2, #255	; 0xff
30004084:	e3530000 	cmp	r3, #0	; 0x0
30004088:	0a000004 	beq	300040a0 <.text+0x40a0>
3000408c:	e7d13003 	ldrb	r3, [r1, r3]
30004090:	e3130020 	tst	r3, #32	; 0x20
30004094:	1a000001 	bne	300040a0 <.text+0x40a0>
30004098:	e3700001 	cmn	r0, #1	; 0x1
3000409c:	1afffff4 	bne	30004074 <.text+0x4074>
300040a0:	e3a03000 	mov	r3, #0	; 0x0
300040a4:	e5cc3000 	strb	r3, [ip]
300040a8:	eaffffa9 	b	30003f54 <.text+0x3f54>
300040ac:	e1a00004 	mov	r0, r4
300040b0:	e1a0100d 	mov	r1, sp
300040b4:	e4954004 	ldr	r4, [r5], #4
300040b8:	ebfffb2e 	bl	30002d78 <simple_strtoul>
300040bc:	e5c40000 	strb	r0, [r4]
300040c0:	eaffff08 	b	30003ce8 <.text+0x3ce8>
300040c4:	e1a00004 	mov	r0, r4
300040c8:	e1a0100d 	mov	r1, sp
300040cc:	e4954004 	ldr	r4, [r5], #4
300040d0:	ebfffb70 	bl	30002e98 <simple_strtoull>
300040d4:	eaffffc1 	b	30003fe0 <.text+0x3fe0>
300040d8:	e1a00004 	mov	r0, r4
300040dc:	e1a0100d 	mov	r1, sp
300040e0:	e4954004 	ldr	r4, [r5], #4
300040e4:	ebfffb23 	bl	30002d78 <simple_strtoul>
300040e8:	eaffffb2 	b	30003fb8 <.text+0x3fb8>
300040ec:	e35e0068 	cmp	lr, #104	; 0x68
300040f0:	02811001 	addeq	r1, r1, #1	; 0x1
300040f4:	024ee020 	subeq	lr, lr, #32	; 0x20
300040f8:	058d1004 	streq	r1, [sp, #4]
300040fc:	0afffe89 	beq	30003b28 <vsscanf+0x114>
30004100:	e35e006c 	cmp	lr, #108	; 0x6c
30004104:	02811001 	addeq	r1, r1, #1	; 0x1
30004108:	024ee020 	subeq	lr, lr, #32	; 0x20
3000410c:	058d1004 	streq	r1, [sp, #4]
30004110:	eafffe84 	b	30003b28 <vsscanf+0x114>
30004114:	30004758 	andcc	r4, r0, r8, asr r7

30004118 <sscanf>:
30004118:	e92d000e 	stmdb	sp!, {r1, r2, r3}
3000411c:	e52de004 	str	lr, [sp, #-4]!
30004120:	e59d1004 	ldr	r1, [sp, #4]
30004124:	e28d2008 	add	r2, sp, #8	; 0x8
30004128:	ebfffe39 	bl	30003a14 <vsscanf>
3000412c:	e49de004 	ldr	lr, [sp], #4
30004130:	e28dd00c 	add	sp, sp, #12	; 0xc
30004134:	e1a0f00e 	mov	pc, lr
Disassembly of section .rodata:

30004138 <small_digits.1>:
30004138:	33323130 	teqcc	r2, #12	; 0xc
3000413c:	37363534 	undefined
30004140:	62613938 	rsbvs	r3, r1, #917504	; 0xe0000
30004144:	66656463 	strvsbt	r6, [r5], -r3, ror #8
30004148:	6a696867 	bvs	31a5e2ec <__bss_end+0x1a54644>
3000414c:	6e6d6c6b 	cdpvs	12, 6, cr6, cr13, cr11, {3}
30004150:	7271706f 	rsbvcs	r7, r1, #111	; 0x6f
30004154:	76757473 	undefined
30004158:	7a797877 	bvc	31e6233c <__bss_end+0x1e58694>
3000415c:	00000000 	andeq	r0, r0, r0

30004160 <large_digits.2>:
30004160:	33323130 	teqcc	r2, #12	; 0xc
30004164:	37363534 	undefined
30004168:	42413938 	submi	r3, r1, #917504	; 0xe0000
3000416c:	46454443 	strmib	r4, [r5], -r3, asr #8
30004170:	4a494847 	bmi	31256294 <__bss_end+0x124c5ec>
30004174:	4e4d4c4b 	cdpmi	12, 4, cr4, cr13, cr11, {2}
30004178:	5251504f 	subpls	r5, r1, #79	; 0x4f
3000417c:	56555453 	undefined
30004180:	5a595857 	bpl	3165a2e4 <__bss_end+0x165063c>
30004184:	00000000 	andeq	r0, r0, r0
Disassembly of section .rodata.str1.4:

30004188 <.rodata.str1.4>:
30004188:	203a7325 	eorcss	r7, sl, r5, lsr #6
3000418c:	6d6d6f63 	stcvsl	15, cr6, [sp, #-396]!
30004190:	20646e61 	rsbcs	r6, r4, r1, ror #28
30004194:	20746f6e 	rsbcss	r6, r4, lr, ror #30
30004198:	6e756f66 	cdpvs	15, 7, cr6, cr5, cr6, {3}
3000419c:	00000064 	andeq	r0, r0, r4, rrx
300041a0:	65746e65 	ldrvsb	r6, [r4, #-3685]!
300041a4:	6f722072 	swivs	0x00722072
300041a8:	5f73666d 	swipl	0x0073666d
300041ac:	6b736174 	blvs	31cdc784 <__bss_end+0x1cd2adc>
300041b0:	0a0d2928 	beq	3034e658 <__bss_end+0x3449b0>
300041b4:	00000000 	andeq	r0, r0, r0
300041b8:	666d6f72 	uqsub16vs	r6, sp, r2
300041bc:	61745f73 	cmnvs	r4, r3, ror pc
300041c0:	29286b73 	stmcsdb	r8!, {r0, r1, r4, r5, r6, r8, r9, fp, sp, lr}
300041c4:	656c203a 	strvsb	r2, [ip, #-58]!
300041c8:	20657661 	rsbcs	r7, r5, r1, ror #12
300041cc:	706d6973 	rsbvc	r6, sp, r3, ror r9
300041d0:	725f656c 	subvcs	r6, pc, #452984832	; 0x1b000000
300041d4:	73666d6f 	cmnvc	r6, #7104	; 0x1bc0
300041d8:	6d616e5f 	stcvsl	14, cr6, [r1, #-380]!
300041dc:	0a0d6965 	beq	3035e778 <__bss_end+0x354ad0>
300041e0:	00000000 	andeq	r0, r0, r0
300041e4:	666d6f72 	uqsub16vs	r6, sp, r2
300041e8:	61745f73 	cmnvs	r4, r3, ror pc
300041ec:	29286b73 	stmcsdb	r8!, {r0, r1, r4, r5, r6, r8, r9, fp, sp, lr}
300041f0:	6461203a 	strvsbt	r2, [r1], #-58
300041f4:	3d207264 	sfmcc	f7, 4, [r0, #-400]!
300041f8:	0d642520 	cfstr64eq	mvdx2, [r4, #-128]!
300041fc:	0000000a 	andeq	r0, r0, sl
30004200:	666d6f72 	uqsub16vs	r6, sp, r2
30004204:	61745f73 	cmnvs	r4, r3, ror pc
30004208:	29286b73 	stmcsdb	r8!, {r0, r1, r4, r5, r6, r8, r9, fp, sp, lr}
3000420c:	6f6e203a 	swivs	0x006e203a
30004210:	642e6564 	strvst	r6, [lr], #-1380
30004214:	657a6973 	ldrvsb	r6, [sl, #-2419]!
30004218:	25203d20 	strcs	r3, [r0, #-3360]!
3000421c:	000a0d64 	andeq	r0, sl, r4, ror #26
30004220:	00207825 	eoreq	r7, r0, r5, lsr #16
30004224:	00006325 	andeq	r6, r0, r5, lsr #6
30004228:	666d6f72 	uqsub16vs	r6, sp, r2
3000422c:	61745f73 	cmnvs	r4, r3, ror pc
30004230:	29286b73 	stmcsdb	r8!, {r0, r1, r4, r5, r6, r8, r9, fp, sp, lr}
30004234:	7562203a 	strvcb	r2, [r2, #-58]!
30004238:	72656666 	rsbvc	r6, r5, #106954752	; 0x6600000
3000423c:	30203d20 	eorcc	r3, r0, r0, lsr #26
30004240:	0d782578 	cfldr64eq	mvdx2, [r8, #-480]!
30004244:	0000000a 	andeq	r0, r0, sl
30004248:	6f720a0d 	swivs	0x00720a0d
3000424c:	7a40746f 	bvc	31021410 <__bss_end+0x1017768>
30004250:	676e6168 	strvsb	r6, [lr, -r8, ror #2]!
30004254:	2f3a7578 	swics	0x003a7578
30004258:	00002023 	andeq	r2, r0, r3, lsr #32
3000425c:	65746e65 	ldrvsb	r6, [r4, #-3685]!
30004260:	6f722072 	swivs	0x00722072
30004264:	5f73666d 	swipl	0x0073666d
30004268:	5f746567 	swipl	0x00746567
3000426c:	64646164 	strvsbt	r6, [r4], #-356
30004270:	0d292872 	stceq	8, cr2, [r9, #-456]!
30004274:	0000000a 	andeq	r0, r0, sl
30004278:	666d6f72 	uqsub16vs	r6, sp, r2
3000427c:	65675f73 	strvsb	r5, [r7, #-3955]!
30004280:	61645f74 	cmnvs	r4, r4, ror pc
30004284:	28726464 	ldmcsda	r2!, {r2, r5, r6, sl, sp, lr}^
30004288:	6e203a29 	fmulsvs	s6, s0, s19
3000428c:	5f656d61 	swipl	0x00656d61
30004290:	657a6973 	ldrvsb	r6, [sl, #-2419]!
30004294:	25203d20 	strcs	r3, [r0, #-3360]!
30004298:	000a0d64 	andeq	r0, sl, r4, ror #26
3000429c:	65746e65 	ldrvsb	r6, [r4, #-3685]!
300042a0:	69732072 	ldmvsdb	r3!, {r1, r4, r5, r6, sp}^
300042a4:	656c706d 	strvsb	r7, [ip, #-109]!
300042a8:	6d6f725f 	sfmvs	f7, 2, [pc, #-380]!
300042ac:	6e5f7366 	cdpvs	3, 5, cr7, cr15, cr6, {3}
300042b0:	69656d61 	stmvsdb	r5!, {r0, r5, r6, r8, sl, fp, sp, lr}^
300042b4:	0a0d2928 	beq	3034e75c <__bss_end+0x344ab4>
300042b8:	00000000 	andeq	r0, r0, r0
300042bc:	706d6973 	rsbvc	r6, sp, r3, ror r9
300042c0:	725f656c 	subvcs	r6, pc, #452984832	; 0x1b000000
300042c4:	73666d6f 	cmnvc	r6, #7104	; 0x1bc0
300042c8:	6d616e5f 	stcvsl	14, cr6, [r1, #-380]!
300042cc:	29286965 	stmcsdb	r8!, {r0, r2, r5, r6, r8, fp, sp, lr}
300042d0:	6964203a 	stmvsdb	r4!, {r1, r3, r4, r5, sp}^
300042d4:	203d2072 	eorcss	r2, sp, r2, ror r0
300042d8:	202c7325 	eorcs	r7, ip, r5, lsr #6
300042dc:	6d616e66 	stcvsl	14, cr6, [r1, #-408]!
300042e0:	203d2065 	eorcss	r2, sp, r5, rrx
300042e4:	202c7325 	eorcs	r7, ip, r5, lsr #6
300042e8:	656d616e 	strvsb	r6, [sp, #-366]!
300042ec:	25203d20 	strcs	r3, [r0, #-3360]!
300042f0:	000a0d73 	andeq	r0, sl, r3, ror sp
300042f4:	69730a0d 	ldmvsdb	r3!, {r0, r2, r3, r9, fp}^
300042f8:	656c706d 	strvsb	r7, [ip, #-109]!
300042fc:	6d6f725f 	sfmvs	f7, 2, [pc, #-380]!
30004300:	6e5f7366 	cdpvs	3, 5, cr7, cr15, cr6, {3}
30004304:	69656d61 	stmvsdb	r5!, {r0, r5, r6, r8, sl, fp, sp, lr}^
30004308:	203a2928 	eorcss	r2, sl, r8, lsr #18
3000430c:	69676562 	stmvsdb	r7!, {r1, r5, r6, r8, sl, sp, lr}^
30004310:	6877206e 	ldmvsda	r7!, {r1, r2, r3, r5, r6, sp}^
30004314:	0d656c69 	stceql	12, cr6, [r5, #-420]!
30004318:	0000000a 	andeq	r0, r0, sl
3000431c:	706d6973 	rsbvc	r6, sp, r3, ror r9
30004320:	725f656c 	subvcs	r6, pc, #452984832	; 0x1b000000
30004324:	73666d6f 	cmnvc	r6, #7104	; 0x1bc0
30004328:	6d616e5f 	stcvsl	14, cr6, [r1, #-380]!
3000432c:	29286965 	stmcsdb	r8!, {r0, r2, r5, r6, r8, fp, sp, lr}
30004330:	6d74203a 	ldcvsl	0, cr2, [r4, #-232]!
30004334:	203d2070 	eorcss	r2, sp, r0, ror r0
30004338:	25287825 	strcs	r7, [r8, #-2085]!
3000433c:	202c2964 	eorcs	r2, ip, r4, ror #18
30004340:	7478656e 	ldrvcbt	r6, [r8], #-1390
30004344:	25203d20 	strcs	r3, [r0, #-3360]!
30004348:	64252878 	strvst	r2, [r5], #-2168
3000434c:	000a0d29 	andeq	r0, sl, r9, lsr #26
30004350:	706d6973 	rsbvc	r6, sp, r3, ror r9
30004354:	725f656c 	subvcs	r6, pc, #452984832	; 0x1b000000
30004358:	73666d6f 	cmnvc	r6, #7104	; 0x1bc0
3000435c:	6d616e5f 	stcvsl	14, cr6, [r1, #-380]!
30004360:	29286965 	stmcsdb	r8!, {r0, r2, r5, r6, r8, fp, sp, lr}
30004364:	2d70203a 	ldccsl	0, cr2, [r0, #-232]!
30004368:	78656e3e 	stmvcda	r5!, {r1, r2, r3, r4, r5, r9, sl, fp, sp, lr}^
3000436c:	203d2074 	eorcss	r2, sp, r4, ror r0
30004370:	0a0d7825 	beq	3036240c <__bss_end+0x358764>
30004374:	00000000 	andeq	r0, r0, r0
30004378:	706d6973 	rsbvc	r6, sp, r3, ror r9
3000437c:	725f656c 	subvcs	r6, pc, #452984832	; 0x1b000000
30004380:	73666d6f 	cmnvc	r6, #7104	; 0x1bc0
30004384:	6d616e5f 	stcvsl	14, cr6, [r1, #-380]!
30004388:	29286965 	stmcsdb	r8!, {r0, r2, r5, r6, r8, fp, sp, lr}
3000438c:	2d70203a 	ldccsl	0, cr2, [r0, #-232]!
30004390:	6570733e 	ldrvsb	r7, [r0, #-830]!
30004394:	203d2063 	eorcss	r2, sp, r3, rrx
30004398:	0a0d7825 	beq	30362434 <__bss_end+0x35878c>
3000439c:	00000000 	andeq	r0, r0, r0
300043a0:	706d6973 	rsbvc	r6, sp, r3, ror r9
300043a4:	725f656c 	subvcs	r6, pc, #452984832	; 0x1b000000
300043a8:	73666d6f 	cmnvc	r6, #7104	; 0x1bc0
300043ac:	6d616e5f 	stcvsl	14, cr6, [r1, #-380]!
300043b0:	29286965 	stmcsdb	r8!, {r0, r2, r5, r6, r8, fp, sp, lr}
300043b4:	2d70203a 	ldccsl	0, cr2, [r0, #-232]!
300043b8:	7a69733e 	bvc	31a610b8 <__bss_end+0x1a57410>
300043bc:	203d2065 	eorcss	r2, sp, r5, rrx
300043c0:	0a0d7825 	beq	3036245c <__bss_end+0x3587b4>
300043c4:	00000000 	andeq	r0, r0, r0
300043c8:	706d6973 	rsbvc	r6, sp, r3, ror r9
300043cc:	725f656c 	subvcs	r6, pc, #452984832	; 0x1b000000
300043d0:	73666d6f 	cmnvc	r6, #7104	; 0x1bc0
300043d4:	6d616e5f 	stcvsl	14, cr6, [r1, #-380]!
300043d8:	29286965 	stmcsdb	r8!, {r0, r2, r5, r6, r8, fp, sp, lr}
300043dc:	2d70203a 	ldccsl	0, cr2, [r0, #-232]!
300043e0:	6568633e 	strvsb	r6, [r8, #-830]!
300043e4:	75736b63 	ldrvcb	r6, [r3, #-2915]!
300043e8:	203d206d 	eorcss	r2, sp, sp, rrx
300043ec:	0a0d7825 	beq	30362488 <__bss_end+0x3587e0>
300043f0:	00000000 	andeq	r0, r0, r0
300043f4:	706d6973 	rsbvc	r6, sp, r3, ror r9
300043f8:	725f656c 	subvcs	r6, pc, #452984832	; 0x1b000000
300043fc:	73666d6f 	cmnvc	r6, #7104	; 0x1bc0
30004400:	6d616e5f 	stcvsl	14, cr6, [r1, #-380]!
30004404:	29286965 	stmcsdb	r8!, {r0, r2, r5, r6, r8, fp, sp, lr}
30004408:	2d70203a 	ldccsl	0, cr2, [r0, #-232]!
3000440c:	6d616e3e 	stcvsl	14, cr6, [r1, #-248]!
30004410:	203d2065 	eorcss	r2, sp, r5, rrx
30004414:	0a0d7325 	beq	303610b0 <__bss_end+0x357408>
30004418:	00000000 	andeq	r0, r0, r0
3000441c:	706d6973 	rsbvc	r6, sp, r3, ror r9
30004420:	725f656c 	subvcs	r6, pc, #452984832	; 0x1b000000
30004424:	73666d6f 	cmnvc	r6, #7104	; 0x1bc0
30004428:	6d616e5f 	stcvsl	14, cr6, [r1, #-380]!
3000442c:	29286965 	stmcsdb	r8!, {r0, r2, r5, r6, r8, fp, sp, lr}
30004430:	6f67203a 	swivs	0x0067203a
30004434:	206f7420 	rsbcs	r7, pc, r0, lsr #8
30004438:	6e756f66 	cdpvs	15, 7, cr6, cr5, cr6, {3}
3000443c:	72696464 	rsbvc	r6, r9, #1677721600	; 0x64000000
30004440:	00000a0d 	andeq	r0, r0, sp, lsl #20
30004444:	706d6973 	rsbvc	r6, sp, r3, ror r9
30004448:	725f656c 	subvcs	r6, pc, #452984832	; 0x1b000000
3000444c:	73666d6f 	cmnvc	r6, #7104	; 0x1bc0
30004450:	6d616e5f 	stcvsl	14, cr6, [r1, #-380]!
30004454:	29286965 	stmcsdb	r8!, {r0, r2, r5, r6, r8, fp, sp, lr}
30004458:	6e65203a 	mcrvs	0, 3, r2, cr5, cr10, {1}
3000445c:	20726574 	rsbcss	r6, r2, r4, ror r5
30004460:	6e756f66 	cdpvs	15, 7, cr6, cr5, cr6, {3}
30004464:	000a0d64 	andeq	r0, sl, r4, ror #26
30004468:	706d6973 	rsbvc	r6, sp, r3, ror r9
3000446c:	725f656c 	subvcs	r6, pc, #452984832	; 0x1b000000
30004470:	73666d6f 	cmnvc	r6, #7104	; 0x1bc0
30004474:	6d616e5f 	stcvsl	14, cr6, [r1, #-380]!
30004478:	29286965 	stmcsdb	r8!, {r0, r2, r5, r6, r8, fp, sp, lr}
3000447c:	6f67203a 	swivs	0x0067203a
30004480:	206f7420 	rsbcs	r7, pc, r0, lsr #8
30004484:	6e756f66 	cdpvs	15, 7, cr6, cr5, cr6, {3}
30004488:	000a0d64 	andeq	r0, sl, r4, ror #26
3000448c:	25444d43 	strcsb	r4, [r4, #-3395]
30004490:	69542064 	ldmvsdb	r4, {r2, r5, r6, sp}^
30004494:	6f20656d 	swivs	0x0020656d
30004498:	0d217475 	cfstrseq	mvf7, [r1, #-468]!
3000449c:	0000000a 	andeq	r0, r0, sl
300044a0:	44530a0d 	ldrmib	r0, [r3], #-2573
300044a4:	caf5b349 	bgt	2fd711d0 <DISABLE_IRQ+0x2fd71150>
300044a8:	bfafbbbc 	swilt	0x00afbbbc
300044ac:	a3bccaaa 	movges	ip, #696320	; 0xaa000
300044b0:	000000a1 	andeq	r0, r0, r1, lsr #1
300044b4:	74696e49 	strvcbt	r6, [r9], #-3657
300044b8:	696c6169 	stmvsdb	ip!, {r0, r3, r5, r6, r8, sp, lr}^
300044bc:	6620657a 	undefined
300044c0:	0d6c6961 	stceql	9, cr6, [ip, #-388]!
300044c4:	206f4e0a 	rsbcs	r4, pc, sl, lsl #28
300044c8:	64726143 	ldrvsbt	r6, [r2], #-323
300044cc:	73736120 	cmnvc	r3, #8	; 0x8
300044d0:	69747265 	ldmvsdb	r4!, {r0, r2, r5, r6, r9, ip, sp, lr}^
300044d4:	0a0d6e6f 	beq	3035fe98 <__bss_end+0x3561f0>
300044d8:	00000000 	andeq	r0, r0, r0
300044dc:	69204453 	stmvsdb	r0!, {r0, r1, r4, r6, sl, lr}
300044e0:	65722073 	ldrvsb	r2, [r2, #-115]!
300044e4:	0d796461 	cfldrdeq	mvd6, [r9, #-388]!
300044e8:	0000000a 	andeq	r0, r0, sl
300044ec:	64616552 	strvsbt	r6, [r1], #-1362
300044f0:	72614320 	rsbvc	r4, r1, #-2147483648	; 0x80000000
300044f4:	49432064 	stmmidb	r3, {r2, r5, r6, sp}^
300044f8:	73692044 	cmnvc	r9, #68	; 0x44
300044fc:	69616620 	stmvsdb	r1!, {r5, r9, sl, sp, lr}^
30004500:	0a0d216c 	beq	3034cab8 <__bss_end+0x342e10>
30004504:	00000000 	andeq	r0, r0, r0
30004508:	0d444943 	stceql	9, cr4, [r4, #-268]
3000450c:	0000000a 	andeq	r0, r0, sl
30004510:	2044494d 	subcs	r4, r4, sp, asr #18
30004514:	6425203d 	strvst	r2, [r5], #-61
30004518:	00000a0d 	andeq	r0, r0, sp, lsl #20
3000451c:	20444c4f 	subcs	r4, r4, pc, asr #24
30004520:	6425203d 	strvst	r2, [r5], #-61
30004524:	00000a0d 	andeq	r0, r0, sp, lsl #20
30004528:	fab2fac9 	blx	2ecc3054 <DISABLE_IRQ+0x2ecc2fd4>
3000452c:	d2bca7b3 	adcles	sl, ip, #46923776	; 0x2cc0000
30004530:	0d73253a 	cfldr64eq	mvdx2, [r3, #-232]!
30004534:	0000000a 	andeq	r0, r0, sl
30004538:	fab2fac9 	blx	2ecc3064 <DISABLE_IRQ+0x2ecc2fe4>
3000453c:	dac6d5c8 	ble	2f1b9c64 <DISABLE_IRQ+0x2f1b9be4>
30004540:	2530323a 	ldrcs	r3, [r0, #-570]!
30004544:	64252c64 	strvst	r2, [r5], #-3172
30004548:	00000a0d 	andeq	r0, r0, sp, lsl #20
3000454c:	64616552 	strvsbt	r6, [r1], #-1362
30004550:	20445320 	subcs	r5, r4, r0, lsr #6
30004554:	20414352 	subcs	r4, r1, r2, asr r3
30004558:	66207369 	strvst	r7, [r0], -r9, ror #6
3000455c:	216c6961 	cmncs	ip, r1, ror #18
30004560:	00000a0d 	andeq	r0, r0, sp, lsl #20
30004564:	43204453 	teqmi	r0, #1392508928	; 0x53000000
30004568:	20647261 	rsbcs	r7, r4, r1, ror #4
3000456c:	20414352 	subcs	r4, r1, r2, asr r3
30004570:	7830203d 	ldmvcda	r0!, {r0, r2, r3, r4, r5, sp}
30004574:	0a0d7825 	beq	30362610 <__bss_end+0x358968>
30004578:	00000000 	andeq	r0, r0, r0
3000457c:	46204453 	undefined
30004580:	75716572 	ldrvcb	r6, [r1, #-1394]!
30004584:	79636e65 	stmvcdb	r3!, {r0, r2, r5, r6, r9, sl, fp, sp, lr}^
30004588:	20736920 	rsbcss	r6, r3, r0, lsr #18
3000458c:	7a486425 	bvc	3121d628 <__bss_end+0x1213980>
30004590:	00000a0d 	andeq	r0, r0, sp, lsl #20
30004594:	64616552 	strvsbt	r6, [r1], #-1362
30004598:	72614320 	rsbvc	r4, r1, #-2147483648	; 0x80000000
3000459c:	53432064 	cmppl	r3, #100	; 0x64
300045a0:	61462044 	cmpvs	r6, r4, asr #32
300045a4:	0d216c69 	stceq	12, cr6, [r1, #-420]!
300045a8:	0000000a 	andeq	r0, r0, sl
300045ac:	64616552 	strvsbt	r6, [r1], #-1362
300045b0:	434d4d20 	cmpmi	sp, #2048	; 0x800
300045b4:	41435220 	cmpmi	r3, r0, lsr #4
300045b8:	20736920 	rsbcss	r6, r3, r0, lsr #18
300045bc:	6c696166 	stfvse	f6, [r9], #-408
300045c0:	000a0d21 	andeq	r0, sl, r1, lsr #26
300045c4:	20434d4d 	subcs	r4, r3, sp, asr #26
300045c8:	64726143 	ldrvsbt	r6, [r2], #-323
300045cc:	41435220 	cmpmi	r3, r0, lsr #4
300045d0:	30203d20 	eorcc	r3, r0, r0, lsr #26
300045d4:	0d782578 	cfldr64eq	mvdx2, [r8, #-480]!
300045d8:	0000000a 	andeq	r0, r0, sl
300045dc:	20434d4d 	subcs	r4, r3, sp, asr #26
300045e0:	71657246 	cmnvc	r5, r6, asr #4
300045e4:	636e6575 	cmnvs	lr, #490733568	; 0x1d400000
300045e8:	73692079 	cmnvc	r9, #121	; 0x79
300045ec:	48642520 	stmmida	r4!, {r5, r8, sl, sp}^
300045f0:	000a0d7a 	andeq	r0, sl, sl, ror sp
300045f4:	64616552 	strvsbt	r6, [r1], #-1362
300045f8:	72614320 	rsbvc	r4, r1, #-2147483648	; 0x80000000
300045fc:	53432064 	cmppl	r3, #100	; 0x64
30004600:	4b4f2044 	blmi	313cc718 <__bss_end+0x13c2a70>
30004604:	000a0d21 	andeq	r0, sl, r1, lsr #26
30004608:	30257830 	eorcc	r7, r5, r0, lsr r8
3000460c:	0a0d7838 	beq	303626f4 <__bss_end+0x358a4c>
30004610:	00000000 	andeq	r0, r0, r0
30004614:	ddc8a8bf 	stclel	8, cr10, [r8, #764]
30004618:	aacebfc1 	bge	2f3b4524 <DISABLE_IRQ+0x2f3b44a4>
3000461c:	4b64253a 	blmi	3190db0c <__bss_end+0x1903e64>
30004620:	64252c42 	strvst	r2, [r5], #-3138
30004624:	0a0d424d 	beq	30354f60 <__bss_end+0x34b2b8>
30004628:	00000000 	andeq	r0, r0, r0
3000462c:	64726143 	ldrvsbt	r6, [r2], #-323
30004630:	6c657320 	stcvsl	3, cr7, [r5], #-128
30004634:	73656420 	cmnvc	r5, #536870912	; 0x20000000
30004638:	66206c65 	strvst	r6, [r0], -r5, ror #24
3000463c:	216c6961 	cmncs	ip, r1, ror #18
30004640:	00000a0d 	andeq	r0, r0, sp, lsl #20
30004644:	64726143 	ldrvsbt	r6, [r2], #-323
30004648:	6c657320 	stcvsl	3, cr7, [r5], #-128
3000464c:	73656420 	cmnvc	r5, #536870912	; 0x20000000
30004650:	4f206c65 	swimi	0x00206c65
30004654:	0a0d214b 	beq	3034cb88 <__bss_end+0x342ee0>
30004658:	00000000 	andeq	r0, r0, r0
3000465c:	20737542 	rsbcss	r7, r3, r2, asr #10
30004660:	74646957 	strvcbt	r6, [r4], #-2391
30004664:	73692068 	cmnvc	r9, #104	; 0x68
30004668:	69623420 	stmvsdb	r2!, {r5, sl, ip, sp}^
3000466c:	000a0d74 	andeq	r0, sl, r4, ror sp
30004670:	20737542 	rsbcss	r7, r3, r2, asr #10
30004674:	74646957 	strvcbt	r6, [r4], #-2391
30004678:	73692068 	cmnvc	r9, #104	; 0x68
3000467c:	69623120 	stmvsdb	r2!, {r5, r8, ip, sp}^
30004680:	000a0d74 	andeq	r0, sl, r4, ror sp
30004684:	b3494453 	cmplt	r9, #1392508928	; 0x53000000
30004688:	bbbccaf5 	bllt	2ef37264 <DISABLE_IRQ+0x2ef371e4>
3000468c:	cae1bdaf 	bgt	2f873d50 <DISABLE_IRQ+0x2f873cd0>
30004690:	0da1a3f8 	stceq	3, cr10, [r1, #992]!
30004694:	0000000a 	andeq	r0, r0, sl
30004698:	b4d00a0d 	ldrltb	r0, [r0], #2573
3000469c:	4453ebc8 	ldrmib	lr, [r3], #-3016
300046a0:	b530a8bf 	ldrlt	sl, [r0, #-2239]!
300046a4:	cab7d6d8 	bgt	2edfa20c <DISABLE_IRQ+0x2edfa18c>
300046a8:	b3ddbefd 	biclts	fp, sp, #4048	; 0xfd0
300046ac:	a3a6b9c9 	movge	fp, #3293184	; 0x324000
300046b0:	000000a1 	andeq	r0, r0, r1, lsr #1
300046b4:	c1b60a0d 	movgts	r0, sp, lsl #20
300046b8:	4453f6b3 	ldrmib	pc, [r3], #-1715
300046bc:	b530a8bf 	ldrlt	sl, [r0, #-2239]!
300046c0:	cab7d6d8 	bgt	2edfa228 <DISABLE_IRQ+0x2edfa1a8>
300046c4:	b3ddbefd 	biclts	fp, sp, #4048	; 0xfd0
300046c8:	a3a6b9c9 	movge	fp, #3293184	; 0x324000
300046cc:	000000a1 	andeq	r0, r0, r1, lsr #1
300046d0:	c1b60a0d 	movgts	r0, sp, lsl #20
300046d4:	c4b5f6b3 	ldrgtt	pc, [r5], #1715
300046d8:	ddbefdca 	ldcle	13, cr15, [lr, #808]!
300046dc:	000a0d3a 	andeq	r0, sl, sl, lsr sp
300046e0:	00206425 	eoreq	r6, r0, r5, lsr #8
300046e4:	b3494453 	cmplt	r9, #1392508928	; 0x53000000
300046e8:	bbbccaf5 	bllt	2ef372c4 <DISABLE_IRQ+0x2ef37244>
300046ec:	b4f6b3af 	ldrltbt	fp, [r6], #943
300046f0:	d6aca3ed 	strlet	sl, [ip], sp, ror #7
300046f4:	a3b9d6d5 	movges	sp, #223346688	; 0xd500000
300046f8:	000a0da1 	andeq	r0, sl, r1, lsr #27
300046fc:	b4d00a0d 	ldrltb	r0, [r0], #2573
30004700:	4453ebc8 	ldrmib	lr, [r3], #-3016
30004704:	b530a8bf 	ldrlt	sl, [r0, #-2239]!
30004708:	cab7d6d8 	bgt	2edfa270 <DISABLE_IRQ+0x2edfa1f0>
3000470c:	b3ddbefd 	biclts	fp, sp, #4048	; 0xfd0
30004710:	a3edb4f6 	mvnge	fp, #-167772160	; 0xf6000000
30004714:	d6d5d6ac 	ldrleb	sp, [r5], ip, lsr #13
30004718:	00a1a3b9 	streqh	sl, [r1], r9
3000471c:	c1b60a0d 	movgts	r0, sp, lsl #20
30004720:	4453f6b3 	ldrmib	pc, [r3], #-1715
30004724:	b530a8bf 	ldrlt	sl, [r0, #-2239]!
30004728:	cab7d6d8 	bgt	2edfa290 <DISABLE_IRQ+0x2edfa210>
3000472c:	b3ddbefd 	biclts	fp, sp, #4048	; 0xfd0
30004730:	a3edb4f6 	mvnge	fp, #-167772160	; 0xf6000000
30004734:	d6d5d6ac 	ldrleb	sp, [r5], ip, lsr #13
30004738:	00a1a3b9 	streqh	sl, [r1], r9
3000473c:	4c554e3c 	mrrcmi	14, 3, r4, r5, cr12
30004740:	Address 0x30004740 is out of bounds.

Disassembly of section .data:

30004744 <buffer>:
30004744:	33600000 	cmncc	r0, #0	; 0x0

30004748 <task_stack_addr_base.0>:
30004748:	30300000 	eorccs	r0, r0, r0

3000474c <ysize>:
3000474c:	00000110 	andeq	r0, r0, r0, lsl r1

30004750 <xsize>:
30004750:	000001e0 	andeq	r0, r0, r0, ror #3

30004754 <fb_base_addr>:
30004754:	30400000 	subcc	r0, r0, r0

30004758 <_ctype>:
30004758:	08080808 	stmeqda	r8, {r3, fp}
3000475c:	08080808 	stmeqda	r8, {r3, fp}
30004760:	28282808 	stmcsda	r8!, {r3, fp, sp}
30004764:	08082828 	stmeqda	r8, {r3, r5, fp, sp}
30004768:	08080808 	stmeqda	r8, {r3, fp}
3000476c:	08080808 	stmeqda	r8, {r3, fp}
30004770:	08080808 	stmeqda	r8, {r3, fp}
30004774:	08080808 	stmeqda	r8, {r3, fp}
30004778:	101010a0 	andnes	r1, r0, r0, lsr #1
3000477c:	10101010 	andnes	r1, r0, r0, lsl r0
30004780:	10101010 	andnes	r1, r0, r0, lsl r0
30004784:	10101010 	andnes	r1, r0, r0, lsl r0
30004788:	04040404 	streq	r0, [r4], #-1028
3000478c:	04040404 	streq	r0, [r4], #-1028
30004790:	10100404 	andnes	r0, r0, r4, lsl #8
30004794:	10101010 	andnes	r1, r0, r0, lsl r0
30004798:	41414110 	cmpmi	r1, r0, lsl r1
3000479c:	01414141 	cmpeq	r1, r1, asr #2
300047a0:	01010101 	tsteq	r1, r1, lsl #2
300047a4:	01010101 	tsteq	r1, r1, lsl #2
300047a8:	01010101 	tsteq	r1, r1, lsl #2
300047ac:	01010101 	tsteq	r1, r1, lsl #2
300047b0:	10010101 	andne	r0, r1, r1, lsl #2
300047b4:	10101010 	andnes	r1, r0, r0, lsl r0
300047b8:	42424210 	submi	r4, r2, #1	; 0x1
300047bc:	02424242 	subeq	r4, r2, #536870916	; 0x20000004
300047c0:	02020202 	andeq	r0, r2, #536870912	; 0x20000000
300047c4:	02020202 	andeq	r0, r2, #536870912	; 0x20000000
300047c8:	02020202 	andeq	r0, r2, #536870912	; 0x20000000
300047cc:	02020202 	andeq	r0, r2, #536870912	; 0x20000000
300047d0:	10020202 	andne	r0, r2, r2, lsl #4
300047d4:	08101010 	ldmeqda	r0, {r4, ip}
	...
300047f8:	101010a0 	andnes	r1, r0, r0, lsr #1
300047fc:	10101010 	andnes	r1, r0, r0, lsl r0
30004800:	10101010 	andnes	r1, r0, r0, lsl r0
30004804:	10101010 	andnes	r1, r0, r0, lsl r0
30004808:	10101010 	andnes	r1, r0, r0, lsl r0
3000480c:	10101010 	andnes	r1, r0, r0, lsl r0
30004810:	10101010 	andnes	r1, r0, r0, lsl r0
30004814:	10101010 	andnes	r1, r0, r0, lsl r0
30004818:	01010101 	tsteq	r1, r1, lsl #2
3000481c:	01010101 	tsteq	r1, r1, lsl #2
30004820:	01010101 	tsteq	r1, r1, lsl #2
30004824:	01010101 	tsteq	r1, r1, lsl #2
30004828:	01010101 	tsteq	r1, r1, lsl #2
3000482c:	10010101 	andne	r0, r1, r1, lsl #2
30004830:	01010101 	tsteq	r1, r1, lsl #2
30004834:	02010101 	andeq	r0, r1, #1073741824	; 0x40000000
30004838:	02020202 	andeq	r0, r2, #536870912	; 0x20000000
3000483c:	02020202 	andeq	r0, r2, #536870912	; 0x20000000
30004840:	02020202 	andeq	r0, r2, #536870912	; 0x20000000
30004844:	02020202 	andeq	r0, r2, #536870912	; 0x20000000
30004848:	02020202 	andeq	r0, r2, #536870912	; 0x20000000
3000484c:	10020202 	andne	r0, r2, r2, lsl #4
30004850:	02020202 	andeq	r0, r2, #536870912	; 0x20000000
30004854:	02020202 	andeq	r0, r2, #536870912	; 0x20000000

30004858 <warn.0>:
30004858:	00000001 	andeq	r0, r0, r1
Disassembly of section .bss:

3000485c <mem_map>:
	...

3000885c <g_pcOutBuf>:
	...

30008c5c <g_pcInBuf>:
	...

3000905c <g_pcOutBuf>:
	...

3000945c <g_pcInBuf>:
	...

3000985c <wait_queue_head>:
	...

30009864 <tmp>:
30009864:	00000000 	andeq	r0, r0, r0

30009868 <temp_romfs_inode>:
	...

30009878 <recv_buf>:
	...

30009a78 <send_buf>:
	...

30009c78 <SDCard>:
	...

30009ca4 <___strtok>:
30009ca4:	00000000 	andeq	r0, r0, r0
Disassembly of section .debug_line:

00000000 <.debug_line>:
       0:	0000009a 	muleq	r0, sl, r0
       4:	001a0002 	andeqs	r0, sl, r2
       8:	01020000 	tsteq	r2, r0
       c:	000a0efb 	streqd	r0, [sl], -fp
      10:	01010101 	tsteq	r1, r1, lsl #2
      14:	01000000 	tsteq	r0, r0
      18:	61656800 	cmnvs	r5, r0, lsl #16
      1c:	00532e64 	subeqs	r2, r3, r4, ror #28
      20:	00000000 	andeq	r0, r0, r0
      24:	00020500 	andeq	r0, r2, r0, lsl #10
      28:	03300000 	teqeq	r0, #0	; 0x0
      2c:	2f2f0131 	swics	0x002f0131
      30:	2e2f2f2f 	cdpcs	15, 2, cr2, cr15, cr15, {1}
      34:	2c2d312f 	stfcss	f3, [sp], #-188
      38:	2c2e2d2c 	stccs	13, cr2, [lr], #-176
      3c:	2e2f2c2c 	cdpcs	12, 2, cr2, cr15, cr12, {1}
      40:	2d2c2d2c 	stccs	13, cr2, [ip, #-176]!
      44:	312e2c2d 	teqcc	lr, sp, lsr #24
      48:	2c2c2d2c 	stccs	13, cr2, [ip], #-176
      4c:	2c2d2c2c 	stccs	12, cr2, [sp], #-176
      50:	2c2c2c2d 	stccs	12, cr2, [ip], #-180
      54:	2c2c2c2c 	stccs	12, cr2, [ip], #-176
      58:	2d2e2d2c 	stccs	13, cr2, [lr, #-176]!
      5c:	2c2c2c2e 	stccs	12, cr2, [ip], #-184
      60:	2c2c2c2c 	stccs	12, cr2, [ip], #-176
      64:	2c2c2d2c 	stccs	13, cr2, [ip], #-176
      68:	2c2c2c2c 	stccs	12, cr2, [ip], #-176
      6c:	2c2e2c2c 	stccs	12, cr2, [lr], #-176
      70:	2c2c2d2c 	stccs	13, cr2, [ip], #-176
      74:	2c2e2c2c 	stccs	12, cr2, [lr], #-176
      78:	2f2c2c2c 	swics	0x002c2c2c
      7c:	2e2c2c2c 	cdpcs	12, 2, cr2, cr12, cr12, {1}
      80:	2c2d2c2c 	stccs	12, cr2, [sp], #-176
      84:	2c2c2d2c 	stccs	13, cr2, [ip], #-176
      88:	482c2e2c 	stmmida	ip!, {r2, r3, r5, r9, sl, fp, sp}
      8c:	2c2c2c2d 	stccs	12, cr2, [ip], #-180
      90:	2c2c2e2c 	stccs	14, cr2, [ip], #-176
      94:	2c2c2c2d 	stccs	12, cr2, [ip], #-180
      98:	0036022c 	eoreqs	r0, r6, ip, lsr #4
      9c:	00530101 	subeqs	r0, r3, r1, lsl #2
      a0:	00020000 	andeq	r0, r2, r0
      a4:	0000001a 	andeq	r0, r0, sl, lsl r0
      a8:	0efb0102 	cdpeq	1, 15, cr0, cr11, cr2, {0}
      ac:	0101000a 	tsteq	r1, sl
      b0:	00000101 	andeq	r0, r0, r1, lsl #2
      b4:	69000100 	stmvsdb	r0, {r8}
      b8:	2e74696e 	cdpcs	9, 7, cr6, cr4, cr14, {3}
      bc:	00000063 	andeq	r0, r0, r3, rrx
      c0:	05000000 	streq	r0, [r0]
      c4:	00022002 	andeq	r2, r2, r2
      c8:	66801330 	undefined
      cc:	304b6529 	subcc	r6, fp, r9, lsr #10
      d0:	380864b7 	stmccda	r8, {r0, r1, r2, r4, r5, r7, sl, sp, lr}
      d4:	39080d03 	stmccdb	r8, {r0, r1, r8, sl, fp}
      d8:	2a2d2949 	bcs	b4a604 <DISABLE_IRQ+0xb4a584>
      dc:	2b7a0331 	blcs	1e80da8 <DISABLE_IRQ+0x1e80d28>
      e0:	642a2d2c 	strvst	r2, [sl], #-3372
      e4:	0a03852e 	beq	e15a4 <DISABLE_IRQ+0xe1524>
      e8:	2b77037f 	blcs	1dc0eec <DISABLE_IRQ+0x1dc0e6c>
      ec:	67630903 	strvsb	r0, [r3, -r3, lsl #18]!
      f0:	01000802 	tsteq	r0, r2, lsl #16
      f4:	0000e101 	andeq	lr, r0, r1, lsl #2
      f8:	4b000200 	blmi	900 <DISABLE_IRQ+0x880>
      fc:	02000000 	andeq	r0, r0, #0	; 0x0
     100:	0a0efb01 	beq	3bed0c <DISABLE_IRQ+0x3bec8c>
     104:	01010100 	tsteq	r1, r0, lsl #2
     108:	00000001 	andeq	r0, r0, r1
     10c:	6e6d2f01 	cdpvs	15, 6, cr2, cr13, cr1, {0}
     110:	67682f74 	undefined
     114:	412f7366 	teqmi	pc, r6, ror #6
     118:	706d7973 	rsbvc	r7, sp, r3, ror r9
     11c:	65746f74 	ldrvsb	r6, [r4, #-3956]!
     120:	616d0000 	cmnvs	sp, r0
     124:	632e6e69 	teqvs	lr, #1680	; 0x690
     128:	00000000 	andeq	r0, r0, r0
     12c:	7473696c 	ldrvcbt	r6, [r3], #-2412
     130:	0100682e 	tsteq	r0, lr, lsr #16
     134:	73660000 	cmnvc	r6, #0	; 0x0
     138:	0100682e 	tsteq	r0, lr, lsr #16
     13c:	74630000 	strvcbt	r0, [r3]
     140:	2e657079 	mcrcs	0, 3, r7, cr5, cr9, {3}
     144:	00010068 	andeq	r0, r1, r8, rrx
     148:	05000000 	streq	r0, [r0]
     14c:	00035002 	andeq	r5, r3, r2
     150:	01100330 	tsteq	r0, r0, lsr r3
     154:	62302731 	eorvss	r2, r0, #12845056	; 0xc40000
     158:	302d295f 	eorcc	r2, sp, pc, asr r9
     15c:	2df02c2e 	ldccsl	12, cr2, [r0, #184]!
     160:	699c85d4 	ldmvsib	ip, {r2, r4, r6, r7, r8, sl, pc}
     164:	03470903 	cmpeq	r7, #49152	; 0xc000
     168:	6e032b09 	fmacdvs	d2, d3, d9
     16c:	2b09032b 	blcs	240e20 <DISABLE_IRQ+0x240da0>
     170:	6549802d 	strvsb	r8, [r9, #-45]
     174:	4664d465 	strmibt	sp, [r4], -r5, ror #8
     178:	7e802e2c 	cdpvc	14, 8, cr2, cr0, cr12, {1}
     17c:	7e804882 	cdpvc	8, 8, cr4, cr0, cr2, {4}
     180:	f0644982 	rsbnv	r4, r4, r2, lsl #19
     184:	2a2c462c 	bcs	b11a3c <DISABLE_IRQ+0xb119bc>
     188:	2e92084a 	cdpcs	8, 9, cr0, cr2, cr10, {2}
     18c:	312e4629 	teqcc	lr, r9, lsr #12
     190:	2c462c46 	mcrrcs	12, 4, r2, r6, cr6
     194:	2c462e64 	mcrrcs	14, 6, r2, r6, cr4
     198:	2d802c2a 	stccs	12, cr2, [r0, #168]
     19c:	2c2c2a2c 	stccs	10, cr2, [ip], #-176
     1a0:	30632b03 	rsbcc	r2, r3, r3, lsl #22
     1a4:	2c2a2c4a 	stccs	12, cr2, [sl], #-296
     1a8:	2f27274f 	swics	0x0027274f
     1ac:	7a03692e 	bvc	da66c <DISABLE_IRQ+0xda5ec>
     1b0:	44662c2b 	strmibt	r2, [r6], #-3115
     1b4:	69682930 	stmvsdb	r8!, {r4, r5, r8, fp, sp}^
     1b8:	7c2c4c49 	stcvc	12, cr4, [ip], #-292
     1bc:	312a2c48 	teqcc	sl, r8, asr #24
     1c0:	80a04881 	adchi	r4, r0, r1, lsl #17
     1c4:	2c2c2c2c 	stccs	12, cr2, [ip], #-176
     1c8:	032f2c2c 	teqeq	pc, #11264	; 0x2c00
     1cc:	48466309 	stmmida	r6, {r0, r3, r8, r9, sp, lr}^
     1d0:	2c9a2e80 	ldccs	14, cr2, [sl], {128}
     1d4:	00060248 	andeq	r0, r6, r8, asr #4
     1d8:	00960101 	addeqs	r0, r6, r1, lsl #2
     1dc:	00020000 	andeq	r0, r2, r0
     1e0:	00000059 	andeq	r0, r0, r9, asr r0
     1e4:	0efb0102 	cdpeq	1, 15, cr0, cr11, cr2, {0}
     1e8:	0101000a 	tsteq	r1, sl
     1ec:	00000101 	andeq	r0, r0, r1, lsl #2
     1f0:	6d2f0100 	stfvss	f0, [pc]
     1f4:	682f746e 	stmvsda	pc!, {r1, r2, r3, r5, r6, sl, ip, sp, lr}
     1f8:	2f736667 	swics	0x00736667
     1fc:	6d797341 	ldcvsl	3, cr7, [r9, #-260]!
     200:	746f7470 	strvcbt	r7, [pc], #1136	; 208 <DISABLE_IRQ+0x188>
     204:	73000065 	tstvc	r0, #101	; 0x65
     208:	64656863 	strvsbt	r6, [r5], #-2147
     20c:	0000632e 	andeq	r6, r0, lr, lsr #6
     210:	63730000 	cmnvs	r3, #0	; 0x0
     214:	2e646568 	cdpcs	5, 6, cr6, cr4, cr8, {3}
     218:	00010068 	andeq	r0, r1, r8, rrx
     21c:	6c696600 	stcvsl	6, cr6, [r9]
     220:	00682e65 	rsbeq	r2, r8, r5, ror #28
     224:	6c000001 	stcvs	0, cr0, [r0], {1}
     228:	2e747369 	cdpcs	3, 7, cr7, cr4, cr9, {3}
     22c:	00010068 	andeq	r0, r1, r8, rrx
     230:	79746300 	ldmvcdb	r4!, {r8, r9, sp, lr}^
     234:	682e6570 	stmvsda	lr!, {r4, r5, r6, r8, sl, sp, lr}
     238:	00000100 	andeq	r0, r0, r0, lsl #2
     23c:	02050000 	andeq	r0, r5, #0	; 0x0
     240:	3000074c 	andcc	r0, r0, ip, asr #14
     244:	47010c03 	strmi	r0, [r1, -r3, lsl #24]
     248:	2c832c2e 	stccs	12, cr2, [r3], {46}
     24c:	2c9b0903 	ldccs	9, cr0, [fp], {3}
     250:	2c9b0b03 	fldmiaxcs	fp, {d0}
     254:	292d2966 	stmcsdb	sp!, {r1, r2, r5, r6, r8, fp, sp}
     258:	304a2c2d 	subcc	r2, sl, sp, lsr #24
     25c:	2c2c2b30 	stccs	11, cr2, [ip], #-192
     260:	2b4c8064 	blcs	13203f8 <DISABLE_IRQ+0x1320378>
     264:	2d292d2c 	stccs	13, cr2, [r9, #-176]!
     268:	2f263029 	swics	0x00263029
     26c:	0264482c 	rsbeq	r4, r4, #2883584	; 0x2c0000
     270:	01010006 	tsteq	r1, r6
     274:	0000008d 	andeq	r0, r0, sp, lsl #1
     278:	00580002 	subeqs	r0, r8, r2
     27c:	01020000 	tsteq	r2, r0
     280:	000a0efb 	streqd	r0, [sl], -fp
     284:	01010101 	tsteq	r1, r1, lsl #2
     288:	01000000 	tsteq	r0, r0
     28c:	746e6d2f 	strvcbt	r6, [lr], #-3375
     290:	6667682f 	strvsbt	r6, [r7], -pc, lsr #16
     294:	73412f73 	cmpvc	r1, #460	; 0x1cc
     298:	74706d79 	ldrvcbt	r6, [r0], #-3449
     29c:	0065746f 	rsbeq	r7, r5, pc, ror #8
     2a0:	726f6600 	rsbvc	r6, pc, #0	; 0x0
     2a4:	00632e6b 	rsbeq	r2, r3, fp, ror #28
     2a8:	73000000 	tstvc	r0, #0	; 0x0
     2ac:	64656863 	strvsbt	r6, [r5], #-2147
     2b0:	0100682e 	tsteq	r0, lr, lsr #16
     2b4:	69660000 	stmvsdb	r6!, {}^
     2b8:	682e656c 	stmvsda	lr!, {r2, r3, r5, r6, r8, sl, sp, lr}
     2bc:	00000100 	andeq	r0, r0, r0, lsl #2
     2c0:	7473696c 	ldrvcbt	r6, [r3], #-2412
     2c4:	0100682e 	tsteq	r0, lr, lsr #16
     2c8:	74630000 	strvcbt	r0, [r3]
     2cc:	2e657079 	mcrcs	0, 3, r7, cr5, cr9, {3}
     2d0:	00010068 	andeq	r0, r1, r8, rrx
     2d4:	05000000 	streq	r0, [r0]
     2d8:	00084802 	andeq	r4, r8, r2, lsl #16
     2dc:	010b0330 	tsteq	fp, r0, lsr r3
     2e0:	032e2b48 	teqeq	lr, #73728	; 0x12000
     2e4:	2e324714 	mrccs	7, 1, r4, cr2, cr4, {0}
     2e8:	03334b2b 	teqeq	r3, #44032	; 0xac00
     2ec:	452e2b78 	strmi	r2, [lr, #-2936]!
     2f0:	08302e2a 	ldmeqda	r0!, {r1, r3, r5, r9, sl, fp, sp}
     2f4:	2c492ce3 	mcrrcs	12, 14, r2, r9, cr3
     2f8:	4a2c2d80 	bmi	b0b900 <DISABLE_IRQ+0xb0b880>
     2fc:	82492c2b 	subhi	r2, r9, #11008	; 0x2b00
     300:	01000402 	tsteq	r0, r2, lsl #8
     304:	00003f01 	andeq	r3, r0, r1, lsl #30
     308:	19000200 	stmnedb	r0, {r9}
     30c:	02000000 	andeq	r0, r0, #0	; 0x0
     310:	0a0efb01 	beq	3bef1c <DISABLE_IRQ+0x3bee9c>
     314:	01010100 	tsteq	r1, r0, lsl #2
     318:	00000001 	andeq	r0, r0, r1
     31c:	656d0001 	strvsb	r0, [sp, #-1]!
     320:	00632e6d 	rsbeq	r2, r3, sp, ror #28
     324:	00000000 	andeq	r0, r0, r0
     328:	2c020500 	cfstr32cs	mvfx0, [r2], {0}
     32c:	03300009 	teqeq	r0, #9	; 0x9
     330:	4466011f 	strmibt	r0, [r6], #-287
     334:	4864802e 	stmmida	r4!, {r1, r2, r3, r5, pc}^
     338:	0f032c2f 	swieq	0x00032c2f
     33c:	49292d47 	stmmidb	r9!, {r0, r1, r2, r6, r8, sl, fp, sp}
     340:	022b4d48 	eoreq	r4, fp, #4608	; 0x1200
     344:	01010004 	tsteq	r1, r4
     348:	000000a4 	andeq	r0, r0, r4, lsr #1
     34c:	001a0002 	andeqs	r0, sl, r2
     350:	01020000 	tsteq	r2, r0
     354:	000a0efb 	streqd	r0, [sl], -fp
     358:	01010101 	tsteq	r1, r1, lsl #2
     35c:	01000000 	tsteq	r0, r0
     360:	6e616e00 	cdpvs	14, 6, cr6, cr1, cr0, {0}
     364:	00632e64 	rsbeq	r2, r3, r4, ror #28
     368:	00000000 	andeq	r0, r0, r0
     36c:	a4020500 	strge	r0, [r2], #-1280
     370:	03300009 	teqeq	r0, #9	; 0x9
     374:	2e270113 	mcrcs	1, 1, r0, cr7, cr3, {0}
     378:	0327302c 	teqeq	r7, #44	; 0x2c
     37c:	7a034709 	bvc	d1fa8 <DISABLE_IRQ+0xd1f28>
     380:	1903332b 	stmnedb	r3, {r0, r1, r3, r5, r8, r9, ip, sp}
     384:	48472d47 	stmmida	r7, {r0, r1, r2, r6, r8, sl, fp, sp}^
     388:	9b0a032a 	blls	281038 <DISABLE_IRQ+0x280fb8>
     38c:	4c2d2949 	stcmi	9, cr2, [sp], #-292
     390:	4b634c63 	blmi	18d3524 <DISABLE_IRQ+0x18d34a4>
     394:	2a2e292d 	bcs	b8a850 <DISABLE_IRQ+0xb8a7d0>
     398:	2f76082c 	swics	0x0076082c
     39c:	2d262f27 	stccs	15, cr2, [r6, #-156]!
     3a0:	2b7a032f 	blcs	1e81064 <DISABLE_IRQ+0x1e80fe4>
     3a4:	2a48b831 	bcs	122e470 <DISABLE_IRQ+0x122e3f0>
     3a8:	2c3b082c 	ldccs	8, cr0, [fp], #-176
     3ac:	3a082c2a 	bcc	20b45c <DISABLE_IRQ+0x20b3dc>
     3b0:	082c2a48 	stmeqda	ip!, {r3, r6, r9, fp, sp}
     3b4:	2c2a483a 	stccs	8, cr4, [sl], #-232
     3b8:	842c7508 	strhit	r7, [ip], #-1288
     3bc:	492b2e48 	stmmidb	fp!, {r3, r6, r9, sl, fp, sp}
     3c0:	032f2c29 	teqeq	pc, #10496	; 0x2900
     3c4:	64032b18 	strvs	r2, [r3], #-2840
     3c8:	2b1c032b 	blcs	70107c <DISABLE_IRQ+0x700ffc>
     3cc:	4a2b6d03 	bmi	adb7e0 <DISABLE_IRQ+0xadb760>
     3d0:	082e4a4a 	stmeqda	lr!, {r1, r3, r6, r9, fp, lr}
     3d4:	2c2d293b 	stccs	9, cr2, [sp], #-236
     3d8:	3227bb28 	eorcc	fp, r7, #40960	; 0xa000
     3dc:	7f890367 	swivc	0x00890367
     3e0:	44672b47 	strmibt	r2, [r7], #-2887
     3e4:	4846302e 	stmmida	r6, {r1, r2, r3, r5, ip, sp}^
     3e8:	02296585 	eoreq	r6, r9, #557842432	; 0x21400000
     3ec:	01010002 	tsteq	r1, r2
     3f0:	000000a3 	andeq	r0, r0, r3, lsr #1
     3f4:	00190002 	andeqs	r0, r9, r2
     3f8:	01020000 	tsteq	r2, r0
     3fc:	000a0efb 	streqd	r0, [sl], -fp
     400:	01010101 	tsteq	r1, r1, lsl #2
     404:	01000000 	tsteq	r0, r0
     408:	64636c00 	strvsbt	r6, [r3], #-3072
     40c:	0000632e 	andeq	r6, r0, lr, lsr #6
     410:	00000000 	andeq	r0, r0, r0
     414:	0cc00205 	sfmeq	f0, 2, [r0], {5}
     418:	c6033000 	strgt	r3, [r3], -r0
     41c:	2c460100 	stfcse	f0, [r6], {0}
     420:	2c2c482a 	stccs	8, cr4, [ip], #-168
     424:	8364642d 	cmnhi	r4, #754974720	; 0x2d000000
     428:	2c2b1803 	stccs	8, cr1, [fp], #-12
     42c:	2c482a2a 	mcrrcs	10, 2, r2, r8, cr10
     430:	272d2d29 	strcs	r2, [sp, -r9, lsr #26]!
     434:	2c2b1503 	cfstr32cs	mvfx1, [fp], #-12
     438:	032b6e03 	teqeq	fp, #48	; 0x30
     43c:	6c032b11 	stcvs	11, cr2, [r3], {17}
     440:	13032d2b 	tstne	r3, #2752	; 0xac0
     444:	2b6c032b 	blcs	1b010f8 <DISABLE_IRQ+0x1b01078>
     448:	032b1803 	teqeq	fp, #196608	; 0x30000
     44c:	14032b69 	strne	r2, [r3], #-2921
     450:	2b6d032b 	blcs	1b41104 <DISABLE_IRQ+0x1b41084>
     454:	2c2b1103 	stfcss	f1, [fp], #-12
     458:	824c2e2c 	subhi	r2, ip, #704	; 0x2c0
     45c:	84646529 	strhibt	r6, [r4], #-1321
     460:	9c842b80 	fstmiadls	r4, {d2-d65}
     464:	7f10032b 	swivc	0x0010032b
     468:	2f26652e 	swics	0x0026652e
     46c:	2f432f2a 	swics	0x00432f2a
     470:	30272c2a 	eorcc	r2, r7, sl, lsr #24
     474:	0b033026 	bleq	cc514 <DISABLE_IRQ+0xcc494>
     478:	2e7c2e9b 	mrccs	14, 3, r2, cr12, cr11, {4}
     47c:	7e7e8048 	cdpvc	0, 7, cr8, cr14, cr8, {2}
     480:	2e282eda 	mcrcs	14, 1, r2, cr8, cr10, {6}
     484:	642c6628 	strvst	r6, [ip], #-1576
     488:	462a2c62 	strmit	r2, [sl], -r2, ror #24
     48c:	2c2c2c85 	stccs	12, cr2, [ip], #-532
     490:	0402482d 	streq	r4, [r2], #-2093
     494:	6b010100 	blvs	4089c <DISABLE_IRQ+0x4081c>
     498:	02000000 	andeq	r0, r0, #0	; 0x0
     49c:	00004300 	andeq	r4, r0, r0, lsl #6
     4a0:	fb010200 	blx	40caa <DISABLE_IRQ+0x40c2a>
     4a4:	01000a0e 	tsteq	r0, lr, lsl #20
     4a8:	00010101 	andeq	r0, r1, r1, lsl #2
     4ac:	2f010000 	swics	0x00010000
     4b0:	2f746e6d 	swics	0x00746e6d
     4b4:	73666768 	cmnvc	r6, #27262976	; 0x1a00000
     4b8:	7973412f 	ldmvcdb	r3!, {r0, r1, r2, r3, r5, r8, lr}^
     4bc:	6f74706d 	swivs	0x0074706d
     4c0:	00006574 	andeq	r6, r0, r4, ror r5
     4c4:	7473696c 	ldrvcbt	r6, [r3], #-2412
     4c8:	0000632e 	andeq	r6, r0, lr, lsr #6
     4cc:	696c0000 	stmvsdb	ip!, {}^
     4d0:	682e7473 	stmvsda	lr!, {r0, r1, r4, r5, r6, sl, ip, sp, lr}
     4d4:	00000100 	andeq	r0, r0, r0, lsl #2
     4d8:	70797463 	rsbvcs	r7, r9, r3, ror #8
     4dc:	00682e65 	rsbeq	r2, r8, r5, ror #28
     4e0:	00000001 	andeq	r0, r0, r1
     4e4:	44020500 	strmi	r0, [r2], #-1280
     4e8:	1430000f 	ldrnet	r0, [r0], #-15
     4ec:	1f032c2a 	swine	0x00032c2a
     4f0:	302c2a2b 	eorcc	r2, ip, fp, lsr #20
     4f4:	632c322b 	teqvs	ip, #-1342177278	; 0xb0000002
     4f8:	2a2e2a32 	bcs	b8adc8 <DISABLE_IRQ+0xb8ad48>
     4fc:	302b302c 	eorcc	r3, fp, ip, lsr #32
     500:	00020247 	andeq	r0, r2, r7, asr #4
     504:	004a0101 	subeq	r0, sl, r1, lsl #2
     508:	00020000 	andeq	r0, r2, r0
     50c:	0000001a 	andeq	r0, r0, sl, lsl r0
     510:	0efb0102 	cdpeq	1, 15, cr0, cr11, cr2, {0}
     514:	0101000a 	tsteq	r1, sl
     518:	00000101 	andeq	r0, r0, r1, lsl #2
     51c:	75000100 	strvc	r0, [r0, #-256]
     520:	2e747261 	cdpcs	2, 7, cr7, cr4, cr1, {3}
     524:	00000063 	andeq	r0, r0, r3, rrx
     528:	05000000 	streq	r0, [r0]
     52c:	000fa002 	andeq	sl, pc, r2
     530:	010f0330 	tsteq	pc, r0, lsr r3
     534:	2d2d2982 	stccs	9, cr2, [sp, #-520]!
     538:	2a2a2f27 	bcs	a8c1dc <DISABLE_IRQ+0xa8c15c>
     53c:	2a2d482c 	bcs	b525f4 <DISABLE_IRQ+0xb52574>
     540:	65484b2c 	strvsb	r4, [r8, #-2860]
     544:	2c652c4b 	stccsl	12, cr2, [r5], #-300
     548:	f32d2b2e 	teqnv	sp, #47104	; 0xb800
     54c:	02d62d2b 	sbceqs	r2, r6, #2752	; 0xac0
     550:	01010004 	tsteq	r1, r4
     554:	00000114 	andeq	r0, r0, r4, lsl r1
     558:	00850002 	addeq	r0, r5, r2
     55c:	01020000 	tsteq	r2, r0
     560:	000a0efb 	streqd	r0, [sl], -fp
     564:	01010101 	tsteq	r1, r1, lsl #2
     568:	01000000 	tsteq	r0, r0
     56c:	746e6d2f 	strvcbt	r6, [lr], #-3375
     570:	6667682f 	strvsbt	r6, [r7], -pc, lsr #16
     574:	73412f73 	cmpvc	r1, #460	; 0x1cc
     578:	74706d79 	ldrvcbt	r6, [r0], #-3449
     57c:	0065746f 	rsbeq	r7, r5, pc, ror #8
     580:	726f772f 	rsbvc	r7, pc, #12320768	; 0xbc0000
     584:	6f742f6b 	swivs	0x00742f6b
     588:	2f736c6f 	swics	0x00736c6f
     58c:	2d636367 	stccsl	3, cr6, [r3, #-412]!
     590:	2e342e33 	mrccs	14, 1, r2, cr4, cr3, {1}
     594:	6c672d35 	stcvsl	13, cr2, [r7], #-212
     598:	2d636269 	sfmcs	f6, 2, [r3, #-420]!
     59c:	2e332e32 	mrccs	14, 1, r2, cr3, cr2, {1}
     5a0:	696c2f36 	stmvsdb	ip!, {r1, r2, r4, r5, r8, r9, sl, fp, sp}^
     5a4:	63672f62 	cmnvs	r7, #392	; 0x188
     5a8:	72612f63 	rsbvc	r2, r1, #396	; 0x18c
     5ac:	696c2d6d 	stmvsdb	ip!, {r0, r2, r3, r5, r6, r8, sl, fp, sp}^
     5b0:	2f78756e 	swics	0x0078756e
     5b4:	2e342e33 	mrccs	14, 1, r2, cr4, cr3, {1}
     5b8:	6e692f35 	mcrvs	15, 3, r2, cr9, cr5, {1}
     5bc:	64756c63 	ldrvsbt	r6, [r5], #-3171
     5c0:	72000065 	andvc	r0, r0, #101	; 0x65
     5c4:	73666d6f 	cmnvc	r6, #7104	; 0x1bc0
     5c8:	0000632e 	andeq	r6, r0, lr, lsr #6
     5cc:	73660000 	cmnvc	r6, #0	; 0x0
     5d0:	0100682e 	tsteq	r0, lr, lsr #16
     5d4:	74730000 	ldrvcbt	r0, [r3]
     5d8:	66656464 	strvsbt	r6, [r5], -r4, ror #8
     5dc:	0200682e 	andeq	r6, r0, #3014656	; 0x2e0000
     5e0:	00000000 	andeq	r0, r0, r0
     5e4:	10740205 	rsbnes	r0, r4, r5, lsl #4
     5e8:	26033000 	strcs	r3, [r3], -r0
     5ec:	64492b01 	strvsb	r2, [r9], #-2817
     5f0:	31274a2c 	teqcc	r7, ip, lsr #20
     5f4:	79032c9c 	stmvcdb	r3, {r2, r3, r4, r7, sl, fp, sp}
     5f8:	1a032c2b 	bne	cb6ac <DISABLE_IRQ+0xcb62c>
     5fc:	492c2b47 	stmmidb	ip!, {r0, r1, r2, r6, r8, r9, fp, sp}
     600:	84806548 	strhi	r6, [r0], #1352
     604:	032b282e 	teqeq	fp, #3014656	; 0x2e0000
     608:	72032b0e 	andvc	r2, r3, #14336	; 0x3800
     60c:	2b0e032b 	blcs	3812c0 <DISABLE_IRQ+0x381240>
     610:	612b5703 	teqvs	fp, r3, lsl #14
     614:	442f482d 	strmit	r4, [pc], #2093	; 61c <DISABLE_IRQ+0x59c>
     618:	2b7a032f 	blcs	1e812dc <DISABLE_IRQ+0x1e8125c>
     61c:	03630903 	cmneq	r3, #49152	; 0xc000
     620:	59034727 	stmpldb	r3, {r0, r1, r2, r5, r8, r9, sl, lr}
     624:	2b270347 	blcs	9c1348 <DISABLE_IRQ+0x9c12c8>
     628:	672d452d 	strvs	r4, [sp, -sp, lsr #10]!
     62c:	087f0a03 	ldmeqda	pc!, {r0, r1, r9, fp}^
     630:	869d4922 	ldrhi	r4, [sp], r2, lsr #18
     634:	4a2b7903 	bmi	adea48 <DISABLE_IRQ+0xade9c8>
     638:	2c2f5f2f 	stccs	15, cr5, [pc], #-188
     63c:	6564802c 	strvsb	r8, [r4, #-44]!
     640:	8065642a 	rsbhi	r6, r5, sl, lsr #8
     644:	03470d03 	cmpeq	r7, #192	; 0xc0
     648:	4b2c2b72 	blmi	b0b418 <DISABLE_IRQ+0xb0b398>
     64c:	2a2c2f43 	bcs	b0c360 <DISABLE_IRQ+0xb0c2e0>
     650:	2c46812c 	stfcsp	f0, [r6], {44}
     654:	4726032c 	strmi	r0, [r6, -ip, lsr #6]!
     658:	64470a03 	strvsb	r0, [r7], #-2563
     65c:	2a2c2ab8 	bcs	b0b144 <DISABLE_IRQ+0xb0b0c4>
     660:	032b1403 	teqeq	fp, #50331648	; 0x3000000
     664:	02477fb4 	subeq	r7, r7, #720	; 0x2d0
     668:	01010020 	tsteq	r1, r0, lsr #32
     66c:	000002dd 	ldreqd	r0, [r0], -sp
     670:	00340002 	eoreqs	r0, r4, r2
     674:	01020000 	tsteq	r2, r0
     678:	000a0efb 	streqd	r0, [sl], -fp
     67c:	01010101 	tsteq	r1, r1, lsl #2
     680:	01000000 	tsteq	r0, r0
     684:	746e6d2f 	strvcbt	r6, [lr], #-3375
     688:	6667682f 	strvsbt	r6, [r7], -pc, lsr #16
     68c:	73412f73 	cmpvc	r1, #460	; 0x1cc
     690:	74706d79 	ldrvcbt	r6, [r0], #-3449
     694:	0065746f 	rsbeq	r7, r5, pc, ror #8
     698:	2e647300 	cdpcs	3, 6, cr7, cr4, cr0, {0}
     69c:	00000063 	andeq	r0, r0, r3, rrx
     6a0:	2e647300 	cdpcs	3, 6, cr7, cr4, cr0, {0}
     6a4:	00010068 	andeq	r0, r1, r8, rrx
     6a8:	05000000 	streq	r0, [r0]
     6ac:	00134802 	andeqs	r4, r3, r2, lsl #16
     6b0:	01f40330 	mvneqs	r0, r0, lsr r3
     6b4:	2c2f2701 	stccs	7, cr2, [pc], #-4
     6b8:	452d494a 	strmi	r4, [sp, #-2378]!
     6bc:	4a4b2c2d 	bmi	12cb778 <DISABLE_IRQ+0x12cb6f8>
     6c0:	1f083e08 	swine	0x00083e08
     6c4:	2d292d64 	stccs	13, cr2, [r9, #-400]!
     6c8:	0a03642c 	beq	d9780 <DISABLE_IRQ+0xd9700>
     6cc:	292d6447 	stmcsdb	sp!, {r0, r1, r2, r6, sl, sp, lr}
     6d0:	282e302d 	stmcsda	lr!, {r0, r2, r3, r5, ip, sp}
     6d4:	2b750332 	blcs	1d413a4 <DISABLE_IRQ+0x1d41324>
     6d8:	019a0364 	orreqs	r0, sl, r4, ror #6
     6dc:	2c2c297f 	stccs	9, cr2, [ip], #-508
     6e0:	2c442e2a 	mcrrcs	14, 2, r2, r4, cr10
     6e4:	6448662d 	strvsb	r6, [r8], #-1581
     6e8:	292b5c03 	stmcsdb	fp!, {r0, r1, sl, fp, ip, lr}
     6ec:	2a2a2c2c 	bcs	a8b7a4 <DISABLE_IRQ+0xa8b724>
     6f0:	2d2c442f 	cfstrscs	mvf4, [ip, #-188]!
     6f4:	48284b66 	stmmida	r8!, {r1, r2, r5, r6, r8, r9, fp, lr}
     6f8:	40034948 	andmi	r4, r3, r8, asr #18
     6fc:	2d29492b 	stccs	9, cr4, [r9, #-172]!
     700:	442f462a 	strmit	r4, [pc], #1578	; 708 <DISABLE_IRQ+0x688>
     704:	49652d2c 	stmmidb	r5!, {r2, r3, r5, r8, sl, fp, sp}^
     708:	2f5f4b2d 	swics	0x005f4b2d
     70c:	2b7a032d 	blcs	1e813c8 <DISABLE_IRQ+0x1e81348>
     710:	4a482d2f 	bmi	120bbd4 <DISABLE_IRQ+0x120bb54>
     714:	292b5203 	stmcsdb	fp!, {r0, r1, r9, ip, lr}
     718:	2f462a2d 	swics	0x00462a2d
     71c:	652d2c44 	strvs	r2, [sp, #-3140]!
     720:	03631103 	cmneq	r3, #-1073741824	; 0xc0000000
     724:	64642b70 	strvsbt	r2, [r4], #-2928
     728:	64646448 	strvsbt	r6, [r4], #-1096
     72c:	64646448 	strvsbt	r6, [r4], #-1096
     730:	65646448 	strvsb	r6, [r4, #-1096]!
     734:	032d482a 	teqeq	sp, #2752512	; 0x2a0000
     738:	482c2b4b 	stmmida	ip!, {r0, r1, r3, r6, r8, r9, fp, sp}
     73c:	2d2c442d 	cfstrscs	mvf4, [ip, #-180]!
     740:	6309032c 	tstvs	r9, #-1342177280	; 0xb0000000
     744:	2d292c28 	stccs	12, cr2, [r9, #-160]!
     748:	2c284a2a 	stccs	10, cr4, [r8], #-168
     74c:	2d292d2d 	stccs	13, cr2, [r9, #-180]!
     750:	2a4a2d29 	bcs	128bbfc <DISABLE_IRQ+0x128bb7c>
     754:	0332272f 	teqeq	r2, #12320768	; 0xbc0000
     758:	2e2b01e5 	sufcs<illegal precision>z	f0, f3, f5
     75c:	292d452d 	stmcsdb	sp!, {r0, r2, r3, r5, r8, sl, lr}
     760:	cd03284d 	stcgt	8, cr2, [r3, #-308]
     764:	1103477e 	tstne	r3, lr, ror r7
     768:	2b730363 	blcs	1cc14fc <DISABLE_IRQ+0x1cc147c>
     76c:	2f2a292a 	swics	0x002a292a
     770:	2a2b0d03 	bcs	ac3b84 <DISABLE_IRQ+0xac3b04>
     774:	032b7503 	teqeq	fp, #12582912	; 0xc00000
     778:	70032b0e 	andvc	r2, r3, lr, lsl #22
     77c:	2d2d292b 	stccs	9, cr2, [sp, #-172]!
     780:	49652c2a 	stmmidb	r5!, {r1, r3, r5, sl, fp, sp}^
     784:	2e2f4948 	cdpcs	9, 2, cr4, cr15, cr8, {2}
     788:	2c492d29 	mcrrcs	13, 2, r2, r9, cr9
     78c:	b1032e2a 	tstlt	r3, sl, lsr #28
     790:	2a482b01 	bcs	120b39c <DISABLE_IRQ+0x120b31c>
     794:	de034b2c 	cdple	11, 0, cr4, cr3, cr12, {1}
     798:	482c477e 	stmmida	ip!, {r1, r2, r3, r4, r5, r6, r8, r9, sl, lr}
     79c:	2d2c442d 	cfstrscs	mvf4, [ip, #-180]!
     7a0:	2d2a2c4a 	stccs	12, cr2, [sl, #-296]!
     7a4:	282b1403 	stmcsda	fp!, {r0, r1, sl, ip}
     7a8:	30282c2d 	eorcc	r2, r8, sp, lsr #24
     7ac:	2f2d2c44 	swics	0x002d2c44
     7b0:	2c2d286a 	stccs	8, cr2, [sp], #-424
     7b4:	2c443028 	mcrrcs	0, 2, r3, r4, cr8
     7b8:	8a032f2d 	bhi	cc474 <DISABLE_IRQ+0xcc3f4>
     7bc:	662f6301 	strvst	r6, [pc], -r1, lsl #6
     7c0:	64477903 	strvsb	r7, [r7], #-2307
     7c4:	292d2c2e 	stmcsdb	sp!, {r1, r2, r3, r5, sl, fp, sp}
     7c8:	6964622d 	stmvsdb	r4!, {r0, r2, r3, r5, r9, sp, lr}^
     7cc:	03b71303 	moveqs	r1, #201326592	; 0xc000000
     7d0:	2d697f72 	stccsl	15, cr7, [r9, #-456]!
     7d4:	67d72c48 	ldrvsb	r2, [r7, r8, asr #24]
     7d8:	4b646281 	blmi	19191e4 <DISABLE_IRQ+0x1919164>
     7dc:	66032c9e 	undefined
     7e0:	2c2a2c2b 	stccs	12, cr2, [sl], #-172
     7e4:	477ee503 	ldrmib	lr, [lr, -r3, lsl #10]!
     7e8:	30282c2d 	eorcc	r2, r8, sp, lsr #24
     7ec:	2f2d2c44 	swics	0x002d2c44
     7f0:	2c2d286a 	stccs	8, cr2, [sp], #-424
     7f4:	2c443028 	mcrrcs	0, 2, r3, r4, cr8
     7f8:	ae032f2d 	cdpge	15, 0, cr2, cr3, cr13, {1}
     7fc:	5f2f6301 	swipl	0x002f6301
     800:	47790332 	undefined
     804:	642c2d65 	strvst	r2, [ip], #-3429
     808:	0a034b64 	beq	d35a0 <DISABLE_IRQ+0xd3520>
     80c:	7f7a03b7 	swivc	0x007a03b7
     810:	292e2831 	stmcsdb	lr!, {r0, r4, r5, fp, sp}
     814:	4b2d292d 	blmi	b4acd0 <DISABLE_IRQ+0xb4ac50>
     818:	4a2cbbd7 	bmi	b2f77c <DISABLE_IRQ+0xb2f6fc>
     81c:	032e2c2a 	teqeq	lr, #10752	; 0x2a00
     820:	292b7eb0 	stmcsdb	fp!, {r4, r5, r7, r9, sl, fp, ip, sp, lr}
     824:	444a2a2d 	strmib	r2, [sl], #-2605
     828:	2c492d2c 	mcrrcs	13, 2, r2, r9, cr12
     82c:	472f2d2a 	strmi	r2, [pc, -sl, lsr #26]!
     830:	2730622c 	ldrcs	r6, [r0, -ip, lsr #4]!
     834:	034a2a2f 	cmpeq	sl, #192512	; 0x2f000
     838:	0a03477a 	beq	d2628 <DISABLE_IRQ+0xd25a8>
     83c:	4779032b 	ldrmib	r0, [r9, -fp, lsr #6]!
     840:	2c482d2c 	mcrrcs	13, 2, r2, r8, cr12
     844:	c1032c48 	tstgt	r3, r8, asr #24
     848:	2a644700 	bcs	1912450 <DISABLE_IRQ+0x19123d0>
     84c:	2c2d282e 	stccs	8, cr2, [sp], #-184
     850:	03482d29 	cmpeq	r8, #2624	; 0xa40
     854:	49477fbf 	stmmidb	r7, {r0, r1, r2, r3, r4, r5, r7, r8, r9, sl, fp, ip, sp, lr}^
     858:	2c2d2949 	stccs	9, cr2, [sp], #-292
     85c:	2a2c2d28 	bcs	b0bd04 <DISABLE_IRQ+0xb0bc84>
     860:	032a432e 	teqeq	sl, #-1207959552	; 0xb8000000
     864:	70032b12 	andvc	r2, r3, r2, lsl fp
     868:	2d2d2c47 	stccs	12, cr2, [sp, #-284]!
     86c:	09032d29 	stmeqdb	r3, {r0, r3, r5, r8, sl, fp, sp}
     870:	2b77032b 	blcs	1dc1524 <DISABLE_IRQ+0x1dc14a4>
     874:	2c2b0903 	stccs	9, cr0, [fp], #-12
     878:	2d2b7403 	cfstrscs	mvf7, [fp, #-12]!
     87c:	2a2d452d 	bcs	b51d38 <DISABLE_IRQ+0xb51cb8>
     880:	672c2d2a 	strvs	r2, [ip, -sl, lsr #26]!
     884:	30264c2a 	eorcc	r4, r6, sl, lsr #24
     888:	2b01a703 	blcs	6a49c <DISABLE_IRQ+0x6a41c>
     88c:	637eea03 	cmnvs	lr, #12288	; 0x3000
     890:	6846482e 	stmvsda	r6, {r1, r2, r3, r5, fp, lr}^
     894:	2fb54927 	swics	0x00b54927
     898:	2c4a2c29 	mcrrcs	12, 2, r2, sl, cr9
     89c:	477cbc03 	ldrmib	fp, [ip, -r3, lsl #24]!
     8a0:	64464a2e 	strvsb	r4, [r6], #-2606
     8a4:	4b2d292c 	blmi	b4ad5c <DISABLE_IRQ+0xb4acdc>
     8a8:	2b78032e 	blcs	1e01568 <DISABLE_IRQ+0x1e014e8>
     8ac:	032e2f2f 	teqeq	lr, #188	; 0xbc
     8b0:	0a034776 	beq	d2690 <DISABLE_IRQ+0xd2610>
     8b4:	2b77032b 	blcs	1dc1568 <DISABLE_IRQ+0x1dc14e8>
     8b8:	2a2d2c2d 	bcs	b4b974 <DISABLE_IRQ+0xb4b8f4>
     8bc:	662e2c64 	strvst	r2, [lr], -r4, ror #24
     8c0:	292d482e 	stmcsdb	sp!, {r1, r2, r3, r5, fp, lr}
     8c4:	284a2e49 	stmcsda	sl, {r0, r3, r6, r9, sl, fp, sp}^
     8c8:	2b790333 	blcs	1e4159c <DISABLE_IRQ+0x1e4151c>
     8cc:	0348864e 	cmpeq	r8, #81788928	; 0x4e00000
     8d0:	64484779 	strvsb	r4, [r8], #-1913
     8d4:	03f7649c 	mvneqs	r6, #-1677721600	; 0x9c000000
     8d8:	26a0630c 	strcst	r6, [r0], ip, lsl #6
     8dc:	089c642c 	ldmeqia	ip, {r2, r3, r5, sl, sp, lr}
     8e0:	080a0325 	stmeqda	sl, {r0, r2, r5, r8, r9}
     8e4:	5f03481d 	swipl	0x0003481d
     8e8:	7a03a147 	bvc	e8e0c <DISABLE_IRQ+0xe8d8c>
     8ec:	2c462d2b 	mcrrcs	13, 2, r2, r6, cr11
     8f0:	8049292c 	subhi	r2, r9, ip, lsr #18
     8f4:	1d081303 	stcne	3, cr1, [r8, #-12]
     8f8:	2a2c2a9c 	bcs	b0b370 <DISABLE_IRQ+0xb0b2f0>
     8fc:	2a2d2a2c 	bcs	b4b1b4 <DISABLE_IRQ+0xb4b134>
     900:	64642c2c 	strvsbt	r2, [r4], #-3116
     904:	ba876464 	blt	fe1d9a9c <CLKDIVN+0xb21d9a88>
     908:	d64e2c28 	strleb	r2, [lr], -r8, lsr #24
     90c:	2e4828d7 	mcrcs	8, 2, r2, cr8, cr7, {6}
     910:	2c2e2c2a 	stccs	12, cr2, [lr], #-168
     914:	027ed803 	rsbeqs	sp, lr, #196608	; 0x30000
     918:	642f0134 	strvst	r0, [pc], #308	; 920 <DISABLE_IRQ+0x8a0>
     91c:	2a62496a 	bcs	1892ecc <DISABLE_IRQ+0x1892e4c>
     920:	bf312a48 	swilt	0x00312a48
     924:	4e2b7903 	cdpmi	9, 2, cr7, cr11, cr3, {0}
     928:	4b4948b8 	blmi	1252c10 <DISABLE_IRQ+0x1252b90>
     92c:	7a036464 	bvc	d9ac4 <DISABLE_IRQ+0xd9a44>
     930:	79033263 	stmvcdb	r3, {r0, r1, r5, r6, r9, ip, sp}
     934:	282f4863 	stmcsda	pc!, {r0, r1, r5, r6, fp, lr}
     938:	10032c2a 	andne	r2, r3, sl, lsr #24
     93c:	2b570363 	blcs	15c16d0 <DISABLE_IRQ+0x15c1650>
     940:	2c2b0e03 	stccs	14, cr0, [fp], #-12
     944:	47130346 	ldrmi	r0, [r3, -r6, asr #6]
     948:	01001a02 	tsteq	r0, r2, lsl #20
     94c:	00008001 	andeq	r8, r0, r1
     950:	1b000200 	blne	1158 <DISABLE_IRQ+0x10d8>
     954:	02000000 	andeq	r0, r0, #0	; 0x0
     958:	0a0efb01 	beq	3bf564 <DISABLE_IRQ+0x3bf4e4>
     95c:	01010100 	tsteq	r1, r0, lsl #2
     960:	00000001 	andeq	r0, r0, r1
     964:	69640001 	stmvsdb	r4!, {r0}^
     968:	2e343676 	cfmsuba32cs	mvax3, mvax3, mvfx4, mvfx6
     96c:	00000053 	andeq	r0, r0, r3, asr r0
     970:	05000000 	streq	r0, [r0]
     974:	0021e002 	eoreq	lr, r1, r2
     978:	01390330 	teqeq	r9, r0, lsr r3
     97c:	2e2c2c2c 	cdpcs	12, 2, cr2, cr12, cr12, {1}
     980:	11032c2c 	tstne	r3, ip, lsr #24
     984:	2c2c2c2b 	stccs	12, cr2, [ip], #-172
     988:	312c2c2c 	teqcc	ip, ip, lsr #24
     98c:	2c2c2c2c 	stccs	12, cr2, [ip], #-176
     990:	2c2c2e2c 	stccs	14, cr2, [ip], #-176
     994:	2c302c2c 	ldccs	12, cr2, [r0], #-176
     998:	2c2c2c2c 	stccs	12, cr2, [ip], #-176
     99c:	2c2c2c2c 	stccs	12, cr2, [ip], #-176
     9a0:	032c2c30 	teqeq	ip, #12288	; 0x3000
     9a4:	2c2c2b0d 	stccs	11, cr2, [ip], #-52
     9a8:	2c2c2c33 	stccs	12, cr2, [ip], #-204
     9ac:	2c2b0c03 	stccs	12, cr0, [fp], #-12
     9b0:	2d2c2c2c 	stccs	12, cr2, [ip, #-176]!
     9b4:	2c2d2c2c 	stccs	12, cr2, [sp], #-176
     9b8:	2c2c2d2c 	stccs	13, cr2, [ip], #-176
     9bc:	2c2c2c2f 	stccs	12, cr2, [ip], #-188
     9c0:	2e2c2c2c 	cdpcs	12, 2, cr2, cr12, cr12, {1}
     9c4:	2e2c2c2c 	cdpcs	12, 2, cr2, cr12, cr12, {1}
     9c8:	2c2c2c2f 	stccs	12, cr2, [ip], #-188
     9cc:	01000202 	tsteq	r0, r2, lsl #4
     9d0:	0000a901 	andeq	sl, r0, r1, lsl #18
     9d4:	1f000200 	swine	0x00000200
     9d8:	02000000 	andeq	r0, r0, #0	; 0x0
     9dc:	0a0efb01 	beq	3bf5e8 <DISABLE_IRQ+0x3bf568>
     9e0:	01010100 	tsteq	r1, r0, lsl #2
     9e4:	00000001 	andeq	r0, r0, r1
     9e8:	696c0001 	stmvsdb	ip!, {r0}^
     9ec:	75663162 	strvcb	r3, [r6, #-354]!
     9f0:	2e73636e 	cdpcs	3, 7, cr6, cr3, cr14, {3}
     9f4:	00000053 	andeq	r0, r0, r3, asr r0
     9f8:	05000000 	streq	r0, [r0]
     9fc:	00231002 	eoreq	r1, r3, r2
     a00:	01c00330 	biceq	r0, r0, r0, lsr r3
     a04:	2c2c2c01 	stccs	12, cr2, [ip], #-4
     a08:	032c2c2c 	teqeq	ip, #11264	; 0x2c00
     a0c:	032b7ef5 	teqeq	fp, #3920	; 0xf50
     a10:	3e02018f 	adfccd	f0, f2, #10.0
     a14:	2c2d2c01 	stccs	12, cr2, [sp], #-4
     a18:	7fa9032c 	swivc	0x00a9032c
     a1c:	00db032b 	sbceqs	r0, fp, fp, lsr #6
     a20:	682c8d08 	stmvsda	ip!, {r3, r8, sl, fp, pc}
     a24:	2c2c2c2c 	stccs	12, cr2, [ip], #-176
     a28:	ba032c2c 	blt	cbae0 <DISABLE_IRQ+0xcba60>
     a2c:	ca032b7f 	bgt	cb830 <DISABLE_IRQ+0xcb7b0>
     a30:	014e0200 	cmpeq	lr, r0, lsl #4
     a34:	2c2c2c4c 	stccs	12, cr2, [ip], #-304
     a38:	2c2c2c2c 	stccs	12, cr2, [ip], #-176
     a3c:	2c2c2c2c 	stccs	12, cr2, [ip], #-176
     a40:	2b7ec803 	blcs	1fb2a54 <DISABLE_IRQ+0x1fb29d4>
     a44:	0201bc03 	andeq	fp, r1, #768	; 0x300
     a48:	2c2c013e 	stfcss	f0, [ip], #-248
     a4c:	2d2c2c2d 	stccs	12, cr2, [ip, #-180]!
     a50:	032c2c2c 	teqeq	ip, #11264	; 0x2c00
     a54:	032b7ef6 	teqeq	fp, #3936	; 0xf60
     a58:	8d08018e 	stfhis	f0, [r8, #-568]
     a5c:	682c2c2c 	stmvsda	ip!, {r2, r3, r5, sl, fp, sp}
     a60:	2c2c2c2c 	stccs	12, cr2, [ip], #-176
     a64:	2c2c2c2c 	stccs	12, cr2, [ip], #-176
     a68:	81032c2c 	tsthi	r3, ip, lsr #24
     a6c:	83032b7f 	tsthi	r3, #130048	; 0x1fc00
     a70:	014e0201 	cmpeq	lr, r1, lsl #4
     a74:	2d302c2c 	ldccs	12, cr2, [r0, #-176]!
     a78:	0002022c 	andeq	r0, r2, ip, lsr #4
     a7c:	00210101 	eoreq	r0, r1, r1, lsl #2
     a80:	00020000 	andeq	r0, r2, r0
     a84:	0000001b 	andeq	r0, r0, fp, lsl r0
     a88:	0efb0102 	cdpeq	1, 15, cr0, cr11, cr2, {0}
     a8c:	0101000a 	tsteq	r1, sl
     a90:	00000101 	andeq	r0, r0, r1, lsl #2
     a94:	63000100 	tstvs	r0, #0	; 0x0
     a98:	65707974 	ldrvsb	r7, [r0, #-2420]!
     a9c:	0000632e 	andeq	r6, r0, lr, lsr #6
     aa0:	69000000 	stmvsdb	r0, {}
     aa4:	02000000 	andeq	r0, r0, #0	; 0x0
     aa8:	00004b00 	andeq	r4, r0, r0, lsl #22
     aac:	fb010200 	blx	412b6 <DISABLE_IRQ+0x41236>
     ab0:	01000a0e 	tsteq	r0, lr, lsl #20
     ab4:	00010101 	andeq	r0, r1, r1, lsl #2
     ab8:	2f010000 	swics	0x00010000
     abc:	2f746e6d 	swics	0x00746e6d
     ac0:	73666768 	cmnvc	r6, #27262976	; 0x1a00000
     ac4:	7973412f 	ldmvcdb	r3!, {r0, r1, r2, r3, r5, r8, lr}^
     ac8:	6f74706d 	swivs	0x0074706d
     acc:	6c2f6574 	cfstr32vs	mvfx6, [pc], #-464
     ad0:	2e2f6269 	cdpcs	2, 2, cr6, cr15, cr9, {3}
     ad4:	6e692f2e 	cdpvs	15, 6, cr2, cr9, cr14, {1}
     ad8:	64756c63 	ldrvsbt	r6, [r5], #-3171
     adc:	6d000065 	stcvs	0, cr0, [r0, #-404]
     ae0:	69646c75 	stmvsdb	r4!, {r0, r2, r4, r5, r6, sl, fp, sp, lr}^
     ae4:	00632e33 	rsbeq	r2, r3, r3, lsr lr
     ae8:	67000000 	strvs	r0, [r0, -r0]
     aec:	696c6363 	stmvsdb	ip!, {r0, r1, r5, r6, r8, r9, sp, lr}^
     af0:	00682e62 	rsbeq	r2, r8, r2, ror #28
     af4:	00000001 	andeq	r0, r0, r1
     af8:	c0020500 	andgt	r0, r2, r0, lsl #10
     afc:	03300026 	teqeq	r0, #38	; 0x26
     b00:	030100c7 	tsteq	r1, #199	; 0xc7
     b04:	2a332b78 	bcs	ccb8ec <DISABLE_IRQ+0xccb86c>
     b08:	022fc608 	eoreq	ip, pc, #8388608	; 0x800000
     b0c:	01010002 	tsteq	r1, r2
     b10:	0000005d 	andeq	r0, r0, sp, asr r0
     b14:	002a0002 	eoreq	r0, sl, r2
     b18:	01020000 	tsteq	r2, r0
     b1c:	000a0efb 	streqd	r0, [sl], -fp
     b20:	01010101 	tsteq	r1, r1, lsl #2
     b24:	01000000 	tsteq	r0, r0
     b28:	69727000 	ldmvsdb	r2!, {ip, sp, lr}^
     b2c:	2e66746e 	cdpcs	4, 6, cr7, cr6, cr14, {3}
     b30:	00000063 	andeq	r0, r0, r3, rrx
     b34:	70737600 	rsbvcs	r7, r3, r0, lsl #12
     b38:	746e6972 	strvcbt	r6, [lr], #-2418
     b3c:	00682e66 	rsbeq	r2, r8, r6, ror #28
     b40:	00000000 	andeq	r0, r0, r0
     b44:	10020500 	andne	r0, r2, r0, lsl #10
     b48:	03300027 	teqeq	r0, #39	; 0x27
     b4c:	03310110 	teqeq	r1, #4	; 0x4
     b50:	2d312b7a 	fldmdbdcs	r1!, {d2-d62}
     b54:	a0458345 	subge	r8, r5, r5, asr #6
     b58:	0e0364a0 	cfcvt32deq	mvd6, mvfx3
     b5c:	47780347 	ldrmib	r0, [r8, -r7, asr #6]!
     b60:	0a036548 	beq	da088 <DISABLE_IRQ+0xda008>
     b64:	6376032b 	cmnvs	r6, #-1409286144	; 0xac000000
     b68:	2f2b0a03 	swics	0x002b0a03
     b6c:	01000802 	tsteq	r0, r2, lsl #16
     b70:	00017001 	andeq	r7, r1, r1
     b74:	55000200 	strpl	r0, [r0, #-512]
     b78:	02000000 	andeq	r0, r0, #0	; 0x0
     b7c:	0a0efb01 	beq	3bf788 <DISABLE_IRQ+0x3bf708>
     b80:	01010100 	tsteq	r1, r0, lsl #2
     b84:	00000001 	andeq	r0, r0, r1
     b88:	6e6d2f01 	cdpvs	15, 6, cr2, cr13, cr1, {0}
     b8c:	67682f74 	undefined
     b90:	412f7366 	teqmi	pc, r6, ror #6
     b94:	706d7973 	rsbvc	r7, sp, r3, ror r9
     b98:	65746f74 	ldrvsb	r6, [r4, #-3956]!
     b9c:	62696c2f 	rsbvs	r6, r9, #12032	; 0x2f00
     ba0:	2f2e2e2f 	swics	0x002e2e2f
     ba4:	6c636e69 	stcvsl	14, cr6, [r3], #-420
     ba8:	00656475 	rsbeq	r6, r5, r5, ror r4
     bac:	72747300 	rsbvcs	r7, r4, #0	; 0x0
     bb0:	2e676e69 	cdpcs	14, 6, cr6, cr7, cr9, {3}
     bb4:	00000063 	andeq	r0, r0, r3, rrx
     bb8:	79746300 	ldmvcdb	r4!, {r8, r9, sp, lr}^
     bbc:	682e6570 	stmvsda	lr!, {r4, r5, r6, r8, sl, sp, lr}
     bc0:	00000100 	andeq	r0, r0, r0, lsl #2
     bc4:	65707974 	ldrvsb	r7, [r0, #-2420]!
     bc8:	00682e73 	rsbeq	r2, r8, r3, ror lr
     bcc:	00000001 	andeq	r0, r0, r1
     bd0:	c0020500 	andgt	r0, r2, r0, lsl #10
     bd4:	03300027 	teqeq	r0, #39	; 0x27
     bd8:	2a30011e 	bcs	c01058 <DISABLE_IRQ+0xc00fd8>
     bdc:	2d2c4b27 	fstmdbxcs	ip!, {d4-d22}
     be0:	2702042d 	strcs	r0, [r2, -sp, lsr #8]
     be4:	2d2d0104 	stfcss	f0, [sp, #-16]!
     be8:	0302042d 	tsteq	r2, #754974720	; 0x2d000000
     bec:	01042b79 	tsteq	r4, r9, ror fp
     bf0:	02042d4e 	andeq	r2, r4, #4992	; 0x1380
     bf4:	64477803 	strvsb	r7, [r7], #-2051
     bf8:	04292c62 	streqt	r2, [r9], #-3170
     bfc:	470d0301 	strmi	r0, [sp, -r1, lsl #6]
     c00:	0d034a49 	fstseq	s8, [r3, #-292]
     c04:	03822d63 	orreq	r2, r2, #6336	; 0x18c0
     c08:	bb2d4710 	bllt	b52850 <DISABLE_IRQ+0xb527d0>
     c0c:	28470e03 	stmcsda	r7, {r0, r1, r9, sl, fp}^
     c10:	83642f2a 	cmnhi	r4, #168	; 0xa8
     c14:	29471103 	stmcsdb	r7, {r0, r1, r8, ip}^
     c18:	7d9f2d2d 	ldcvc	13, cr2, [pc, #180]
     c1c:	0e033248 	cdpeq	2, 0, cr3, cr3, cr8, {2}
     c20:	2c210847 	stccs	8, cr0, [r1], #-284
     c24:	03471103 	cmpeq	r7, #-1073741824	; 0xc0000000
     c28:	302c2b7a 	eorcc	r2, ip, sl, ror fp
     c2c:	4a1f0829 	bmi	7c2cd8 <DISABLE_IRQ+0x7c2c58>
     c30:	470b032c 	strmi	r0, [fp, -ip, lsr #6]
     c34:	46482c62 	strmib	r2, [r8], -r2, ror #24
     c38:	1d032c66 	stcne	12, cr2, [r3, #-408]
     c3c:	822e442b 	eorhi	r4, lr, #721420288	; 0x2b000000
     c40:	2b476a03 	blcs	11db454 <DISABLE_IRQ+0x11db3d4>
     c44:	64656548 	strvsbt	r6, [r5], #-1352
     c48:	2b1c032c 	blcs	701900 <DISABLE_IRQ+0x701880>
     c4c:	58082e44 	stmplda	r8, {r2, r6, r9, sl, fp, sp}
     c50:	2e470b03 	cdpcs	11, 4, cr0, cr7, cr3, {0}
     c54:	469c802d 	ldrmi	r8, [ip], sp, lsr #32
     c58:	03630a03 	cmneq	r3, #12288	; 0x3000
     c5c:	4e42637a 	mcrmi	3, 2, r6, cr2, cr10, {3}
     c60:	032b7903 	teqeq	fp, #49152	; 0xc000
     c64:	0a032b0b 	beq	cb898 <DISABLE_IRQ+0xcb818>
     c68:	80802e7f 	addhi	r2, r0, pc, ror lr
     c6c:	2c696246 	sfmcs	f6, 2, [r9], #-280
     c70:	2e2b0c03 	cdpcs	12, 2, cr0, cr11, cr3, {0}
     c74:	642f4a28 	strvst	r4, [pc], #2600	; c7c <DISABLE_IRQ+0xbfc>
     c78:	2f2a2a65 	swics	0x002a2a65
     c7c:	2c488064 	mcrrcs	0, 6, r8, r8, cr4
     c80:	2b72032c 	blcs	1c81938 <DISABLE_IRQ+0x1c818b8>
     c84:	032a2c48 	teqeq	sl, #18432	; 0x4800
     c88:	2c2b631d 	stccs	3, cr6, [fp], #-116
     c8c:	2e2a2c2d 	cdpcs	12, 2, cr2, cr10, cr13, {1}
     c90:	294a2c2c 	stmcsdb	sl, {r2, r3, r5, sl, fp, sp}^
     c94:	4711032e 	ldrmi	r0, [r1, -lr, lsr #6]
     c98:	039e2e44 	orreqs	r2, lr, #1088	; 0x440
     c9c:	032b2b16 	teqeq	fp, #22528	; 0x5800
     ca0:	2e44d313 	mcrcs	3, 2, sp, cr4, cr3, {0}
     ca4:	2b1003ba 	blcs	401b94 <DISABLE_IRQ+0x401b14>
     ca8:	2e442f2b 	cdpcs	15, 4, cr2, cr4, cr11, {1}
     cac:	d72e2ad7 	undefined
     cb0:	292b0f03 	stmcsdb	fp!, {r0, r1, r8, r9, sl, fp}
     cb4:	48622c2d 	stmmida	r2!, {r0, r2, r3, r5, sl, fp, sp}^
     cb8:	15034b2a 	strne	r4, [r3, #-2858]
     cbc:	66282b47 	strvst	r2, [r8], -r7, asr #22
     cc0:	032e2c2a 	teqeq	lr, #10752	; 0x2a00
     cc4:	2e2b2b0a 	fmuldcs	d2, d11, d10
     cc8:	4d2c2e28 	stcmi	14, cr2, [ip, #-160]!
     ccc:	30264c43 	eorcc	r4, r6, r3, asr #24
     cd0:	2d2c9a29 	fstmdbscs	ip!, {s18-s58}
     cd4:	12032c65 	andne	r2, r3, #25856	; 0x6500
     cd8:	48622b2b 	stmmida	r2!, {r0, r1, r3, r5, r8, r9, fp, sp}^
     cdc:	2c4a2c2a 	mcrrcs	12, 2, r2, sl, cr10
     ce0:	01000202 	tsteq	r0, r2, lsl #4
     ce4:	00037501 	andeq	r7, r3, r1, lsl #10
     ce8:	65000200 	strvs	r0, [r0, #-512]
     cec:	02000000 	andeq	r0, r0, #0	; 0x0
     cf0:	0a0efb01 	beq	3bf8fc <DISABLE_IRQ+0x3bf87c>
     cf4:	01010100 	tsteq	r1, r0, lsl #2
     cf8:	00000001 	andeq	r0, r0, r1
     cfc:	6e6d2f01 	cdpvs	15, 6, cr2, cr13, cr1, {0}
     d00:	67682f74 	undefined
     d04:	412f7366 	teqmi	pc, r6, ror #6
     d08:	706d7973 	rsbvc	r7, sp, r3, ror r9
     d0c:	65746f74 	ldrvsb	r6, [r4, #-3956]!
     d10:	62696c2f 	rsbvs	r6, r9, #12032	; 0x2f00
     d14:	2f2e2e2f 	swics	0x002e2e2f
     d18:	6c636e69 	stcvsl	14, cr6, [r3], #-420
     d1c:	00656475 	rsbeq	r6, r5, r5, ror r4
     d20:	70737600 	rsbvcs	r7, r3, r0, lsl #12
     d24:	746e6972 	strvcbt	r6, [lr], #-2418
     d28:	00632e66 	rsbeq	r2, r3, r6, ror #28
     d2c:	63000000 	tstvs	r0, #0	; 0x0
     d30:	65707974 	ldrvsb	r7, [r0, #-2420]!
     d34:	0100682e 	tsteq	r0, lr, lsr #16
     d38:	79740000 	ldmvcdb	r4!, {}^
     d3c:	2e736570 	mrccs	5, 3, r6, cr3, cr0, {3}
     d40:	00010068 	andeq	r0, r1, r8, rrx
     d44:	70737600 	rsbvcs	r7, r3, r0, lsl #12
     d48:	746e6972 	strvcbt	r6, [lr], #-2418
     d4c:	00682e66 	rsbeq	r2, r8, r6, ror #28
     d50:	00000000 	andeq	r0, r0, r0
     d54:	78020500 	stmvcda	r2, {r8, sl}
     d58:	0330002d 	teqeq	r0, #45	; 0x2d
     d5c:	282e0125 	stmcsda	lr!, {r0, r2, r5, r8}
     d60:	462d2d2c 	strmit	r2, [sp], -ip, lsr #26
     d64:	630f032c 	tstvs	pc, #-1342177280	; 0xb0000000
     d68:	71030204 	tstvc	r3, r4, lsl #4
     d6c:	04452c47 	streqb	r2, [r5], #-3143
     d70:	630f0301 	tstvs	pc, #67108864	; 0x4000000
     d74:	2d2c9d48 	stccs	13, cr9, [ip, #-288]!
     d78:	64477403 	strvsb	r7, [r7], #-1027
     d7c:	76030204 	strvc	r0, [r3], -r4, lsl #4
     d80:	45642c63 	strmib	r2, [r4, #-3171]!
     d84:	482c2a80 	stmmida	ip!, {r7, r9, fp, sp}
     d88:	2d010445 	cfstrscs	mvf0, [r1, #-276]
     d8c:	04290204 	streqt	r0, [r9], #-516
     d90:	1a03a101 	bne	e919c <DISABLE_IRQ+0xe911c>
     d94:	2a662c63 	bcs	198bf28 <DISABLE_IRQ+0x198bea8>
     d98:	0b03492a 	bleq	d3248 <DISABLE_IRQ+0xd31c8>
     d9c:	48282e47 	stmmida	r8!, {r0, r1, r2, r6, r9, sl, fp, sp}
     da0:	2c462d49 	mcrrcs	13, 4, r2, r6, cr9
     da4:	047f0f03 	ldreqbt	r0, [pc], #3843	; dac <DISABLE_IRQ+0xd2c>
     da8:	7fbf0302 	swivc	0x00bf0302
     dac:	03010447 	tsteq	r1, #1191182336	; 0x47000000
     db0:	044700c1 	streqb	r0, [r7], #-193
     db4:	7fbd0302 	swivc	0x00bd0302
     db8:	0301042b 	tsteq	r1, #721420288	; 0x2b000000
     dbc:	049b00c2 	ldreq	r0, [fp], #194
     dc0:	7fbe0302 	swivc	0x00be0302
     dc4:	0301047f 	tsteq	r1, #2130706432	; 0x7f000000
     dc8:	b87f00c2 	ldmltda	pc!, {r1, r6, r7}^
     dcc:	2d452eb9 	stccsl	14, cr2, [r5, #-740]
     dd0:	642b7403 	strvst	r7, [fp], #-1027
     dd4:	43030204 	tstmi	r3, #1073741824	; 0x40000000
     dd8:	45642c63 	strmib	r2, [r4, #-3171]!
     ddc:	482c2a80 	stmmida	ip!, {r7, r9, fp, sp}
     de0:	03010445 	tsteq	r1, #1157627904	; 0x45000000
     de4:	02042b35 	andeq	r2, r4, #54272	; 0xd400
     de8:	042b4b03 	streqt	r4, [fp], #-2819
     dec:	b7390301 	ldrlt	r0, [r9, -r1, lsl #6]!
     df0:	2c631a03 	stccsl	10, cr1, [r3], #-12
     df4:	492a2a66 	stmmidb	sl!, {r1, r2, r5, r6, r9, fp, sp}
     df8:	2f272f66 	swics	0x00272f66
     dfc:	3b082e7c 	blcc	20c7f4 <DISABLE_IRQ+0x20c774>
     e00:	32470b03 	subcc	r0, r7, #3072	; 0xc00
     e04:	a22b7903 	eorge	r7, fp, #49152	; 0xc000
     e08:	2c292d80 	stccs	13, cr2, [r9], #-512
     e0c:	032c2a2c 	teqeq	ip, #180224	; 0x2c000
     e10:	2f4e2b76 	swics	0x004e2b76
     e14:	2c802d2a 	stccs	13, cr2, [r0], {42}
     e18:	032c2c29 	teqeq	ip, #10496	; 0x2900
     e1c:	48802b0d 	stmmiia	r0, {r0, r2, r3, r8, r9, fp, sp}
     e20:	2e482d2a 	cdpcs	13, 4, cr2, cr8, cr10, {1}
     e24:	4a622d2a 	bmi	188c2d4 <DISABLE_IRQ+0x188c254>
     e28:	49299108 	stmmidb	r9!, {r3, r8, ip, pc}
     e2c:	7d2f2c2a 	stcvc	12, cr2, [pc, #-168]!
     e30:	822c2a2d 	eorhi	r2, ip, #184320	; 0x2d000
     e34:	2d2c2c64 	stccs	12, cr2, [ip, #-400]!
     e38:	09036764 	stmeqdb	r3, {r2, r5, r6, r8, r9, sl, sp, lr}
     e3c:	2c616763 	stccsl	7, cr6, [r1], #-396
     e40:	852c2a2c 	strhi	r2, [ip, #-2604]!
     e44:	2c2a2d7d 	stccs	13, cr2, [sl], #-500
     e48:	2c2cb584 	cfstr32cs	mvfx11, [ip], #-528
     e4c:	7da02c2a 	stcvc	12, cr2, [r0, #168]!
     e50:	812c2a2d 	teqhi	ip, sp, lsr #20
     e54:	7fb5032c 	swivc	0x00b5032c
     e58:	2c484b47 	mcrrcs	11, 4, r4, r8, cr7
     e5c:	482e2a2a 	stmmida	lr!, {r1, r3, r5, r9, fp, sp}
     e60:	20032a2c 	andcs	r2, r3, ip, lsr #20
     e64:	032a2c47 	teqeq	sl, #18176	; 0x4700
     e68:	2c422b09 	mcrrcs	11, 0, r2, r2, cr9
     e6c:	03482c48 	cmpeq	r8, #18432	; 0x4800
     e70:	482c7f51 	stmmida	ip!, {r0, r4, r6, r8, r9, sl, fp, ip, sp, lr}
     e74:	00d80330 	sbceqs	r0, r8, r0, lsr r3
     e78:	2b11037f 	blcs	441c7c <DISABLE_IRQ+0x441bfc>
     e7c:	032b6f03 	teqeq	fp, #12	; 0xc
     e80:	6b032b15 	blvs	cbadc <DISABLE_IRQ+0xcba5c>
     e84:	1503632b 	strne	r6, [r3, #-811]
     e88:	2f262c2b 	swics	0x00262c2b
     e8c:	2b090327 	blcs	241b30 <DISABLE_IRQ+0x241ab0>
     e90:	434a4965 	cmpmi	sl, #1654784	; 0x194000
     e94:	33643327 	cmncc	r4, #-1677721600	; 0x9c000000
     e98:	032b7803 	teqeq	fp, #196608	; 0x30000
     e9c:	482b01a3 	stmmida	fp!, {r0, r1, r5, r7, r8}
     ea0:	7eda0348 	cdpvc	3, 13, cr0, cr10, cr8, {2}
     ea4:	01c0032b 	biceq	r0, r0, fp, lsr #6
     ea8:	2d462cb7 	stccsl	12, cr2, [r6, #-732]
     eac:	032c4b49 	teqeq	ip, #74752	; 0x12400
     eb0:	03477ec8 	cmpeq	r7, #3200	; 0xc80
     eb4:	03482b7a 	cmpeq	r8, #124928	; 0x1e800
     eb8:	012c020a 	teqeq	ip, sl, lsl #4
     ebc:	032d2c7e 	teqeq	sp, #32256	; 0x7e00
     ec0:	2c46470c 	mcrrcs	7, 0, r4, r6, cr12
     ec4:	622b0f03 	eorvs	r0, fp, #12	; 0xc
     ec8:	d30d032c 	tstle	sp, #-1342177280	; 0xb0000000
     ecc:	4d032d45 	stcmi	13, cr2, [r3, #-276]
     ed0:	0101ae02 	tsteq	r1, r2, lsl #28
     ed4:	03464948 	cmpeq	r6, #1179648	; 0x120000
     ed8:	2a2d4726 	bcs	b52b78 <DISABLE_IRQ+0xb52af8>
     edc:	2c2a652c 	cfstr32cs	mvfx6, [sl], #-176
     ee0:	03475e03 	cmpeq	r7, #48	; 0x30
     ee4:	7303630d 	tstvc	r3, #872415232	; 0x34000000
     ee8:	2b0c0347 	blcs	301c0c <DISABLE_IRQ+0x301b8c>
     eec:	81482c2c 	cmphi	r8, ip, lsr #24
     ef0:	2d494231 	sfmcs	f4, 2, [r9, #-196]
     ef4:	476d032c 	strmib	r0, [sp, -ip, lsr #6]!
     ef8:	2c2f282c 	stccs	8, cr2, [pc], #-176
     efc:	470e0326 	strmi	r0, [lr, -r6, lsr #6]
     f00:	9b00f403 	blls	3df14 <DISABLE_IRQ+0x3de94>
     f04:	492b1103 	stmmidb	fp!, {r0, r1, r8, ip}
     f08:	2d62484b 	stccsl	8, cr4, [r2, #-300]!
     f0c:	482a2c4c 	stmmida	sl!, {r2, r3, r6, sl, fp, sp}
     f10:	57032d2c 	strpl	r2, [r3, -ip, lsr #26]
     f14:	18035508 	stmneda	r3, {r3, r8, sl, ip, lr}
     f18:	2b6a032b 	blcs	1a81bcc <DISABLE_IRQ+0x1a81b4c>
     f1c:	2c2b1603 	stccs	6, cr1, [fp], #-12
     f20:	2c477303 	mcrrcs	3, 0, r7, r7, cr3
     f24:	264c4848 	strcsb	r4, [ip], -r8, asr #16
     f28:	2c476603 	mcrrcs	6, 0, r6, r7, cr3
     f2c:	474c032a 	strmib	r0, [ip, -sl, lsr #6]
     f30:	4b65652d 	blmi	195a3ec <DISABLE_IRQ+0x195a36c>
     f34:	2c2a2d7d 	stccs	13, cr2, [sl], #-500
     f38:	292c6482 	stmcsdb	ip!, {r1, r7, sl, sp, lr}
     f3c:	2e282c2d 	cdpcs	12, 2, cr2, cr8, cr13, {1}
     f40:	2d7d3328 	ldccsl	3, cr3, [sp, #-160]!
     f44:	09032c2a 	stmeqdb	r3, {r1, r3, r5, sl, fp, sp}
     f48:	292f27b7 	stmcsdb	pc!, {r0, r1, r2, r4, r5, r7, r8, r9, sl, sp}
     f4c:	1d032e2a 	stcne	14, cr2, [r3, #-168]
     f50:	4773039b 	undefined
     f54:	7fbe032c 	swivc	0x00be032c
     f58:	2d7d4b63 	ldccsl	11, cr4, [sp, #-396]!
     f5c:	2c662c2a 	stccsl	12, cr2, [r6], #-168
     f60:	3026322a 	eorcc	r3, r6, sl, lsr #4
     f64:	2d452f27 	stccsl	15, cr2, [r5, #-156]
     f68:	e5032c2a 	str	r2, [r3, #-3114]
     f6c:	2a649b00 	bcs	1927b74 <DISABLE_IRQ+0x1927af4>
     f70:	2603622d 	strcs	r6, [r3], -sp, lsr #4
     f74:	2c2e2b9b 	stccs	11, cr2, [lr], #-620
     f78:	47110364 	ldrmi	r0, [r1, -r4, ror #6]
     f7c:	1103664c 	tstne	r3, ip, asr #12
     f80:	30264c63 	eorcc	r4, r6, r3, ror #24
     f84:	11036449 	tstne	r3, r9, asr #8
     f88:	03472c7f 	cmpeq	r7, #32512	; 0x7f00
     f8c:	09032b10 	stmeqdb	r3, {r4, r8, r9, fp, sp}
     f90:	0b036a47 	bleq	db8b4 <DISABLE_IRQ+0xdb834>
     f94:	2c274b63 	stccs	11, cr4, [r7], #-396
     f98:	cc032b2a 	stcgt	11, cr2, [r3], {42}
     f9c:	c3032b01 	tstgt	r3, #1024	; 0x400
     fa0:	d5b9b77e 	ldrle	fp, [r9, #1918]!
     fa4:	03803d08 	orreq	r3, r0, #512	; 0x200
     fa8:	037f00e1 	cmneq	pc, #225	; 0xe1
     fac:	032b00d6 	teqeq	fp, #214	; 0xd6
     fb0:	49637ece 	stmmidb	r3!, {r1, r2, r3, r6, r7, r9, sl, fp, ip, sp, lr}^
     fb4:	630a034c 	tstvs	sl, #805306369	; 0x30000001
     fb8:	62302c46 	eorvss	r2, r0, #17920	; 0x4600
     fbc:	03482d2c 	cmpeq	r8, #2816	; 0xb00
     fc0:	2c44630d 	mcrrcs	3, 0, r6, r4, cr13
     fc4:	6d03822d 	sfmvs	f0, 1, [r3, #-180]
     fc8:	0101b402 	tsteq	r1, r2, lsl #8
     fcc:	d3018c03 	tstle	r1, #768	; 0x300
     fd0:	2e2c4649 	cfmadda32cs	mvax2, mvax4, mvfx12, mvfx9
     fd4:	492d4531 	stmmidb	sp!, {r0, r4, r5, r8, sl, lr}
     fd8:	d37eda03 	cmnle	lr, #12288	; 0x3000
     fdc:	9408c708 	strls	ip, [r8], #-1800
     fe0:	7f00c303 	swivc	0x0000c303
     fe4:	2b11032d 	blcs	441ca0 <DISABLE_IRQ+0x441c20>
     fe8:	802c3b08 	eorhi	r3, ip, r8, lsl #22
     fec:	0394082d 	orreqs	r0, r4, #2949120	; 0x2d0000
     ff0:	016e0247 	cmneq	lr, r7, asr #4
     ff4:	2e2d2a5f 	mcrcs	10, 1, r2, cr13, cr15, {2}
     ff8:	29d37203 	ldmcsib	r3, {r0, r1, r9, ip, sp, lr}^
     ffc:	48462e49 	stmmida	r6, {r0, r3, r6, r9, sl, fp, sp}^
    1000:	039b1203 	orreqs	r1, fp, #805306368	; 0x30000000
    1004:	034b470b 	cmpeq	fp, #2883584	; 0x2c0000
    1008:	6d03470a 	stcvs	7, cr4, [r3, #-40]
    100c:	dd032c63 	stcle	12, cr2, [r3, #-396]
    1010:	2c466300 	mcrrcs	3, 0, r6, r6, cr0
    1014:	49475903 	stmmidb	r7, {r0, r1, r8, fp, ip, lr}^
    1018:	032e2c46 	teqeq	lr, #17920	; 0x4600
    101c:	46497f0d 	strmib	r7, [r9], -sp, lsl #30
    1020:	60032e2c 	andvs	r2, r3, ip, lsr #28
    1024:	2c464947 	mcrrcs	9, 4, r4, r6, cr7
    1028:	032b0c03 	teqeq	fp, #768	; 0x300
    102c:	52034769 	andpl	r4, r3, #27525120	; 0x1a40000
    1030:	2c02e108 	stfcsd	f6, [r2], {8}
    1034:	633a0311 	teqvs	sl, #1140850688	; 0x44000000
    1038:	09032c46 	stmeqdb	r3, {r1, r2, r6, sl, fp, sp}
    103c:	4712032b 	ldrmi	r0, [r2, -fp, lsr #6]
    1040:	6e032c46 	cdpvs	12, 0, cr2, cr3, cr6, {2}
    1044:	032c4647 	teqeq	ip, #74448896	; 0x4700000
    1048:	2d477f95 	stccsl	15, cr7, [r7, #-596]
    104c:	2e292c2a 	cdpcs	12, 2, cr2, cr9, cr10, {1}
    1050:	032c2a2d 	teqeq	ip, #184320	; 0x2d000
    1054:	4c63019e 	stfmie	f0, [r3], #-632
    1058:	00060266 	andeq	r0, r6, r6, ror #4
    105c:	Address 0x105c is out of bounds.

Disassembly of section .debug_info:

00000000 <.debug_info>:
       0:	0000003d 	andeq	r0, r0, sp, lsr r0
       4:	00000002 	andeq	r0, r0, r2
       8:	01040000 	tsteq	r4, r0
       c:	00000000 	andeq	r0, r0, r0
      10:	30000000 	andcc	r0, r0, r0
      14:	3000021c 	andcc	r0, r0, ip, lsl r2
      18:	64616568 	strvsbt	r6, [r1], #-1384
      1c:	2f00532e 	swics	0x0000532e
      20:	2f746e6d 	swics	0x00746e6d
      24:	73666768 	cmnvc	r6, #27262976	; 0x1a00000
      28:	7973412f 	ldmvcdb	r3!, {r0, r1, r2, r3, r5, r8, lr}^
      2c:	6f74706d 	swivs	0x0074706d
      30:	47006574 	smlsdxmi	r0, r4, r5, r6
      34:	4120554e 	teqmi	r0, lr, asr #10
      38:	2e322053 	mrccs	0, 1, r2, cr2, cr3, {2}
      3c:	01003531 	tsteq	r0, r1, lsr r5
      40:	00009680 	andeq	r9, r0, r0, lsl #13
      44:	14000200 	strne	r0, [r0], #-512
      48:	04000000 	streq	r0, [r0]
      4c:	00009e01 	andeq	r9, r0, r1, lsl #28
      50:	00035000 	andeq	r5, r3, r0
      54:	00022030 	andeq	r2, r2, r0, lsr r0
      58:	00000930 	andeq	r0, r0, r0, lsr r9
      5c:	002a0100 	eoreq	r0, sl, r0, lsl #2
      60:	00310000 	eoreqs	r0, r1, r0
      64:	01020000 	tsteq	r2, r0
      68:	00000021 	andeq	r0, r0, r1, lsr #32
      6c:	02200401 	eoreq	r0, r0, #16777216	; 0x1000000
      70:	02543000 	subeqs	r3, r4, #0	; 0x0
      74:	5d013000 	stcpl	0, cr3, [r1]
      78:	00006703 	andeq	r6, r0, r3, lsl #14
      7c:	06a50100 	streqt	r0, [r5], r0, lsl #2
      80:	0d010000 	stceq	0, cr0, [r1]
      84:	00025401 	andeq	r5, r2, r1, lsl #8
      88:	0002cc30 	andeq	ip, r2, r0, lsr ip
      8c:	045d0130 	ldreqb	r0, [sp], #-304
      90:	10010069 	andne	r0, r1, r9, rrx
      94:	00000067 	andeq	r0, r0, r7, rrx
      98:	04049102 	streq	r9, [r4], #-258
      9c:	1001006a 	andne	r0, r1, sl, rrx
      a0:	00000067 	andeq	r0, r0, r7, rrx
      a4:	00009102 	andeq	r9, r0, r2, lsl #2
      a8:	00006c05 	andeq	r6, r0, r5, lsl #24
      ac:	06f00600 	ldreqbt	r0, [r0], r0, lsl #12
      b0:	07040000 	streq	r0, [r4, -r0]
      b4:	00150107 	andeqs	r0, r5, r7, lsl #2
      b8:	1e010000 	cdpne	0, 0, cr0, cr1, cr0, {0}
      bc:	0002cc01 	andeq	ip, r2, r1, lsl #24
      c0:	00031430 	andeq	r1, r3, r0, lsr r4
      c4:	075d0130 	smmlareq	sp, r0, r1, r0
      c8:	00000001 	andeq	r0, r0, r1
      cc:	012a0100 	teqeq	sl, r0, lsl #2
      d0:	30000314 	andcc	r0, r0, r4, lsl r3
      d4:	30000350 	andcc	r0, r0, r0, asr r3
      d8:	f0005d01 	andnv	r5, r0, r1, lsl #26
      dc:	02000003 	andeq	r0, r0, #3	; 0x3
      e0:	00008800 	andeq	r8, r0, r0, lsl #16
      e4:	f5010400 	strnv	r0, [r1, #-1024]
      e8:	4c000000 	stcmi	0, cr0, [r0], {0}
      ec:	50300007 	eorpls	r0, r0, r7
      f0:	09300003 	ldmeqdb	r0!, {r0, r1}
      f4:	01000000 	tsteq	r0, r0
      f8:	000000ff 	streqd	r0, [r0], -pc
      fc:	00000031 	andeq	r0, r0, r1, lsr r0
     100:	0006f502 	andeq	pc, r6, r2, lsl #10
     104:	03070400 	tsteq	r7, #0	; 0x0
     108:	00000055 	andeq	r0, r0, r5, asr r0
     10c:	000000eb 	andeq	r0, r0, fp, ror #1
     110:	04050208 	streq	r0, [r5], #-520
     114:	0000013d 	andeq	r0, r0, sp, lsr r1
     118:	00550602 	subeqs	r0, r5, r2, lsl #12
     11c:	23020000 	tstcs	r2, #0	; 0x0
     120:	01380400 	teqeq	r8, r0, lsl #8
     124:	07020000 	streq	r0, [r2, -r0]
     128:	00000055 	andeq	r0, r0, r5, asr r0
     12c:	00042302 	andeq	r2, r4, r2, lsl #6
     130:	002c0405 	eoreq	r0, ip, r5, lsl #8
     134:	f5020000 	strnv	r0, [r2]
     138:	04000006 	streq	r0, [r0], #-6
     13c:	00b50307 	adceqs	r0, r5, r7, lsl #6
     140:	04e30000 	streqbt	r0, [r3]
     144:	03440000 	cmpeq	r4, #0	; 0x0
     148:	04c50420 	streqb	r0, [r5], #1056
     14c:	22030000 	andcs	r0, r3, #0	; 0x0
     150:	000000b5 	streqh	r0, [r0], -r5
     154:	04002302 	streq	r2, [r0], #-770
     158:	000000cd 	andeq	r0, r0, sp, asr #1
     15c:	00252303 	eoreq	r2, r5, r3, lsl #6
     160:	23020000 	tstcs	r2, #0	; 0x0
     164:	005a0434 	subeqs	r0, sl, r4, lsr r4
     168:	25030000 	strcs	r0, [r3]
     16c:	00000025 	andeq	r0, r0, r5, lsr #32
     170:	04382302 	ldreqt	r2, [r8], #-770
     174:	000004aa 	andeq	r0, r0, sl, lsr #9
     178:	00252603 	eoreq	r2, r5, r3, lsl #12
     17c:	23020000 	tstcs	r2, #0	; 0x0
     180:	00de043c 	sbceqs	r0, lr, ip, lsr r4
     184:	27030000 	strcs	r0, [r3, -r0]
     188:	00000103 	andeq	r0, r0, r3, lsl #2
     18c:	00402302 	subeq	r2, r0, r2, lsl #6
     190:	0000c506 	andeq	ip, r0, r6, lsl #10
     194:	0000c500 	andeq	ip, r0, r0, lsl #10
     198:	005b0700 	subeqs	r0, fp, r0, lsl #14
     19c:	00310000 	eoreqs	r0, r1, r0
     1a0:	0000c302 	andeq	ip, r0, r2, lsl #6
     1a4:	03080100 	tsteq	r8, #0	; 0x0
     1a8:	00000103 	andeq	r0, r0, r3, lsl #2
     1ac:	0000007b 	andeq	r0, r0, fp, ror r0
     1b0:	0427030c 	streqt	r0, [r7], #-780
     1b4:	00000509 	andeq	r0, r0, r9, lsl #10
     1b8:	012a2c03 	teqeq	sl, r3, lsl #24
     1bc:	23020000 	tstcs	r2, #0	; 0x0
     1c0:	04a60400 	streqt	r0, [r6], #1024
     1c4:	2d030000 	stccs	0, cr0, [r3]
     1c8:	00000140 	andeq	r0, r0, r0, asr #2
     1cc:	04042302 	streq	r2, [r4], #-770
     1d0:	000004c5 	andeq	r0, r0, r5, asr #9
     1d4:	01243003 	teqeq	r4, r3
     1d8:	23020000 	tstcs	r2, #0	; 0x0
     1dc:	04050008 	streq	r0, [r5], #-8
     1e0:	000000cc 	andeq	r0, r0, ip, asr #1
     1e4:	00011e08 	andeq	r1, r1, r8, lsl #28
     1e8:	011e0100 	tsteq	lr, r0, lsl #2
     1ec:	03090000 	tsteq	r9, #0	; 0x0
     1f0:	09000001 	stmeqdb	r0, {r0}
     1f4:	00000124 	andeq	r0, r0, r4, lsr #2
     1f8:	62040500 	andvs	r0, r4, #0	; 0x0
     1fc:	05000000 	streq	r0, [r0]
     200:	0000c504 	andeq	ip, r0, r4, lsl #10
     204:	09040500 	stmeqdb	r4, {r8, sl}
     208:	08000001 	stmeqda	r0, {r0}
     20c:	00000140 	andeq	r0, r0, r0, asr #2
     210:	00002501 	andeq	r2, r0, r1, lsl #10
     214:	011e0900 	tsteq	lr, r0, lsl #18
     218:	05000000 	streq	r0, [r0]
     21c:	00013004 	andeq	r3, r1, r4
     220:	017d0a00 	cmneq	sp, r0, lsl #20
     224:	ae010000 	cdpge	0, 0, cr0, cr1, cr0, {0}
     228:	01000000 	tsteq	r0, r0
     22c:	03500111 	cmpeq	r0, #1073741828	; 0x40000004
     230:	03d83000 	biceqs	r3, r8, #0	; 0x0
     234:	5d013000 	stcpl	0, cr3, [r1]
     238:	0071770b 	rsbeqs	r7, r1, fp, lsl #14
     23c:	00551201 	subeqs	r1, r5, r1, lsl #4
     240:	53010000 	tstpl	r1, #0	; 0x0
     244:	0000000c 	andeq	r0, r0, ip
     248:	00980d00 	addeqs	r0, r8, r0, lsl #26
     24c:	17010000 	strne	r0, [r1, -r0]
     250:	0000017d 	andeq	r0, r0, sp, ror r1
     254:	00005001 	andeq	r5, r0, r1
     258:	01830405 	orreq	r0, r3, r5, lsl #8
     25c:	2c0e0000 	stccs	0, cr0, [lr], {0}
     260:	0f000000 	swieq	0x00000000
     264:	0000f501 	andeq	pc, r0, r1, lsl #10
     268:	01240100 	teqeq	r4, r0, lsl #2
     26c:	300003d8 	ldrccd	r0, [r0], -r8
     270:	300003f8 	strccd	r0, [r0], -r8
     274:	1b0a5d01 	blne	297680 <DISABLE_IRQ+0x297600>
     278:	01000002 	tsteq	r0, r2
     27c:	00000060 	andeq	r0, r0, r0, rrx
     280:	f8012d01 	stmnvda	r1, {r0, r8, sl, fp, sp}
     284:	64300003 	ldrvst	r0, [r0], #-3
     288:	01300005 	teqeq	r0, r5
     28c:	04c0105d 	streqb	r1, [r0], #93
     290:	2c010000 	stccs	0, cr0, [r1], {0}
     294:	00000124 	andeq	r0, r0, r4, lsr #2
     298:	690b5401 	stmvsdb	fp, {r0, sl, ip, lr}
     29c:	1b2e0100 	blne	b806a4 <DISABLE_IRQ+0xb80624>
     2a0:	01000002 	tsteq	r0, r2
     2a4:	04e40d54 	streqbt	r0, [r4], #3412
     2a8:	30010000 	andcc	r0, r1, r0
     2ac:	00000062 	andeq	r0, r0, r2, rrx
     2b0:	0d009102 	stfeqd	f1, [r0, #-8]
     2b4:	00000278 	andeq	r0, r0, r8, ror r2
     2b8:	00253101 	eoreq	r3, r5, r1, lsl #2
     2bc:	54010000 	strpl	r0, [r1]
     2c0:	0001f811 	andeq	pc, r1, r1, lsl r8
     2c4:	01220100 	teqeq	r2, r0, lsl #2
     2c8:	36010000 	strcc	r0, [r1], -r0
     2cc:	0000021b 	andeq	r0, r0, fp, lsl r2
     2d0:	11001201 	tstne	r0, r1, lsl #4
     2d4:	0000020b 	andeq	r0, r0, fp, lsl #4
     2d8:	00004501 	andeq	r4, r0, r1, lsl #10
     2dc:	1b3f0100 	blne	fc06e4 <DISABLE_IRQ+0xfc0664>
     2e0:	01000002 	tsteq	r0, r2
     2e4:	01130012 	tsteq	r3, r2, lsl r0
     2e8:	0000011b 	andeq	r0, r0, fp, lsl r1
     2ec:	021b4e01 	andeqs	r4, fp, #16	; 0x10
     2f0:	12010000 	andne	r0, r1, #0	; 0x0
     2f4:	69140000 	ldmvsdb	r4, {}
     2f8:	0400746e 	streq	r7, [r0], #-1134
     2fc:	02520a05 	subeqs	r0, r2, #20480	; 0x5000
     300:	9f010000 	swils	0x00010000
     304:	01000000 	tsteq	r0, r0
     308:	05640157 	streqb	r0, [r4, #-343]!
     30c:	05e83000 	streqb	r3, [r8]!
     310:	5d013000 	stcpl	0, cr3, [r1]
     314:	01007015 	tsteq	r0, r5, lsl r0
     318:	00025256 	andeq	r5, r2, r6, asr r2
     31c:	0d500100 	ldfeqe	f0, [r0]
     320:	000000c8 	andeq	r0, r0, r8, asr #1
     324:	021b5801 	andeqs	r5, fp, #65536	; 0x10000
     328:	56010000 	strpl	r0, [r1], -r0
     32c:	17041600 	strne	r1, [r4, -r0, lsl #12]
     330:	0000027d 	andeq	r0, r0, sp, ror r2
     334:	00005401 	andeq	r5, r0, r1, lsl #8
     338:	01930100 	orreqs	r0, r3, r0, lsl #2
     33c:	0000021b 	andeq	r0, r0, fp, lsl r2
     340:	300005e8 	andcc	r0, r0, r8, ror #11
     344:	300005f4 	strccd	r0, [r0], -r4
     348:	c7105d01 	ldrgt	r5, [r0, -r1, lsl #26]
     34c:	01000002 	tsteq	r0, r2
     350:	00002593 	muleq	r0, r3, r5
     354:	00500100 	subeqs	r0, r0, r0, lsl #2
     358:	0002ca0a 	andeq	ip, r2, sl, lsl #20
     35c:	008c0100 	addeq	r0, ip, r0, lsl #2
     360:	9c010000 	stcls	0, cr0, [r1], {0}
     364:	0005f401 	andeq	pc, r5, r1, lsl #8
     368:	00065430 	andeq	r5, r6, r0, lsr r4
     36c:	105d0130 	subnes	r0, sp, r0, lsr r1
     370:	00000130 	andeq	r0, r0, r0, lsr r1
     374:	01249b01 	teqeq	r4, r1, lsl #22
     378:	54010000 	strpl	r0, [r1]
     37c:	0002b411 	andeq	fp, r2, r1, lsl r4
     380:	00e40100 	rsceq	r0, r4, r0, lsl #2
     384:	9d010000 	stcls	0, cr0, [r1]
     388:	0000021b 	andeq	r0, r0, fp, lsl r2
     38c:	0c001201 	sfmeq	f1, 4, [r0], {1}
     390:	00000018 	andeq	r0, r0, r8, lsl r0
     394:	01220113 	teqeq	r2, r3, lsl r1
     398:	36010000 	strcc	r0, [r1], -r0
     39c:	0000021b 	andeq	r0, r0, fp, lsl r2
     3a0:	00001201 	andeq	r1, r0, r1, lsl #4
     3a4:	03600a00 	cmneq	r0, #0	; 0x0
     3a8:	a8010000 	stmgeda	r1, {}
     3ac:	01000000 	tsteq	r0, r0
     3b0:	065401ad 	ldreqb	r0, [r4], -sp, lsr #3
     3b4:	06c43000 	streqb	r3, [r4], r0
     3b8:	5d013000 	stcpl	0, cr3, [r1]
     3bc:	01007015 	tsteq	r0, r5, lsl r0
     3c0:	000252ac 	andeq	r5, r2, ip, lsr #5
     3c4:	0b500100 	bleq	14007cc <DISABLE_IRQ+0x140074c>
     3c8:	ae010069 	cdpge	0, 0, cr0, cr1, cr9, {3}
     3cc:	0000021b 	andeq	r0, r0, fp, lsl r2
     3d0:	630b5501 	tstvs	fp, #4194304	; 0x400000
     3d4:	c5af0100 	strgt	r0, [pc, #256]!	; 4dc <DISABLE_IRQ+0x45c>
     3d8:	01000000 	tsteq	r0, r0
     3dc:	01300d54 	teqeq	r0, r4, asr sp
     3e0:	b0010000 	andlt	r0, r1, r0
     3e4:	00000360 	andeq	r0, r0, r0, ror #6
     3e8:	18009102 	stmneda	r0, {r1, r8, ip, pc}
     3ec:	30000660 	andcc	r0, r0, r0, ror #12
     3f0:	300006c4 	andcc	r0, r0, r4, asr #13
     3f4:	00032c11 	andeq	r2, r3, r1, lsl ip
     3f8:	01220100 	teqeq	r2, r0, lsl #2
     3fc:	36010000 	strcc	r0, [r1], -r0
     400:	0000021b 	andeq	r0, r0, fp, lsl r2
     404:	18001201 	stmneda	r0, {r0, r9, ip}
     408:	30000670 	andcc	r0, r0, r0, ror r6
     40c:	30000698 	mulcc	r0, r8, r6
     410:	00034811 	andeq	r4, r3, r1, lsl r8
     414:	00870100 	addeq	r0, r7, r0, lsl #2
     418:	b8010000 	stmltda	r1, {}
     41c:	0000021b 	andeq	r0, r0, fp, lsl r2
     420:	0c001201 	sfmeq	f1, 4, [r0], {1}
     424:	00000030 	andeq	r0, r0, r0, lsr r0
     428:	01160113 	tsteq	r6, r3, lsl r1
     42c:	ba010000 	blt	40434 <DISABLE_IRQ+0x403b4>
     430:	0000021b 	andeq	r0, r0, fp, lsl r2
     434:	00001201 	andeq	r1, r0, r1, lsl #4
     438:	06000000 	streq	r0, [r0], -r0
     43c:	00000370 	andeq	r0, r0, r0, ror r3
     440:	000000c5 	andeq	r0, r0, r5, asr #1
     444:	00005b07 	andeq	r5, r0, r7, lsl #22
     448:	0a001d00 	beq	7850 <DISABLE_IRQ+0x77d0>
     44c:	000003aa 	andeq	r0, r0, sl, lsr #7
     450:	00001c01 	andeq	r1, r0, r1, lsl #24
     454:	01c70100 	biceq	r0, r7, r0, lsl #2
     458:	300006c4 	andcc	r0, r0, r4, asr #13
     45c:	3000074c 	andcc	r0, r0, ip, asr #14
     460:	9a115d01 	bls	45786c <DISABLE_IRQ+0x4577ec>
     464:	01000003 	tsteq	r0, r3
     468:	000000d3 	ldreqd	r0, [r0], -r3
     46c:	021bc901 	andeqs	ip, fp, #16384	; 0x4000
     470:	12010000 	andne	r0, r1, #0	; 0x0
     474:	0d011300 	stceq	3, cr1, [r1]
     478:	01000001 	tsteq	r0, r1
     47c:	00021bcd 	andeq	r1, r2, sp, asr #23
     480:	00120100 	andeqs	r0, r2, r0, lsl #2
     484:	03b50600 	moveqs	r0, #0	; 0x0
     488:	03b50000 	moveqs	r0, #0	; 0x0
     48c:	00190000 	andeqs	r0, r9, r0
     490:	0000ba02 	andeq	fp, r0, r2, lsl #20
     494:	1a080100 	bne	20089c <DISABLE_IRQ+0x20081c>
     498:	00000106 	andeq	r0, r0, r6, lsl #2
     49c:	03aa1404 	moveq	r1, #67108864	; 0x4000000
     4a0:	01010000 	tsteq	r1, r0
     4a4:	00006b1b 	andeq	r6, r0, fp, lsl fp
     4a8:	2c0e0100 	stfcss	f0, [lr], {0}
     4ac:	01000000 	tsteq	r0, r0
     4b0:	985c0305 	ldmlsda	ip, {r0, r2, r8, r9}^
     4b4:	291b3000 	ldmcsdb	fp, {ip, sp}
     4b8:	01000001 	tsteq	r0, r1
     4bc:	0003ed2a 	andeq	lr, r3, sl, lsr #26
     4c0:	03050100 	tsteq	r5, #0	; 0x0
     4c4:	30004744 	andcc	r4, r0, r4, asr #14
     4c8:	03b50405 	moveqs	r0, #83886080	; 0x5000000
     4cc:	2a000000 	bcs	4d4 <DISABLE_IRQ+0x454>
     4d0:	02000003 	andeq	r0, r0, #3	; 0x3
     4d4:	0001ec00 	andeq	lr, r1, r0, lsl #24
     4d8:	da010400 	ble	414e0 <DISABLE_IRQ+0x41460>
     4dc:	48000001 	stmmida	r0, {r0}
     4e0:	4c300008 	ldcmi	0, cr0, [r0], #-32
     4e4:	09300007 	ldmeqdb	r0!, {r0, r1, r2}
     4e8:	01000000 	tsteq	r0, r0
     4ec:	00000162 	andeq	r0, r0, r2, ror #2
     4f0:	00000031 	andeq	r0, r0, r1, lsr r0
     4f4:	0006f502 	andeq	pc, r6, r2, lsl #10
     4f8:	03070400 	tsteq	r7, #0	; 0x0
     4fc:	00000055 	andeq	r0, r0, r5, asr r0
     500:	000000eb 	andeq	r0, r0, fp, ror #1
     504:	04050408 	streq	r0, [r5], #-1032
     508:	0000013d 	andeq	r0, r0, sp, lsr r1
     50c:	00550604 	subeqs	r0, r5, r4, lsl #12
     510:	23020000 	tstcs	r2, #0	; 0x0
     514:	01380400 	teqeq	r8, r0, lsl #8
     518:	07040000 	streq	r0, [r4, -r0]
     51c:	00000055 	andeq	r0, r0, r5, asr r0
     520:	00042302 	andeq	r2, r4, r2, lsl #6
     524:	002c0405 	eoreq	r0, ip, r5, lsl #8
     528:	69060000 	stmvsdb	r6, {}
     52c:	0400746e 	streq	r7, [r0], #-1134
     530:	00df0305 	sbceqs	r0, pc, r5, lsl #6
     534:	04e30000 	streqbt	r0, [r3]
     538:	032c0000 	teqeq	ip, #0	; 0x0
     53c:	01bd0443 	moveqs	r0, r3, asr #8
     540:	44030000 	strmi	r0, [r3]
     544:	0000005b 	andeq	r0, r0, fp, asr r0
     548:	04002302 	streq	r2, [r0], #-770
     54c:	000001f8 	streqd	r0, [r0], -r8
     550:	005b4503 	subeqs	r4, fp, r3, lsl #10
     554:	23020000 	tstcs	r2, #0	; 0x0
     558:	01a70404 	moveq	r0, r4, lsl #8
     55c:	46030000 	strmi	r0, [r3], -r0
     560:	0000005b 	andeq	r0, r0, fp, asr r0
     564:	04082302 	streq	r2, [r8], #-770
     568:	000001c4 	andeq	r0, r0, r4, asr #3
     56c:	005b4703 	subeqs	r4, fp, r3, lsl #14
     570:	23020000 	tstcs	r2, #0	; 0x0
     574:	01b4040c 	moveqs	r0, ip, lsl #8
     578:	48030000 	stmmida	r3, {}
     57c:	000000df 	ldreqd	r0, [r0], -pc
     580:	04102302 	ldreq	r2, [r0], #-770
     584:	00000142 	andeq	r0, r0, r2, asr #2
     588:	005b4b03 	subeqs	r4, fp, r3, lsl #22
     58c:	23020000 	tstcs	r2, #0	; 0x0
     590:	01ff0420 	mvneqs	r0, r0, lsr #8
     594:	4c030000 	stcmi	0, cr0, [r3], {0}
     598:	0000005b 	andeq	r0, r0, fp, asr r0
     59c:	04242302 	streqt	r2, [r4], #-770
     5a0:	00000199 	muleq	r0, r9, r1
     5a4:	005b4d03 	subeqs	r4, fp, r3, lsl #26
     5a8:	23020000 	tstcs	r2, #0	; 0x0
     5ac:	ef070028 	swi	0x00070028
     5b0:	f6000000 	strnv	r0, [r0], -r0
     5b4:	08000000 	stmeqda	r0, {}
     5b8:	000000ef 	andeq	r0, r0, pc, ror #1
     5bc:	f502000f 	strnv	r0, [r2, #-15]
     5c0:	04000006 	streq	r0, [r0], #-6
     5c4:	00c30207 	sbceq	r0, r3, r7, lsl #4
     5c8:	08010000 	stmeqda	r1, {}
     5cc:	00013403 	andeq	r3, r1, r3, lsl #8
     5d0:	00018700 	andeq	r8, r1, r0, lsl #14
     5d4:	57030c00 	strpl	r0, [r3, -r0, lsl #24]
     5d8:	00015a04 	andeq	r5, r1, r4, lsl #20
     5dc:	5b580300 	blpl	16011e4 <DISABLE_IRQ+0x1601164>
     5e0:	02000000 	andeq	r0, r0, #0	; 0x0
     5e4:	74040023 	strvc	r0, [r4], #-35
     5e8:	03000001 	tsteq	r0, #1	; 0x1
     5ec:	00005b59 	andeq	r5, r0, r9, asr fp
     5f0:	04230200 	streqt	r0, [r3], #-512
     5f4:	00018c04 	andeq	r8, r1, r4, lsl #24
     5f8:	345a0300 	ldrccb	r0, [sl], #-768
     5fc:	02000001 	andeq	r0, r0, #1	; 0x1
     600:	05000823 	streq	r0, [r0, #-2083]
     604:	00006204 	andeq	r6, r0, r4, lsl #4
     608:	018e0900 	orreq	r0, lr, r0, lsl #18
     60c:	017b0000 	cmneq	fp, r0
     610:	01140000 	tsteq	r4, r0
     614:	730a0802 	tstvc	sl, #131072	; 0x20000
     618:	09020070 	stmeqdb	r2, {r4, r5, r6}
     61c:	00000025 	andeq	r0, r0, r5, lsr #32
     620:	0a002302 	beq	9230 <DISABLE_IRQ+0x91b0>
     624:	00646970 	rsbeq	r6, r4, r0, ror r9
     628:	00250a02 	eoreq	r0, r5, r2, lsl #20
     62c:	23020000 	tstcs	r2, #0	; 0x0
     630:	01480404 	cmpeq	r8, r4, lsl #8
     634:	0b020000 	bleq	8063c <DISABLE_IRQ+0x805bc>
     638:	00000025 	andeq	r0, r0, r5, lsr #32
     63c:	04082302 	streq	r2, [r8], #-770
     640:	000001e9 	andeq	r0, r0, r9, ror #3
     644:	018e0c02 	orreq	r0, lr, r2, lsl #24
     648:	23020000 	tstcs	r2, #0	; 0x0
     64c:	0743040c 	streqb	r0, [r3, -ip, lsl #8]
     650:	0d020000 	stceq	0, cr0, [r2]
     654:	0000002c 	andeq	r0, r0, ip, lsr #32
     658:	028c2303 	addeq	r2, ip, #201326592	; 0xc000000
     65c:	019e0700 	orreqs	r0, lr, r0, lsl #14
     660:	019e0000 	orreqs	r0, lr, r0
     664:	ef080000 	swi	0x00080000
     668:	3f000000 	swicc	0x00000000
     66c:	fd040500 	stc2	5, cr0, [r4]
     670:	0b000000 	bleq	678 <DISABLE_IRQ+0x5f8>
     674:	000001cc 	andeq	r0, r0, ip, asr #3
     678:	00014e01 	andeq	r4, r1, r1, lsl #28
     67c:	010a0100 	tsteq	sl, r0, lsl #2
     680:	000001cc 	andeq	r0, r0, ip, asr #3
     684:	3000074c 	andcc	r0, r0, ip, asr #14
     688:	30000758 	andcc	r0, r0, r8, asr r7
     68c:	730c5d01 	tstvc	ip, #64	; 0x40
     690:	0b010070 	bleq	40858 <DISABLE_IRQ+0x407d8>
     694:	000001d2 	ldreqd	r0, [r0], -r2
     698:	05005d01 	streq	r5, [r0, #-3329]
     69c:	00013a04 	andeq	r3, r1, r4, lsl #20
     6a0:	06f00200 	ldreqbt	r0, [r0], r0, lsl #4
     6a4:	07040000 	streq	r0, [r4, -r0]
     6a8:	016a010d 	cmneq	sl, sp, lsl #2
     6ac:	10010000 	andne	r0, r1, r0
     6b0:	00075801 	andeq	r5, r7, r1, lsl #16
     6b4:	00076c30 	andeq	r6, r7, r0, lsr ip
     6b8:	0d5d0130 	ldfeqe	f0, [sp, #-192]
     6bc:	0001d201 	andeq	sp, r1, r1, lsl #4
     6c0:	01150100 	tsteq	r5, r0, lsl #2
     6c4:	3000076c 	andcc	r0, r0, ip, ror #14
     6c8:	30000784 	andcc	r0, r0, r4, lsl #15
     6cc:	010d5d01 	tsteq	sp, r1, lsl #26
     6d0:	000001dd 	ldreqd	r0, [r0], -sp
     6d4:	84011f01 	strhi	r1, [r1], #-3841
     6d8:	9c300007 	ldcls	0, cr0, [r0], #-28
     6dc:	01300007 	teqeq	r0, r7
     6e0:	02580b5d 	subeqs	r0, r8, #95232	; 0x17400
     6e4:	0e010000 	cdpeq	0, 0, cr0, cr1, cr0, {0}
     6e8:	01000002 	tsteq	r0, r2
     6ec:	0258012b 	subeqs	r0, r8, #-1073741814	; 0xc000000a
     6f0:	079c0000 	ldreq	r0, [ip, r0]
     6f4:	07c83000 	streqb	r3, [r8, r0]
     6f8:	5d013000 	stcpl	0, cr3, [r1]
     6fc:	0002440e 	andeq	r4, r2, lr, lsl #8
     700:	00004800 	andeq	r4, r0, r0, lsl #16
     704:	00980f00 	addeqs	r0, r8, r0, lsl #30
     708:	2f010000 	swics	0x00010000
     70c:	0000025a 	andeq	r0, r0, sl, asr r2
     710:	10005201 	andne	r5, r0, r1, lsl #4
     714:	00000068 	andeq	r0, r0, r8, rrx
     718:	0000980f 	andeq	r9, r0, pc, lsl #16
     71c:	5a2d0100 	bpl	b40b24 <DISABLE_IRQ+0xb40aa4>
     720:	01000002 	tsteq	r0, r2
     724:	11000053 	qaddne	r0, r3, r0
     728:	60040504 	andvs	r0, r4, r4, lsl #10
     72c:	12000002 	andne	r0, r0, #2	; 0x2
     730:	0000002c 	andeq	r0, r0, ip, lsr #32
     734:	00028a13 	andeq	r8, r2, r3, lsl sl
     738:	01ee0100 	mvneq	r0, r0, lsl #2
     73c:	33010000 	tstcc	r1, #0	; 0x0
     740:	0007c801 	andeq	ip, r7, r1, lsl #16
     744:	0007cc30 	andeq	ip, r7, r0, lsr ip
     748:	145d0130 	ldrneb	r0, [sp], #-304
     74c:	000000a3 	andeq	r0, r0, r3, lsr #1
     750:	01cc3201 	biceq	r3, ip, r1, lsl #4
     754:	50010000 	andpl	r0, r1, r0
     758:	17010d00 	strne	r0, [r1, -r0, lsl #26]
     75c:	01000002 	tsteq	r0, r2
     760:	07cc0138 	undefined
     764:	07d03000 	ldreqb	r3, [r0, r0]
     768:	5d013000 	stcpl	0, cr3, [r1]
     76c:	0002d813 	andeq	sp, r2, r3, lsl r8
     770:	019f0100 	orreqs	r0, pc, r0, lsl #2
     774:	3d010000 	stccc	0, cr0, [r1]
     778:	0007d001 	andeq	sp, r7, r1
     77c:	00080030 	andeq	r0, r8, r0, lsr r0
     780:	155d0130 	ldrneb	r0, [sp, #-304]
     784:	01007177 	tsteq	r0, r7, ror r1
     788:	0000553c 	andeq	r5, r0, ip, lsr r5
     78c:	16540100 	ldrneb	r0, [r4], -r0, lsl #2
     790:	300007dc 	ldrccd	r0, [r0], -ip
     794:	300007e0 	andcc	r0, r0, r0, ror #15
     798:	0000980f 	andeq	r9, r0, pc, lsl #16
     79c:	5a3f0100 	bpl	fc0ba4 <DISABLE_IRQ+0xfc0b24>
     7a0:	01000002 	tsteq	r0, r2
     7a4:	13000055 	tstne	r0, #85	; 0x55
     7a8:	000002fc 	streqd	r0, [r0], -ip
     7ac:	00020501 	andeq	r0, r2, r1, lsl #10
     7b0:	01460100 	cmpeq	r6, r0, lsl #2
     7b4:	30000800 	andcc	r0, r0, r0, lsl #16
     7b8:	30000848 	andcc	r0, r0, r8, asr #16
     7bc:	77155d01 	ldrvc	r5, [r5, -r1, lsl #26]
     7c0:	45010071 	strmi	r0, [r1, #-113]
     7c4:	00000055 	andeq	r0, r0, r5, asr r0
     7c8:	07005501 	streq	r5, [r0, -r1, lsl #10]
     7cc:	00000307 	andeq	r0, r0, r7, lsl #6
     7d0:	00000307 	andeq	r0, r0, r7, lsl #6
     7d4:	ba020017 	blt	80838 <DISABLE_IRQ+0x807b8>
     7d8:	01000000 	tsteq	r0, r0
     7dc:	01061808 	tsteq	r6, r8, lsl #16
     7e0:	14050000 	strne	r0, [r5]
     7e4:	000002fc 	streqd	r0, [r0], -ip
     7e8:	74190101 	ldrvc	r0, [r9], #-257
     7ec:	0100706d 	tsteq	r0, sp, rrx
     7f0:	00005528 	andeq	r5, r0, r8, lsr #10
     7f4:	03050100 	tsteq	r5, #0	; 0x0
     7f8:	30009864 	andcc	r9, r0, r4, ror #16
     7fc:	0002da00 	andeq	sp, r2, r0, lsl #20
     800:	3c000200 	sfmcc	f0, 4, [r0], {0}
     804:	04000003 	streq	r0, [r0], #-3
     808:	00027401 	andeq	r7, r2, r1, lsl #8
     80c:	00092c00 	andeq	r2, r9, r0, lsl #24
     810:	00084830 	andeq	r4, r8, r0, lsr r8
     814:	00000930 	andeq	r0, r0, r0, lsr r9
     818:	02670100 	rsbeq	r0, r7, #0	; 0x0
     81c:	00310000 	eoreqs	r0, r1, r0
     820:	f5020000 	strnv	r0, [r2]
     824:	04000006 	streq	r0, [r0], #-6
     828:	00550307 	subeqs	r0, r5, r7, lsl #6
     82c:	00eb0000 	rsceq	r0, fp, r0
     830:	04080000 	streq	r0, [r8]
     834:	013d0405 	teqeq	sp, r5, lsl #8
     838:	06040000 	streq	r0, [r4], -r0
     83c:	00000055 	andeq	r0, r0, r5, asr r0
     840:	04002302 	streq	r2, [r0], #-770
     844:	00000138 	andeq	r0, r0, r8, lsr r1
     848:	00550704 	subeqs	r0, r5, r4, lsl #14
     84c:	23020000 	tstcs	r2, #0	; 0x0
     850:	04050004 	streq	r0, [r5], #-4
     854:	0000002c 	andeq	r0, r0, ip, lsr #32
     858:	746e6906 	strvcbt	r6, [lr], #-2310
     85c:	03050400 	tsteq	r5, #0	; 0x0
     860:	000000df 	ldreqd	r0, [r0], -pc
     864:	000004e3 	andeq	r0, r0, r3, ror #9
     868:	0443032c 	streqb	r0, [r3], #-812
     86c:	000001bd 	streqh	r0, [r0], -sp
     870:	005b4403 	subeqs	r4, fp, r3, lsl #8
     874:	23020000 	tstcs	r2, #0	; 0x0
     878:	01f80400 	mvneqs	r0, r0, lsl #8
     87c:	45030000 	strmi	r0, [r3]
     880:	0000005b 	andeq	r0, r0, fp, asr r0
     884:	04042302 	streq	r2, [r4], #-770
     888:	000001a7 	andeq	r0, r0, r7, lsr #3
     88c:	005b4603 	subeqs	r4, fp, r3, lsl #12
     890:	23020000 	tstcs	r2, #0	; 0x0
     894:	01c40408 	biceq	r0, r4, r8, lsl #8
     898:	47030000 	strmi	r0, [r3, -r0]
     89c:	0000005b 	andeq	r0, r0, fp, asr r0
     8a0:	040c2302 	streq	r2, [ip], #-770
     8a4:	000001b4 	streqh	r0, [r0], -r4
     8a8:	00df4803 	sbceqs	r4, pc, r3, lsl #16
     8ac:	23020000 	tstcs	r2, #0	; 0x0
     8b0:	01420410 	cmpeq	r2, r0, lsl r4
     8b4:	4b030000 	blmi	c08bc <DISABLE_IRQ+0xc083c>
     8b8:	0000005b 	andeq	r0, r0, fp, asr r0
     8bc:	04202302 	streqt	r2, [r0], #-770
     8c0:	000001ff 	streqd	r0, [r0], -pc
     8c4:	005b4c03 	subeqs	r4, fp, r3, lsl #24
     8c8:	23020000 	tstcs	r2, #0	; 0x0
     8cc:	01990424 	orreqs	r0, r9, r4, lsr #8
     8d0:	4d030000 	stcmi	0, cr0, [r3]
     8d4:	0000005b 	andeq	r0, r0, fp, asr r0
     8d8:	00282302 	eoreq	r2, r8, r2, lsl #6
     8dc:	0000ef07 	andeq	lr, r0, r7, lsl #30
     8e0:	0000f600 	andeq	pc, r0, r0, lsl #12
     8e4:	00ef0800 	rsceq	r0, pc, r0, lsl #16
     8e8:	000f0000 	andeq	r0, pc, r0
     8ec:	0006f502 	andeq	pc, r6, r2, lsl #10
     8f0:	02070400 	andeq	r0, r7, #0	; 0x0
     8f4:	000000c3 	andeq	r0, r0, r3, asr #1
     8f8:	34030801 	strcc	r0, [r3], #-2049
     8fc:	87000001 	strhi	r0, [r0, -r1]
     900:	0c000001 	stceq	0, cr0, [r0], {1}
     904:	5a045703 	bpl	116518 <DISABLE_IRQ+0x116498>
     908:	03000001 	tsteq	r0, #1	; 0x1
     90c:	00005b58 	andeq	r5, r0, r8, asr fp
     910:	00230200 	eoreq	r0, r3, r0, lsl #4
     914:	00017404 	andeq	r7, r1, r4, lsl #8
     918:	5b590300 	blpl	1641520 <DISABLE_IRQ+0x16414a0>
     91c:	02000000 	andeq	r0, r0, #0	; 0x0
     920:	8c040423 	cfstrshi	mvf0, [r4], {35}
     924:	03000001 	tsteq	r0, #1	; 0x1
     928:	0001345a 	andeq	r3, r1, sl, asr r4
     92c:	08230200 	stmeqda	r3!, {r9}
     930:	62040500 	andvs	r0, r4, #0	; 0x0
     934:	09000000 	stmeqdb	r0, {}
     938:	0000018e 	andeq	r0, r0, lr, lsl #3
     93c:	0000017b 	andeq	r0, r0, fp, ror r1
     940:	08020114 	stmeqda	r2, {r2, r4, r8}
     944:	0070730a 	rsbeqs	r7, r0, sl, lsl #6
     948:	00250902 	eoreq	r0, r5, r2, lsl #18
     94c:	23020000 	tstcs	r2, #0	; 0x0
     950:	69700a00 	ldmvsdb	r0!, {r9, fp}^
     954:	0a020064 	beq	80aec <DISABLE_IRQ+0x80a6c>
     958:	00000025 	andeq	r0, r0, r5, lsr #32
     95c:	04042302 	streq	r2, [r4], #-770
     960:	00000148 	andeq	r0, r0, r8, asr #2
     964:	00250b02 	eoreq	r0, r5, r2, lsl #22
     968:	23020000 	tstcs	r2, #0	; 0x0
     96c:	01e90408 	mvneq	r0, r8, lsl #8
     970:	0c020000 	stceq	0, cr0, [r2], {0}
     974:	0000018e 	andeq	r0, r0, lr, lsl #3
     978:	040c2302 	streq	r2, [ip], #-770
     97c:	00000743 	andeq	r0, r0, r3, asr #14
     980:	002c0d02 	eoreq	r0, ip, r2, lsl #26
     984:	23030000 	tstcs	r3, #0	; 0x0
     988:	0700028c 	streq	r0, [r0, -ip, lsl #5]
     98c:	0000019e 	muleq	r0, lr, r1
     990:	0000019e 	muleq	r0, lr, r1
     994:	0000ef08 	andeq	lr, r0, r8, lsl #30
     998:	05003f00 	streq	r3, [r0, #-3840]
     99c:	0000fd04 	andeq	pc, r0, r4, lsl #26
     9a0:	01de0b00 	biceqs	r0, lr, r0, lsl #22
     9a4:	20010000 	andcs	r0, r1, r0
     9a8:	01000002 	tsteq	r0, r2
     9ac:	01de0109 	biceqs	r0, lr, r9, lsl #2
     9b0:	08480000 	stmeqda	r8, {}^
     9b4:	08603000 	stmeqda	r0!, {ip, sp}^
     9b8:	5d013000 	stcpl	0, cr3, [r1]
     9bc:	0002350c 	andeq	r3, r2, ip, lsl #10
     9c0:	5b0a0100 	blpl	280dc8 <DISABLE_IRQ+0x280d48>
     9c4:	05000000 	streq	r0, [r0]
     9c8:	00474803 	subeq	r4, r7, r3, lsl #16
     9cc:	6d740d30 	ldcvsl	13, cr0, [r4, #-192]!
     9d0:	0c010070 	stceq	0, cr0, [r1], {112}
     9d4:	000001de 	ldreqd	r0, [r0], -lr
     9d8:	05005001 	streq	r5, [r0, #-1]
     9dc:	00013a04 	andeq	r3, r1, r4, lsl #20
     9e0:	020b0b00 	andeq	r0, fp, #0	; 0x0
     9e4:	4a010000 	bmi	409ec <DISABLE_IRQ+0x4096c>
     9e8:	01000002 	tsteq	r0, r2
     9ec:	00250122 	eoreq	r0, r5, r2, lsr #2
     9f0:	08600000 	stmeqda	r0!, {}^
     9f4:	08683000 	stmeqda	r8!, {ip, sp}^
     9f8:	5d013000 	stcpl	0, cr3, [r1]
     9fc:	0100700d 	tsteq	r0, sp
     a00:	00002523 	andeq	r2, r0, r3, lsr #10
     a04:	00500100 	subeqs	r0, r0, r0, lsl #2
     a08:	0002670b 	andeq	r6, r2, fp, lsl #14
     a0c:	02580100 	subeqs	r0, r8, #0	; 0x0
     a10:	2e010000 	cdpcs	0, 0, cr0, cr1, cr0, {0}
     a14:	00005b01 	andeq	r5, r0, r1, lsl #22
     a18:	00086800 	andeq	r6, r8, r0, lsl #16
     a1c:	00090430 	andeq	r0, r9, r0, lsr r4
     a20:	0e5d0130 	mrceq	1, 2, r0, cr13, cr0, {1}
     a24:	01006e66 	tsteq	r0, r6, ror #28
     a28:	0002752d 	andeq	r7, r2, sp, lsr #10
     a2c:	0f540100 	swieq	0x00540100
     a30:	00000253 	andeq	r0, r0, r3, asr r2
     a34:	02732d01 	rsbeqs	r2, r3, #64	; 0x40
     a38:	57010000 	strpl	r0, [r1, -r0]
     a3c:	6b73740d 	blvs	1cdda78 <DISABLE_IRQ+0x1cdd9f8>
     a40:	de2f0100 	suflee	f0, f7, f0
     a44:	01000001 	tsteq	r0, r1
     a48:	6d741055 	ldcvsl	0, cr1, [r4, #-340]!
     a4c:	2f010070 	swics	0x00010070
     a50:	000001de 	ldreqd	r0, [r0], -lr
     a54:	02600111 	rsbeq	r0, r0, #1073741828	; 0x40000004
     a58:	35010000 	strcc	r0, [r1]
     a5c:	0000005b 	andeq	r0, r0, fp, asr r0
     a60:	00001201 	andeq	r1, r0, r1, lsl #4
     a64:	00027313 	andeq	r7, r2, r3, lsl r3
     a68:	73140100 	tstvc	r4, #0	; 0x0
     a6c:	00000002 	andeq	r0, r0, r2
     a70:	04050415 	streq	r0, [r5], #-1045
     a74:	00000267 	andeq	r0, r0, r7, ror #4
     a78:	0002b10b 	andeq	fp, r2, fp, lsl #2
     a7c:	026e0100 	rsbeq	r0, lr, #0	; 0x0
     a80:	47010000 	strmi	r0, [r1, -r0]
     a84:	0002b101 	andeq	fp, r2, r1, lsl #2
     a88:	00090400 	andeq	r0, r9, r0, lsl #8
     a8c:	00092c30 	andeq	r2, r9, r0, lsr ip
     a90:	0f5d0130 	swieq	0x005d0130
     a94:	00000273 	andeq	r0, r0, r3, ror r2
     a98:	02be4601 	adceqs	r4, lr, #1048576	; 0x100000
     a9c:	54010000 	strpl	r0, [r1]
     aa0:	0002780c 	andeq	r7, r2, ip, lsl #16
     aa4:	b1480100 	cmplt	r8, r0, lsl #2
     aa8:	01000002 	tsteq	r0, r2
     aac:	04050055 	streq	r0, [r5], #-85
     ab0:	000002b7 	streqh	r0, [r0], -r7
     ab4:	0000ba02 	andeq	fp, r0, r2, lsl #20
     ab8:	02080100 	andeq	r0, r8, #0	; 0x0
     abc:	000006f0 	streqd	r0, [r0], -r0
     ac0:	d0070704 	andle	r0, r7, r4, lsl #14
     ac4:	b7000002 	strlt	r0, [r0, -r2]
     ac8:	16000002 	strne	r0, [r0], -r2
     acc:	01061700 	tsteq	r6, r0, lsl #14
     ad0:	14050000 	strne	r0, [r5]
     ad4:	000002c5 	andeq	r0, r0, r5, asr #5
     ad8:	c4000101 	strgt	r0, [r0], #-257
     adc:	02000000 	andeq	r0, r0, #0	; 0x0
     ae0:	00046200 	andeq	r6, r4, r0, lsl #4
     ae4:	05010400 	streq	r0, [r1, #-1024]
     ae8:	a4000003 	strge	r0, [r0], #-3
     aec:	2c300009 	ldccs	0, cr0, [r0], #-36
     af0:	09300009 	ldmeqdb	r0!, {r0, r3}
     af4:	01000000 	tsteq	r0, r0
     af8:	00000285 	andeq	r0, r0, r5, lsl #5
     afc:	00000031 	andeq	r0, r0, r1, lsr r0
     b00:	00004c02 	andeq	r4, r0, r2, lsl #24
     b04:	028b0100 	addeq	r0, fp, #0	; 0x0
     b08:	20010000 	andcs	r0, r1, r0
     b0c:	00004c01 	andeq	r4, r0, r1, lsl #24
     b10:	00092c00 	andeq	r2, r9, r0, lsl #24
     b14:	00097830 	andeq	r7, r9, r0, lsr r8
     b18:	035d0130 	cmpeq	sp, #12	; 0xc
     b1c:	21010069 	tstcs	r1, r9, rrx
     b20:	00000059 	andeq	r0, r0, r9, asr r0
     b24:	04005201 	streq	r5, [r0], #-513
     b28:	00005204 	andeq	r5, r0, r4, lsl #4
     b2c:	06f00500 	ldreqbt	r0, [r0], r0, lsl #10
     b30:	07040000 	streq	r0, [r4, -r0]
     b34:	746e6906 	strvcbt	r6, [lr], #-2310
     b38:	02050400 	andeq	r0, r5, #0	; 0x0
     b3c:	00000096 	muleq	r0, r6, r0
     b40:	00028f01 	andeq	r8, r2, r1, lsl #30
     b44:	01390100 	teqeq	r9, r0, lsl #2
     b48:	00000059 	andeq	r0, r0, r9, asr r0
     b4c:	30000978 	andcc	r0, r0, r8, ror r9
     b50:	300009a4 	andcc	r0, r0, r4, lsr #19
     b54:	78075d01 	stmvcda	r7, {r0, r8, sl, fp, ip, lr}
     b58:	01000002 	tsteq	r0, r2
     b5c:	00004c38 	andeq	r4, r0, r8, lsr ip
     b60:	08500100 	ldmeqda	r0, {r8}^
     b64:	00000294 	muleq	r0, r4, r2
     b68:	00593a01 	subeqs	r3, r9, r1, lsl #20
     b6c:	50010000 	andpl	r0, r1, r0
     b70:	00a70900 	adceq	r0, r7, r0, lsl #18
     b74:	00ae0000 	adceq	r0, lr, r0
     b78:	a70a0000 	strge	r0, [sl, -r0]
     b7c:	ff000000 	swinv	0x00000000
     b80:	f505003f 	strnv	r0, [r5, #-63]
     b84:	04000006 	streq	r0, [r0], #-6
     b88:	00ba0507 	adceqs	r0, sl, r7, lsl #10
     b8c:	08010000 	stmeqda	r1, {}
     b90:	00027d0b 	andeq	r7, r2, fp, lsl #26
     b94:	96110100 	ldrls	r0, [r1], -r0, lsl #2
     b98:	01000000 	tsteq	r0, r0
     b9c:	485c0305 	ldmmida	ip, {r0, r2, r8, r9}^
     ba0:	3b003000 	blcc	cba8 <DISABLE_IRQ+0xcb28>
     ba4:	02000002 	andeq	r0, r0, #2	; 0x2
     ba8:	0004fe00 	andeq	pc, r4, r0, lsl #28
     bac:	48010400 	stmmida	r1, {sl}
     bb0:	c0000003 	andgt	r0, r0, r3
     bb4:	a430000c 	ldrget	r0, [r0], #-12
     bb8:	09300009 	ldmeqdb	r0!, {r0, r3}
     bbc:	01000000 	tsteq	r0, r0
     bc0:	00000303 	andeq	r0, r0, r3, lsl #6
     bc4:	00000031 	andeq	r0, r0, r1, lsr r0
     bc8:	00005902 	andeq	r5, r0, r2, lsl #18
     bcc:	02cd0100 	sbceq	r0, sp, #0	; 0x0
     bd0:	0f010000 	swieq	0x00010000
     bd4:	00005901 	andeq	r5, r0, r1, lsl #18
     bd8:	0009a400 	andeq	sl, r9, r0, lsl #8
     bdc:	0009d030 	andeq	sp, r9, r0, lsr r0
     be0:	035d0130 	cmpeq	sp, #12	; 0xc
     be4:	10010070 	andne	r0, r1, r0, ror r0
     be8:	00000060 	andeq	r0, r0, r0, rrx
     bec:	76035101 	strvc	r5, [r3], -r1, lsl #2
     bf0:	01006c61 	tsteq	r0, r1, ror #24
     bf4:	00005911 	andeq	r5, r0, r1, lsl r9
     bf8:	005c0100 	subeqs	r0, ip, r0, lsl #2
     bfc:	746e6904 	strvcbt	r6, [lr], #-2308
     c00:	05050400 	streq	r0, [r5, #-1024]
     c04:	00006604 	andeq	r6, r0, r4, lsl #12
     c08:	00590600 	subeqs	r0, r9, r0, lsl #12
     c0c:	a8070000 	stmgeda	r7, {}
     c10:	01000000 	tsteq	r0, r0
     c14:	0000030a 	andeq	r0, r0, sl, lsl #6
     c18:	d0013701 	andle	r3, r1, r1, lsl #14
     c1c:	fc300009 	ldc2	0, cr0, [r0], #-36
     c20:	01300009 	teqeq	r0, r9
     c24:	02c1085d 	sbceq	r0, r1, #6094848	; 0x5d0000
     c28:	38010000 	stmccda	r1, {}
     c2c:	00000059 	andeq	r0, r0, r9, asr r0
     c30:	e5080101 	str	r0, [r8, #-257]
     c34:	01000002 	tsteq	r0, r2
     c38:	00005938 	andeq	r5, r0, r8, lsr r9
     c3c:	03010100 	tsteq	r1, #0	; 0x0
     c40:	39010070 	stmccdb	r1, {r4, r5, r6}
     c44:	000000a8 	andeq	r0, r0, r8, lsr #1
     c48:	05005301 	streq	r5, [r0, #-769]
     c4c:	00005904 	andeq	r5, r0, r4, lsl #18
     c50:	99010900 	stmlsdb	r1, {r8, fp}
     c54:	01000002 	tsteq	r0, r2
     c58:	09fc0140 	ldmeqib	ip!, {r6, r8}^
     c5c:	0a143000 	beq	50cc64 <DISABLE_IRQ+0x50cbe4>
     c60:	5d013000 	stcpl	0, cr3, [r1]
     c64:	03140109 	tsteq	r4, #1073741826	; 0x40000002
     c68:	4b010000 	blmi	40c70 <DISABLE_IRQ+0x40bf0>
     c6c:	000a1401 	andeq	r1, sl, r1, lsl #8
     c70:	000a2830 	andeq	r2, sl, r0, lsr r8
     c74:	095d0130 	ldmeqdb	sp, {r4, r5, r8}^
     c78:	0002a301 	andeq	sl, r2, r1, lsl #6
     c7c:	01500100 	cmpeq	r0, r0, lsl #2
     c80:	30000a28 	andcc	r0, r0, r8, lsr #20
     c84:	30000a3c 	andcc	r0, r0, ip, lsr sl
     c88:	18075d01 	stmneda	r7, {r0, r8, sl, fp, ip, lr}
     c8c:	01000001 	tsteq	r0, r1
     c90:	00000333 	andeq	r0, r0, r3, lsr r3
     c94:	3c015501 	cfstr32cc	mvfx5, [r1], {1}
     c98:	8030000a 	eorhis	r0, r0, sl
     c9c:	0130000a 	teqeq	r0, sl
     ca0:	6d630a5d 	fstmdbsvs	r3!, {s1-s93}
     ca4:	54010064 	strpl	r0, [r1], #-100
     ca8:	00000118 	andeq	r0, r0, r8, lsl r1
     cac:	69035001 	stmvsdb	r3, {r0, ip, lr}
     cb0:	66560100 	ldrvsb	r0, [r6], -r0, lsl #2
     cb4:	02000000 	andeq	r0, r0, #0	; 0x0
     cb8:	0b000091 	bleq	f04 <DISABLE_IRQ+0xe84>
     cbc:	000000ba 	streqh	r0, [r0], -sl
     cc0:	6a070801 	bvs	1c2ccc <DISABLE_IRQ+0x1c2c4c>
     cc4:	01000001 	tsteq	r0, r1
     cc8:	00000273 	andeq	r0, r0, r3, ror r2
     ccc:	80015c01 	andhi	r5, r1, r1, lsl #24
     cd0:	9c30000a 	ldcls	0, cr0, [r0], #-40
     cd4:	0130000b 	teqeq	r0, fp
     cd8:	02780c5d 	rsbeqs	r0, r8, #23808	; 0x5d00
     cdc:	5b010000 	blpl	40ce4 <DISABLE_IRQ+0x40c64>
     ce0:	0000016a 	andeq	r0, r0, sl, ror #2
     ce4:	63035001 	tstvs	r3, #1	; 0x1
     ce8:	01006c6f 	tsteq	r0, pc, ror #24
     cec:	00016a5d 	andeq	r6, r1, sp, asr sl
     cf0:	0d510100 	ldfeqe	f0, [r1]
     cf4:	00000294 	muleq	r0, r4, r2
     cf8:	016a5e01 	cmneq	sl, r1, lsl #28
     cfc:	50010000 	andpl	r0, r1, r0
     d00:	01006903 	tsteq	r0, r3, lsl #18
     d04:	0000665f 	andeq	r6, r0, pc, asr r6
     d08:	00910200 	addeqs	r0, r1, r0, lsl #4
     d0c:	06f50b00 	ldreqbt	r0, [r5], r0, lsl #22
     d10:	07040000 	streq	r0, [r4, -r0]
     d14:	02b10109 	adceqs	r0, r1, #1073741826	; 0x40000002
     d18:	6f010000 	swivs	0x00010000
     d1c:	000b9c01 	andeq	r9, fp, r1, lsl #24
     d20:	000bb030 	andeq	fp, fp, r0, lsr r0
     d24:	0e5d0130 	mrceq	1, 2, r0, cr13, cr0, {1}
     d28:	0002ef01 	andeq	lr, r2, r1, lsl #30
     d2c:	01740100 	cmneq	r4, r0, lsl #2
     d30:	00000118 	andeq	r0, r0, r8, lsl r1
     d34:	30000bb0 	strcch	r0, [r0], -r0
     d38:	30000bbc 	strcch	r0, [r0], -ip
     d3c:	f2075d01 	andnv	r5, r7, #64	; 0x40
     d40:	01000001 	tsteq	r0, r1
     d44:	000002f9 	streqd	r0, [r0], -r9
     d48:	bc017901 	stclt	9, cr7, [r1], {1}
     d4c:	6c30000b 	ldcvs	0, cr0, [r0], #-44
     d50:	0130000c 	teqeq	r0, ip
     d54:	02780c5d 	rsbeqs	r0, r8, #23808	; 0x5d00
     d58:	78010000 	stmvcda	r1, {}
     d5c:	0000016a 	andeq	r0, r0, sl, ror #2
     d60:	620a5601 	andvs	r5, sl, #1048576	; 0x100000
     d64:	01006675 	tsteq	r0, r5, ror r6
     d68:	0001f278 	andeq	pc, r1, r8, ror r2
     d6c:	0a5a0100 	beq	1681174 <DISABLE_IRQ+0x16810f4>
     d70:	006e656c 	rsbeq	r6, lr, ip, ror #10
     d74:	016a7801 	cmneq	sl, r1, lsl #16
     d78:	57010000 	strpl	r0, [r1, -r0]
     d7c:	6c6f6303 	stcvsl	3, cr6, [pc], #-12
     d80:	597a0100 	ldmpldb	sl!, {r8}^
     d84:	01000000 	tsteq	r0, r0
     d88:	00690354 	rsbeq	r0, r9, r4, asr r3
     d8c:	00597b01 	subeqs	r7, r9, r1, lsl #22
     d90:	55010000 	strpl	r0, [r1]
     d94:	18040500 	stmneda	r4, {r8, sl}
     d98:	0f000001 	swieq	0x00000001
     d9c:	00032001 	andeq	r2, r3, r1
     da0:	01230100 	teqeq	r3, r0, lsl #2
     da4:	30000c6c 	andcc	r0, r0, ip, ror #24
     da8:	30000cc0 	andcc	r0, r0, r0, asr #25
     dac:	730a5d01 	tstvc	sl, #64	; 0x40
     db0:	01006372 	tsteq	r0, r2, ror r3
     db4:	0001f222 	andeq	pc, r1, r2, lsr #4
     db8:	0c550100 	ldfeqe	f0, [r5], {0}
     dbc:	000002e0 	andeq	r0, r0, r0, ror #5
     dc0:	01f22201 	mvneqs	r2, r1, lsl #4
     dc4:	56010000 	strpl	r0, [r1], -r0
     dc8:	6e656c0a 	cdpvs	12, 6, cr6, cr5, cr10, {0}
     dcc:	6a220100 	bvs	8811d4 <DISABLE_IRQ+0x881154>
     dd0:	01000001 	tsteq	r0, r1
     dd4:	00690354 	rsbeq	r0, r9, r4, asr r3
     dd8:	00592401 	subeqs	r2, r9, r1, lsl #8
     ddc:	52010000 	andpl	r0, r1, #0	; 0x0
     de0:	01f80000 	mvneqs	r0, r0
     de4:	00020000 	andeq	r0, r2, r0
     de8:	000005f6 	streqd	r0, [r0], -r6
     dec:	03f00104 	mvneqs	r0, #1	; 0x1
     df0:	0f440000 	swieq	0x00440000
     df4:	0cc03000 	stceql	0, cr3, [r0], {0}
     df8:	00093000 	andeq	r3, r9, r0
     dfc:	54010000 	strpl	r0, [r1]
     e00:	31000003 	tstcc	r0, r3
     e04:	02000000 	andeq	r0, r0, #0	; 0x0
     e08:	00036001 	andeq	r6, r3, r1
     e0c:	c0450100 	subgt	r0, r5, r0, lsl #2
     e10:	0c30000c 	ldceq	0, cr0, [r0], #-48
     e14:	0130000d 	teqeq	r0, sp
     e18:	ac01025d 	sfmge	f0, 4, [r1], {93}
     e1c:	01000003 	tsteq	r0, r3
     e20:	000d0c51 	andeq	r0, sp, r1, asr ip
     e24:	000d8030 	andeq	r8, sp, r0, lsr r0
     e28:	025d0130 	subeqs	r0, sp, #12	; 0xc
     e2c:	00037a01 	andeq	r7, r3, r1, lsl #20
     e30:	80860100 	addhi	r0, r6, r0, lsl #2
     e34:	bc30000d 	ldclt	0, cr0, [r0], #-52
     e38:	0130000d 	teqeq	r0, sp
     e3c:	9901025d 	stmlsdb	r1, {r0, r2, r3, r4, r6, r9}
     e40:	01000003 	tsteq	r0, r3
     e44:	000dbc8f 	andeq	fp, sp, pc, lsl #25
     e48:	000de030 	andeq	lr, sp, r0, lsr r0
     e4c:	025d0130 	subeqs	r0, sp, #12	; 0xc
     e50:	00040501 	andeq	r0, r4, r1, lsl #10
     e54:	e0950100 	adds	r0, r5, r0, lsl #2
     e58:	0830000d 	ldmeqda	r0!, {r0, r2, r3}
     e5c:	0130000e 	teqeq	r0, lr
     e60:	00ee035d 	rsceq	r0, lr, sp, asr r3
     e64:	c5010000 	strgt	r0, [r1]
     e68:	01000003 	tsteq	r0, r3
     e6c:	0e0801a7 	adfeq<illegal precision>p	f0, f0, f7
     e70:	0e603000 	cdpeq	0, 6, cr3, cr0, cr0, {0}
     e74:	5d013000 	stcpl	0, cr3, [r1]
     e78:	01007804 	tsteq	r0, r4, lsl #16
     e7c:	0000eea6 	andeq	lr, r0, r6, lsr #29
     e80:	04500100 	ldreqb	r0, [r0], #-256
     e84:	a6010079 	undefined
     e88:	000000ee 	andeq	r0, r0, lr, ror #1
     e8c:	6e055101 	adfvss	f5, f5, f1
     e90:	01000003 	tsteq	r0, r3
     e94:	0000eea6 	andeq	lr, r0, r6, lsr #29
     e98:	065c0100 	ldreqb	r0, [ip], -r0, lsl #2
     e9c:	00646572 	rsbeq	r6, r4, r2, ror r5
     ea0:	00f5a801 	rsceqs	sl, r5, r1, lsl #16
     ea4:	51010000 	tstpl	r1, r0
     ea8:	00037407 	andeq	r7, r3, r7, lsl #8
     eac:	f5a80100 	strnv	r0, [r8, #256]!
     eb0:	01000000 	tsteq	r0, r0
     eb4:	034f0753 	cmpeq	pc, #21757952	; 0x14c0000
     eb8:	a8010000 	stmgeda	r1, {}
     ebc:	000000f5 	streqd	r0, [r0], -r5
     ec0:	78075301 	stmvcda	r7, {r0, r8, r9, ip, lr}
     ec4:	01000002 	tsteq	r0, r2
     ec8:	0000fcaa 	andeq	pc, r0, sl, lsr #25
     ecc:	00530100 	subeqs	r0, r3, r0, lsl #2
     ed0:	0006f508 	andeq	pc, r6, r8, lsl #10
     ed4:	08070400 	stmeqda	r7, {sl}
     ed8:	000000ba 	streqh	r0, [r0], -sl
     edc:	04090801 	streq	r0, [r9], #-2049
     ee0:	00000102 	andeq	r0, r0, r2, lsl #2
     ee4:	00033c08 	andeq	r3, r3, r8, lsl #24
     ee8:	03070200 	tsteq	r7, #0	; 0x0
     eec:	00000144 	andeq	r0, r0, r4, asr #2
     ef0:	0003ee01 	andeq	lr, r3, r1, lsl #28
     ef4:	01ba0100 	moveqs	r0, r0, lsl #2
     ef8:	30000e60 	andcc	r0, r0, r0, ror #28
     efc:	30000ecc 	andcc	r0, r0, ip, asr #29
     f00:	6e055d01 	cdpvs	13, 0, cr5, cr5, cr1, {0}
     f04:	01000003 	tsteq	r0, r3
     f08:	0000eeb9 	streqh	lr, [r0], -r9
     f0c:	06560100 	ldreqb	r0, [r6], -r0, lsl #2
     f10:	bb010078 	bllt	410f8 <DISABLE_IRQ+0x41078>
     f14:	000000ee 	andeq	r0, r0, lr, ror #1
     f18:	79065401 	stmvcdb	r6, {r0, sl, ip, lr}
     f1c:	eebb0100 	frde	f0, f3, f0
     f20:	01000000 	tsteq	r0, r0
     f24:	b3030055 	tstlt	r3, #85	; 0x55
     f28:	01000001 	tsteq	r0, r1
     f2c:	000003fb 	streqd	r0, [r0], -fp
     f30:	cc01c401 	cfstrsgt	mvf12, [r1], {1}
     f34:	2430000e 	ldrcst	r0, [r0], #-14
     f38:	0130000f 	teqeq	r0, pc
     f3c:	038b055d 	orreq	r0, fp, #390070272	; 0x17400000
     f40:	c2010000 	andgt	r0, r1, #0	; 0x0
     f44:	000000ee 	andeq	r0, r0, lr, ror #1
     f48:	d0055801 	andle	r5, r5, r1, lsl #16
     f4c:	01000003 	tsteq	r0, r3
     f50:	0000eec2 	andeq	lr, r0, r2, asr #29
     f54:	05510100 	ldreqb	r0, [r1, #-256]
     f58:	000003a6 	andeq	r0, r0, r6, lsr #7
     f5c:	00eec301 	rsceq	ip, lr, r1, lsl #6
     f60:	56010000 	strpl	r0, [r1], -r0
     f64:	0003bf05 	andeq	fp, r3, r5, lsl #30
     f68:	eec30100 	pols	f0, f3, f0
     f6c:	01000000 	tsteq	r0, r0
     f70:	036e055a 	cmneq	lr, #377487360	; 0x16800000
     f74:	c3010000 	tstgt	r1, #0	; 0x0
     f78:	000000ee 	andeq	r0, r0, lr, ror #1
     f7c:	78065701 	stmvcda	r6, {r0, r8, r9, sl, ip, lr}
     f80:	eec50100 	pols	f0, f5, f0
     f84:	01000000 	tsteq	r0, r0
     f88:	00790654 	rsbeqs	r0, r9, r4, asr r6
     f8c:	00eec501 	rsceq	ip, lr, r1, lsl #10
     f90:	55010000 	strpl	r0, [r1]
     f94:	e5010200 	str	r0, [r1, #-512]
     f98:	01000003 	tsteq	r0, r3
     f9c:	000f24cd 	andeq	r2, pc, sp, asr #9
     fa0:	000f4430 	andeq	r4, pc, r0, lsr r4
     fa4:	0a5d0130 	beq	174146c <DISABLE_IRQ+0x17413ec>
     fa8:	000003d8 	ldreqd	r0, [r0], -r8
     fac:	00ee9a01 	rsceq	r9, lr, r1, lsl #20
     fb0:	05010000 	streq	r0, [r1]
     fb4:	00475403 	subeq	r5, r7, r3, lsl #8
     fb8:	03930a30 	orreqs	r0, r3, #196608	; 0x30000
     fbc:	9b010000 	blls	40fc4 <DISABLE_IRQ+0x40f44>
     fc0:	000000ee 	andeq	r0, r0, lr, ror #1
     fc4:	50030501 	andpl	r0, r3, r1, lsl #10
     fc8:	0a300047 	beq	c010ec <DISABLE_IRQ+0xc0106c>
     fcc:	0000035a 	andeq	r0, r0, sl, asr r3
     fd0:	00ee9c01 	rsceq	r9, lr, r1, lsl #24
     fd4:	05010000 	streq	r0, [r1]
     fd8:	00474c03 	subeq	r4, r7, r3, lsl #24
     fdc:	01d40030 	biceqs	r0, r4, r0, lsr r0
     fe0:	00020000 	andeq	r0, r2, r0
     fe4:	00000695 	muleq	r0, r5, r6
     fe8:	04970104 	ldreq	r0, [r7], #260
     fec:	0fa00000 	swieq	0x00a00000
     ff0:	0f443000 	swieq	0x00443000
     ff4:	00093000 	andeq	r3, r9, r0
     ff8:	3d010000 	stccc	0, cr0, [r1]
     ffc:	31000004 	tstcc	r0, r4
    1000:	02000000 	andeq	r0, r0, #0	; 0x0
    1004:	000006f5 	streqd	r0, [r0], -r5
    1008:	55030704 	strpl	r0, [r3, #-1796]
    100c:	eb000000 	bl	1014 <DISABLE_IRQ+0xf94>
    1010:	08000000 	stmeqda	r0, {}
    1014:	3d040502 	cfstr32cc	mvfx0, [r4, #-8]
    1018:	02000001 	andeq	r0, r0, #1	; 0x1
    101c:	00005506 	andeq	r5, r0, r6, lsl #10
    1020:	00230200 	eoreq	r0, r3, r0, lsl #4
    1024:	00013804 	andeq	r3, r1, r4, lsl #16
    1028:	55070200 	strpl	r0, [r7, #-512]
    102c:	02000000 	andeq	r0, r0, #0	; 0x0
    1030:	05000423 	streq	r0, [r0, #-1059]
    1034:	00002c04 	andeq	r2, r0, r4, lsl #24
    1038:	00c30200 	sbceq	r0, r3, r0, lsl #4
    103c:	08010000 	stmeqda	r1, {}
    1040:	746e6906 	strvcbt	r6, [lr], #-2310
    1044:	02050400 	andeq	r0, r5, #0	; 0x0
    1048:	0000070c 	andeq	r0, r0, ip, lsl #14
    104c:	95070504 	strls	r0, [r7, #-1284]
    1050:	01000000 	tsteq	r0, r0
    1054:	0000044f 	andeq	r0, r0, pc, asr #8
    1058:	44010401 	strmi	r0, [r1], #-1025
    105c:	5030000f 	eorpls	r0, r0, pc
    1060:	0130000f 	teqeq	r0, pc
    1064:	0076085d 	rsbeqs	r0, r6, sp, asr r8
    1068:	03010000 	tsteq	r1, #0	; 0x0
    106c:	00000055 	andeq	r0, r0, r5, asr r0
    1070:	07005001 	streq	r5, [r0, -r1]
    1074:	000000c7 	andeq	r0, r0, r7, asr #1
    1078:	00042401 	andeq	r2, r4, r1, lsl #8
    107c:	01230100 	teqeq	r3, r0, lsl #2
    1080:	30000f50 	andcc	r0, r0, r0, asr pc
    1084:	30000f5c 	andcc	r0, r0, ip, asr pc
    1088:	3d085d01 	stccc	13, cr5, [r8, #-4]
    108c:	01000001 	tsteq	r0, r1
    1090:	00005522 	andeq	r5, r0, r2, lsr #10
    1094:	08500100 	ldmeqda	r0, {r8}^
    1098:	00000138 	andeq	r0, r0, r8, lsr r1
    109c:	00552201 	subeqs	r2, r5, r1, lsl #4
    10a0:	51010000 	tstpl	r1, r0
    10a4:	00ec0700 	rsceq	r0, ip, r0, lsl #14
    10a8:	26010000 	strcs	r0, [r1], -r0
    10ac:	01000004 	tsteq	r0, r4
    10b0:	0f5c0129 	swieq	0x005c0129
    10b4:	0f643000 	swieq	0x00643000
    10b8:	5d013000 	stcpl	0, cr3, [r1]
    10bc:	00041e08 	andeq	r1, r4, r8, lsl #28
    10c0:	55280100 	strpl	r0, [r8, #-256]!
    10c4:	01000000 	tsteq	r0, r0
    10c8:	15090050 	strne	r0, [r9, #-80]
    10cc:	01000001 	tsteq	r0, r1
    10d0:	00000413 	andeq	r0, r0, r3, lsl r4
    10d4:	62013001 	andvs	r3, r1, #1	; 0x1
    10d8:	64000000 	strvs	r0, [r0]
    10dc:	7830000f 	ldmvcda	r0!, {r0, r1, r2, r3}
    10e0:	0130000f 	teqeq	r0, pc
    10e4:	0076085d 	rsbeqs	r0, r6, sp, asr r8
    10e8:	2f010000 	swics	0x00010000
    10ec:	00000055 	andeq	r0, r0, r5, asr r0
    10f0:	07005001 	streq	r5, [r0, -r1]
    10f4:	00000154 	andeq	r0, r0, r4, asr r1
    10f8:	00044401 	andeq	r4, r4, r1, lsl #8
    10fc:	01370100 	teqeq	r7, r0, lsl #2
    1100:	30000f78 	andcc	r0, r0, r8, ror pc
    1104:	30000f8c 	andcc	r0, r0, ip, lsl #31
    1108:	6e0a5d01 	cdpvs	13, 0, cr5, cr10, cr1, {0}
    110c:	01007765 	tsteq	r0, r5, ror #14
    1110:	00005534 	andeq	r5, r0, r4, lsr r5
    1114:	08500100 	ldmeqda	r0, {r8}^
    1118:	0000013d 	andeq	r0, r0, sp, lsr r1
    111c:	00553501 	subeqs	r3, r5, r1, lsl #10
    1120:	51010000 	tstpl	r1, r0
    1124:	00013808 	andeq	r3, r1, r8, lsl #16
    1128:	55360100 	ldrpl	r0, [r6, #-256]!
    112c:	01000000 	tsteq	r0, r0
    1130:	86070052 	undefined
    1134:	01000001 	tsteq	r0, r1
    1138:	00000446 	andeq	r0, r0, r6, asr #8
    113c:	8c013f01 	stchi	15, cr3, [r1], {1}
    1140:	9430000f 	ldrlst	r0, [r0], #-15
    1144:	0130000f 	teqeq	r0, pc
    1148:	656e0a5d 	strvsb	r0, [lr, #-2653]!
    114c:	3e010077 	mcrcc	0, 0, r0, cr1, cr7, {3}
    1150:	00000055 	andeq	r0, r0, r5, asr r0
    1154:	76085001 	strvc	r5, [r8], -r1
    1158:	01000000 	tsteq	r0, r0
    115c:	0000553e 	andeq	r5, r0, lr, lsr r5
    1160:	00510100 	subeqs	r0, r1, r0, lsl #2
    1164:	0001b807 	andeq	fp, r1, r7, lsl #16
    1168:	042f0100 	streqt	r0, [pc], #256	; 1170 <DISABLE_IRQ+0x10f0>
    116c:	44010000 	strmi	r0, [r1]
    1170:	000f9401 	andeq	r9, pc, r1, lsl #8
    1174:	000fa030 	andeq	sl, pc, r0, lsr r0
    1178:	0a5d0130 	beq	1741640 <DISABLE_IRQ+0x17415c0>
    117c:	0077656e 	rsbeqs	r6, r7, lr, ror #10
    1180:	00554301 	subeqs	r4, r5, r1, lsl #6
    1184:	50010000 	andpl	r0, r1, r0
    1188:	00007608 	andeq	r7, r0, r8, lsl #12
    118c:	55430100 	strplb	r0, [r3, #-256]
    1190:	01000000 	tsteq	r0, r0
    1194:	c30b0051 	tstgt	fp, #81	; 0x51
    1198:	c3000001 	tstgt	r0, #1	; 0x1
    119c:	0c000001 	stceq	0, cr0, [r0], {1}
    11a0:	00ba0200 	adceqs	r0, sl, r0, lsl #4
    11a4:	08010000 	stmeqda	r1, {}
    11a8:	0001060d 	andeq	r0, r1, sp, lsl #12
    11ac:	b8140300 	ldmltda	r4, {r8, r9}
    11b0:	01000001 	tsteq	r0, r1
    11b4:	01000001 	tsteq	r0, r1
    11b8:	00020000 	andeq	r0, r2, r0
    11bc:	00000753 	andeq	r0, r0, r3, asr r7
    11c0:	05060104 	streq	r0, [r6, #-260]
    11c4:	10740000 	rsbnes	r0, r4, r0
    11c8:	0fa03000 	swieq	0x00a03000
    11cc:	00093000 	andeq	r3, r9, r0
    11d0:	5e010000 	cdppl	0, 0, cr0, cr1, cr0, {0}
    11d4:	31000004 	tstcc	r0, r4
    11d8:	02000000 	andeq	r0, r0, #0	; 0x0
    11dc:	0000d301 	andeq	sp, r0, r1, lsl #6
    11e0:	010f0100 	tsteq	pc, r0, lsl #2
    11e4:	30000fa0 	andcc	r0, r0, r0, lsr #31
    11e8:	30000fec 	andcc	r0, r0, ip, ror #31
    11ec:	5b035d01 	blpl	d85f8 <DISABLE_IRQ+0xd8578>
    11f0:	01000000 	tsteq	r0, r0
    11f4:	00000116 	andeq	r0, r0, r6, lsl r1
    11f8:	ec011b01 	stc	11, cr1, [r1], {1}
    11fc:	0830000f 	ldmeqda	r0!, {r0, r1, r2, r3}
    1200:	01300010 	teqeq	r0, r0, lsl r0
    1204:	0063045d 	rsbeq	r0, r3, sp, asr r4
    1208:	005b1a01 	subeqs	r1, fp, r1, lsl #20
    120c:	50010000 	andpl	r0, r1, r0
    1210:	00ba0500 	adceqs	r0, sl, r0, lsl #10
    1214:	08010000 	stmeqda	r1, {}
    1218:	00870106 	addeq	r0, r7, r6, lsl #2
    121c:	22010000 	andcs	r0, r1, #0	; 0x0
    1220:	00005b01 	andeq	r5, r0, r1, lsl #22
    1224:	00100800 	andeqs	r0, r0, r0, lsl #16
    1228:	00102030 	andeqs	r2, r0, r0, lsr r0
    122c:	035d0130 	cmpeq	sp, #12	; 0xc
    1230:	0000009c 	muleq	r0, ip, r0
    1234:	00047001 	andeq	r7, r4, r1
    1238:	01290100 	teqeq	r9, r0, lsl #2
    123c:	30001020 	andcc	r1, r0, r0, lsr #32
    1240:	30001048 	andcc	r1, r0, r8, asr #32
    1244:	73045d01 	tstvc	r4, #64	; 0x40
    1248:	9c280100 	stflss	f0, [r8]
    124c:	01000000 	tsteq	r0, r0
    1250:	04070054 	streq	r0, [r7], #-84
    1254:	0000005b 	andeq	r0, r0, fp, asr r0
    1258:	0000c908 	andeq	ip, r0, r8, lsl #18
    125c:	04590100 	ldreqb	r0, [r9], #-256
    1260:	2f010000 	swics	0x00010000
    1264:	00009c01 	andeq	r9, r0, r1, lsl #24
    1268:	00104800 	andeqs	r4, r0, r0, lsl #16
    126c:	00107430 	andeqs	r7, r0, r0, lsr r4
    1270:	045d0130 	ldreqb	r0, [sp], #-304
    1274:	2e010073 	mcrcs	0, 0, r0, cr1, cr3, {3}
    1278:	0000009c 	muleq	r0, ip, r0
    127c:	09005401 	stmeqdb	r0, {r0, sl, ip, lr}
    1280:	000000da 	ldreqd	r0, [r0], -sl
    1284:	0000005b 	andeq	r0, r0, fp, asr r0
    1288:	0000da0a 	andeq	sp, r0, sl, lsl #20
    128c:	0003ff00 	andeq	pc, r3, r0, lsl #30
    1290:	0006f505 	andeq	pc, r6, r5, lsl #10
    1294:	0b070400 	bleq	1c229c <DISABLE_IRQ+0x1c221c>
    1298:	00000465 	andeq	r0, r0, r5, ror #8
    129c:	00c90701 	sbceq	r0, r9, r1, lsl #14
    12a0:	03050000 	tsteq	r5, #0	; 0x0
    12a4:	3000885c 	andcc	r8, r0, ip, asr r8
    12a8:	0004750b 	andeq	r7, r4, fp, lsl #10
    12ac:	c9080100 	stmgtdb	r8, {r8}
    12b0:	05000000 	streq	r0, [r0]
    12b4:	008c5c03 	addeq	r5, ip, r3, lsl #24
    12b8:	03ad0030 	moveq	r0, #48	; 0x30
    12bc:	00020000 	andeq	r0, r2, r0
    12c0:	00000807 	andeq	r0, r0, r7, lsl #16
    12c4:	05540104 	ldreqb	r0, [r4, #-260]
    12c8:	13480000 	cmpne	r8, #0	; 0x0
    12cc:	10743000 	rsbnes	r3, r4, r0
    12d0:	00093000 	andeq	r3, r9, r0
    12d4:	b0010000 	andlt	r0, r1, r0
    12d8:	31000004 	tstcc	r0, r4
    12dc:	02000000 	andeq	r0, r0, #0	; 0x0
    12e0:	00000078 	andeq	r0, r0, r8, ror r0
    12e4:	000004e3 	andeq	r0, r0, r3, ror #9
    12e8:	03200244 	teqeq	r0, #1073741828	; 0x40000004
    12ec:	000004c5 	andeq	r0, r0, r5, asr #9
    12f0:	00782202 	rsbeqs	r2, r8, r2, lsl #4
    12f4:	23020000 	tstcs	r2, #0	; 0x0
    12f8:	00cd0300 	sbceq	r0, sp, r0, lsl #6
    12fc:	23020000 	tstcs	r2, #0	; 0x0
    1300:	00000096 	muleq	r0, r6, r0
    1304:	03342302 	teqeq	r4, #134217728	; 0x8000000
    1308:	0000005a 	andeq	r0, r0, sl, asr r0
    130c:	00962502 	addeqs	r2, r6, r2, lsl #10
    1310:	23020000 	tstcs	r2, #0	; 0x0
    1314:	04aa0338 	streqt	r0, [sl], #824
    1318:	26020000 	strcs	r0, [r2], -r0
    131c:	00000096 	muleq	r0, r6, r0
    1320:	033c2302 	teqeq	ip, #134217728	; 0x8000000
    1324:	000000de 	ldreqd	r0, [r0], -lr
    1328:	00d42702 	sbceqs	r2, r4, r2, lsl #14
    132c:	23020000 	tstcs	r2, #0	; 0x0
    1330:	88040040 	stmhida	r4, {r6}
    1334:	8f000000 	swihi	0x00000000
    1338:	05000000 	streq	r0, [r0]
    133c:	00000088 	andeq	r0, r0, r8, lsl #1
    1340:	f5060031 	strnv	r0, [r6, #-49]
    1344:	04000006 	streq	r0, [r0], #-6
    1348:	00c30607 	sbceq	r0, r3, r7, lsl #12
    134c:	08010000 	stmeqda	r1, {}
    1350:	0006f506 	andeq	pc, r6, r6, lsl #10
    1354:	02070400 	andeq	r0, r7, #0	; 0x0
    1358:	000000d4 	ldreqd	r0, [r0], -r4
    135c:	0000007b 	andeq	r0, r0, fp, ror r0
    1360:	0327020c 	teqeq	r7, #-1073741824	; 0xc0000000
    1364:	00000509 	andeq	r0, r0, r9, lsl #10
    1368:	00fb2c02 	rsceqs	r2, fp, r2, lsl #24
    136c:	23020000 	tstcs	r2, #0	; 0x0
    1370:	04a60300 	streqt	r0, [r6], #768
    1374:	2d020000 	stccs	0, cr0, [r2]
    1378:	00000111 	andeq	r0, r0, r1, lsl r1
    137c:	03042302 	tsteq	r4, #134217728	; 0x8000000
    1380:	000004c5 	andeq	r0, r0, r5, asr #9
    1384:	00f53002 	rsceqs	r3, r5, r2
    1388:	23020000 	tstcs	r2, #0	; 0x0
    138c:	04070008 	streq	r0, [r7], #-8
    1390:	0000009d 	muleq	r0, sp, r0
    1394:	0000ef08 	andeq	lr, r0, r8, lsl #30
    1398:	00ef0100 	rsceq	r0, pc, r0, lsl #2
    139c:	d4090000 	strle	r0, [r9]
    13a0:	09000000 	stmeqdb	r0, {}
    13a4:	000000f5 	streqd	r0, [r0], -r5
    13a8:	25040700 	strcs	r0, [r4, #-1792]
    13ac:	07000000 	streq	r0, [r0, -r0]
    13b0:	00008f04 	andeq	r8, r0, r4, lsl #30
    13b4:	da040700 	ble	102fbc <DISABLE_IRQ+0x102f3c>
    13b8:	08000000 	stmeqda	r0, {}
    13bc:	00000111 	andeq	r0, r0, r1, lsl r1
    13c0:	00009601 	andeq	r9, r0, r1, lsl #12
    13c4:	00ef0900 	rsceq	r0, pc, r0, lsl #18
    13c8:	07000000 	streq	r0, [r0, -r0]
    13cc:	00010104 	andeq	r0, r1, r4, lsl #2
    13d0:	047f0a00 	ldreqbt	r0, [pc], #2560	; 13d8 <DISABLE_IRQ+0x1358>
    13d4:	d5030000 	strle	r0, [r3]
    13d8:	00000096 	muleq	r0, r6, r0
    13dc:	0000ba06 	andeq	fp, r0, r6, lsl #20
    13e0:	06080100 	streq	r0, [r8], -r0, lsl #2
    13e4:	0000033c 	andeq	r0, r0, ip, lsr r3
    13e8:	83020702 	tsthi	r2, #524288	; 0x80000
    13ec:	dd000001 	stcle	0, cr0, [r0, #-4]
    13f0:	10000004 	andne	r0, r0, r4
    13f4:	38031201 	stmccda	r3, {r0, r9, ip}
    13f8:	01000001 	tsteq	r0, r1
    13fc:	00009613 	andeq	r9, r0, r3, lsl r6
    1400:	00230200 	eoreq	r0, r3, r0, lsl #4
    1404:	0004d303 	andeq	sp, r4, r3, lsl #6
    1408:	96140100 	ldrls	r0, [r4], -r0, lsl #2
    140c:	02000000 	andeq	r0, r0, #0	; 0x0
    1410:	f7030423 	strnv	r0, [r3, -r3, lsr #8]
    1414:	01000004 	tsteq	r0, r4
    1418:	00009615 	andeq	r9, r0, r5, lsl r6
    141c:	08230200 	stmeqda	r3!, {r9}
    1420:	00049703 	andeq	r9, r4, r3, lsl #14
    1424:	96160100 	ldrls	r0, [r6], -r0, lsl #2
    1428:	02000000 	andeq	r0, r0, #0	; 0x0
    142c:	c5030c23 	strgt	r0, [r3, #-3107]
    1430:	01000004 	tsteq	r0, r4
    1434:	00018317 	andeq	r8, r1, r7, lsl r3
    1438:	10230200 	eorne	r0, r3, r0, lsl #4
    143c:	01920400 	orreqs	r0, r2, r0, lsl #8
    1440:	008f0000 	addeq	r0, pc, r0
    1444:	880b0000 	stmhida	fp, {}
    1448:	00000000 	andeq	r0, r0, r0
    144c:	0001db0c 	andeq	sp, r1, ip, lsl #22
    1450:	00048c00 	andeq	r8, r4, r0, lsl #24
    1454:	01270100 	teqeq	r7, r0, lsl #2
    1458:	000000f5 	streqd	r0, [r0], -r5
    145c:	30001074 	andcc	r1, r0, r4, ror r0
    1460:	300010c8 	andcc	r1, r0, r8, asr #1
    1464:	740d5d01 	strvc	r5, [sp], #-3329
    1468:	0100706d 	tsteq	r0, sp, rrx
    146c:	0000f527 	andeq	pc, r0, r7, lsr #10
    1470:	0d560100 	ldfeqe	f0, [r6]
    1474:	00726964 	rsbeqs	r6, r2, r4, ror #18
    1478:	00f52701 	rsceqs	r2, r5, r1, lsl #14
    147c:	54010000 	strpl	r0, [r1]
    1480:	01006e0e 	tsteq	r0, lr, lsl #28
    1484:	00009628 	andeq	r9, r0, r8, lsr #12
    1488:	0f520100 	swieq	0x00520100
    148c:	29010070 	stmcsdb	r1, {r4, r5, r6}
    1490:	000000f5 	streqd	r0, [r0], -r5
    1494:	021e1000 	andeqs	r1, lr, #0	; 0x0
    1498:	a0010000 	andge	r0, r1, r0
    149c:	01000004 	tsteq	r0, r4
    14a0:	00960146 	addeqs	r0, r6, r6, asr #2
    14a4:	10c80000 	sbcne	r0, r8, r0
    14a8:	110c3000 	tstne	ip, r0
    14ac:	5d013000 	stcpl	0, cr3, [r1]
    14b0:	0004e411 	andeq	lr, r4, r1, lsl r4
    14b4:	ef460100 	swi	0x00460100
    14b8:	01000000 	tsteq	r0, r0
    14bc:	04f21254 	ldreqbt	r1, [r2], #596
    14c0:	47010000 	strmi	r0, [r1, -r0]
    14c4:	0000021e 	andeq	r0, r0, lr, lsl r2
    14c8:	01220113 	teqeq	r2, r3, lsl r1
    14cc:	49010000 	stmmidb	r1, {}
    14d0:	0000021e 	andeq	r0, r0, lr, lsl r2
    14d4:	00001401 	andeq	r1, r0, r1, lsl #8
    14d8:	746e6915 	strvcbt	r6, [lr], #-2325
    14dc:	16050400 	strne	r0, [r5], -r0, lsl #8
    14e0:	0000034c 	andeq	r0, r0, ip, asr #6
    14e4:	0004fc01 	andeq	pc, r4, r1, lsl #24
    14e8:	01520100 	cmpeq	r2, r0, lsl #2
    14ec:	3000110c 	andcc	r1, r0, ip, lsl #2
    14f0:	30001348 	andcc	r1, r0, r8, asr #6
    14f4:	e3115d01 	tst	r1, #64	; 0x40
    14f8:	01000004 	tsteq	r0, r4
    14fc:	0000ef51 	andeq	lr, r0, r1, asr pc
    1500:	08910200 	ldmeqia	r1, {r9}
    1504:	00008111 	andeq	r8, r0, r1, lsl r1
    1508:	d4510100 	ldrleb	r0, [r1], #-256
    150c:	01000000 	tsteq	r0, r0
    1510:	69640d51 	stmvsdb	r4!, {r0, r4, r6, r8, sl, fp}^
    1514:	51010072 	tstpl	r1, r2, ror r0
    1518:	000000f5 	streqd	r0, [r0], -r5
    151c:	0e049102 	mvfeqs	f1, f2
    1520:	55010070 	strpl	r0, [r1, #-112]
    1524:	0000034c 	andeq	r0, r0, ip, asr #6
    1528:	740e5b01 	strvc	r5, [lr], #-2817
    152c:	0100706d 	tsteq	r0, sp, rrx
    1530:	00009657 	andeq	r9, r0, r7, asr r6
    1534:	17560100 	ldrneb	r0, [r6, -r0, lsl #2]
    1538:	00000138 	andeq	r0, r0, r8, lsr r1
    153c:	00965701 	addeqs	r5, r6, r1, lsl #14
    1540:	54010000 	strpl	r0, [r1]
    1544:	6d756e0f 	ldcvsl	14, cr6, [r5, #-60]!
    1548:	96570100 	ldrlsb	r0, [r7], -r0, lsl #2
    154c:	17000000 	strne	r0, [r0, -r0]
    1550:	000004c5 	andeq	r0, r0, r5, asr #9
    1554:	03525801 	cmpeq	r2, #65536	; 0x10000
    1558:	91030000 	tstls	r3, r0
    155c:	8617018c 	ldrhi	r0, [r7], -ip, lsl #3
    1560:	01000004 	tsteq	r0, r4
    1564:	00035258 	andeq	r5, r3, r8, asr r2
    1568:	0c910200 	lfmeq	f0, 4, [r1], {0}
    156c:	0002c518 	andeq	ip, r2, r8, lsl r5
    1570:	01220100 	teqeq	r2, r0, lsl #2
    1574:	49010000 	stmmidb	r1, {}
    1578:	0000021e 	andeq	r0, r0, lr, lsl r2
    157c:	19001401 	stmnedb	r0, {r0, sl, ip}
    1580:	0000050f 	andeq	r0, r0, pc, lsl #10
    1584:	12c0bd01 	sbcne	fp, r0, #64	; 0x40
    1588:	e9193000 	ldmdb	r9, {ip, sp}
    158c:	01000004 	tsteq	r0, r4
    1590:	001348a6 	andeqs	r4, r3, r6, lsr #17
    1594:	030b1a30 	tsteq	fp, #196608	; 0x30000
    1598:	03620000 	cmneq	r2, #0	; 0x0
    159c:	11280000 	teqne	r8, r0
    15a0:	11683000 	cmnne	r8, r0
    15a4:	731b3000 	tstvc	fp, #0	; 0x0
    15a8:	1b000003 	blne	15bc <DISABLE_IRQ+0x153c>
    15ac:	0000037c 	andeq	r0, r0, ip, ror r3
    15b0:	0000801c 	andeq	r8, r0, ip, lsl r0
    15b4:	03871d00 	orreq	r1, r7, #0	; 0x0
    15b8:	52010000 	andpl	r0, r1, #0	; 0x0
    15bc:	0003921d 	andeq	r9, r3, sp, lsl r2
    15c0:	005c0100 	subeqs	r0, ip, r0, lsl #2
    15c4:	032f1e00 	teqeq	pc, #0	; 0x0
    15c8:	125c0000 	subnes	r0, ip, #0	; 0x0
    15cc:	12683000 	rsbne	r3, r8, #0	; 0x0
    15d0:	15123000 	ldrne	r3, [r2]
    15d4:	01000005 	tsteq	r0, r5
    15d8:	0001178f 	andeq	r1, r1, pc, lsl #15
    15dc:	04ca1200 	streqb	r1, [sl], #512
    15e0:	8f010000 	swihi	0x00010000
    15e4:	00000117 	andeq	r0, r0, r7, lsl r1
    15e8:	00981c00 	addeqs	r1, r8, r0, lsl #24
    15ec:	15120000 	ldrne	r0, [r2]
    15f0:	01000005 	tsteq	r0, r5
    15f4:	00011790 	muleq	r1, r0, r7
    15f8:	04ca1200 	streqb	r1, [sl], #512
    15fc:	90010000 	andls	r0, r1, r0
    1600:	00000117 	andeq	r0, r0, r7, lsl r1
    1604:	04070000 	streq	r0, [r7]
    1608:	00000130 	andeq	r0, r0, r0, lsr r1
    160c:	00036204 	andeq	r6, r3, r4, lsl #4
    1610:	00008f00 	andeq	r8, r0, r0, lsl #30
    1614:	00880500 	addeq	r0, r8, r0, lsl #10
    1618:	007f0000 	rsbeqs	r0, pc, r0
    161c:	00039e1f 	andeq	r9, r3, pc, lsl lr
    1620:	0004b800 	andeq	fp, r4, r0, lsl #16
    1624:	01340100 	teqeq	r4, r0, lsl #2
    1628:	000000f5 	streqd	r0, [r0], -r5
    162c:	00702001 	rsbeqs	r2, r0, r1
    1630:	00f53401 	rsceqs	r3, r5, r1, lsl #8
    1634:	c5210000 	strgt	r0, [r1]!
    1638:	01000004 	tsteq	r0, r4
    163c:	0000f534 	andeq	pc, r0, r4, lsr r5
    1640:	6d740f00 	ldcvsl	15, cr0, [r4]
    1644:	35010070 	strcc	r0, [r1, #-112]
    1648:	000000f5 	streqd	r0, [r0], -r5
    164c:	00049112 	andeq	r9, r4, r2, lsl r1
    1650:	1e360100 	rsfnes	f0, f6, f0
    1654:	00000002 	andeq	r0, r0, r2
    1658:	0004d822 	andeq	sp, r4, r2, lsr #16
    165c:	304f0100 	subcc	r0, pc, r0, lsl #2
    1660:	01000001 	tsteq	r0, r1
    1664:	98680305 	stmlsda	r8!, {r0, r2, r8, r9}^
    1668:	16003000 	strne	r3, [r0], -r0
    166c:	02000007 	andeq	r0, r0, #7	; 0x7
    1670:	0009d000 	andeq	sp, r9, r0
    1674:	6c010400 	cfstrsvs	mvf0, [r1], {0}
    1678:	d4000006 	strle	r0, [r0], #-6
    167c:	48300021 	ldmmida	r0!, {r0, r5}
    1680:	09300013 	ldmeqdb	r0!, {r0, r1, r4}
    1684:	01000000 	tsteq	r0, r0
    1688:	000005d4 	ldreqd	r0, [r0], -r4
    168c:	00000031 	andeq	r0, r0, r1, lsr r0
    1690:	00009402 	andeq	r9, r0, r2, lsl #8
    1694:	00056400 	andeq	r6, r5, r0, lsl #8
    1698:	27022c00 	strcs	r2, [r2, -r0, lsl #24]
    169c:	00051e03 	andeq	r1, r5, r3, lsl #28
    16a0:	94280200 	strlst	r0, [r8], #-512
    16a4:	02000000 	andeq	r0, r0, #0	; 0x0
    16a8:	5c030023 	stcpl	0, cr0, [r3], {35}
    16ac:	02000005 	andeq	r0, r0, #5	; 0x5
    16b0:	00009429 	andeq	r9, r0, r9, lsr #8
    16b4:	01230200 	teqeq	r3, r0, lsl #4
    16b8:	0005c503 	andeq	ip, r5, r3, lsl #10
    16bc:	9b2a0200 	blls	a81ec4 <DISABLE_IRQ+0xa81e44>
    16c0:	02000000 	andeq	r0, r0, #0	; 0x0
    16c4:	57030223 	strpl	r0, [r3, -r3, lsr #4]
    16c8:	02000006 	andeq	r0, r0, #6	; 0x6
    16cc:	0000a22b 	andeq	sl, r0, fp, lsr #4
    16d0:	04230200 	streqt	r0, [r3], #-512
    16d4:	00058e03 	andeq	r8, r5, r3, lsl #28
    16d8:	b92c0200 	stmltdb	ip!, {r9}
    16dc:	02000000 	andeq	r0, r0, #0	; 0x0
    16e0:	97031423 	strls	r1, [r3, -r3, lsr #8]
    16e4:	02000005 	andeq	r0, r0, #5	; 0x5
    16e8:	0000c92d 	andeq	ip, r0, sp, lsr #18
    16ec:	24230200 	strcst	r0, [r3], #-512
    16f0:	00052603 	andeq	r2, r5, r3, lsl #12
    16f4:	c92e0200 	stmgtdb	lr!, {r9}
    16f8:	02000000 	andeq	r0, r0, #0	; 0x0
    16fc:	04002823 	streq	r2, [r0], #-2083
    1700:	000000ba 	streqh	r0, [r0], -sl
    1704:	3c040801 	stccc	8, cr0, [r4], {1}
    1708:	02000003 	andeq	r0, r0, #3	; 0x3
    170c:	00b20507 	adceqs	r0, r2, r7, lsl #10
    1710:	00940000 	addeqs	r0, r4, r0
    1714:	b2060000 	andlt	r0, r6, #0	; 0x0
    1718:	0f000000 	swieq	0x00000000
    171c:	06f50400 	ldreqbt	r0, [r5], r0, lsl #8
    1720:	07040000 	streq	r0, [r4, -r0]
    1724:	0000c905 	andeq	ip, r0, r5, lsl #18
    1728:	0000c900 	andeq	ip, r0, r0, lsl #18
    172c:	00b20600 	adceqs	r0, r2, r0, lsl #12
    1730:	00030000 	andeq	r0, r3, r0
    1734:	0006f504 	andeq	pc, r6, r4, lsl #10
    1738:	04070400 	streq	r0, [r7], #-1024
    173c:	000000c3 	andeq	r0, r0, r3, asr #1
    1740:	6d070801 	stcvs	8, cr0, [r7, #-4]
    1744:	01000001 	tsteq	r0, r1
    1748:	0000056c 	andeq	r0, r0, ip, ror #10
    174c:	c901f101 	stmgtdb	r1, {r0, r8, ip, sp, lr, pc}
    1750:	48000000 	stmmida	r0, {}
    1754:	4c300013 	ldcmi	0, cr0, [r0], #-76
    1758:	01300014 	teqeq	r0, r4, lsl r0
    175c:	6d63085d 	stcvsl	8, cr0, [r3, #-372]!
    1760:	f0010064 	andnv	r0, r1, r4, rrx
    1764:	0000016d 	andeq	r0, r0, sp, ror #2
    1768:	2c095001 	stccs	0, cr5, [r9], {1}
    176c:	01000006 	tsteq	r0, r6
    1770:	00016df0 	streqd	r6, [r1], -r0
    1774:	0a510100 	beq	1441b7c <DISABLE_IRQ+0x1441afc>
    1778:	0000053a 	andeq	r0, r0, sl, lsr r5
    177c:	016df201 	msreq	SPSR_fsc, r1, lsl #4
    1780:	52010000 	andpl	r0, r1, #0	; 0x0
    1784:	0001360b 	andeq	r3, r1, fp, lsl #12
    1788:	00135400 	andeqs	r5, r3, r0, lsl #8
    178c:	00138030 	andeqs	r8, r3, r0, lsr r0
    1790:	22010c30 	andcs	r0, r1, #12288	; 0x3000
    1794:	01000001 	tsteq	r0, r1
    1798:	00016d4a 	andeq	r6, r1, sl, asr #26
    179c:	000d0100 	andeq	r0, sp, r0, lsl #2
    17a0:	01530b00 	cmpeq	r3, r0, lsl #22
    17a4:	13f00000 	mvnnes	r0, #0	; 0x0
    17a8:	14043000 	strne	r3, [r4]
    17ac:	010c3000 	tsteq	ip, r0
    17b0:	00000122 	andeq	r0, r0, r2, lsr #2
    17b4:	016d4a01 	cmneq	sp, r1, lsl #20
    17b8:	0d010000 	stceq	0, cr0, [r1]
    17bc:	300e0000 	andcc	r0, lr, r0
    17c0:	4c300014 	ldcmi	0, cr0, [r0], #-80
    17c4:	0c300014 	ldceq	0, cr0, [r0], #-80
    17c8:	00012201 	andeq	r2, r1, r1, lsl #4
    17cc:	6d4a0100 	stfvse	f0, [sl]
    17d0:	01000001 	tsteq	r0, r1
    17d4:	0000000d 	andeq	r0, r0, sp
    17d8:	746e690f 	strvcbt	r6, [lr], #-2319
    17dc:	10050400 	andne	r0, r5, r0, lsl #8
    17e0:	0000019f 	muleq	r0, pc, r1
    17e4:	0005a901 	andeq	sl, r5, r1, lsl #18
    17e8:	01b80100 	moveqs	r0, r0, lsl #2
    17ec:	00009b01 	andeq	r9, r0, r1, lsl #22
    17f0:	00144c00 	andeqs	r4, r4, r0, lsl #24
    17f4:	00149430 	andeqs	r9, r4, r0, lsr r4
    17f8:	115d0130 	cmpne	sp, r0, lsr r1
    17fc:	000005c7 	andeq	r0, r0, r7, asr #11
    1800:	9b01b701 	blls	6f40c <DISABLE_IRQ+0x6f38c>
    1804:	01000000 	tsteq	r0, r0
    1808:	d8100050 	ldmleda	r0, {r4, r6}
    180c:	01000001 	tsteq	r0, r1
    1810:	00000639 	andeq	r0, r0, r9, lsr r6
    1814:	01019b01 	tsteq	r1, r1, lsl #22
    1818:	00000094 	muleq	r0, r4, r0
    181c:	30001494 	mulcc	r0, r4, r4
    1820:	300014f0 	strccd	r1, [r0], -r0
    1824:	c7115d01 	ldrgt	r5, [r1, -r1, lsl #26]
    1828:	01000005 	tsteq	r0, r5
    182c:	009b019a 	umulleqs	r0, fp, sl, r1
    1830:	50010000 	andpl	r0, r1, r0
    1834:	00069b11 	andeq	r9, r6, r1, lsl fp
    1838:	019a0100 	orreqs	r0, sl, r0, lsl #2
    183c:	000001d8 	ldreqd	r0, [r0], -r8
    1840:	12005501 	andne	r5, r0, #4194304	; 0x400000
    1844:	0000c904 	andeq	ip, r0, r4, lsl #18
    1848:	02171000 	andeqs	r1, r7, #0	; 0x0
    184c:	27010000 	strcs	r0, [r1, -r0]
    1850:	01000006 	tsteq	r0, r6
    1854:	94010167 	strls	r0, [r1], #-359
    1858:	f0000000 	andnv	r0, r0, r0
    185c:	74300014 	ldrvct	r0, [r0], #-20
    1860:	01300015 	teqeq	r0, r5, lsl r0
    1864:	05af115d 	streq	r1, [pc, #349]!	; 19c9 <DISABLE_IRQ+0x1949>
    1868:	66010000 	strvs	r0, [r1], -r0
    186c:	00009b01 	andeq	r9, r0, r1, lsl #22
    1870:	11560100 	cmpne	r6, r0, lsl #2
    1874:	000005c7 	andeq	r0, r0, r7, asr #11
    1878:	17016601 	strne	r6, [r1, -r1, lsl #12]
    187c:	01000002 	tsteq	r0, r2
    1880:	04120055 	ldreq	r0, [r2], #-85
    1884:	0000009b 	muleq	r0, fp, r0
    1888:	00024810 	andeq	r4, r2, r0, lsl r8
    188c:	06220100 	streqt	r0, [r2], -r0, lsl #2
    1890:	4b010000 	blmi	41898 <DISABLE_IRQ+0x41818>
    1894:	00940101 	addeqs	r0, r4, r1, lsl #2
    1898:	15740000 	ldrneb	r0, [r4]!
    189c:	16683000 	strnebt	r3, [r8], -r0
    18a0:	5d013000 	stcpl	0, cr3, [r1]
    18a4:	0006ab11 	andeq	sl, r6, r1, lsl fp
    18a8:	014a0100 	cmpeq	sl, r0, lsl #2
    18ac:	00000248 	andeq	r0, r0, r8, asr #4
    18b0:	12005401 	andne	r5, r0, #16777216	; 0x1000000
    18b4:	00009404 	andeq	r9, r0, r4, lsl #8
    18b8:	18011300 	stmneda	r1, {r8, r9, ip}
    18bc:	01000006 	tsteq	r0, r6
    18c0:	6801012e 	stmvsda	r1, {r1, r2, r3, r5, r8}
    18c4:	98300016 	ldmlsda	r0!, {r1, r2, r4}
    18c8:	01300016 	teqeq	r0, r6, lsl r0
    18cc:	1d01145d 	cfstrsne	mvf1, [r1, #-372]
    18d0:	01000006 	tsteq	r0, r6
    18d4:	94010138 	strls	r0, [r1], #-312
    18d8:	98000000 	stmlsda	r0, {}
    18dc:	f0300016 	eornvs	r0, r0, r6, lsl r0
    18e0:	01300016 	teqeq	r0, r6, lsl r0
    18e4:	02a3105d 	adceq	r1, r3, #93	; 0x5d
    18e8:	3e010000 	cdpcc	0, 0, cr0, cr1, cr0, {0}
    18ec:	01000006 	tsteq	r0, r6
    18f0:	c901022c 	stmgtdb	r1, {r2, r3, r5, r9}
    18f4:	f0000000 	andnv	r0, r0, r0
    18f8:	1c300016 	ldcne	0, cr0, [r0], #-88
    18fc:	01300017 	teqeq	r0, r7, lsl r0
    1900:	0069155d 	rsbeq	r1, r9, sp, asr r5
    1904:	6d022d01 	stcvs	13, cr2, [r2, #-4]
    1908:	01000001 	tsteq	r0, r1
    190c:	dc100054 	ldcle	0, cr0, [r0], {84}
    1910:	01000002 	tsteq	r0, r2
    1914:	00000634 	andeq	r0, r0, r4, lsr r6
    1918:	01017f01 	tsteq	r1, r1, lsl #30
    191c:	00000094 	muleq	r0, r4, r0
    1920:	3000171c 	andcc	r1, r0, ip, lsl r7
    1924:	300017b0 	strcch	r1, [r0], -r0
    1928:	70115d01 	andvcs	r5, r1, r1, lsl #26
    192c:	01000006 	tsteq	r0, r6
    1930:	0094017e 	addeqs	r0, r4, lr, ror r1
    1934:	52010000 	andpl	r0, r1, #0	; 0x0
    1938:	0005c711 	andeq	ip, r5, r1, lsl r7
    193c:	017e0100 	cmneq	lr, r0, lsl #2
    1940:	0000009b 	muleq	r0, fp, r0
    1944:	10005301 	andne	r5, r0, r1, lsl #6
    1948:	00000315 	andeq	r0, r0, r5, lsl r3
    194c:	00054901 	andeq	r4, r5, r1, lsl #18
    1950:	02480100 	subeq	r0, r8, #0	; 0x0
    1954:	00009401 	andeq	r9, r0, r1, lsl #8
    1958:	0017b000 	andeqs	fp, r7, r0
    195c:	0017d030 	andeqs	sp, r7, r0, lsr r0
    1960:	115d0130 	cmpne	sp, r0, lsr r1
    1964:	000005fc 	streqd	r0, [r0], -ip
    1968:	94024701 	strls	r4, [r2], #-1793
    196c:	01000000 	tsteq	r0, r0
    1970:	060f1150 	undefined
    1974:	47010000 	strmi	r0, [r1, -r0]
    1978:	00009b02 	andeq	r9, r0, r2, lsl #22
    197c:	00510100 	subeqs	r0, r1, r0, lsl #2
    1980:	05a30114 	streq	r0, [r3, #276]!
    1984:	ab010000 	blge	4198c <DISABLE_IRQ+0x4190c>
    1988:	00940101 	addeqs	r0, r4, r1, lsl #2
    198c:	17d00000 	ldrneb	r0, [r0, r0]
    1990:	18083000 	stmneda	r8, {ip, sp}
    1994:	5d013000 	stcpl	0, cr3, [r1]
    1998:	00035810 	andeq	r5, r3, r0, lsl r8
    199c:	05b90100 	ldreq	r0, [r9, #256]!
    19a0:	c5010000 	strgt	r0, [r1]
    19a4:	00940101 	addeqs	r0, r4, r1, lsl #2
    19a8:	18080000 	stmneda	r8, {}
    19ac:	183c3000 	ldmneda	ip!, {ip, sp}
    19b0:	5d013000 	stcpl	0, cr3, [r1]
    19b4:	00027811 	andeq	r7, r2, r1, lsl r8
    19b8:	01c40100 	biceq	r0, r4, r0, lsl #2
    19bc:	000000c9 	andeq	r0, r0, r9, asr #1
    19c0:	10005c01 	andne	r5, r0, r1, lsl #24
    19c4:	00000383 	andeq	r0, r0, r3, lsl #7
    19c8:	0005bf01 	andeq	fp, r5, r1, lsl #30
    19cc:	01d20100 	biceqs	r0, r2, r0, lsl #2
    19d0:	00009401 	andeq	r9, r0, r1, lsl #8
    19d4:	00183c00 	andeqs	r3, r8, r0, lsl #24
    19d8:	00187030 	andeqs	r7, r8, r0, lsr r0
    19dc:	115d0130 	cmpne	sp, r0, lsr r1
    19e0:	00000278 	andeq	r0, r0, r8, ror r2
    19e4:	c901d101 	stmgtdb	r1, {r0, r8, ip, lr, pc}
    19e8:	01000000 	tsteq	r0, r0
    19ec:	e410005c 	ldr	r0, [r0], #-92
    19f0:	01000003 	tsteq	r0, r3
    19f4:	00000045 	andeq	r0, r0, r5, asr #32
    19f8:	01026501 	tsteq	r2, r1, lsl #10
    19fc:	00000094 	muleq	r0, r4, r0
    1a00:	30001870 	andcc	r1, r0, r0, ror r8
    1a04:	30001998 	mulcc	r0, r8, r9
    1a08:	62165d01 	andvss	r5, r6, #64	; 0x40
    1a0c:	01006675 	tsteq	r0, r5, ror r6
    1a10:	01d80264 	biceqs	r0, r8, r4, ror #4
    1a14:	5a010000 	bpl	41a1c <DISABLE_IRQ+0x4199c>
    1a18:	00027811 	andeq	r7, r2, r1, lsl r8
    1a1c:	02640100 	rsbeq	r0, r4, #0	; 0x0
    1a20:	000000c9 	andeq	r0, r0, r9, asr #1
    1a24:	8b115501 	blhi	456e30 <DISABLE_IRQ+0x456db0>
    1a28:	01000006 	tsteq	r0, r6
    1a2c:	00c90264 	sbceq	r0, r9, r4, ror #4
    1a30:	58010000 	stmplda	r1, {}
    1a34:	01006915 	tsteq	r0, r5, lsl r9
    1a38:	00c90266 	sbceq	r0, r9, r6, ror #4
    1a3c:	57010000 	strpl	r0, [r1, -r0]
    1a40:	00054217 	andeq	r4, r5, r7, lsl r2
    1a44:	02670100 	rsbeq	r0, r7, #0	; 0x0
    1a48:	000000c9 	andeq	r0, r0, r9, asr #1
    1a4c:	10005301 	andne	r5, r0, r1, lsl #6
    1a50:	0000040f 	andeq	r0, r0, pc, lsl #8
    1a54:	00069501 	andeq	r9, r6, r1, lsl #10
    1a58:	01df0100 	biceqs	r0, pc, r0, lsl #2
    1a5c:	00009401 	andeq	r9, r0, r1, lsl #8
    1a60:	00199800 	andeqs	r9, r9, r0, lsl #16
    1a64:	0019c830 	andeqs	ip, r9, r0, lsr r8
    1a68:	115d0130 	cmpne	sp, r0, lsr r1
    1a6c:	00000278 	andeq	r0, r0, r8, ror r2
    1a70:	c901de01 	stmgtdb	r1, {r0, r9, sl, fp, ip, lr, pc}
    1a74:	01000000 	tsteq	r0, r0
    1a78:	3a10005c 	bcc	401bf0 <DISABLE_IRQ+0x401b70>
    1a7c:	01000004 	tsteq	r0, r4
    1a80:	00000651 	andeq	r0, r0, r1, asr r6
    1a84:	0101ec01 	tsteq	r1, r1, lsl #24
    1a88:	00000094 	muleq	r0, r4, r0
    1a8c:	300019c8 	andcc	r1, r0, r8, asr #19
    1a90:	300019fc 	strccd	r1, [r0], -ip
    1a94:	78115d01 	ldmvcda	r1, {r0, r8, sl, fp, ip, lr}
    1a98:	01000002 	tsteq	r0, r2
    1a9c:	00c901eb 	sbceq	r0, r9, fp, ror #3
    1aa0:	5c010000 	stcpl	0, cr0, [r1], {0}
    1aa4:	049b1000 	ldreq	r1, [fp]
    1aa8:	60010000 	andvs	r0, r1, r0
    1aac:	01000006 	tsteq	r0, r6
    1ab0:	940102a3 	strls	r0, [r1], #-675
    1ab4:	fc000000 	stc2	0, cr0, [r0], {0}
    1ab8:	e8300019 	ldmda	r0!, {r0, r3, r4}
    1abc:	0130001a 	teqeq	r0, sl, lsl r0
    1ac0:	7562165d 	strvcb	r1, [r2, #-1629]!
    1ac4:	a2010066 	andge	r0, r1, #102	; 0x66
    1ac8:	0001d802 	andeq	sp, r1, r2, lsl #16
    1acc:	11580100 	cmpne	r8, r0, lsl #2
    1ad0:	00000278 	andeq	r0, r0, r8, ror r2
    1ad4:	c902a201 	stmgtdb	r2, {r0, r9, sp, pc}
    1ad8:	01000000 	tsteq	r0, r0
    1adc:	068b1154 	pkhtbeq	r1, fp, r4, ASR #2
    1ae0:	a2010000 	andge	r0, r1, #0	; 0x0
    1ae4:	0000c902 	andeq	ip, r0, r2, lsl #18
    1ae8:	155a0100 	ldrneb	r0, [sl, #-256]
    1aec:	a4010069 	strge	r0, [r1], #-105
    1af0:	00009b02 	andeq	r9, r0, r2, lsl #22
    1af4:	17550100 	ldrneb	r0, [r5, -r0, lsl #2]
    1af8:	00000542 	andeq	r0, r0, r2, asr #10
    1afc:	c902a501 	stmgtdb	r2, {r0, r8, sl, sp, pc}
    1b00:	01000000 	tsteq	r0, r0
    1b04:	c6100051 	undefined
    1b08:	01000004 	tsteq	r0, r4
    1b0c:	000005ed 	andeq	r0, r0, sp, ror #11
    1b10:	0101f901 	tsteqp	r1, r1, lsl #18
    1b14:	00000094 	muleq	r0, r4, r0
    1b18:	30001ae8 	andcc	r1, r0, r8, ror #21
    1b1c:	30001b24 	andcc	r1, r0, r4, lsr #22
    1b20:	c7115d01 	ldrgt	r5, [r1, -r1, lsl #26]
    1b24:	01000005 	tsteq	r0, r5
    1b28:	009b01f8 	ldreqsh	r0, [fp], r8
    1b2c:	50010000 	andpl	r0, r1, r0
    1b30:	04ff1000 	ldreqbt	r1, [pc], #0	; 1b38 <DISABLE_IRQ+0x1ab8>
    1b34:	88010000 	stmhida	r1, {}
    1b38:	01000005 	tsteq	r0, r5
    1b3c:	94010205 	strls	r0, [r1], #-517
    1b40:	24000000 	strcs	r0, [r0]
    1b44:	9030001b 	eorlss	r0, r0, fp, lsl r0
    1b48:	0130001b 	teqeq	r0, fp, lsl r0
    1b4c:	057f115d 	ldreqb	r1, [pc, #-349]!	; 19f7 <DISABLE_IRQ+0x1977>
    1b50:	04010000 	streq	r0, [r1]
    1b54:	00009402 	andeq	r9, r0, r2, lsl #8
    1b58:	11540100 	cmpne	r4, r0, lsl #2
    1b5c:	000005c7 	andeq	r0, r0, r7, asr #11
    1b60:	9b020401 	blls	82b6c <DISABLE_IRQ+0x82aec>
    1b64:	01000000 	tsteq	r0, r0
    1b68:	46100051 	undefined
    1b6c:	01000005 	tsteq	r0, r5
    1b70:	00000676 	andeq	r0, r0, r6, ror r6
    1b74:	01025101 	tsteq	r2, r1, lsl #2
    1b78:	00000094 	muleq	r0, r4, r0
    1b7c:	30001b90 	mulcc	r0, r0, fp
    1b80:	30001bc8 	andcc	r1, r0, r8, asr #23
    1b84:	30115d01 	andccs	r5, r1, r1, lsl #26
    1b88:	01000005 	tsteq	r0, r5
    1b8c:	00940250 	addeqs	r0, r4, r0, asr r2
    1b90:	50010000 	andpl	r0, r1, r0
    1b94:	00057e11 	andeq	r7, r5, r1, lsl lr
    1b98:	02500100 	subeqs	r0, r0, #0	; 0x0
    1b9c:	00000094 	muleq	r0, r4, r0
    1ba0:	c7115101 	ldrgt	r5, [r1, -r1, lsl #2]
    1ba4:	01000005 	tsteq	r0, r5
    1ba8:	009b0250 	addeqs	r0, fp, r0, asr r2
    1bac:	52010000 	andpl	r0, r1, #0	; 0x0
    1bb0:	057f1000 	ldreqb	r1, [pc, #0]!	; 1bb8 <DISABLE_IRQ+0x1b38>
    1bb4:	84010000 	strhi	r0, [r1]
    1bb8:	01000006 	tsteq	r0, r6
    1bbc:	94010214 	strls	r0, [r1], #-532
    1bc0:	c8000000 	stmgtda	r0, {}
    1bc4:	8030001b 	eorhis	r0, r0, fp, lsl r0
    1bc8:	0130001c 	teqeq	r0, ip, lsl r0
    1bcc:	05c7115d 	streqb	r1, [r7, #349]
    1bd0:	13010000 	tstne	r1, #0	; 0x0
    1bd4:	00009b02 	andeq	r9, r0, r2, lsl #22
    1bd8:	17500100 	ldrneb	r0, [r0, -r0, lsl #2]
    1bdc:	000005cc 	andeq	r0, r0, ip, asr #11
    1be0:	94021501 	strls	r1, [r2], #-1281
    1be4:	01000000 	tsteq	r0, r0
    1be8:	a4180050 	ldrge	r0, [r8], #-80
    1bec:	01000005 	tsteq	r0, r5
    1bf0:	000006a0 	andeq	r0, r0, r0, lsr #13
    1bf4:	0102ce01 	tsteq	r2, r1, lsl #28
    1bf8:	30001c80 	andcc	r1, r0, r0, lsl #25
    1bfc:	30001c8c 	andcc	r1, r0, ip, lsl #25
    1c00:	69165d01 	ldmvsdb	r6, {r0, r8, sl, fp, ip, lr}
    1c04:	02cd0100 	sbceq	r0, sp, #0	; 0x0
    1c08:	000000c9 	andeq	r0, r0, r9, asr #1
    1c0c:	10005001 	andne	r5, r0, r1
    1c10:	000005cd 	andeq	r0, r0, sp, asr #11
    1c14:	0005d901 	andeq	sp, r5, r1, lsl #18
    1c18:	02390100 	eoreqs	r0, r9, #0	; 0x0
    1c1c:	0000c901 	andeq	ip, r0, r1, lsl #18
    1c20:	001c8c00 	andeqs	r8, ip, r0, lsl #24
    1c24:	001cf030 	andeqs	pc, ip, r0, lsr r0
    1c28:	155d0130 	ldrneb	r0, [sp, #-304]
    1c2c:	3a010069 	bcc	41dd8 <DISABLE_IRQ+0x41d58>
    1c30:	00016d02 	andeq	r6, r1, r2, lsl #26
    1c34:	00540100 	subeqs	r0, r4, r0, lsl #2
    1c38:	00060219 	andeq	r0, r6, r9, lsl r2
    1c3c:	010d0100 	tsteq	sp, r0, lsl #2
    1c40:	80010000 	andhi	r0, r1, r0
    1c44:	00000094 	muleq	r0, r4, r0
    1c48:	30001cf0 	strccd	r1, [r0], -r0
    1c4c:	30002094 	mulcc	r0, r4, r0
    1c50:	691a5d01 	ldmvsdb	sl, {r0, r8, sl, fp, ip, lr}
    1c54:	6d810100 	stfvss	f0, [r1]
    1c58:	01000001 	tsteq	r0, r1
    1c5c:	22010c5c 	andcs	r0, r1, #23552	; 0x5c00
    1c60:	01000001 	tsteq	r0, r1
    1c64:	00016d4a 	andeq	r6, r1, sl, asr #26
    1c68:	000d0100 	andeq	r0, sp, r0, lsl #2
    1c6c:	06d21900 	ldreqb	r1, [r2], r0, lsl #18
    1c70:	e4010000 	str	r0, [r1]
    1c74:	01000005 	tsteq	r0, r5
    1c78:	00016d45 	andeq	r6, r1, r5, asr #26
    1c7c:	00209400 	eoreq	r9, r0, r0, lsl #8
    1c80:	0021d430 	eoreq	sp, r1, r0, lsr r4
    1c84:	1a5d0130 	bne	174214c <DISABLE_IRQ+0x17420cc>
    1c88:	46010069 	strmi	r0, [r1], -r9, rrx
    1c8c:	000000c9 	andeq	r0, r0, r9, asr #1
    1c90:	440b5401 	strmi	r5, [fp], #-1025
    1c94:	a4000006 	strge	r0, [r0], #-6
    1c98:	b0300020 	eorlts	r0, r0, r0, lsr #32
    1c9c:	0c300020 	ldceq	0, cr0, [r0], #-128
    1ca0:	00012201 	andeq	r2, r1, r1, lsl #4
    1ca4:	6d4a0100 	stfvse	f0, [sl]
    1ca8:	01000001 	tsteq	r0, r1
    1cac:	0b00000d 	bleq	1ce8 <DISABLE_IRQ+0x1c68>
    1cb0:	00000661 	andeq	r0, r0, r1, ror #12
    1cb4:	300020f4 	strccd	r2, [r0], -r4
    1cb8:	300020fc 	strccd	r2, [r0], -ip
    1cbc:	0122010c 	teqeq	r2, ip, lsl #2
    1cc0:	4a010000 	bmi	41cc8 <DISABLE_IRQ+0x41c48>
    1cc4:	0000016d 	andeq	r0, r0, sp, ror #2
    1cc8:	00000d01 	andeq	r0, r0, r1, lsl #26
    1ccc:	00067e0b 	andeq	r7, r6, fp, lsl #28
    1cd0:	00211400 	eoreq	r1, r1, r0, lsl #8
    1cd4:	00218430 	eoreq	r8, r1, r0, lsr r4
    1cd8:	22010c30 	andcs	r0, r1, #12288	; 0x3000
    1cdc:	01000001 	tsteq	r0, r1
    1ce0:	00016d4a 	andeq	r6, r1, sl, asr #26
    1ce4:	000d0100 	andeq	r0, sp, r0, lsl #2
    1ce8:	069b0b00 	ldreq	r0, [fp], r0, lsl #22
    1cec:	21880000 	orrcs	r0, r8, r0
    1cf0:	218c3000 	orrcs	r3, ip, r0
    1cf4:	010c3000 	tsteq	ip, r0
    1cf8:	00000122 	andeq	r0, r0, r2, lsr #2
    1cfc:	016d4a01 	cmneq	sp, r1, lsl #20
    1d00:	0d010000 	stceq	0, cr0, [r1]
    1d04:	b80b0000 	stmltda	fp, {}
    1d08:	8c000006 	stchi	0, cr0, [r0], {6}
    1d0c:	a0300021 	eorges	r0, r0, r1, lsr #32
    1d10:	0c300021 	ldceq	0, cr0, [r0], #-132
    1d14:	00012201 	andeq	r2, r1, r1, lsl #4
    1d18:	6d4a0100 	stfvse	f0, [sl]
    1d1c:	01000001 	tsteq	r0, r1
    1d20:	0e00000d 	cdpeq	0, 0, cr0, cr0, cr13, {0}
    1d24:	300021a0 	andcc	r2, r0, r0, lsr #3
    1d28:	300021d4 	ldrccd	r2, [r0], -r4
    1d2c:	0122010c 	teqeq	r2, ip, lsl #2
    1d30:	4a010000 	bmi	41d38 <DISABLE_IRQ+0x41cb8>
    1d34:	0000016d 	andeq	r0, r0, sp, ror #2
    1d38:	00000d01 	andeq	r0, r0, r1, lsl #26
    1d3c:	06e30500 	streqbt	r0, [r3], r0, lsl #10
    1d40:	00940000 	addeqs	r0, r4, r0
    1d44:	b21b0000 	andlts	r0, fp, #0	; 0x0
    1d48:	ff000000 	swinv	0x00000000
    1d4c:	f31c0001 	tstnv	ip, #1	; 0x1
    1d50:	01000005 	tsteq	r0, r5
    1d54:	0006d240 	andeq	sp, r6, r0, asr #4
    1d58:	03050100 	tsteq	r5, #0	; 0x0
    1d5c:	30009a78 	andcc	r9, r0, r8, ror sl
    1d60:	0006061c 	andeq	r0, r6, ip, lsl r6
    1d64:	d2410100 	suble	r0, r1, #0	; 0x0
    1d68:	01000006 	tsteq	r0, r6
    1d6c:	98780305 	ldmlsda	r8!, {r0, r2, r8, r9}^
    1d70:	4a1c3000 	bmi	70dd78 <DISABLE_IRQ+0x70dcf8>
    1d74:	01000006 	tsteq	r0, r6
    1d78:	00002542 	andeq	r2, r0, r2, asr #10
    1d7c:	03050100 	tsteq	r5, #0	; 0x0
    1d80:	30009c78 	andcc	r9, r0, r8, ror ip
    1d84:	00004200 	andeq	r4, r0, r0, lsl #4
    1d88:	7b000200 	blvc	2590 <DISABLE_IRQ+0x2510>
    1d8c:	0400000b 	streq	r0, [r0], #-11
    1d90:	00094d01 	andeq	r4, r9, r1, lsl #26
    1d94:	0021e000 	eoreq	lr, r1, r0
    1d98:	00230c30 	eoreq	r0, r3, r0, lsr ip
    1d9c:	76696430 	undefined
    1da0:	532e3436 	teqpl	lr, #905969664	; 0x36000000
    1da4:	6e6d2f00 	cdpvs	15, 6, cr2, cr13, cr0, {0}
    1da8:	67682f74 	undefined
    1dac:	412f7366 	teqmi	pc, r6, ror #6
    1db0:	706d7973 	rsbvc	r7, sp, r3, ror r9
    1db4:	65746f74 	ldrvsb	r6, [r4, #-3956]!
    1db8:	62696c2f 	rsbvs	r6, r9, #12032	; 0x2f00
    1dbc:	554e4700 	strplb	r4, [lr, #-1792]
    1dc0:	20534120 	subcss	r4, r3, r0, lsr #2
    1dc4:	35312e32 	ldrcc	r2, [r1, #-3634]!
    1dc8:	46800100 	strmi	r0, [r0], r0, lsl #2
    1dcc:	02000000 	andeq	r0, r0, #0	; 0x0
    1dd0:	000b8f00 	andeq	r8, fp, r0, lsl #30
    1dd4:	d1010400 	tstle	r1, r0, lsl #8
    1dd8:	10000009 	andne	r0, r0, r9
    1ddc:	c0300023 	eorgts	r0, r0, r3, lsr #32
    1de0:	6c300026 	ldcvs	0, cr0, [r0], #-152
    1de4:	66316269 	ldrvst	r6, [r1], -r9, ror #4
    1de8:	73636e75 	cmnvc	r3, #1872	; 0x750
    1dec:	2f00532e 	swics	0x0000532e
    1df0:	2f746e6d 	swics	0x00746e6d
    1df4:	73666768 	cmnvc	r6, #27262976	; 0x1a00000
    1df8:	7973412f 	ldmvcdb	r3!, {r0, r1, r2, r3, r5, r8, lr}^
    1dfc:	6f74706d 	swivs	0x0074706d
    1e00:	6c2f6574 	cfstr32vs	mvfx6, [pc], #-464
    1e04:	47006269 	strmi	r6, [r0, -r9, ror #4]
    1e08:	4120554e 	teqmi	r0, lr, asr #10
    1e0c:	2e322053 	mrccs	0, 1, r2, cr2, cr3, {2}
    1e10:	01003531 	tsteq	r0, r1, lsr r5
    1e14:	00005280 	andeq	r5, r0, r0, lsl #5
    1e18:	a3000200 	tstge	r0, #0	; 0x0
    1e1c:	0400000b 	streq	r0, [r0], #-11
    1e20:	000a7e01 	andeq	r7, sl, r1, lsl #28
    1e24:	0026c000 	eoreq	ip, r6, r0
    1e28:	0026c030 	eoreq	ip, r6, r0, lsr r0
    1e2c:	00000930 	andeq	r0, r0, r0, lsr r9
    1e30:	06b50100 	ldreqt	r0, [r5], r0, lsl #2
    1e34:	06bd0000 	ldreqt	r0, [sp], r0
    1e38:	35020000 	strcc	r0, [r2]
    1e3c:	3c000000 	stccc	0, cr0, [r0], {0}
    1e40:	03000000 	tsteq	r0, #0	; 0x0
    1e44:	00000035 	andeq	r0, r0, r5, lsr r0
    1e48:	f50400ff 	strnv	r0, [r4, #-255]
    1e4c:	04000006 	streq	r0, [r0], #-6
    1e50:	00ba0407 	adceqs	r0, sl, r7, lsl #8
    1e54:	08010000 	stmeqda	r1, {}
    1e58:	00010605 	andeq	r0, r1, r5, lsl #12
    1e5c:	25090100 	strcs	r0, [r9, #-256]
    1e60:	01000000 	tsteq	r0, r0
    1e64:	47580305 	ldrmib	r0, [r8, -r5, lsl #6]
    1e68:	5f003000 	swipl	0x00003000
    1e6c:	02000001 	andeq	r0, r0, #1	; 0x1
    1e70:	000be500 	andeq	lr, fp, r0, lsl #10
    1e74:	a3010400 	tstge	r1, #0	; 0x0
    1e78:	1000000a 	andne	r0, r0, sl
    1e7c:	c0300027 	eorgts	r0, r0, r7, lsr #32
    1e80:	09300026 	ldmeqdb	r0!, {r1, r2, r5}
    1e84:	01000000 	tsteq	r0, r0
    1e88:	0000072e 	andeq	r0, r0, lr, lsr #14
    1e8c:	000006bd 	streqh	r0, [r0], -sp
    1e90:	0000ba02 	andeq	fp, r0, r2, lsl #20
    1e94:	03080100 	tsteq	r8, #0	; 0x0
    1e98:	00000716 	andeq	r0, r0, r6, lsl r7
    1e9c:	00370802 	eoreqs	r0, r7, r2, lsl #16
    1ea0:	69040000 	stmvsdb	r4, {}
    1ea4:	0400746e 	streq	r7, [r0], #-1134
    1ea8:	07150305 	ldreq	r0, [r5, -r5, lsl #6]
    1eac:	09020000 	stmeqdb	r2, {}
    1eb0:	00000049 	andeq	r0, r0, r9, asr #32
    1eb4:	0006f502 	andeq	pc, r6, r2, lsl #10
    1eb8:	03070400 	tsteq	r7, #0	; 0x0
    1ebc:	00000727 	andeq	r0, r0, r7, lsr #14
    1ec0:	005b0a02 	subeqs	r0, fp, r2, lsl #20
    1ec4:	07020000 	streq	r0, [r2, -r0]
    1ec8:	08000007 	stmeqda	r0, {r0, r1, r2}
    1ecc:	06eb0205 	streqbt	r0, [fp], r5, lsl #4
    1ed0:	07080000 	streq	r0, [r8, -r0]
    1ed4:	00009205 	andeq	r9, r0, r5, lsl #4
    1ed8:	0006dd00 	andeq	sp, r6, r0, lsl #26
    1edc:	11020800 	tstne	r2, r0, lsl #16
    1ee0:	776f6c06 	strvcb	r6, [pc, -r6, lsl #24]!
    1ee4:	2c110200 	lfmcs	f0, 4, [r1], {0}
    1ee8:	02000000 	andeq	r0, r0, #0	; 0x0
    1eec:	e6070023 	str	r0, [r7], -r3, lsr #32
    1ef0:	02000006 	andeq	r0, r0, #6	; 0x6
    1ef4:	00002c11 	andeq	r2, r0, r1, lsl ip
    1ef8:	04230200 	streqt	r0, [r3], #-512
    1efc:	00ae0800 	adceq	r0, lr, r0, lsl #16
    1f00:	02080000 	andeq	r0, r8, #0	; 0x0
    1f04:	00730918 	rsbeqs	r0, r3, r8, lsl r9
    1f08:	00691602 	rsbeq	r1, r9, r2, lsl #12
    1f0c:	6c090000 	stcvs	0, cr0, [r9], {0}
    1f10:	1702006c 	strne	r0, [r2, -ip, rrx]
    1f14:	00000050 	andeq	r0, r0, r0, asr r0
    1f18:	06d50300 	ldreqb	r0, [r5], r0, lsl #6
    1f1c:	18020000 	stmneda	r2, {}
    1f20:	00000092 	muleq	r0, r2, r0
    1f24:	0737010a 	ldreq	r0, [r7, -sl, lsl #2]!
    1f28:	40010000 	andmi	r0, r1, r0
    1f2c:	00005001 	andeq	r5, r0, r1
    1f30:	0026c000 	eoreq	ip, r6, r0
    1f34:	00271030 	eoreq	r1, r7, r0, lsr r0
    1f38:	0b5d0130 	bleq	1742400 <DISABLE_IRQ+0x1742380>
    1f3c:	3f010075 	swicc	0x00010075
    1f40:	00000050 	andeq	r0, r0, r0, asr r0
    1f44:	04935006 	ldreq	r5, [r3], #6
    1f48:	0b049351 	bleq	126c94 <DISABLE_IRQ+0x126c14>
    1f4c:	3f010076 	swicc	0x00010076
    1f50:	00000050 	andeq	r0, r0, r0, asr r0
    1f54:	04935206 	ldreq	r5, [r3], #518
    1f58:	0c049353 	stceq	3, cr9, [r4], {83}
    1f5c:	41010077 	tstmi	r1, r7, ror r0
    1f60:	000000ae 	andeq	r0, r0, lr, lsr #1
    1f64:	04935006 	ldreq	r5, [r3], #6
    1f68:	0d049351 	stceq	3, cr9, [r4, #-324]
    1f6c:	01007575 	tsteq	r0, r5, ror r5
    1f70:	0000ae42 	andeq	sl, r0, r2, asr #28
    1f74:	76760d00 	ldrvcbt	r0, [r6], -r0, lsl #26
    1f78:	ae420100 	dvfges	f0, f2, f0
    1f7c:	0e000000 	cdpeq	0, 0, cr0, cr0, cr0, {0}
    1f80:	300026cc 	andcc	r2, r0, ip, asr #13
    1f84:	30002700 	andcc	r2, r0, r0, lsl #14
    1f88:	775f5f0c 	ldrvcb	r5, [pc, -ip, lsl #30]
    1f8c:	ae470100 	dvfges	f0, f7, f0
    1f90:	06000000 	streq	r0, [r0], -r0
    1f94:	55049354 	strpl	r9, [r4, #-852]
    1f98:	cc0e0493 	cfstrsgt	mvf0, [lr], {147}
    1f9c:	00300026 	eoreqs	r0, r0, r6, lsr #32
    1fa0:	0f300027 	swieq	0x00300027
    1fa4:	0000071d 	andeq	r0, r0, sp, lsl r7
    1fa8:	003e4701 	eoreqs	r4, lr, r1, lsl #14
    1fac:	58010000 	stmplda	r1, {}
    1fb0:	0007220f 	andeq	r2, r7, pc, lsl #4
    1fb4:	3e470100 	dvfccs	f0, f7, f0
    1fb8:	01000000 	tsteq	r0, r0
    1fbc:	07020f57 	smlsdeq	r2, r7, pc, r0
    1fc0:	47010000 	strmi	r0, [r1, -r0]
    1fc4:	0000003e 	andeq	r0, r0, lr, lsr r0
    1fc8:	00005601 	andeq	r5, r0, r1, lsl #12
    1fcc:	012e0000 	teqeq	lr, r0
    1fd0:	00020000 	andeq	r0, r2, r0
    1fd4:	00000cbd 	streqh	r0, [r0], -sp
    1fd8:	0b100104 	bleq	4023f0 <DISABLE_IRQ+0x402370>
    1fdc:	27c00000 	strcsb	r0, [r0, r0]
    1fe0:	27103000 	ldrcs	r3, [r0, -r0]
    1fe4:	00093000 	andeq	r3, r9, r0
    1fe8:	e2010000 	and	r0, r1, #0	; 0x0
    1fec:	bd000008 	stclt	0, cr0, [r0, #-32]
    1ff0:	02000006 	andeq	r0, r0, #6	; 0x6
    1ff4:	000006f5 	streqd	r0, [r0], -r5
    1ff8:	40030704 	andmi	r0, r3, r4, lsl #14
    1ffc:	02000007 	andeq	r0, r0, #7	; 0x7
    2000:	0000370e 	andeq	r3, r0, lr, lsl #14
    2004:	3d040400 	cfstrscc	mvf0, [r4]
    2008:	02000000 	andeq	r0, r0, #0	; 0x0
    200c:	000000c3 	andeq	r0, r0, r3, asr #1
    2010:	92050801 	andls	r0, r5, #65536	; 0x10000
    2014:	01000000 	tsteq	r0, r0
    2018:	00000122 	andeq	r0, r0, r2, lsr #2
    201c:	92011101 	andls	r1, r1, #1073741824	; 0x40000000
    2020:	10000000 	andne	r0, r0, r0
    2024:	68300027 	ldmvsda	r0!, {r0, r1, r2, r5}
    2028:	01300027 	teqeq	r0, r7, lsr #32
    202c:	6d66065d 	stcvsl	6, cr0, [r6, #-372]!
    2030:	10010074 	andne	r0, r1, r4, ror r0
    2034:	00000099 	muleq	r0, r9, r0
    2038:	07109102 	ldreq	r9, [r0, -r2, lsl #2]
    203c:	01006908 	tsteq	r0, r8, lsl #18
    2040:	00009212 	andeq	r9, r0, r2, lsl r2
    2044:	08540100 	ldmeqda	r4, {r8}^
    2048:	006e656c 	rsbeq	r6, lr, ip, ror #10
    204c:	00921301 	addeqs	r1, r2, r1, lsl #6
    2050:	56010000 	strpl	r0, [r1], -r0
    2054:	00025309 	andeq	r5, r2, r9, lsl #6
    2058:	2c140100 	ldfcss	f0, [r4], {0}
    205c:	00000000 	andeq	r0, r0, r0
    2060:	746e690a 	strvcbt	r6, [lr], #-2314
    2064:	04050400 	streq	r0, [r5], #-1024
    2068:	00009f04 	andeq	r9, r0, r4, lsl #30
    206c:	003d0b00 	eoreqs	r0, sp, r0, lsl #22
    2070:	f0050000 	andnv	r0, r5, r0
    2074:	01000000 	tsteq	r0, r0
    2078:	000008b7 	streqh	r0, [r0], -r7
    207c:	92012301 	andls	r2, r1, #67108864	; 0x4000000
    2080:	68000000 	stmvsda	r0, {}
    2084:	c0300027 	eorgts	r0, r0, r7, lsr #32
    2088:	01300027 	teqeq	r0, r7, lsr #32
    208c:	6d66065d 	stcvsl	6, cr0, [r6, #-372]!
    2090:	22010074 	andcs	r0, r1, #116	; 0x74
    2094:	00000099 	muleq	r0, r9, r0
    2098:	070c9102 	streq	r9, [ip, -r2, lsl #2]
    209c:	01006908 	tsteq	r0, r8, lsl #18
    20a0:	00009224 	andeq	r9, r0, r4, lsr #4
    20a4:	08540100 	ldmeqda	r4, {r8}^
    20a8:	25010063 	strcs	r0, [r1, #-99]
    20ac:	000000f0 	streqd	r0, [r0], -r0
    20b0:	53095001 	tstpl	r9, #1	; 0x1
    20b4:	01000002 	tsteq	r0, r2
    20b8:	00002c26 	andeq	r2, r0, r6, lsr #24
    20bc:	ba020000 	blt	820c4 <DISABLE_IRQ+0x82044>
    20c0:	01000000 	tsteq	r0, r0
    20c4:	01080c08 	tsteq	r8, r8, lsl #24
    20c8:	00f00000 	rsceqs	r0, r0, r0
    20cc:	080d0000 	stmeqda	sp, {}
    20d0:	ff000001 	swinv	0x00000001
    20d4:	f5020003 	strnv	r0, [r2, #-3]
    20d8:	04000006 	streq	r0, [r0], #-6
    20dc:	04650e07 	streqbt	r0, [r5], #-3591
    20e0:	0c010000 	stceq	0, cr0, [r1], {0}
    20e4:	000000f7 	streqd	r0, [r0], -r7
    20e8:	905c0305 	sublss	r0, ip, r5, lsl #6
    20ec:	750e3000 	strvc	r3, [lr]
    20f0:	01000004 	tsteq	r0, r4
    20f4:	0000f70d 	andeq	pc, r0, sp, lsl #14
    20f8:	5c030500 	cfstr32pl	mvfx0, [r3], {0}
    20fc:	00300094 	mlaeqs	r0, r4, r0, r0
    2100:	00000802 	andeq	r0, r0, r2, lsl #16
    2104:	0d6e0002 	stceql	0, cr0, [lr, #-8]!
    2108:	01040000 	tsteq	r4, r0
    210c:	00000b71 	andeq	r0, r0, r1, ror fp
    2110:	30002d78 	andcc	r2, r0, r8, ror sp
    2114:	300027c0 	andcc	r2, r0, r0, asr #15
    2118:	00000009 	andeq	r0, r0, r9
    211c:	00078201 	andeq	r8, r7, r1, lsl #4
    2120:	0006bd00 	andeq	fp, r6, r0, lsl #26
    2124:	047f0200 	ldreqbt	r0, [pc], #512	; 212c <DISABLE_IRQ+0x20ac>
    2128:	0b030000 	bleq	c2130 <DISABLE_IRQ+0xc20b0>
    212c:	00000030 	andeq	r0, r0, r0, lsr r0
    2130:	0006f503 	andeq	pc, r6, r3, lsl #10
    2134:	04070400 	streq	r0, [r7], #-1024
    2138:	000000be 	streqh	r0, [r0], -lr
    213c:	00080201 	andeq	r0, r8, r1, lsl #4
    2140:	011f0100 	tsteq	pc, r0, lsl #2
    2144:	000000be 	streqh	r0, [r0], -lr
    2148:	300027c0 	andcc	r2, r0, r0, asr #15
    214c:	3000284c 	andcc	r2, r0, ip, asr #16
    2150:	73055d01 	tstvc	r5, #64	; 0x40
    2154:	1e010031 	mcrne	0, 0, r0, cr1, cr1, {1}
    2158:	000000c5 	andeq	r0, r0, r5, asr #1
    215c:	73055701 	tstvc	r5, #262144	; 0x40000
    2160:	1e010032 	mcrne	0, 0, r0, cr1, cr2, {1}
    2164:	000000c5 	andeq	r0, r0, r5, asr #1
    2168:	6c055601 	stcvs	6, cr5, [r5], {1}
    216c:	01006e65 	tsteq	r0, r5, ror #28
    2170:	0000251e 	andeq	r2, r0, lr, lsl r5
    2174:	06520100 	ldreqb	r0, [r2], -r0, lsl #2
    2178:	01003163 	tsteq	r0, r3, ror #2
    217c:	0000d721 	andeq	sp, r0, r1, lsr #14
    2180:	065e0100 	ldreqb	r0, [lr], -r0, lsl #2
    2184:	01003263 	tsteq	r0, r3, ror #4
    2188:	0000d721 	andeq	sp, r0, r1, lsr #14
    218c:	075c0100 	ldreqb	r0, [ip, -r0, lsl #2]
    2190:	000000a8 	andeq	r0, r0, r8, lsr #1
    2194:	000000de 	ldreqd	r0, [r0], -lr
    2198:	300027e4 	andcc	r2, r0, r4, ror #15
    219c:	300027e8 	andcc	r2, r0, r8, ror #15
    21a0:	0000ef08 	andeq	lr, r0, r8, lsl #30
    21a4:	00510100 	subeqs	r0, r1, r0, lsl #2
    21a8:	0000de09 	andeq	sp, r0, r9, lsl #28
    21ac:	0027f800 	eoreq	pc, r7, r0, lsl #16
    21b0:	0027fc30 	eoreq	pc, r7, r0, lsr ip
    21b4:	00ef0830 	rsceq	r0, pc, r0, lsr r8
    21b8:	54010000 	strpl	r0, [r1]
    21bc:	690a0000 	stmvsdb	sl, {}
    21c0:	0400746e 	streq	r7, [r0], #-1134
    21c4:	cb040b05 	blgt	104de0 <DISABLE_IRQ+0x104d60>
    21c8:	0c000000 	stceq	0, cr0, [r0], {0}
    21cc:	000000d0 	ldreqd	r0, [r0], -r0
    21d0:	0000c303 	andeq	ip, r0, r3, lsl #6
    21d4:	03070100 	tsteq	r7, #0	; 0x0
    21d8:	000000ba 	streqh	r0, [r0], -sl
    21dc:	f90d0801 	stmnvdb	sp, {r0, fp}
    21e0:	8b000000 	blhi	21e8 <DISABLE_IRQ+0x2168>
    21e4:	02000007 	andeq	r0, r0, #7	; 0x7
    21e8:	00d70123 	sbceqs	r0, r7, r3, lsr #2
    21ec:	0e030000 	cdpeq	0, 0, cr0, cr3, cr0, {0}
    21f0:	22020063 	andcs	r0, r2, #99	; 0x63
    21f4:	000000d7 	ldreqd	r0, [r0], -r7
    21f8:	013c0400 	teqeq	ip, r0, lsl #8
    21fc:	ac010000 	stcge	0, cr0, [r1], {0}
    2200:	01000007 	tsteq	r0, r7
    2204:	013c0141 	teqeq	ip, r1, asr #2
    2208:	284c0000 	stmcsda	ip, {}^
    220c:	28683000 	stmcsda	r8!, {ip, sp}^
    2210:	5d013000 	stcpl	0, cr3, [r1]
    2214:	0002e00f 	andeq	lr, r2, pc
    2218:	3c400100 	stfcce	f0, [r0], {0}
    221c:	01000001 	tsteq	r0, r1
    2220:	72730550 	rsbvcs	r0, r3, #335544320	; 0x14000000
    2224:	40010063 	andmi	r0, r1, r3, rrx
    2228:	000000c5 	andeq	r0, r0, r5, asr #1
    222c:	74065101 	strvc	r5, [r6], #-257
    2230:	0100706d 	tsteq	r0, sp, rrx
    2234:	00013c42 	andeq	r3, r1, r2, asr #24
    2238:	00520100 	subeqs	r0, r2, r0, lsl #2
    223c:	00d0040b 	sbceqs	r0, r0, fp, lsl #8
    2240:	92040000 	andls	r0, r4, #0	; 0x0
    2244:	01000001 	tsteq	r0, r1
    2248:	000007ba 	streqh	r0, [r0], -sl
    224c:	3c015601 	stccc	6, cr5, [r1], {1}
    2250:	68000001 	stmvsda	r0, {r0}
    2254:	8c300028 	ldchi	0, cr0, [r0], #-160
    2258:	01300028 	teqeq	r0, r8, lsr #32
    225c:	02e00f5d 	rsceq	r0, r0, #372	; 0x174
    2260:	55010000 	strpl	r0, [r1]
    2264:	0000013c 	andeq	r0, r0, ip, lsr r1
    2268:	73055001 	tstvc	r5, #1	; 0x1
    226c:	01006372 	tsteq	r0, r2, ror r3
    2270:	0000c555 	andeq	ip, r0, r5, asr r5
    2274:	0f510100 	swieq	0x00510100
    2278:	000007ee 	andeq	r0, r0, lr, ror #15
    227c:	00255501 	eoreq	r5, r5, r1, lsl #10
    2280:	52010000 	andpl	r0, r1, #0	; 0x0
    2284:	706d7406 	rsbvc	r7, sp, r6, lsl #8
    2288:	3c570100 	ldfcce	f0, [r7], {0}
    228c:	01000001 	tsteq	r0, r1
    2290:	d504005c 	strle	r0, [r4, #-92]
    2294:	01000001 	tsteq	r0, r1
    2298:	000007b3 	streqh	r0, [r0], -r3
    229c:	3c016701 	stccc	7, cr6, [r1], {1}
    22a0:	8c000001 	stchi	0, cr0, [r0], {1}
    22a4:	bc300028 	ldclt	0, cr0, [r0], #-160
    22a8:	01300028 	teqeq	r0, r8, lsr #32
    22ac:	02e00f5d 	rsceq	r0, r0, #372	; 0x174
    22b0:	66010000 	strvs	r0, [r1], -r0
    22b4:	0000013c 	andeq	r0, r0, ip, lsr r1
    22b8:	73055001 	tstvc	r5, #1	; 0x1
    22bc:	01006372 	tsteq	r0, r2, ror r3
    22c0:	0000c566 	andeq	ip, r0, r6, ror #10
    22c4:	06510100 	ldreqb	r0, [r1], -r0, lsl #2
    22c8:	00706d74 	rsbeqs	r6, r0, r4, ror sp
    22cc:	013c6801 	teqeq	ip, r1, lsl #16
    22d0:	52010000 	andpl	r0, r1, #0	; 0x0
    22d4:	02250400 	eoreq	r0, r5, #0	; 0x0
    22d8:	d1010000 	tstle	r1, r0
    22dc:	01000007 	tsteq	r0, r7
    22e0:	013c017e 	teqeq	ip, lr, ror r1
    22e4:	28bc0000 	ldmcsia	ip!, {}
    22e8:	29003000 	stmcsdb	r0, {ip, sp}
    22ec:	5d013000 	stcpl	0, cr3, [r1]
    22f0:	0002e00f 	andeq	lr, r2, pc
    22f4:	3c7d0100 	ldfcce	f0, [sp]
    22f8:	01000001 	tsteq	r0, r1
    22fc:	72730550 	rsbvcs	r0, r3, #335544320	; 0x14000000
    2300:	7d010063 	stcvc	0, cr0, [r1, #-396]
    2304:	000000c5 	andeq	r0, r0, r5, asr #1
    2308:	ee0f5101 	adfe	f5, f7, f1
    230c:	01000007 	tsteq	r0, r7
    2310:	0000257d 	andeq	r2, r0, sp, ror r5
    2314:	06520100 	ldreqb	r0, [r2], -r0, lsl #2
    2318:	00706d74 	rsbeqs	r6, r0, r4, ror sp
    231c:	013c7f01 	teqeq	ip, r1, lsl #30
    2320:	5c010000 	stcpl	0, cr0, [r1], {0}
    2324:	02660400 	rsbeq	r0, r6, #0	; 0x0
    2328:	e4010000 	str	r0, [r1]
    232c:	01000000 	tsteq	r0, r0
    2330:	00be0197 	umlaleqs	r0, lr, r7, r1
    2334:	29000000 	stmcsdb	r0, {}
    2338:	29303000 	ldmcsdb	r0!, {ip, sp}
    233c:	5d013000 	stcpl	0, cr3, [r1]
    2340:	00736305 	rsbeqs	r6, r3, r5, lsl #6
    2344:	00c59601 	sbceq	r9, r5, r1, lsl #12
    2348:	50010000 	andpl	r0, r1, r0
    234c:	00746305 	rsbeqs	r6, r4, r5, lsl #6
    2350:	00c59601 	sbceq	r9, r5, r1, lsl #12
    2354:	51010000 	tstpl	r1, r0
    2358:	00080b10 	andeq	r0, r8, r0, lsl fp
    235c:	66980100 	ldrvs	r0, [r8], r0, lsl #2
    2360:	01000002 	tsteq	r0, r2
    2364:	bc030053 	stclt	0, cr0, [r3], {83}
    2368:	01000000 	tsteq	r0, r0
    236c:	02bb0406 	adceqs	r0, fp, #100663296	; 0x6000000
    2370:	11010000 	tstne	r1, r0
    2374:	01000008 	tsteq	r0, r8
    2378:	00be01ab 	adceqs	r0, lr, fp, lsr #3
    237c:	29300000 	ldmcsdb	r0!, {}
    2380:	29783000 	ldmcsdb	r8!, {ip, sp}^
    2384:	5d013000 	stcpl	0, cr3, [r1]
    2388:	00736305 	rsbeqs	r6, r3, r5, lsl #6
    238c:	00c5aa01 	sbceq	sl, r5, r1, lsl #20
    2390:	50010000 	andpl	r0, r1, r0
    2394:	00746305 	rsbeqs	r6, r4, r5, lsl #6
    2398:	00c5aa01 	sbceq	sl, r5, r1, lsl #20
    239c:	51010000 	tstpl	r1, r0
    23a0:	0007ee0f 	andeq	lr, r7, pc, lsl #28
    23a4:	25aa0100 	strcs	r0, [sl, #256]!
    23a8:	01000000 	tsteq	r0, r0
    23ac:	080b1052 	stmeqda	fp, {r1, r4, r6, ip}
    23b0:	ac010000 	stcge	0, cr0, [r1], {0}
    23b4:	00000266 	andeq	r0, r0, r6, ror #4
    23b8:	04005301 	streq	r5, [r0], #-769
    23bc:	000002ed 	andeq	r0, r0, sp, ror #5
    23c0:	00075e01 	andeq	r5, r7, r1, lsl #28
    23c4:	01bf0100 	moveqs	r0, r0, lsl #2
    23c8:	0000013c 	andeq	r0, r0, ip, lsr r1
    23cc:	30002978 	andcc	r2, r0, r8, ror r9
    23d0:	300029ac 	andcc	r2, r0, ip, lsr #19
    23d4:	73055d01 	tstvc	r5, #64	; 0x40
    23d8:	c5be0100 	ldrgt	r0, [lr, #256]!
    23dc:	01000000 	tsteq	r0, r0
    23e0:	00630553 	rsbeq	r0, r3, r3, asr r5
    23e4:	00bebe01 	adceqs	fp, lr, r1, lsl #28
    23e8:	51010000 	tstpl	r1, r0
    23ec:	03200400 	teqeq	r0, #0	; 0x0
    23f0:	9f010000 	swils	0x00010000
    23f4:	01000007 	tsteq	r0, r7
    23f8:	002501de 	ldreqd	r0, [r5], -lr
    23fc:	29ac0000 	stmcsib	ip!, {}
    2400:	29d03000 	ldmcsib	r0, {ip, sp}^
    2404:	5d013000 	stcpl	0, cr3, [r1]
    2408:	01007305 	tsteq	r0, r5, lsl #6
    240c:	0000c5dd 	ldreqd	ip, [r0], -sp
    2410:	06520100 	ldreqb	r0, [r2], -r0, lsl #2
    2414:	01006373 	tsteq	r0, r3, ror r3
    2418:	0000c5df 	ldreqd	ip, [r0], -pc
    241c:	00500100 	subeqs	r0, r0, r0, lsl #2
    2420:	00035d04 	andeq	r5, r3, r4, lsl #26
    2424:	08190100 	ldmeqda	r9, {r8}
    2428:	ce010000 	cdpgt	0, 0, cr0, cr1, cr0, {0}
    242c:	00013c01 	andeq	r3, r1, r1, lsl #24
    2430:	0029d000 	eoreq	sp, r9, r0
    2434:	002a0830 	eoreq	r0, sl, r0, lsr r8
    2438:	055d0130 	ldreqb	r0, [sp, #-304]
    243c:	cd010073 	stcgt	0, cr0, [r1, #-460]
    2440:	000000c5 	andeq	r0, r0, r5, asr #1
    2444:	63055501 	tstvs	r5, #4194304	; 0x400000
    2448:	becd0100 	pollte	f0, f5, f0
    244c:	01000000 	tsteq	r0, r0
    2450:	00700654 	rsbeqs	r0, r0, r4, asr r6
    2454:	00c5cf01 	sbceq	ip, r5, r1, lsl #30
    2458:	50010000 	andpl	r0, r1, r0
    245c:	039d0400 	orreqs	r0, sp, #0	; 0x0
    2460:	de010000 	cdple	0, 0, cr0, cr1, cr0, {0}
    2464:	01000007 	tsteq	r0, r7
    2468:	002501ee 	eoreq	r0, r5, lr, ror #3
    246c:	2a080000 	bcs	202474 <DISABLE_IRQ+0x2023f4>
    2470:	2a483000 	bcs	120e478 <DISABLE_IRQ+0x120e3f8>
    2474:	5d013000 	stcpl	0, cr3, [r1]
    2478:	01007305 	tsteq	r0, r5, lsl #6
    247c:	0000c5ed 	andeq	ip, r0, sp, ror #11
    2480:	0f520100 	swieq	0x00520100
    2484:	000007ee 	andeq	r0, r0, lr, ror #15
    2488:	0025ed01 	eoreq	lr, r5, r1, lsl #26
    248c:	51010000 	tstpl	r1, r0
    2490:	00637306 	rsbeq	r7, r3, r6, lsl #6
    2494:	00c5ef01 	sbceq	lr, r5, r1, lsl #30
    2498:	50010000 	andpl	r0, r1, r0
    249c:	03f70400 	mvneqs	r0, #0	; 0x0
    24a0:	fb010000 	blx	424aa <DISABLE_IRQ+0x4242a>
    24a4:	01000007 	tsteq	r0, r7
    24a8:	002501ff 	streqd	r0, [r5], -pc
    24ac:	2a480000 	bcs	12024b4 <DISABLE_IRQ+0x1202434>
    24b0:	2abc3000 	bcs	fef0e4b8 <CLKDIVN+0xb2f0e4a4>
    24b4:	5d013000 	stcpl	0, cr3, [r1]
    24b8:	01007305 	tsteq	r0, r5, lsl #6
    24bc:	0000c5fe 	streqd	ip, [r0], -lr
    24c0:	0f500100 	swieq	0x00500100
    24c4:	00000757 	andeq	r0, r0, r7, asr r7
    24c8:	00c5fe01 	sbceq	pc, r5, r1, lsl #28
    24cc:	51010000 	tstpl	r1, r0
    24d0:	01007011 	tsteq	r0, r1, lsl r0
    24d4:	00c50100 	sbceq	r0, r5, r0, lsl #2
    24d8:	50010000 	andpl	r0, r1, r0
    24dc:	01006111 	tsteq	r0, r1, lsl r1
    24e0:	00c50101 	sbceq	r0, r5, r1, lsl #2
    24e4:	52010000 	andpl	r0, r1, #0	; 0x0
    24e8:	0007ee12 	andeq	lr, r7, r2, lsl lr
    24ec:	01020100 	tsteq	r2, r0, lsl #2
    24f0:	00000025 	andeq	r0, r0, r5, lsr #32
    24f4:	13005e01 	tstne	r0, #16	; 0x10
    24f8:	0000044a 	andeq	r0, r0, sl, asr #8
    24fc:	0007c901 	andeq	ip, r7, r1, lsl #18
    2500:	01190100 	tsteq	r9, r0, lsl #2
    2504:	00013c01 	andeq	r3, r1, r1, lsl #24
    2508:	002abc00 	eoreq	fp, sl, r0, lsl #24
    250c:	002b0830 	eoreq	r0, fp, r0, lsr r8
    2510:	145d0130 	ldrneb	r0, [sp], #-304
    2514:	01007363 	tsteq	r0, r3, ror #6
    2518:	00c50118 	sbceq	r0, r5, r8, lsl r1
    251c:	50010000 	andpl	r0, r1, r0
    2520:	00746314 	rsbeqs	r6, r4, r4, lsl r3
    2524:	c5011801 	strgt	r1, [r1, #-2049]
    2528:	01000000 	tsteq	r0, r0
    252c:	63731151 	cmnvs	r3, #1073741844	; 0x40000014
    2530:	1a010031 	bne	425fc <DISABLE_IRQ+0x4257c>
    2534:	0000c501 	andeq	ip, r0, r1, lsl #10
    2538:	11500100 	cmpne	r0, r0, lsl #2
    253c:	00326373 	eoreqs	r6, r2, r3, ror r3
    2540:	c5011a01 	strgt	r1, [r1, #-2561]
    2544:	01000000 	tsteq	r0, r0
    2548:	9c130052 	ldcls	0, cr0, [r3], {82}
    254c:	01000004 	tsteq	r0, r4
    2550:	00000798 	muleq	r0, r8, r7
    2554:	01012f01 	tsteq	r1, r1, lsl #30
    2558:	0000013c 	andeq	r0, r0, ip, lsr r1
    255c:	30002b08 	andcc	r2, r0, r8, lsl #22
    2560:	30002b8c 	andcc	r2, r0, ip, lsl #23
    2564:	73145d01 	tstvc	r4, #64	; 0x40
    2568:	012e0100 	teqeq	lr, r0, lsl #2
    256c:	0000013c 	andeq	r0, r0, ip, lsr r1
    2570:	63145001 	tstvs	r4, #1	; 0x1
    2574:	2e010074 	mcrcs	0, 0, r0, cr1, cr4, {3}
    2578:	0000c501 	andeq	ip, r0, r1, lsl #10
    257c:	12550100 	subnes	r0, r5, #0	; 0x0
    2580:	000007f4 	streqd	r0, [r0], -r4
    2584:	3c013001 	stccc	0, cr3, [r1], {1}
    2588:	01000001 	tsteq	r0, r1
    258c:	07d91254 	undefined
    2590:	30010000 	andcc	r0, r1, r0
    2594:	00013c01 	andeq	r3, r1, r1, lsl #24
    2598:	00500100 	subeqs	r0, r0, r0, lsl #2
    259c:	0004ee13 	andeq	lr, r4, r3, lsl lr
    25a0:	07480100 	streqb	r0, [r8, -r0, lsl #2]
    25a4:	50010000 	andpl	r0, r1, r0
    25a8:	013c0101 	teqeq	ip, r1, lsl #2
    25ac:	2b8c0000 	blcs	fe3025b4 <CLKDIVN+0xb23025a0>
    25b0:	2bc43000 	blcs	ff10e5b8 <CLKDIVN+0xb310e5a4>
    25b4:	5d013000 	stcpl	0, cr3, [r1]
    25b8:	01007314 	tsteq	r0, r4, lsl r3
    25bc:	04ee014f 	streqbt	r0, [lr], #335
    25c0:	55010000 	strpl	r0, [r1]
    25c4:	00746314 	rsbeqs	r6, r4, r4, lsl r3
    25c8:	c5014f01 	strgt	r4, [r1, #-3841]
    25cc:	01000000 	tsteq	r0, r0
    25d0:	07f41251 	undefined
    25d4:	51010000 	tstpl	r1, r0
    25d8:	00013c01 	andeq	r3, r1, r1, lsl #24
    25dc:	11540100 	cmpne	r4, r0, lsl #2
    25e0:	00646e65 	rsbeq	r6, r4, r5, ror #28
    25e4:	3c015101 	stfccs	f5, [r1], {1}
    25e8:	01000001 	tsteq	r0, r1
    25ec:	040b0050 	streq	r0, [fp], #-80
    25f0:	0000013c 	andeq	r0, r0, ip, lsr r1
    25f4:	00054413 	andeq	r4, r5, r3, lsl r4
    25f8:	02600100 	rsbeq	r0, r0, #0	; 0x0
    25fc:	69010000 	stmvsdb	r1, {}
    2600:	05440101 	streqb	r0, [r4, #-257]
    2604:	2bc40000 	blcs	ff10260c <CLKDIVN+0xb31025f8>
    2608:	2be83000 	blcs	ffa0e610 <CLKDIVN+0xb3a0e5fc>
    260c:	5d013000 	stcpl	0, cr3, [r1]
    2610:	01007314 	tsteq	r0, r4, lsl r3
    2614:	05440168 	streqb	r0, [r4, #-360]
    2618:	50010000 	andpl	r0, r1, r0
    261c:	01006314 	tsteq	r0, r4, lsl r3
    2620:	00be0168 	adceqs	r0, lr, r8, ror #2
    2624:	51010000 	tstpl	r1, r0
    2628:	0007ee15 	andeq	lr, r7, r5, lsl lr
    262c:	01680100 	cmneq	r8, r0, lsl #2
    2630:	00000025 	andeq	r0, r0, r5, lsr #32
    2634:	78115201 	ldmvcda	r1, {r0, r9, ip, lr}
    2638:	6a010073 	bvs	4280c <DISABLE_IRQ+0x4278c>
    263c:	00013c01 	andeq	r3, r1, r1, lsl #24
    2640:	00530100 	subeqs	r0, r3, r0, lsl #2
    2644:	a5170416 	ldrge	r0, [r7, #-1046]
    2648:	01000005 	tsteq	r0, r5
    264c:	000007a6 	andeq	r0, r0, r6, lsr #15
    2650:	01018101 	tsteq	r1, r1, lsl #2
    2654:	30002be8 	andcc	r2, r0, r8, ror #23
    2658:	30002c08 	andcc	r2, r0, r8, lsl #24
    265c:	73145d01 	tstvc	r4, #64	; 0x40
    2660:	01006372 	tsteq	r0, r2, ror r3
    2664:	05a50180 	streq	r0, [r5, #384]!
    2668:	50010000 	andpl	r0, r1, r0
    266c:	0002e015 	andeq	lr, r2, r5, lsl r0
    2670:	01800100 	orreq	r0, r0, r0, lsl #2
    2674:	00000544 	andeq	r0, r0, r4, asr #10
    2678:	ee155101 	mufs	f5, f5, f1
    267c:	01000007 	tsteq	r0, r7
    2680:	00250180 	eoreq	r0, r5, r0, lsl #3
    2684:	52010000 	andpl	r0, r1, #0	; 0x0
    2688:	0007e612 	andeq	lr, r7, r2, lsl r6
    268c:	01820100 	orreq	r0, r2, r0, lsl #2
    2690:	0000013c 	andeq	r0, r0, ip, lsr r1
    2694:	c2125101 	andgts	r5, r2, #1073741824	; 0x40000000
    2698:	01000007 	tsteq	r0, r7
    269c:	013c0183 	teqeq	ip, r3, lsl #3
    26a0:	50010000 	andpl	r0, r1, r0
    26a4:	ab040b00 	blge	1052ac <DISABLE_IRQ+0x10522c>
    26a8:	18000005 	stmneda	r0, {r0, r2}
    26ac:	00060d13 	andeq	r0, r6, r3, lsl sp
    26b0:	011b0100 	tsteq	fp, r0, lsl #2
    26b4:	95010000 	strls	r0, [r1]
    26b8:	05440101 	streqb	r0, [r4, #-257]
    26bc:	2c080000 	stccs	0, cr0, [r8], {0}
    26c0:	2c303000 	ldccs	0, cr3, [r0]
    26c4:	5d013000 	stcpl	0, cr3, [r1]
    26c8:	0002e015 	andeq	lr, r2, r5, lsl r0
    26cc:	01940100 	orreqs	r0, r4, r0, lsl #2
    26d0:	00000544 	andeq	r0, r0, r4, asr #10
    26d4:	73145001 	tstvc	r4, #1	; 0x1
    26d8:	01006372 	tsteq	r0, r2, ror r3
    26dc:	05a50194 	streq	r0, [r5, #404]!
    26e0:	51010000 	tstpl	r1, r0
    26e4:	0007ee15 	andeq	lr, r7, r5, lsl lr
    26e8:	01940100 	orreqs	r0, r4, r0, lsl #2
    26ec:	00000025 	andeq	r0, r0, r5, lsr #32
    26f0:	74115201 	ldrvc	r5, [r1], #-513
    26f4:	0100706d 	tsteq	r0, sp, rrx
    26f8:	013c0196 	ldreqb	r0, [ip, -r6]!
    26fc:	5c010000 	stcpl	0, cr0, [r1], {0}
    2700:	01007311 	tsteq	r0, r1, lsl r3
    2704:	013c0196 	ldreqb	r0, [ip, -r6]!
    2708:	51010000 	tstpl	r1, r0
    270c:	066e1300 	streqbt	r1, [lr], -r0, lsl #6
    2710:	4f010000 	swimi	0x00010000
    2714:	01000007 	tsteq	r0, r7
    2718:	440101a9 	strmi	r0, [r1], #-425
    271c:	30000005 	andcc	r0, r0, r5
    2720:	8830002c 	ldmhida	r0!, {r2, r3, r5}
    2724:	0130002c 	teqeq	r0, ip, lsr #32
    2728:	02e0155d 	rsceq	r1, r0, #390070272	; 0x17400000
    272c:	a8010000 	stmgeda	r1, {}
    2730:	00054401 	andeq	r4, r5, r1, lsl #8
    2734:	14500100 	ldrneb	r0, [r0], #-256
    2738:	00637273 	rsbeq	r7, r3, r3, ror r2
    273c:	a501a801 	strge	sl, [r1, #-2049]
    2740:	01000005 	tsteq	r0, r5
    2744:	07ee1551 	undefined
    2748:	a8010000 	stmgeda	r1, {}
    274c:	00002501 	andeq	r2, r0, r1, lsl #10
    2750:	11520100 	cmpne	r2, r0, lsl #2
    2754:	00706d74 	rsbeqs	r6, r0, r4, ror sp
    2758:	3c01aa01 	stccc	10, cr10, [r1], {1}
    275c:	01000001 	tsteq	r0, r1
    2760:	0073115c 	rsbeqs	r1, r3, ip, asr r1
    2764:	3c01aa01 	stccc	10, cr10, [r1], {1}
    2768:	01000001 	tsteq	r0, r1
    276c:	dd130051 	ldcle	0, cr0, [r3, #-324]
    2770:	01000006 	tsteq	r0, r6
    2774:	00000765 	andeq	r0, r0, r5, ror #14
    2778:	0101c501 	tsteq	r1, r1, lsl #10
    277c:	000000be 	streqh	r0, [r0], -lr
    2780:	30002c88 	andcc	r2, r0, r8, lsl #25
    2784:	30002cbc 	strcch	r2, [r0], -ip
    2788:	63145d01 	tstvs	r4, #64	; 0x40
    278c:	c4010073 	strgt	r0, [r1], #-115
    2790:	0005a501 	andeq	sl, r5, r1, lsl #10
    2794:	14500100 	ldrneb	r0, [r0], #-256
    2798:	01007463 	tsteq	r0, r3, ror #8
    279c:	05a501c4 	streq	r0, [r5, #452]!
    27a0:	51010000 	tstpl	r1, r0
    27a4:	0007ee15 	andeq	lr, r7, r5, lsl lr
    27a8:	01c40100 	biceq	r0, r4, r0, lsl #2
    27ac:	00000025 	andeq	r0, r0, r5, lsr #32
    27b0:	73115c01 	tstvc	r1, #256	; 0x100
    27b4:	01003175 	tsteq	r0, r5, ror r1
    27b8:	06dd01c6 	ldreqb	r0, [sp], r6, asr #3
    27bc:	50010000 	andpl	r0, r1, r0
    27c0:	32757311 	rsbccs	r7, r5, #1140850688	; 0x44000000
    27c4:	01c60100 	biceq	r0, r6, r0, lsl #2
    27c8:	000006dd 	ldreqd	r0, [r0], -sp
    27cc:	72115101 	andvcs	r5, r1, #1073741824	; 0x40000000
    27d0:	01007365 	tsteq	r0, r5, ror #6
    27d4:	00be01c7 	adceqs	r0, lr, r7, asr #3
    27d8:	52010000 	andpl	r0, r1, #0	; 0x0
    27dc:	e3040b00 	tst	r4, #0	; 0x0
    27e0:	0c000006 	stceq	0, cr0, [r0], {6}
    27e4:	000000d7 	ldreqd	r0, [r0], -r7
    27e8:	00073913 	andeq	r3, r7, r3, lsl r9
    27ec:	077a0100 	ldreqb	r0, [sl, -r0, lsl #2]!
    27f0:	db010000 	blle	427f8 <DISABLE_IRQ+0x42778>
    27f4:	05440101 	streqb	r0, [r4, #-257]
    27f8:	2cbc0000 	ldccs	0, cr0, [ip]
    27fc:	2ce03000 	stccsl	0, cr3, [r0]
    2800:	5d013000 	stcpl	0, cr3, [r1]
    2804:	00027815 	andeq	r7, r2, r5, lsl r8
    2808:	01da0100 	biceqs	r0, sl, r0, lsl #2
    280c:	00000544 	andeq	r0, r0, r4, asr #10
    2810:	63145001 	tstvs	r4, #1	; 0x1
    2814:	01da0100 	biceqs	r0, sl, r0, lsl #2
    2818:	000000be 	streqh	r0, [r0], -lr
    281c:	f7155101 	ldrnv	r5, [r5, -r1, lsl #2]
    2820:	01000004 	tsteq	r0, r4
    2824:	002501da 	ldreqd	r0, [r5], -sl
    2828:	52010000 	andpl	r0, r1, #0	; 0x0
    282c:	01007011 	tsteq	r0, r1, lsl r0
    2830:	073901dc 	undefined
    2834:	50010000 	andpl	r0, r1, r0
    2838:	d7040b00 	strle	r0, [r4, -r0, lsl #22]
    283c:	13000000 	tstne	r0, #0	; 0x0
    2840:	0000078e 	andeq	r0, r0, lr, lsl #15
    2844:	00076c01 	andeq	r6, r7, r1, lsl #24
    2848:	01ef0100 	mvneq	r0, r0, lsl #2
    284c:	00013c01 	andeq	r3, r1, r1, lsl #24
    2850:	002ce000 	eoreq	lr, ip, r0
    2854:	002d4830 	eoreq	r4, sp, r0, lsr r8
    2858:	145d0130 	ldrneb	r0, [sp], #-304
    285c:	01003173 	tsteq	r0, r3, ror r1
    2860:	00c501ee 	sbceq	r0, r5, lr, ror #3
    2864:	55010000 	strpl	r0, [r1]
    2868:	00327314 	eoreqs	r7, r2, r4, lsl r3
    286c:	c501ee01 	strgt	lr, [r1, #-3585]
    2870:	01000000 	tsteq	r0, r0
    2874:	316c1157 	cmncc	ip, r7, asr r1
    2878:	01f00100 	mvneqs	r0, r0, lsl #2
    287c:	000000be 	streqh	r0, [r0], -lr
    2880:	6c195401 	cfldrsvs	mvf5, [r9], {1}
    2884:	f0010032 	andnv	r0, r1, r2, lsr r0
    2888:	0000be01 	andeq	fp, r0, r1, lsl #28
    288c:	db130000 	blle	4c2894 <DISABLE_IRQ+0x4c2814>
    2890:	01000007 	tsteq	r0, r7
    2894:	00000773 	andeq	r0, r0, r3, ror r7
    2898:	01020b01 	tsteq	r2, r1, lsl #22
    289c:	00000544 	andeq	r0, r0, r4, asr #10
    28a0:	30002d48 	andcc	r2, r0, r8, asr #26
    28a4:	30002d78 	andcc	r2, r0, r8, ror sp
    28a8:	73145d01 	tstvc	r4, #64	; 0x40
    28ac:	020a0100 	andeq	r0, sl, #0	; 0x0
    28b0:	000005a5 	andeq	r0, r0, r5, lsr #11
    28b4:	63145001 	tstvs	r4, #1	; 0x1
    28b8:	020a0100 	andeq	r0, sl, #0	; 0x0
    28bc:	000000be 	streqh	r0, [r0], -lr
    28c0:	6e145101 	mufvss	f5, f4, f1
    28c4:	020a0100 	andeq	r0, sl, #0	; 0x0
    28c8:	00000025 	andeq	r0, r0, r5, lsr #32
    28cc:	70115201 	andvcs	r5, r1, r1, lsl #4
    28d0:	020c0100 	andeq	r0, ip, #0	; 0x0
    28d4:	000006dd 	ldreqd	r0, [r0], -sp
    28d8:	1a005001 	bne	168e4 <DISABLE_IRQ+0x16864>
    28dc:	000007e6 	andeq	r0, r0, r6, ror #15
    28e0:	000000d7 	ldreqd	r0, [r0], -r7
    28e4:	061c001b 	undefined
    28e8:	02000001 	andeq	r0, r0, #1	; 0x1
    28ec:	0007db0f 	andeq	sp, r7, pc, lsl #22
    28f0:	1d010100 	stfnes	f0, [r1]
    28f4:	00000795 	muleq	r0, r5, r7
    28f8:	013c3801 	teqeq	ip, r1, lsl #16
    28fc:	05010000 	streq	r0, [r1]
    2900:	009ca403 	addeqs	sl, ip, r3, lsl #8
    2904:	097b0030 	ldmeqdb	fp!, {r4, r5}^
    2908:	00020000 	andeq	r0, r2, r0
    290c:	00000f00 	andeq	r0, r0, r0, lsl #30
    2910:	0ce50104 	stfeqe	f0, [r5], #16
    2914:	41380000 	teqmi	r8, r0
    2918:	2d783000 	ldccsl	0, cr3, [r8]
    291c:	00093000 	andeq	r3, r9, r0
    2920:	e0010000 	and	r0, r1, r0
    2924:	bd000008 	stclt	0, cr0, [r0, #-32]
    2928:	02000006 	andeq	r0, r0, #6	; 0x6
    292c:	0000047f 	andeq	r0, r0, pc, ror r4
    2930:	00300b03 	eoreqs	r0, r0, r3, lsl #22
    2934:	f5030000 	strnv	r0, [r3]
    2938:	04000006 	streq	r0, [r0], #-6
    293c:	07400207 	streqb	r0, [r0, -r7, lsl #4]
    2940:	0e040000 	cdpeq	0, 0, cr0, cr4, cr0, {0}
    2944:	00000042 	andeq	r0, r0, r2, asr #32
    2948:	00480404 	subeq	r0, r8, r4, lsl #8
    294c:	c3030000 	tstgt	r3, #0	; 0x0
    2950:	01000000 	tsteq	r0, r0
    2954:	00f20508 	rsceqs	r0, r2, r8, lsl #10
    2958:	2b010000 	blcs	42960 <DISABLE_IRQ+0x428e0>
    295c:	01000008 	tsteq	r0, r8
    2960:	00f20126 	rsceqs	r0, r2, r6, lsr #2
    2964:	2d780000 	ldccsl	0, cr0, [r8]
    2968:	2e703000 	cdpcs	0, 7, cr3, cr0, cr0, {0}
    296c:	5d013000 	stcpl	0, cr3, [r1]
    2970:	00706306 	rsbeqs	r6, r0, r6, lsl #6
    2974:	00f92501 	rsceqs	r2, r9, r1, lsl #10
    2978:	50010000 	andpl	r0, r1, r0
    297c:	0008bd07 	andeq	fp, r8, r7, lsl #26
    2980:	04250100 	streqt	r0, [r5], #-256
    2984:	01000001 	tsteq	r0, r1
    2988:	08820754 	stmeqia	r2, {r2, r4, r6, r8, r9, sl}
    298c:	25010000 	strcs	r0, [r1]
    2990:	00000030 	andeq	r0, r0, r0, lsr r0
    2994:	d9085e01 	stmledb	r8, {r0, r9, sl, fp, ip, lr}
    2998:	01000008 	tsteq	r0, r8
    299c:	0000f227 	andeq	pc, r0, r7, lsr #4
    29a0:	08510100 	ldmeqda	r1, {r8}^
    29a4:	00000847 	andeq	r0, r0, r7, asr #16
    29a8:	00f22701 	rsceqs	r2, r2, r1, lsl #14
    29ac:	5c010000 	stcpl	0, cr0, [r1], {0}
    29b0:	0000c309 	andeq	ip, r0, r9, lsl #6
    29b4:	00010a00 	andeq	r0, r1, r0, lsl #20
    29b8:	002dac00 	eoreq	sl, sp, r0, lsl #24
    29bc:	002db830 	eoreq	fp, sp, r0, lsr r8
    29c0:	011b0a30 	tsteq	fp, r0, lsr sl
    29c4:	53010000 	tstpl	r1, #0	; 0x0
    29c8:	00dc0900 	sbceqs	r0, ip, r0, lsl #18
    29cc:	010a0000 	tsteq	sl, r0
    29d0:	2e080000 	cdpcs	0, 0, cr0, cr8, cr0, {0}
    29d4:	2e203000 	cdpcs	0, 2, cr3, cr0, cr0, {0}
    29d8:	1b0a3000 	blne	28e9e0 <DISABLE_IRQ+0x28e960>
    29dc:	01000001 	tsteq	r0, r1
    29e0:	0a0b0052 	beq	2c2b30 <DISABLE_IRQ+0x2c2ab0>
    29e4:	2c000001 	stccs	0, cr0, [r0], {1}
    29e8:	4830002e 	ldmmida	r0!, {r1, r2, r3, r5}
    29ec:	0a30002e 	beq	c02aac <DISABLE_IRQ+0xc02a2c>
    29f0:	0000011b 	andeq	r0, r0, fp, lsl r1
    29f4:	00005201 	andeq	r5, r0, r1, lsl #4
    29f8:	0006f003 	andeq	pc, r6, r3
    29fc:	04070400 	streq	r0, [r7], #-1024
    2a00:	0000ff04 	andeq	pc, r0, r4, lsl #30
    2a04:	00480c00 	subeq	r0, r8, r0, lsl #24
    2a08:	04040000 	streq	r0, [r4]
    2a0c:	00000042 	andeq	r0, r0, r2, asr #32
    2a10:	0001250d 	andeq	r2, r1, sp, lsl #10
    2a14:	00088700 	andeq	r8, r8, r0, lsl #14
    2a18:	012a0200 	teqeq	sl, r0, lsl #4
    2a1c:	00000125 	andeq	r0, r0, r5, lsr #2
    2a20:	00630e03 	rsbeq	r0, r3, r3, lsl #28
    2a24:	01252902 	teqeq	r5, r2, lsl #18
    2a28:	03000000 	tsteq	r0, #0	; 0x0
    2a2c:	000000ba 	streqh	r0, [r0], -sl
    2a30:	6e050801 	cdpvs	8, 0, cr0, cr5, cr1, {0}
    2a34:	01000001 	tsteq	r0, r1
    2a38:	0000084d 	andeq	r0, r0, sp, asr #16
    2a3c:	6e014a01 	fmacsvs	s8, s2, s2
    2a40:	70000001 	andvc	r0, r0, r1
    2a44:	9830002e 	ldmlsda	r0!, {r1, r2, r3, r5}
    2a48:	0130002e 	teqeq	r0, lr, lsr #32
    2a4c:	7063065d 	rsbvc	r0, r3, sp, asr r6
    2a50:	f9490100 	stmnvdb	r9, {r8}^
    2a54:	01000000 	tsteq	r0, r0
    2a58:	08bd075c 	ldmeqia	sp!, {r2, r3, r4, r6, r8, r9, sl}
    2a5c:	49010000 	stmmidb	r1, {}
    2a60:	00000104 	andeq	r0, r0, r4, lsl #2
    2a64:	82075101 	andhi	r5, r7, #1073741824	; 0x40000000
    2a68:	01000008 	tsteq	r0, r8
    2a6c:	00003049 	andeq	r3, r0, r9, asr #32
    2a70:	00520100 	subeqs	r0, r2, r0, lsl #2
    2a74:	00070c03 	andeq	r0, r7, r3, lsl #24
    2a78:	05050400 	streq	r0, [r5, #-1024]
    2a7c:	00000222 	andeq	r0, r0, r2, lsr #4
    2a80:	00089601 	andeq	r9, r8, r1, lsl #12
    2a84:	01590100 	cmpeq	r9, r0, lsl #2
    2a88:	00000222 	andeq	r0, r0, r2, lsr #4
    2a8c:	30002e98 	mulcc	r0, r8, lr
    2a90:	30002fe0 	andcc	r2, r0, r0, ror #31
    2a94:	63065d01 	tstvs	r6, #64	; 0x40
    2a98:	58010070 	stmplda	r1, {r4, r5, r6}
    2a9c:	000000f9 	streqd	r0, [r0], -r9
    2aa0:	bd075801 	stclt	8, cr5, [r7, #-4]
    2aa4:	01000008 	tsteq	r0, r8
    2aa8:	00010458 	andeq	r0, r1, r8, asr r4
    2aac:	07590100 	ldreqb	r0, [r9, -r0, lsl #2]
    2ab0:	00000882 	andeq	r0, r0, r2, lsl #17
    2ab4:	00305801 	eoreqs	r5, r0, r1, lsl #16
    2ab8:	5e010000 	cdppl	0, 0, cr0, cr1, cr0, {0}
    2abc:	0008d908 	andeq	sp, r8, r8, lsl #18
    2ac0:	225a0100 	subcss	r0, sl, #0	; 0x0
    2ac4:	06000002 	streq	r0, [r0], -r2
    2ac8:	5b04935a 	blpl	127838 <DISABLE_IRQ+0x1277b8>
    2acc:	47080493 	undefined
    2ad0:	01000008 	tsteq	r0, r8
    2ad4:	0002225a 	andeq	r2, r2, sl, asr r2
    2ad8:	93540600 	cmpls	r4, #0	; 0x0
    2adc:	04935504 	ldreq	r5, [r3], #1284
    2ae0:	0001f309 	andeq	pc, r1, r9, lsl #6
    2ae4:	00010a00 	andeq	r0, r1, r0, lsl #20
    2ae8:	002ed800 	eoreq	sp, lr, r0, lsl #16
    2aec:	002ee030 	eoreq	lr, lr, r0, lsr r0
    2af0:	011b0a30 	tsteq	fp, r0, lsr sl
    2af4:	53010000 	tstpl	r1, #0	; 0x0
    2af8:	020c0900 	andeq	r0, ip, #0	; 0x0
    2afc:	010a0000 	tsteq	sl, r0
    2b00:	2f740000 	swics	0x00740000
    2b04:	2f8c3000 	swics	0x008c3000
    2b08:	1b0a3000 	blne	28eb10 <DISABLE_IRQ+0x28ea90>
    2b0c:	01000001 	tsteq	r0, r1
    2b10:	0a0b0052 	beq	2c2c60 <DISABLE_IRQ+0x2c2be0>
    2b14:	98000001 	stmlsda	r0, {r0}
    2b18:	b430002f 	ldrltt	r0, [r0], #-47
    2b1c:	0a30002f 	beq	c02be0 <DISABLE_IRQ+0xc02b60>
    2b20:	0000011b 	andeq	r0, r0, fp, lsl r1
    2b24:	00005201 	andeq	r5, r0, r1, lsl #4
    2b28:	0006eb03 	andeq	lr, r6, r3, lsl #22
    2b2c:	05070800 	streq	r0, [r7, #-2048]
    2b30:	0000026b 	andeq	r0, r0, fp, ror #4
    2b34:	0008a601 	andeq	sl, r8, r1, lsl #12
    2b38:	017d0100 	cmneq	sp, r0, lsl #2
    2b3c:	0000026b 	andeq	r0, r0, fp, ror #4
    2b40:	30002fe0 	andcc	r2, r0, r0, ror #31
    2b44:	3000300c 	andcc	r3, r0, ip
    2b48:	63065d01 	tstvs	r6, #64	; 0x40
    2b4c:	7c010070 	stcvc	0, cr0, [r1], {112}
    2b50:	000000f9 	streqd	r0, [r0], -r9
    2b54:	bd075c01 	stclt	12, cr5, [r7, #-4]
    2b58:	01000008 	tsteq	r0, r8
    2b5c:	0001047c 	andeq	r0, r1, ip, ror r4
    2b60:	07510100 	ldreqb	r0, [r1, -r0, lsl #2]
    2b64:	00000882 	andeq	r0, r0, r2, lsl #17
    2b68:	00307c01 	eoreqs	r7, r0, r1, lsl #24
    2b6c:	52010000 	andpl	r0, r1, #0	; 0x0
    2b70:	07070300 	streq	r0, [r7, -r0, lsl #6]
    2b74:	05080000 	streq	r0, [r8]
    2b78:	0002a30f 	andeq	sl, r2, pc, lsl #6
    2b7c:	00085b00 	andeq	r5, r8, r0, lsl #22
    2b80:	01840100 	orreq	r0, r4, r0, lsl #2
    2b84:	000002a3 	andeq	r0, r0, r3, lsr #5
    2b88:	3000300c 	andcc	r3, r0, ip
    2b8c:	3000305c 	andcc	r3, r0, ip, asr r0
    2b90:	73065d01 	tstvc	r6, #64	; 0x40
    2b94:	aa830100 	bge	fe0c2f9c <CLKDIVN+0xb20c2f88>
    2b98:	01000002 	tsteq	r0, r2
    2b9c:	0069105e 	rsbeq	r1, r9, lr, asr r0
    2ba0:	02a38501 	adceq	r8, r3, #4194304	; 0x400000
    2ba4:	50010000 	andpl	r0, r1, r0
    2ba8:	6e691100 	powvse	f1, f1, f0
    2bac:	05040074 	streq	r0, [r4, #-116]
    2bb0:	00f90404 	rsceqs	r0, r9, r4, lsl #8
    2bb4:	d60f0000 	strle	r0, [pc], -r0
    2bb8:	f2000003 	andnv	r0, r0, #3	; 0x3
    2bbc:	01000008 	tsteq	r0, r8
    2bc0:	00420195 	umaaleq	r0, r2, r5, r1
    2bc4:	305c0000 	subccs	r0, ip, r0
    2bc8:	33443000 	cmpcc	r4, #0	; 0x0
    2bcc:	5d013000 	stcpl	0, cr3, [r1]
    2bd0:	66756206 	ldrvsbt	r6, [r5], -r6, lsl #4
    2bd4:	42940100 	addmis	r0, r4, #0	; 0x0
    2bd8:	01000000 	tsteq	r0, r0
    2bdc:	6e650655 	mcrvs	6, 3, r0, cr5, cr5, {2}
    2be0:	94010064 	strls	r0, [r1], #-100
    2be4:	00000042 	andeq	r0, r0, r2, asr #32
    2be8:	6e065901 	cdpvs	9, 0, cr5, cr6, cr1, {0}
    2bec:	01006d75 	tsteq	r0, r5, ror sp
    2bf0:	00022294 	muleq	r2, r4, r2
    2bf4:	93560600 	cmpls	r6, #0	; 0x0
    2bf8:	04935704 	ldreq	r5, [r3], #1796
    2bfc:	00088207 	andeq	r8, r8, r7, lsl #4
    2c00:	a3940100 	orrges	r0, r4, #0	; 0x0
    2c04:	03000002 	tsteq	r0, #2	; 0x2
    2c08:	0700f891 	undefined
    2c0c:	000004f7 	streqd	r0, [r0], -r7
    2c10:	02a39401 	adceq	r9, r3, #16777216	; 0x1000000
    2c14:	58010000 	stmplda	r1, {}
    2c18:	0008f907 	andeq	pc, r8, r7, lsl #18
    2c1c:	a3940100 	orrges	r0, r4, #0	; 0x0
    2c20:	01000002 	tsteq	r0, r2
    2c24:	0729075b 	undefined
    2c28:	94010000 	strls	r0, [r1]
    2c2c:	000002a3 	andeq	r0, r0, r3, lsr #5
    2c30:	01849103 	orreq	r9, r4, r3, lsl #2
    2c34:	01006310 	tsteq	r0, r0, lsl r3
    2c38:	00004896 	muleq	r0, r6, r8
    2c3c:	0c910200 	lfmeq	f0, 4, [r1], {0}
    2c40:	00091808 	andeq	r1, r9, r8, lsl #16
    2c44:	48960100 	ldmmiia	r6, {r8}
    2c48:	02000000 	andeq	r0, r0, #0	; 0x0
    2c4c:	74100891 	ldrvc	r0, [r0], #-2193
    2c50:	0100706d 	tsteq	r0, sp, rrx
    2c54:	0003d696 	muleq	r3, r6, r6
    2c58:	10910200 	addnes	r0, r1, r0, lsl #4
    2c5c:	00084008 	andeq	r4, r8, r8
    2c60:	f9970100 	ldmnvib	r7, {r8}
    2c64:	02000000 	andeq	r0, r0, #0	; 0x0
    2c68:	c2080491 	andgt	r0, r8, #-1862270976	; 0x91000000
    2c6c:	01000008 	tsteq	r0, r8
    2c70:	0003fd98 	muleq	r3, r8, sp
    2c74:	38030500 	stmccda	r3, {r8, sl}
    2c78:	08300041 	ldmeqda	r0!, {r0, r6}
    2c7c:	0000083a 	andeq	r0, r0, sl, lsr r8
    2c80:	04129901 	ldreq	r9, [r2], #-2305
    2c84:	03050000 	tsteq	r5, #0	; 0x0
    2c88:	30004160 	andcc	r4, r0, r0, ror #2
    2c8c:	01006910 	tsteq	r0, r0, lsl r9
    2c90:	0002a39a 	muleq	r2, sl, r3
    2c94:	125a0100 	subnes	r0, sl, #0	; 0x0
    2c98:	000000b0 	streqh	r0, [r0], -r0
    2c9c:	00088008 	andeq	r8, r8, r8
    2ca0:	30ba0100 	adcccs	r0, sl, r0, lsl #2
    2ca4:	01000000 	tsteq	r0, r0
    2ca8:	5f5f1054 	swipl	0x005f1054
    2cac:	ba01006e 	blt	42e6c <DISABLE_IRQ+0x42dec>
    2cb0:	00000222 	andeq	r0, r0, r2, lsr #4
    2cb4:	04935006 	ldreq	r5, [r3], #6
    2cb8:	08049351 	stmeqda	r4, {r0, r4, r6, r8, r9, ip, pc}
    2cbc:	0000080b 	andeq	r0, r0, fp, lsl #16
    2cc0:	0222ba01 	eoreq	fp, r2, #4096	; 0x1000
    2cc4:	52060000 	andpl	r0, r6, #0	; 0x0
    2cc8:	93530493 	cmpls	r3, #-1828716544	; 0x93000000
    2ccc:	090f0804 	stmeqdb	pc, {r2, fp}
    2cd0:	ba010000 	blt	42cd8 <DISABLE_IRQ+0x42c58>
    2cd4:	00000030 	andeq	r0, r0, r0, lsr r0
    2cd8:	00005101 	andeq	r5, r0, r1, lsl #2
    2cdc:	0003e613 	andeq	lr, r3, r3, lsl r6
    2ce0:	00004800 	andeq	r4, r0, r0, lsl #16
    2ce4:	03e61400 	mvneq	r1, #0	; 0x0
    2ce8:	00410000 	subeq	r0, r1, r0
    2cec:	0006f503 	andeq	pc, r6, r3, lsl #10
    2cf0:	13070400 	tstne	r7, #0	; 0x0
    2cf4:	000003fd 	streqd	r0, [r0], -sp
    2cf8:	000000ff 	streqd	r0, [r0], -pc
    2cfc:	0003e614 	andeq	lr, r3, r4, lsl r6
    2d00:	0c002400 	cfstrseq	mvf2, [r0], {0}
    2d04:	000003ed 	andeq	r0, r0, sp, ror #7
    2d08:	00041213 	andeq	r1, r4, r3, lsl r2
    2d0c:	0000ff00 	andeq	pc, r0, r0, lsl #30
    2d10:	03e61400 	mvneq	r1, #0	; 0x0
    2d14:	00240000 	eoreq	r0, r4, r0
    2d18:	0004020c 	andeq	r0, r4, ip, lsl #4
    2d1c:	05541500 	ldreqb	r1, [r4, #-1280]
    2d20:	21010000 	tstcs	r1, r0
    2d24:	01000008 	tsteq	r0, r8
    2d28:	a3010104 	tstge	r1, #1	; 0x1
    2d2c:	44000002 	strmi	r0, [r0], #-2
    2d30:	70300033 	eorvcs	r0, r0, r3, lsr r0
    2d34:	01300039 	teqeq	r0, r9, lsr r0
    2d38:	7562165d 	strvcb	r1, [r2, #-1629]!
    2d3c:	03010066 	tsteq	r1, #102	; 0x66
    2d40:	00004201 	andeq	r4, r0, r1, lsl #4
    2d44:	175a0100 	ldrneb	r0, [sl, -r0, lsl #2]
    2d48:	000004f7 	streqd	r0, [r0], -r7
    2d4c:	25010301 	strcs	r0, [r1, #-769]
    2d50:	02000000 	andeq	r0, r0, #0	; 0x0
    2d54:	66161091 	undefined
    2d58:	0100746d 	tsteq	r0, sp, ror #8
    2d5c:	00f90103 	rsceqs	r0, r9, r3, lsl #2
    2d60:	91020000 	tstls	r2, r0
    2d64:	02531714 	subeqs	r1, r3, #5242880	; 0x500000
    2d68:	03010000 	tsteq	r1, #0	; 0x0
    2d6c:	00003701 	andeq	r3, r0, r1, lsl #14
    2d70:	18590100 	ldmneda	r9, {r8}^
    2d74:	006e656c 	rsbeq	r6, lr, ip, ror #10
    2d78:	a3010501 	tstge	r1, #4194304	; 0x400000
    2d7c:	01000002 	tsteq	r0, r2
    2d80:	756e1850 	strvcb	r1, [lr, #-2128]!
    2d84:	0601006d 	streq	r0, [r1], -sp, rrx
    2d88:	00022201 	andeq	r2, r2, r1, lsl #4
    2d8c:	93510600 	cmpls	r1, #0	; 0x0
    2d90:	04935204 	ldreq	r5, [r3], #516
    2d94:	01006918 	tsteq	r0, r8, lsl r9
    2d98:	02a30107 	adceq	r0, r3, #-1073741823	; 0xc0000001
    2d9c:	52010000 	andpl	r0, r1, #0	; 0x0
    2da0:	00088219 	andeq	r8, r8, r9, lsl r2
    2da4:	01070100 	tsteq	r7, r0, lsl #2
    2da8:	000002a3 	andeq	r0, r0, r3, lsr #5
    2dac:	73185e01 	tstvc	r8, #16	; 0x10
    2db0:	01007274 	tsteq	r0, r4, ror r2
    2db4:	00420108 	subeq	r0, r2, r8, lsl #2
    2db8:	54010000 	strpl	r0, [r1]
    2dbc:	646e6518 	strvsbt	r6, [lr], #-1304
    2dc0:	01080100 	tsteq	r8, r0, lsl #2
    2dc4:	00000042 	andeq	r0, r0, r2, asr #32
    2dc8:	63185701 	tstvs	r8, #262144	; 0x40000
    2dcc:	01080100 	tsteq	r8, r0, lsl #2
    2dd0:	00000048 	andeq	r0, r0, r8, asr #32
    2dd4:	73185301 	tstvc	r8, #67108864	; 0x4000000
    2dd8:	01090100 	tsteq	r9, r0, lsl #2
    2ddc:	000000f9 	streqd	r0, [r0], -r9
    2de0:	cd195601 	ldcgt	6, cr5, [r9, #-4]
    2de4:	01000000 	tsteq	r0, r0
    2de8:	02a3010b 	adceq	r0, r3, #-1073741822	; 0xc0000002
    2dec:	55010000 	strpl	r0, [r1]
    2df0:	00090319 	andeq	r0, r9, r9, lsl r3
    2df4:	010d0100 	tsteq	sp, r0, lsl #2
    2df8:	000002a3 	andeq	r0, r0, r3, lsr #5
    2dfc:	f9195801 	ldmnvdb	r9, {r0, fp, ip, lr}
    2e00:	01000008 	tsteq	r0, r8
    2e04:	02a3010e 	adceq	r0, r3, #-2147483645	; 0x80000003
    2e08:	5b010000 	blpl	42e10 <DISABLE_IRQ+0x42d90>
    2e0c:	0008cf19 	andeq	ip, r8, r9, lsl pc
    2e10:	01100100 	tsteq	r0, r0, lsl #2
    2e14:	000002a3 	andeq	r0, r0, r3, lsr #5
    2e18:	eb1a5201 	bl	697624 <DISABLE_IRQ+0x6975a4>
    2e1c:	01000008 	tsteq	r0, r8
    2e20:	34180132 	ldrcc	r0, [r8], #-306
    2e24:	3c1b3000 	ldccc	0, cr3, [fp], {0}
    2e28:	c8000005 	stmgtda	r0, {r0, r2}
    2e2c:	19000000 	stmnedb	r0, {}
    2e30:	00000891 	muleq	r0, r1, r8
    2e34:	a3011701 	tstge	r1, #262144	; 0x40000
    2e38:	05000002 	streq	r0, [r0, #-2]
    2e3c:	00485803 	subeq	r5, r8, r3, lsl #16
    2e40:	b81c0030 	ldmltda	ip, {r4, r5}
    2e44:	c8300038 	ldmgtda	r0!, {r3, r4, r5}
    2e48:	18300038 	ldmneda	r0!, {r3, r4, r5}
    2e4c:	01007069 	tsteq	r0, r9, rrx
    2e50:	055401a8 	ldreqb	r0, [r4, #-424]
    2e54:	52010000 	andpl	r0, r1, #0	; 0x0
    2e58:	04040000 	streq	r0, [r4]
    2e5c:	000002a3 	andeq	r0, r0, r3, lsr #5
    2e60:	0005bb15 	andeq	fp, r5, r5, lsl fp
    2e64:	08750100 	ldmeqda	r5!, {r8}^
    2e68:	01010000 	tsteq	r1, r0
    2e6c:	02a30102 	adceq	r0, r3, #-2147483648	; 0x80000000
    2e70:	39700000 	ldmccdb	r0!, {}^
    2e74:	39903000 	ldmccib	r0, {ip, sp}
    2e78:	5d013000 	stcpl	0, cr3, [r1]
    2e7c:	66756216 	undefined
    2e80:	02000100 	andeq	r0, r0, #0	; 0x0
    2e84:	00000042 	andeq	r0, r0, r2, asr #32
    2e88:	f7175001 	ldrnv	r5, [r7, -r1]
    2e8c:	01000004 	tsteq	r0, r4
    2e90:	00250200 	eoreq	r0, r5, r0, lsl #4
    2e94:	54010000 	strpl	r0, [r1]
    2e98:	746d6616 	strvcbt	r6, [sp], #-1558
    2e9c:	02000100 	andeq	r0, r0, #0	; 0x0
    2ea0:	000000f9 	streqd	r0, [r0], -r9
    2ea4:	53175201 	tstpl	r7, #268435456	; 0x10000000
    2ea8:	01000002 	tsteq	r0, r2
    2eac:	00370200 	eoreqs	r0, r7, r0, lsl #4
    2eb0:	53010000 	tstpl	r1, #0	; 0x0
    2eb4:	01006918 	tsteq	r0, r8, lsl r9
    2eb8:	02a30202 	adceq	r0, r3, #536870912	; 0x20000000
    2ebc:	50010000 	andpl	r0, r1, r0
    2ec0:	061a1500 	ldreq	r1, [sl], -r0, lsl #10
    2ec4:	22010000 	andcs	r0, r1, #0	; 0x0
    2ec8:	01000008 	tsteq	r0, r8
    2ecc:	a3010217 	tstge	r1, #1879048193	; 0x70000001
    2ed0:	90000002 	andls	r0, r0, r2
    2ed4:	b0300039 	eorlts	r0, r0, r9, lsr r0
    2ed8:	01300039 	teqeq	r0, r9, lsr r0
    2edc:	7562165d 	strvcb	r1, [r2, #-1629]!
    2ee0:	16010066 	strne	r0, [r1], -r6, rrx
    2ee4:	00004202 	andeq	r4, r0, r2, lsl #4
    2ee8:	17500100 	ldrneb	r0, [r0, -r0, lsl #2]
    2eec:	000004f7 	streqd	r0, [r0], -r7
    2ef0:	25021601 	strcs	r1, [r2, #-1537]
    2ef4:	01000000 	tsteq	r0, r0
    2ef8:	6d661651 	stcvsl	6, cr1, [r6, #-324]!
    2efc:	16010074 	undefined
    2f00:	0000f902 	andeq	pc, r0, r2, lsl #18
    2f04:	04910200 	ldreq	r0, [r1], #512
    2f08:	02531e1d 	subeqs	r1, r3, #464	; 0x1d0
    2f0c:	18010000 	stmneda	r1, {}
    2f10:	00003702 	andeq	r3, r0, r2, lsl #14
    2f14:	00691f00 	rsbeq	r1, r9, r0, lsl #30
    2f18:	a3021901 	tstge	r2, #16384	; 0x4000
    2f1c:	00000002 	andeq	r0, r0, r2
    2f20:	00067b15 	andeq	r7, r6, r5, lsl fp
    2f24:	08760100 	ldmeqda	r6!, {r8}^
    2f28:	30010000 	andcc	r0, r1, r0
    2f2c:	02a30102 	adceq	r0, r3, #-2147483648	; 0x80000000
    2f30:	39b00000 	ldmccib	r0!, {}
    2f34:	39e43000 	stmccib	r4!, {ip, sp}^
    2f38:	5d013000 	stcpl	0, cr3, [r1]
    2f3c:	66756216 	undefined
    2f40:	022f0100 	eoreq	r0, pc, #0	; 0x0
    2f44:	00000042 	andeq	r0, r0, r2, asr #32
    2f48:	f7175001 	ldrnv	r5, [r7, -r1]
    2f4c:	01000004 	tsteq	r0, r4
    2f50:	0025022f 	eoreq	r0, r5, pc, lsr #4
    2f54:	54010000 	strpl	r0, [r1]
    2f58:	746d6616 	strvcbt	r6, [sp], #-1558
    2f5c:	022f0100 	eoreq	r0, pc, #0	; 0x0
    2f60:	000000f9 	streqd	r0, [r0], -r9
    2f64:	1d089102 	stfned	f1, [r8, #-8]
    2f68:	0002531e 	andeq	r5, r2, lr, lsl r3
    2f6c:	02310100 	eoreqs	r0, r1, #0	; 0x0
    2f70:	00000037 	andeq	r0, r0, r7, lsr r0
    2f74:	01006918 	tsteq	r0, r8, lsl r9
    2f78:	02a30232 	adceq	r0, r3, #536870915	; 0x20000003
    2f7c:	50010000 	andpl	r0, r1, r0
    2f80:	06c21500 	streqb	r1, [r2], r0, lsl #10
    2f84:	1d010000 	stcne	0, cr0, [r1]
    2f88:	01000009 	tsteq	r0, r9
    2f8c:	a3010249 	tstge	r1, #-1879048188	; 0x90000004
    2f90:	e4000002 	str	r0, [r0], #-2
    2f94:	f4300039 	ldrnvt	r0, [r0], #-57
    2f98:	01300039 	teqeq	r0, r9, lsr r0
    2f9c:	7562165d 	strvcb	r1, [r2, #-1629]!
    2fa0:	48010066 	stmmida	r1, {r1, r2, r5, r6}
    2fa4:	00004202 	andeq	r4, r0, r2, lsl #4
    2fa8:	16500100 	ldrneb	r0, [r0], -r0, lsl #2
    2fac:	00746d66 	rsbeqs	r6, r4, r6, ror #26
    2fb0:	f9024801 	stmnvdb	r2, {r0, fp, lr}
    2fb4:	01000000 	tsteq	r0, r0
    2fb8:	02531751 	subeqs	r1, r3, #21233664	; 0x1440000
    2fbc:	48010000 	stmmida	r1, {}
    2fc0:	00003702 	andeq	r3, r0, r2, lsl #14
    2fc4:	00530100 	subeqs	r0, r3, r0, lsl #2
    2fc8:	00071315 	andeq	r1, r7, r5, lsl r3
    2fcc:	091e0100 	ldmeqdb	lr, {r8}
    2fd0:	5a010000 	bpl	42fd8 <DISABLE_IRQ+0x42f58>
    2fd4:	02a30102 	adceq	r0, r3, #-2147483648	; 0x80000000
    2fd8:	39f40000 	ldmccib	r4!, {}^
    2fdc:	3a143000 	bcc	50efe4 <DISABLE_IRQ+0x50ef64>
    2fe0:	5d013000 	stcpl	0, cr3, [r1]
    2fe4:	66756216 	undefined
    2fe8:	02590100 	subeqs	r0, r9, #0	; 0x0
    2fec:	00000042 	andeq	r0, r0, r2, asr #32
    2ff0:	66165001 	ldrvs	r5, [r6], -r1
    2ff4:	0100746d 	tsteq	r0, sp, ror #8
    2ff8:	00f90259 	rsceqs	r0, r9, r9, asr r2
    2ffc:	91020000 	tstls	r2, r0
    3000:	531e1d04 	tstpl	lr, #256	; 0x100
    3004:	01000002 	tsteq	r0, r2
    3008:	0037025b 	eoreqs	r0, r7, fp, asr r2
    300c:	691f0000 	ldmvsdb	pc, {}
    3010:	025c0100 	subeqs	r0, ip, #0	; 0x0
    3014:	000002a3 	andeq	r0, r0, r3, lsr #5
    3018:	08d61500 	ldmeqia	r6, {r8, sl, ip}^
    301c:	b5010000 	strlt	r0, [r1]
    3020:	01000008 	tsteq	r0, r8
    3024:	a3010275 	tstge	r1, #1342177287	; 0x50000007
    3028:	14000002 	strne	r0, [r0], #-2
    302c:	1830003a 	ldmneda	r0!, {r1, r3, r4, r5}
    3030:	01300041 	teqeq	r0, r1, asr #32
    3034:	7562165d 	strvcb	r1, [r2, #-1629]!
    3038:	74010066 	strvc	r0, [r1], #-102
    303c:	0000f902 	andeq	pc, r0, r2, lsl #18
    3040:	16580100 	ldrneb	r0, [r8], -r0, lsl #2
    3044:	00746d66 	rsbeqs	r6, r4, r6, ror #26
    3048:	f9027401 	stmnvdb	r2, {r0, sl, ip, sp, lr}
    304c:	02000000 	andeq	r0, r0, #0	; 0x0
    3050:	53170491 	tstpl	r7, #-1862270976	; 0x91000000
    3054:	01000002 	tsteq	r0, r2
    3058:	00370274 	eoreqs	r0, r7, r4, ror r2
    305c:	55010000 	strpl	r0, [r1]
    3060:	72747318 	rsbvcs	r7, r4, #1610612736	; 0x60000000
    3064:	02760100 	rsbeqs	r0, r6, #0	; 0x0
    3068:	000000f9 	streqd	r0, [r0], -r9
    306c:	38195401 	ldmccda	r9, {r0, sl, ip, lr}
    3070:	01000001 	tsteq	r0, r1
    3074:	00420277 	subeq	r0, r2, r7, ror r2
    3078:	91020000 	tstls	r2, r0
    307c:	08651900 	stmeqda	r5!, {r8, fp, ip}^
    3080:	78010000 	stmvcda	r1, {}
    3084:	00004802 	andeq	r4, r0, r2, lsl #16
    3088:	18510100 	ldmneda	r1, {r8}^
    308c:	006d756e 	rsbeq	r7, sp, lr, ror #10
    3090:	a3027901 	tstge	r2, #16384	; 0x4000
    3094:	01000002 	tsteq	r0, r2
    3098:	08cf1957 	stmeqia	pc, {r0, r1, r2, r4, r6, r8, fp, ip}^
    309c:	7a010000 	bvc	430a4 <DISABLE_IRQ+0x43024>
    30a0:	0002a302 	andeq	sl, r2, r2, lsl #6
    30a4:	195e0100 	ldmnedb	lr, {r8}^
    30a8:	00000882 	andeq	r0, r0, r2, lsl #17
    30ac:	a3027b01 	tstge	r2, #1024	; 0x400
    30b0:	01000002 	tsteq	r0, r2
    30b4:	09031952 	stmeqdb	r3, {r1, r4, r6, r8, fp, ip}
    30b8:	7c010000 	stcvc	0, cr0, [r1], {0}
    30bc:	0002a302 	andeq	sl, r2, r2, lsl #6
    30c0:	19500100 	ldmnedb	r0, {r8}^
    30c4:	00000915 	andeq	r0, r0, r5, lsl r9
    30c8:	a3027d01 	tstge	r2, #64	; 0x40
    30cc:	01000002 	tsteq	r0, r2
    30d0:	07e52056 	undefined
    30d4:	3cd40000 	ldcccl	0, cr0, [r4], {0}
    30d8:	3ce43000 	stcccl	0, cr3, [r4]
    30dc:	69183000 	ldmvsdb	r8, {ip, sp}
    30e0:	03350100 	teqeq	r5, #0	; 0x0
    30e4:	00000554 	andeq	r0, r0, r4, asr r5
    30e8:	1b005401 	blne	180f4 <DISABLE_IRQ+0x18074>
    30ec:	000007fb 	streqd	r0, [r0], -fp
    30f0:	000000e8 	andeq	r0, r0, r8, ror #1
    30f4:	01006918 	tsteq	r0, r8, lsl r9
    30f8:	08d60338 	ldmeqia	r6, {r3, r4, r5, r8, r9}^
    30fc:	54010000 	strpl	r0, [r1]
    3100:	08111b00 	ldmeqda	r1, {r8, r9, fp, ip}
    3104:	01000000 	tsteq	r0, r0
    3108:	73180000 	tstvc	r8, #0	; 0x0
    310c:	02c90100 	sbceq	r0, r9, #0	; 0x0
    3110:	00000042 	andeq	r0, r0, r2, asr #32
    3114:	20005c01 	andcs	r5, r0, r1, lsl #24
    3118:	0000082b 	andeq	r0, r0, fp, lsr #16
    311c:	30003f24 	andcc	r3, r0, r4, lsr #30
    3120:	30003f58 	andcc	r3, r0, r8, asr pc
    3124:	01007318 	tsteq	r0, r8, lsl r3
    3128:	004202be 	streqh	r0, [r2], #-46
    312c:	53010000 	tstpl	r1, #0	; 0x0
    3130:	08452000 	stmeqda	r5, {sp}^
    3134:	3f7c0000 	swicc	0x007c0000
    3138:	3f8c3000 	swicc	0x008c3000
    313c:	69183000 	ldmvsdb	r8, {ip, sp}
    3140:	02db0100 	sbceqs	r0, fp, #0	; 0x0
    3144:	00000554 	andeq	r0, r0, r4, asr r5
    3148:	20005201 	andcs	r5, r0, r1, lsl #4
    314c:	0000085f 	andeq	r0, r0, pc, asr r8
    3150:	30003fa8 	andcc	r3, r0, r8, lsr #31
    3154:	30003fb8 	strcch	r3, [r0], -r8
    3158:	01007318 	tsteq	r0, r8, lsl r3
    315c:	08dc0313 	ldmeqia	ip, {r0, r1, r4, r8, r9}^
    3160:	54010000 	strpl	r0, [r1]
    3164:	08751b00 	ldmeqda	r5!, {r8, r9, fp, ip}^
    3168:	01200000 	teqeq	r0, r0
    316c:	73180000 	tstvc	r8, #0	; 0x0
    3170:	03160100 	tsteq	r6, #0	; 0x0
    3174:	000008e9 	andeq	r0, r0, r9, ror #17
    3178:	20005401 	andcs	r5, r0, r1, lsl #8
    317c:	0000088f 	andeq	r0, r0, pc, lsl #17
    3180:	30003fd0 	ldrccd	r3, [r0], -r0
    3184:	30003fe0 	andcc	r3, r0, r0, ror #31
    3188:	01006c18 	tsteq	r0, r8, lsl ip
    318c:	08f60325 	ldmeqia	r6!, {r0, r2, r5, r8, r9}^
    3190:	54010000 	strpl	r0, [r1]
    3194:	08a51b00 	stmeqia	r5!, {r8, r9, fp, ip}
    3198:	01480000 	cmpeq	r8, r0
    319c:	6c180000 	ldcvs	0, cr0, [r8], {0}
    31a0:	03280100 	teqeq	r8, #0	; 0x0
    31a4:	000008fc 	streqd	r0, [r0], -ip
    31a8:	20005401 	andcs	r5, r0, r1, lsl #8
    31ac:	000008bf 	streqh	r0, [r0], -pc
    31b0:	30003ff0 	strccd	r3, [r0], -r0
    31b4:	30004000 	andcc	r4, r0, r0
    31b8:	01007318 	tsteq	r0, r8, lsl r3
    31bc:	0902030a 	stmeqdb	r2, {r1, r3, r8, r9}
    31c0:	54010000 	strpl	r0, [r1]
    31c4:	40ac1c00 	adcmi	r1, ip, r0, lsl #24
    31c8:	40bc3000 	adcmis	r3, ip, r0
    31cc:	73183000 	tstvc	r8, #0	; 0x0
    31d0:	030d0100 	tsteq	sp, #0	; 0x0
    31d4:	0000090f 	andeq	r0, r0, pc, lsl #18
    31d8:	00005401 	andeq	r5, r0, r1, lsl #8
    31dc:	00300404 	eoreqs	r0, r0, r4, lsl #8
    31e0:	04040000 	streq	r0, [r4]
    31e4:	000008e2 	andeq	r0, r0, r2, ror #17
    31e8:	00086b03 	andeq	r6, r8, r3, lsl #22
    31ec:	04050200 	streq	r0, [r5], #-512
    31f0:	0008ef04 	andeq	lr, r8, r4, lsl #30
    31f4:	033c0300 	teqeq	ip, #0	; 0x0
    31f8:	07020000 	streq	r0, [r2, -r0]
    31fc:	026b0404 	rsbeq	r0, fp, #67108864	; 0x4000000
    3200:	04040000 	streq	r0, [r4]
    3204:	00000222 	andeq	r0, r0, r2, lsr #4
    3208:	09080404 	stmeqdb	r8, {r2, sl}
    320c:	bc030000 	stclt	0, cr0, [r3], {0}
    3210:	01000000 	tsteq	r0, r0
    3214:	25040406 	strcs	r0, [r4, #-1030]
    3218:	15000001 	strne	r0, [r0, #-1]
    321c:	00000966 	andeq	r0, r0, r6, ror #18
    3220:	0008b601 	andeq	fp, r8, r1, lsl #12
    3224:	034f0100 	cmpeq	pc, #0	; 0x0
    3228:	0002a301 	andeq	sl, r2, r1, lsl #6
    322c:	00411800 	subeq	r1, r1, r0, lsl #16
    3230:	00413830 	subeq	r3, r1, r0, lsr r8
    3234:	165d0130 	undefined
    3238:	00667562 	rsbeq	r7, r6, r2, ror #10
    323c:	f9034e01 	stmnvdb	r3, {r0, r9, sl, fp, lr}
    3240:	01000000 	tsteq	r0, r0
    3244:	6d661650 	stcvsl	6, cr1, [r6, #-320]!
    3248:	4e010074 	mcrmi	0, 0, r0, cr1, cr4, {3}
    324c:	0000f903 	andeq	pc, r0, r3, lsl #18
    3250:	04910200 	ldreq	r0, [r1], #512
    3254:	02531e1d 	subeqs	r1, r3, #464	; 0x1d0
    3258:	50010000 	andpl	r0, r1, r0
    325c:	00003703 	andeq	r3, r0, r3, lsl #14
    3260:	00691f00 	rsbeq	r1, r9, r0, lsl #30
    3264:	a3035101 	tstge	r3, #1073741824	; 0x40000000
    3268:	00000002 	andeq	r0, r0, r2
    326c:	00097113 	andeq	r7, r9, r3, lsl r1
    3270:	00012500 	andeq	r2, r1, r0, lsl #10
    3274:	22002100 	andcs	r2, r0, #0	; 0x0
    3278:	00000106 	andeq	r0, r0, r6, lsl #2
    327c:	09660f02 	stmeqdb	r6!, {r1, r8, r9, sl, fp}^
    3280:	01010000 	tsteq	r1, r0
	...
Disassembly of section .debug_abbrev:

00000000 <.debug_abbrev>:
       0:	10001101 	andne	r1, r0, r1, lsl #2
       4:	12011106 	andne	r1, r1, #-2147483647	; 0x80000001
       8:	1b080301 	blne	200c14 <DISABLE_IRQ+0x200b94>
       c:	13082508 	tstne	r8, #33554432	; 0x2000000
      10:	00000005 	andeq	r0, r0, r5
      14:	10011101 	andne	r1, r1, r1, lsl #2
      18:	11011206 	tstne	r1, r6, lsl #4
      1c:	130e2501 	tstne	lr, #4194304	; 0x400000
      20:	1b0e030b 	blne	380c54 <DISABLE_IRQ+0x380bd4>
      24:	0200000e 	andeq	r0, r0, #14	; 0xe
      28:	0c3f002e 	ldceq	0, cr0, [pc], #-184
      2c:	0b3a0e03 	bleq	e83840 <DISABLE_IRQ+0xe837c0>
      30:	01110b3b 	tsteq	r1, fp, lsr fp
      34:	0a400112 	beq	1000484 <DISABLE_IRQ+0x1000404>
      38:	2e030000 	cdpcs	0, 0, cr0, cr3, cr0, {0}
      3c:	3f130101 	swicc	0x00130101
      40:	3a0e030c 	bcc	380c78 <DISABLE_IRQ+0x380bf8>
      44:	270b3b0b 	strcs	r3, [fp, -fp, lsl #22]
      48:	1201110c 	andne	r1, r1, #3	; 0x3
      4c:	000a4001 	andeq	r4, sl, r1
      50:	00340400 	eoreqs	r0, r4, r0, lsl #8
      54:	0b3a0803 	bleq	e82068 <DISABLE_IRQ+0xe81fe8>
      58:	13490b3b 	cmpne	r9, #60416	; 0xec00
      5c:	00000a02 	andeq	r0, r0, r2, lsl #20
      60:	49003505 	stmmidb	r0, {r0, r2, r8, sl, ip, sp}
      64:	06000013 	undefined
      68:	0e030024 	cdpeq	0, 0, cr0, cr3, cr4, {1}
      6c:	0b3e0b0b 	bleq	f82ca0 <DISABLE_IRQ+0xf82c20>
      70:	2e070000 	cdpcs	0, 0, cr0, cr7, cr0, {0}
      74:	030c3f00 	tsteq	ip, #0	; 0x0
      78:	3b0b3a0e 	blcc	2ce8b8 <DISABLE_IRQ+0x2ce838>
      7c:	110c270b 	tstne	ip, fp, lsl #14
      80:	40011201 	andmi	r1, r1, r1, lsl #4
      84:	0000000a 	andeq	r0, r0, sl
      88:	10011101 	andne	r1, r1, r1, lsl #2
      8c:	11011206 	tstne	r1, r6, lsl #4
      90:	130e2501 	tstne	lr, #4194304	; 0x400000
      94:	1b0e030b 	blne	380cc8 <DISABLE_IRQ+0x380c48>
      98:	0200000e 	andeq	r0, r0, #14	; 0xe
      9c:	0e030024 	cdpeq	0, 0, cr0, cr3, cr4, {1}
      a0:	0b3e0b0b 	bleq	f82cd4 <DISABLE_IRQ+0xf82c54>
      a4:	13030000 	tstne	r3, #0	; 0x0
      a8:	03130101 	tsteq	r3, #1073741824	; 0x40000000
      ac:	3a0b0b0e 	bcc	2c2cec <DISABLE_IRQ+0x2c2c6c>
      b0:	000b3b0b 	andeq	r3, fp, fp, lsl #22
      b4:	000d0400 	andeq	r0, sp, r0, lsl #8
      b8:	0b3a0e03 	bleq	e838cc <DISABLE_IRQ+0xe8384c>
      bc:	13490b3b 	cmpne	r9, #60416	; 0xec00
      c0:	00000a38 	andeq	r0, r0, r8, lsr sl
      c4:	0b000f05 	bleq	3ce0 <DISABLE_IRQ+0x3c60>
      c8:	0013490b 	andeqs	r4, r3, fp, lsl #18
      cc:	01010600 	tsteq	r1, r0, lsl #12
      d0:	13491301 	cmpne	r9, #67108864	; 0x4000000
      d4:	21070000 	tstcs	r7, r0
      d8:	2f134900 	swics	0x00134900
      dc:	0800000b 	stmeqda	r0, {r0, r1, r3}
      e0:	13010115 	tstne	r1, #1073741829	; 0x40000005
      e4:	13490c27 	cmpne	r9, #9984	; 0x2700
      e8:	05090000 	streq	r0, [r9]
      ec:	00134900 	andeqs	r4, r3, r0, lsl #18
      f0:	012e0a00 	teqeq	lr, r0, lsl #20
      f4:	0c3f1301 	ldceq	3, cr1, [pc], #-4
      f8:	0b3a0e03 	bleq	e8390c <DISABLE_IRQ+0xe8388c>
      fc:	0c270b3b 	stceq	11, cr0, [r7], #-236
     100:	01120111 	tsteq	r2, r1, lsl r1
     104:	00000a40 	andeq	r0, r0, r0, asr #20
     108:	0300340b 	tsteq	r0, #184549376	; 0xb000000
     10c:	3b0b3a08 	blcc	2ce934 <DISABLE_IRQ+0x2ce8b4>
     110:	0213490b 	andeqs	r4, r3, #180224	; 0x2c000
     114:	0c00000a 	stceq	0, cr0, [r0], {10}
     118:	0655010b 	ldreqb	r0, [r5], -fp, lsl #2
     11c:	340d0000 	strcc	r0, [sp]
     120:	3a0e0300 	bcc	380d28 <DISABLE_IRQ+0x380ca8>
     124:	490b3b0b 	stmmidb	fp, {r0, r1, r3, r8, r9, fp, ip, sp}
     128:	000a0213 	andeq	r0, sl, r3, lsl r2
     12c:	00260e00 	eoreq	r0, r6, r0, lsl #28
     130:	00001349 	andeq	r1, r0, r9, asr #6
     134:	3f002e0f 	swicc	0x00002e0f
     138:	3a0e030c 	bcc	380d70 <DISABLE_IRQ+0x380cf0>
     13c:	270b3b0b 	strcs	r3, [fp, -fp, lsl #22]
     140:	1201110c 	andne	r1, r1, #3	; 0x3
     144:	000a4001 	andeq	r4, sl, r1
     148:	00051000 	andeq	r1, r5, r0
     14c:	0b3a0e03 	bleq	e83960 <DISABLE_IRQ+0xe838e0>
     150:	13490b3b 	cmpne	r9, #60416	; 0xec00
     154:	00000a02 	andeq	r0, r0, r2, lsl #20
     158:	01012e11 	tsteq	r1, r1, lsl lr
     15c:	030c3f13 	tsteq	ip, #76	; 0x4c
     160:	3b0b3a0e 	blcc	2ce9a0 <DISABLE_IRQ+0x2ce920>
     164:	3c13490b 	ldccc	9, cr4, [r3], {11}
     168:	1200000c 	andne	r0, r0, #12	; 0xc
     16c:	00000018 	andeq	r0, r0, r8, lsl r0
     170:	3f012e13 	swicc	0x00012e13
     174:	3a0e030c 	bcc	380dac <DISABLE_IRQ+0x380d2c>
     178:	490b3b0b 	stmmidb	fp, {r0, r1, r3, r8, r9, fp, ip, sp}
     17c:	000c3c13 	andeq	r3, ip, r3, lsl ip
     180:	00241400 	eoreq	r1, r4, r0, lsl #8
     184:	0b0b0803 	bleq	2c2198 <DISABLE_IRQ+0x2c2118>
     188:	00000b3e 	andeq	r0, r0, lr, lsr fp
     18c:	03000515 	tsteq	r0, #88080384	; 0x5400000
     190:	3b0b3a08 	blcc	2ce9b8 <DISABLE_IRQ+0x2ce938>
     194:	0213490b 	andeqs	r4, r3, #180224	; 0x2c000
     198:	1600000a 	strne	r0, [r0], -sl
     19c:	0b0b000f 	bleq	2c01e0 <DISABLE_IRQ+0x2c0160>
     1a0:	2e170000 	wxorcs	wr0, wr7, wr0
     1a4:	3f130101 	swicc	0x00130101
     1a8:	3a0e030c 	bcc	380de0 <DISABLE_IRQ+0x380d60>
     1ac:	270b3b0b 	strcs	r3, [fp, -fp, lsl #22]
     1b0:	1113490c 	tstne	r3, ip, lsl #18
     1b4:	40011201 	andmi	r1, r1, r1, lsl #4
     1b8:	1800000a 	stmneda	r0, {r1, r3}
     1bc:	0111010b 	tsteq	r1, fp, lsl #2
     1c0:	00000112 	andeq	r0, r0, r2, lsl r1
     1c4:	00002119 	andeq	r2, r0, r9, lsl r1
     1c8:	00341a00 	eoreqs	r1, r4, r0, lsl #20
     1cc:	0b3a0e03 	bleq	e839e0 <DISABLE_IRQ+0xe83960>
     1d0:	13490b3b 	cmpne	r9, #60416	; 0xec00
     1d4:	0c3c0c3f 	ldceq	12, cr0, [ip], #-252
     1d8:	341b0000 	ldrcc	r0, [fp]
     1dc:	3a0e0300 	bcc	380de4 <DISABLE_IRQ+0x380d64>
     1e0:	490b3b0b 	stmmidb	fp, {r0, r1, r3, r8, r9, fp, ip, sp}
     1e4:	020c3f13 	andeq	r3, ip, #76	; 0x4c
     1e8:	0000000a 	andeq	r0, r0, sl
     1ec:	10011101 	andne	r1, r1, r1, lsl #2
     1f0:	11011206 	tstne	r1, r6, lsl #4
     1f4:	130e2501 	tstne	lr, #4194304	; 0x400000
     1f8:	1b0e030b 	blne	380e2c <DISABLE_IRQ+0x380dac>
     1fc:	0200000e 	andeq	r0, r0, #14	; 0xe
     200:	0e030024 	cdpeq	0, 0, cr0, cr3, cr4, {1}
     204:	0b3e0b0b 	bleq	f82e38 <DISABLE_IRQ+0xf82db8>
     208:	13030000 	tstne	r3, #0	; 0x0
     20c:	03130101 	tsteq	r3, #1073741824	; 0x40000000
     210:	3a0b0b0e 	bcc	2c2e50 <DISABLE_IRQ+0x2c2dd0>
     214:	000b3b0b 	andeq	r3, fp, fp, lsl #22
     218:	000d0400 	andeq	r0, sp, r0, lsl #8
     21c:	0b3a0e03 	bleq	e83a30 <DISABLE_IRQ+0xe839b0>
     220:	13490b3b 	cmpne	r9, #60416	; 0xec00
     224:	00000a38 	andeq	r0, r0, r8, lsr sl
     228:	0b000f05 	bleq	3e44 <DISABLE_IRQ+0x3dc4>
     22c:	0013490b 	andeqs	r4, r3, fp, lsl #18
     230:	00240600 	eoreq	r0, r4, r0, lsl #12
     234:	0b0b0803 	bleq	2c2248 <DISABLE_IRQ+0x2c21c8>
     238:	00000b3e 	andeq	r0, r0, lr, lsr fp
     23c:	01010107 	tsteq	r1, r7, lsl #2
     240:	00134913 	andeqs	r4, r3, r3, lsl r9
     244:	00210800 	eoreq	r0, r1, r0, lsl #16
     248:	0b2f1349 	bleq	bc4f74 <DISABLE_IRQ+0xbc4ef4>
     24c:	13090000 	tstne	r9, #0	; 0x0
     250:	03130101 	tsteq	r3, #1073741824	; 0x40000000
     254:	3a050b0e 	bcc	142e94 <DISABLE_IRQ+0x142e14>
     258:	000b3b0b 	andeq	r3, fp, fp, lsl #22
     25c:	000d0a00 	andeq	r0, sp, r0, lsl #20
     260:	0b3a0803 	bleq	e82274 <DISABLE_IRQ+0xe821f4>
     264:	13490b3b 	cmpne	r9, #60416	; 0xec00
     268:	00000a38 	andeq	r0, r0, r8, lsr sl
     26c:	01012e0b 	tsteq	r1, fp, lsl #28
     270:	030c3f13 	tsteq	ip, #76	; 0x4c
     274:	3b0b3a0e 	blcc	2ceab4 <DISABLE_IRQ+0x2cea34>
     278:	490c270b 	stmmidb	ip, {r0, r1, r3, r8, r9, sl, sp}
     27c:	12011113 	andne	r1, r1, #-1073741820	; 0xc0000004
     280:	000a4001 	andeq	r4, sl, r1
     284:	00340c00 	eoreqs	r0, r4, r0, lsl #24
     288:	0b3a0803 	bleq	e8229c <DISABLE_IRQ+0xe8221c>
     28c:	13490b3b 	cmpne	r9, #60416	; 0xec00
     290:	00000a02 	andeq	r0, r0, r2, lsl #20
     294:	3f002e0d 	swicc	0x00002e0d
     298:	3a0e030c 	bcc	380ed0 <DISABLE_IRQ+0x380e50>
     29c:	270b3b0b 	strcs	r3, [fp, -fp, lsl #22]
     2a0:	1201110c 	andne	r1, r1, #3	; 0x3
     2a4:	000a4001 	andeq	r4, sl, r1
     2a8:	010b0e00 	tsteq	fp, r0, lsl #28
     2ac:	06551301 	ldreqb	r1, [r5], -r1, lsl #6
     2b0:	340f0000 	strcc	r0, [pc], #0	; 2b8 <DISABLE_IRQ+0x238>
     2b4:	3a0e0300 	bcc	380ebc <DISABLE_IRQ+0x380e3c>
     2b8:	490b3b0b 	stmmidb	fp, {r0, r1, r3, r8, r9, fp, ip, sp}
     2bc:	000a0213 	andeq	r0, sl, r3, lsl r2
     2c0:	010b1000 	tsteq	fp, r0
     2c4:	00000655 	andeq	r0, r0, r5, asr r6
     2c8:	0b000f11 	bleq	3f14 <DISABLE_IRQ+0x3e94>
     2cc:	1200000b 	andne	r0, r0, #11	; 0xb
     2d0:	13490026 	cmpne	r9, #38	; 0x26
     2d4:	2e130000 	wxorcs	wr0, wr3, wr0
     2d8:	3f130101 	swicc	0x00130101
     2dc:	3a0e030c 	bcc	380f14 <DISABLE_IRQ+0x380e94>
     2e0:	270b3b0b 	strcs	r3, [fp, -fp, lsl #22]
     2e4:	1201110c 	andne	r1, r1, #3	; 0x3
     2e8:	000a4001 	andeq	r4, sl, r1
     2ec:	00051400 	andeq	r1, r5, r0, lsl #8
     2f0:	0b3a0e03 	bleq	e83b04 <DISABLE_IRQ+0xe83a84>
     2f4:	13490b3b 	cmpne	r9, #60416	; 0xec00
     2f8:	00000a02 	andeq	r0, r0, r2, lsl #20
     2fc:	03000515 	tsteq	r0, #88080384	; 0x5400000
     300:	3b0b3a08 	blcc	2ceb28 <DISABLE_IRQ+0x2ceaa8>
     304:	0213490b 	andeqs	r4, r3, #180224	; 0x2c000
     308:	1600000a 	strne	r0, [r0], -sl
     30c:	0111010b 	tsteq	r1, fp, lsl #2
     310:	00000112 	andeq	r0, r0, r2, lsl r1
     314:	00002117 	andeq	r2, r0, r7, lsl r1
     318:	00341800 	eoreqs	r1, r4, r0, lsl #16
     31c:	0b3a0e03 	bleq	e83b30 <DISABLE_IRQ+0xe83ab0>
     320:	13490b3b 	cmpne	r9, #60416	; 0xec00
     324:	0c3c0c3f 	ldceq	12, cr0, [ip], #-252
     328:	34190000 	ldrcc	r0, [r9]
     32c:	3a080300 	bcc	200f34 <DISABLE_IRQ+0x200eb4>
     330:	490b3b0b 	stmmidb	fp, {r0, r1, r3, r8, r9, fp, ip, sp}
     334:	020c3f13 	andeq	r3, ip, #76	; 0x4c
     338:	0000000a 	andeq	r0, r0, sl
     33c:	10011101 	andne	r1, r1, r1, lsl #2
     340:	11011206 	tstne	r1, r6, lsl #4
     344:	130e2501 	tstne	lr, #4194304	; 0x400000
     348:	1b0e030b 	blne	380f7c <DISABLE_IRQ+0x380efc>
     34c:	0200000e 	andeq	r0, r0, #14	; 0xe
     350:	0e030024 	cdpeq	0, 0, cr0, cr3, cr4, {1}
     354:	0b3e0b0b 	bleq	f82f88 <DISABLE_IRQ+0xf82f08>
     358:	13030000 	tstne	r3, #0	; 0x0
     35c:	03130101 	tsteq	r3, #1073741824	; 0x40000000
     360:	3a0b0b0e 	bcc	2c2fa0 <DISABLE_IRQ+0x2c2f20>
     364:	000b3b0b 	andeq	r3, fp, fp, lsl #22
     368:	000d0400 	andeq	r0, sp, r0, lsl #8
     36c:	0b3a0e03 	bleq	e83b80 <DISABLE_IRQ+0xe83b00>
     370:	13490b3b 	cmpne	r9, #60416	; 0xec00
     374:	00000a38 	andeq	r0, r0, r8, lsr sl
     378:	0b000f05 	bleq	3f94 <DISABLE_IRQ+0x3f14>
     37c:	0013490b 	andeqs	r4, r3, fp, lsl #18
     380:	00240600 	eoreq	r0, r4, r0, lsl #12
     384:	0b0b0803 	bleq	2c2398 <DISABLE_IRQ+0x2c2318>
     388:	00000b3e 	andeq	r0, r0, lr, lsr fp
     38c:	01010107 	tsteq	r1, r7, lsl #2
     390:	00134913 	andeqs	r4, r3, r3, lsl r9
     394:	00210800 	eoreq	r0, r1, r0, lsl #16
     398:	0b2f1349 	bleq	bc50c4 <DISABLE_IRQ+0xbc5044>
     39c:	13090000 	tstne	r9, #0	; 0x0
     3a0:	03130101 	tsteq	r3, #1073741824	; 0x40000000
     3a4:	3a050b0e 	bcc	142fe4 <DISABLE_IRQ+0x142f64>
     3a8:	000b3b0b 	andeq	r3, fp, fp, lsl #22
     3ac:	000d0a00 	andeq	r0, sp, r0, lsl #20
     3b0:	0b3a0803 	bleq	e823c4 <DISABLE_IRQ+0xe82344>
     3b4:	13490b3b 	cmpne	r9, #60416	; 0xec00
     3b8:	00000a38 	andeq	r0, r0, r8, lsr sl
     3bc:	01012e0b 	tsteq	r1, fp, lsl #28
     3c0:	030c3f13 	tsteq	ip, #76	; 0x4c
     3c4:	3b0b3a0e 	blcc	2cec04 <DISABLE_IRQ+0x2ceb84>
     3c8:	490c270b 	stmmidb	ip, {r0, r1, r3, r8, r9, sl, sp}
     3cc:	12011113 	andne	r1, r1, #-1073741820	; 0xc0000004
     3d0:	000a4001 	andeq	r4, sl, r1
     3d4:	00340c00 	eoreqs	r0, r4, r0, lsl #24
     3d8:	0b3a0e03 	bleq	e83bec <DISABLE_IRQ+0xe83b6c>
     3dc:	13490b3b 	cmpne	r9, #60416	; 0xec00
     3e0:	00000a02 	andeq	r0, r0, r2, lsl #20
     3e4:	0300340d 	tsteq	r0, #218103808	; 0xd000000
     3e8:	3b0b3a08 	blcc	2cec10 <DISABLE_IRQ+0x2ceb90>
     3ec:	0213490b 	andeqs	r4, r3, #180224	; 0x2c000
     3f0:	0e00000a 	cdpeq	0, 0, cr0, cr0, cr10, {0}
     3f4:	08030005 	stmeqda	r3, {r0, r2}
     3f8:	0b3b0b3a 	bleq	ec30e8 <DISABLE_IRQ+0xec3068>
     3fc:	0a021349 	beq	85128 <DISABLE_IRQ+0x850a8>
     400:	050f0000 	streq	r0, [pc, #0]	; 408 <DISABLE_IRQ+0x388>
     404:	3a0e0300 	bcc	38100c <DISABLE_IRQ+0x380f8c>
     408:	490b3b0b 	stmmidb	fp, {r0, r1, r3, r8, r9, fp, ip, sp}
     40c:	000a0213 	andeq	r0, sl, r3, lsl r2
     410:	00341000 	eoreqs	r1, r4, r0
     414:	0b3a0803 	bleq	e82428 <DISABLE_IRQ+0xe823a8>
     418:	13490b3b 	cmpne	r9, #60416	; 0xec00
     41c:	2e110000 	wxorcs	wr0, wr1, wr0
     420:	030c3f01 	tsteq	ip, #4	; 0x4
     424:	3b0b3a0e 	blcc	2cec64 <DISABLE_IRQ+0x2cebe4>
     428:	3c13490b 	ldccc	9, cr4, [r3], {11}
     42c:	1200000c 	andne	r0, r0, #12	; 0xc
     430:	00000018 	andeq	r0, r0, r8, lsl r0
     434:	01011513 	tsteq	r1, r3, lsl r5
     438:	000c2713 	andeq	r2, ip, r3, lsl r7
     43c:	00051400 	andeq	r1, r5, r0, lsl #8
     440:	00001349 	andeq	r1, r0, r9, asr #6
     444:	0b000f15 	bleq	40a0 <DISABLE_IRQ+0x4020>
     448:	1600000b 	strne	r0, [r0], -fp
     44c:	00000021 	andeq	r0, r0, r1, lsr #32
     450:	03003417 	tsteq	r0, #385875968	; 0x17000000
     454:	3b0b3a0e 	blcc	2cec94 <DISABLE_IRQ+0x2cec14>
     458:	3f13490b 	swicc	0x0013490b
     45c:	000c3c0c 	andeq	r3, ip, ip, lsl #24
     460:	11010000 	tstne	r1, r0
     464:	12061001 	andne	r1, r6, #1	; 0x1
     468:	25011101 	strcs	r1, [r1, #-257]
     46c:	030b130e 	tsteq	fp, #939524096	; 0x38000000
     470:	000e1b0e 	andeq	r1, lr, lr, lsl #22
     474:	012e0200 	teqeq	lr, r0, lsl #4
     478:	0c3f1301 	ldceq	3, cr1, [pc], #-4
     47c:	0b3a0e03 	bleq	e83c90 <DISABLE_IRQ+0xe83c10>
     480:	0c270b3b 	stceq	11, cr0, [r7], #-236
     484:	01111349 	tsteq	r1, r9, asr #6
     488:	0a400112 	beq	10008d8 <DISABLE_IRQ+0x1000858>
     48c:	34030000 	strcc	r0, [r3]
     490:	3a080300 	bcc	201098 <DISABLE_IRQ+0x201018>
     494:	490b3b0b 	stmmidb	fp, {r0, r1, r3, r8, r9, fp, ip, sp}
     498:	000a0213 	andeq	r0, sl, r3, lsl r2
     49c:	000f0400 	andeq	r0, pc, r0, lsl #8
     4a0:	13490b0b 	cmpne	r9, #11264	; 0x2c00
     4a4:	24050000 	strcs	r0, [r5]
     4a8:	0b0e0300 	bleq	3810b0 <DISABLE_IRQ+0x381030>
     4ac:	000b3e0b 	andeq	r3, fp, fp, lsl #28
     4b0:	00240600 	eoreq	r0, r4, r0, lsl #12
     4b4:	0b0b0803 	bleq	2c24c8 <DISABLE_IRQ+0x2c2448>
     4b8:	00000b3e 	andeq	r0, r0, lr, lsr fp
     4bc:	03000507 	tsteq	r0, #29360128	; 0x1c00000
     4c0:	3b0b3a0e 	blcc	2ced00 <DISABLE_IRQ+0x2cec80>
     4c4:	0213490b 	andeqs	r4, r3, #180224	; 0x2c000
     4c8:	0800000a 	stmeqda	r0, {r1, r3}
     4cc:	0e030034 	mcreq	0, 0, r0, cr3, cr4, {1}
     4d0:	0b3b0b3a 	bleq	ec31c0 <DISABLE_IRQ+0xec3140>
     4d4:	0a021349 	beq	85200 <DISABLE_IRQ+0x85180>
     4d8:	01090000 	tsteq	r9, r0
     4dc:	49130101 	ldmmidb	r3, {r0, r8}
     4e0:	0a000013 	beq	534 <DISABLE_IRQ+0x4b4>
     4e4:	13490021 	cmpne	r9, #33	; 0x21
     4e8:	0000052f 	andeq	r0, r0, pc, lsr #10
     4ec:	0300340b 	tsteq	r0, #184549376	; 0xb000000
     4f0:	3b0b3a0e 	blcc	2ced30 <DISABLE_IRQ+0x2cecb0>
     4f4:	3f13490b 	swicc	0x0013490b
     4f8:	000a020c 	andeq	r0, sl, ip, lsl #4
     4fc:	11010000 	tstne	r1, r0
     500:	12061001 	andne	r1, r6, #1	; 0x1
     504:	25011101 	strcs	r1, [r1, #-257]
     508:	030b130e 	tsteq	fp, #939524096	; 0x38000000
     50c:	000e1b0e 	andeq	r1, lr, lr, lsl #22
     510:	012e0200 	teqeq	lr, r0, lsl #4
     514:	0c3f1301 	ldceq	3, cr1, [pc], #-4
     518:	0b3a0e03 	bleq	e83d2c <DISABLE_IRQ+0xe83cac>
     51c:	0c270b3b 	stceq	11, cr0, [r7], #-236
     520:	01111349 	tsteq	r1, r9, asr #6
     524:	0a400112 	beq	1000974 <DISABLE_IRQ+0x10008f4>
     528:	34030000 	strcc	r0, [r3]
     52c:	3a080300 	bcc	201134 <DISABLE_IRQ+0x2010b4>
     530:	490b3b0b 	stmmidb	fp, {r0, r1, r3, r8, r9, fp, ip, sp}
     534:	000a0213 	andeq	r0, sl, r3, lsl r2
     538:	00240400 	eoreq	r0, r4, r0, lsl #8
     53c:	0b0b0803 	bleq	2c2550 <DISABLE_IRQ+0x2c24d0>
     540:	00000b3e 	andeq	r0, r0, lr, lsr fp
     544:	0b000f05 	bleq	4160 <DISABLE_IRQ+0x40e0>
     548:	0013490b 	andeqs	r4, r3, fp, lsl #18
     54c:	00350600 	eoreqs	r0, r5, r0, lsl #12
     550:	00001349 	andeq	r1, r0, r9, asr #6
     554:	01012e07 	tsteq	r1, r7, lsl #28
     558:	030c3f13 	tsteq	ip, #76	; 0x4c
     55c:	3b0b3a0e 	blcc	2ced9c <DISABLE_IRQ+0x2ced1c>
     560:	110c270b 	tstne	ip, fp, lsl #14
     564:	40011201 	andmi	r1, r1, r1, lsl #4
     568:	0800000a 	stmeqda	r0, {r1, r3}
     56c:	0e030034 	mcreq	0, 0, r0, cr3, cr4, {1}
     570:	0b3b0b3a 	bleq	ec3260 <DISABLE_IRQ+0xec31e0>
     574:	0c3f1349 	ldceq	3, cr1, [pc], #-292
     578:	00000c3c 	andeq	r0, r0, ip, lsr ip
     57c:	3f002e09 	swicc	0x00002e09
     580:	3a0e030c 	bcc	3811b8 <DISABLE_IRQ+0x381138>
     584:	270b3b0b 	strcs	r3, [fp, -fp, lsl #22]
     588:	1201110c 	andne	r1, r1, #3	; 0x3
     58c:	000a4001 	andeq	r4, sl, r1
     590:	00050a00 	andeq	r0, r5, r0, lsl #20
     594:	0b3a0803 	bleq	e825a8 <DISABLE_IRQ+0xe82528>
     598:	13490b3b 	cmpne	r9, #60416	; 0xec00
     59c:	00000a02 	andeq	r0, r0, r2, lsl #20
     5a0:	0300240b 	tsteq	r0, #184549376	; 0xb000000
     5a4:	3e0b0b0e 	fmacdcc	d0, d11, d14
     5a8:	0c00000b 	stceq	0, cr0, [r0], {11}
     5ac:	0e030005 	cdpeq	0, 0, cr0, cr3, cr5, {0}
     5b0:	0b3b0b3a 	bleq	ec32a0 <DISABLE_IRQ+0xec3220>
     5b4:	0a021349 	beq	852e0 <DISABLE_IRQ+0x85260>
     5b8:	340d0000 	strcc	r0, [sp]
     5bc:	3a0e0300 	bcc	3811c4 <DISABLE_IRQ+0x381144>
     5c0:	490b3b0b 	stmmidb	fp, {r0, r1, r3, r8, r9, fp, ip, sp}
     5c4:	000a0213 	andeq	r0, sl, r3, lsl r2
     5c8:	002e0e00 	eoreq	r0, lr, r0, lsl #28
     5cc:	0e030c3f 	mcreq	12, 0, r0, cr3, cr15, {1}
     5d0:	0b3b0b3a 	bleq	ec32c0 <DISABLE_IRQ+0xec3240>
     5d4:	13490c27 	cmpne	r9, #9984	; 0x2700
     5d8:	01120111 	tsteq	r2, r1, lsl r1
     5dc:	00000a40 	andeq	r0, r0, r0, asr #20
     5e0:	3f012e0f 	swicc	0x00012e0f
     5e4:	3a0e030c 	bcc	38121c <DISABLE_IRQ+0x38119c>
     5e8:	270b3b0b 	strcs	r3, [fp, -fp, lsl #22]
     5ec:	1201110c 	andne	r1, r1, #3	; 0x3
     5f0:	000a4001 	andeq	r4, sl, r1
     5f4:	11010000 	tstne	r1, r0
     5f8:	12061001 	andne	r1, r6, #1	; 0x1
     5fc:	25011101 	strcs	r1, [r1, #-257]
     600:	030b130e 	tsteq	fp, #939524096	; 0x38000000
     604:	000e1b0e 	andeq	r1, lr, lr, lsl #22
     608:	002e0200 	eoreq	r0, lr, r0, lsl #4
     60c:	0e030c3f 	mcreq	12, 0, r0, cr3, cr15, {1}
     610:	0b3b0b3a 	bleq	ec3300 <DISABLE_IRQ+0xec3280>
     614:	01120111 	tsteq	r2, r1, lsl r1
     618:	00000a40 	andeq	r0, r0, r0, asr #20
     61c:	01012e03 	tsteq	r1, r3, lsl #28
     620:	030c3f13 	tsteq	ip, #76	; 0x4c
     624:	3b0b3a0e 	blcc	2cee64 <DISABLE_IRQ+0x2cede4>
     628:	110c270b 	tstne	ip, fp, lsl #14
     62c:	40011201 	andmi	r1, r1, r1, lsl #4
     630:	0400000a 	streq	r0, [r0], #-10
     634:	08030005 	stmeqda	r3, {r0, r2}
     638:	0b3b0b3a 	bleq	ec3328 <DISABLE_IRQ+0xec32a8>
     63c:	0a021349 	beq	85368 <DISABLE_IRQ+0x852e8>
     640:	05050000 	streq	r0, [r5]
     644:	3a0e0300 	bcc	38124c <DISABLE_IRQ+0x3811cc>
     648:	490b3b0b 	stmmidb	fp, {r0, r1, r3, r8, r9, fp, ip, sp}
     64c:	000a0213 	andeq	r0, sl, r3, lsl r2
     650:	00340600 	eoreqs	r0, r4, r0, lsl #12
     654:	0b3a0803 	bleq	e82668 <DISABLE_IRQ+0xe825e8>
     658:	13490b3b 	cmpne	r9, #60416	; 0xec00
     65c:	00000a02 	andeq	r0, r0, r2, lsl #20
     660:	03003407 	tsteq	r0, #117440512	; 0x7000000
     664:	3b0b3a0e 	blcc	2ceea4 <DISABLE_IRQ+0x2cee24>
     668:	0213490b 	andeqs	r4, r3, #180224	; 0x2c000
     66c:	0800000a 	stmeqda	r0, {r1, r3}
     670:	0e030024 	cdpeq	0, 0, cr0, cr3, cr4, {1}
     674:	0b3e0b0b 	bleq	f832a8 <DISABLE_IRQ+0xf83228>
     678:	0f090000 	swieq	0x00090000
     67c:	490b0b00 	stmmidb	fp, {r8, r9, fp}
     680:	0a000013 	beq	6d4 <DISABLE_IRQ+0x654>
     684:	0e030034 	mcreq	0, 0, r0, cr3, cr4, {1}
     688:	0b3b0b3a 	bleq	ec3378 <DISABLE_IRQ+0xec32f8>
     68c:	0c3f1349 	ldceq	3, cr1, [pc], #-292
     690:	00000a02 	andeq	r0, r0, r2, lsl #20
     694:	01110100 	tsteq	r1, r0, lsl #2
     698:	01120610 	tsteq	r2, r0, lsl r6
     69c:	0e250111 	mcreq	1, 1, r0, cr5, cr1, {0}
     6a0:	0e030b13 	mcreq	11, 0, r0, cr3, cr3, {0}
     6a4:	00000e1b 	andeq	r0, r0, fp, lsl lr
     6a8:	03002402 	tsteq	r0, #33554432	; 0x2000000
     6ac:	3e0b0b0e 	fmacdcc	d0, d11, d14
     6b0:	0300000b 	tsteq	r0, #11	; 0xb
     6b4:	13010113 	tstne	r1, #-1073741820	; 0xc0000004
     6b8:	0b0b0e03 	bleq	2c3ecc <DISABLE_IRQ+0x2c3e4c>
     6bc:	0b3b0b3a 	bleq	ec33ac <DISABLE_IRQ+0xec332c>
     6c0:	0d040000 	stceq	0, cr0, [r4]
     6c4:	3a0e0300 	bcc	3812cc <DISABLE_IRQ+0x38124c>
     6c8:	490b3b0b 	stmmidb	fp, {r0, r1, r3, r8, r9, fp, ip, sp}
     6cc:	000a3813 	andeq	r3, sl, r3, lsl r8
     6d0:	000f0500 	andeq	r0, pc, r0, lsl #10
     6d4:	13490b0b 	cmpne	r9, #11264	; 0x2c00
     6d8:	24060000 	strcs	r0, [r6]
     6dc:	0b080300 	bleq	2012e4 <DISABLE_IRQ+0x201264>
     6e0:	000b3e0b 	andeq	r3, fp, fp, lsl #28
     6e4:	012e0700 	teqeq	lr, r0, lsl #14
     6e8:	0c3f1301 	ldceq	3, cr1, [pc], #-4
     6ec:	0b3a0e03 	bleq	e83f00 <DISABLE_IRQ+0xe83e80>
     6f0:	0c270b3b 	stceq	11, cr0, [r7], #-236
     6f4:	01120111 	tsteq	r2, r1, lsl r1
     6f8:	00000a40 	andeq	r0, r0, r0, asr #20
     6fc:	03000508 	tsteq	r0, #33554432	; 0x2000000
     700:	3b0b3a0e 	blcc	2cef40 <DISABLE_IRQ+0x2ceec0>
     704:	0213490b 	andeqs	r4, r3, #180224	; 0x2c000
     708:	0900000a 	stmeqdb	r0, {r1, r3}
     70c:	1301012e 	tstne	r1, #-2147483637	; 0x8000000b
     710:	0e030c3f 	mcreq	12, 0, r0, cr3, cr15, {1}
     714:	0b3b0b3a 	bleq	ec3404 <DISABLE_IRQ+0xec3384>
     718:	13490c27 	cmpne	r9, #9984	; 0x2700
     71c:	01120111 	tsteq	r2, r1, lsl r1
     720:	00000a40 	andeq	r0, r0, r0, asr #20
     724:	0300050a 	tsteq	r0, #41943040	; 0x2800000
     728:	3b0b3a08 	blcc	2cef50 <DISABLE_IRQ+0x2ceed0>
     72c:	0213490b 	andeqs	r4, r3, #180224	; 0x2c000
     730:	0b00000a 	bleq	760 <DISABLE_IRQ+0x6e0>
     734:	13010101 	tstne	r1, #1073741824	; 0x40000000
     738:	00001349 	andeq	r1, r0, r9, asr #6
     73c:	0000210c 	andeq	r2, r0, ip, lsl #2
     740:	00340d00 	eoreqs	r0, r4, r0, lsl #26
     744:	0b3a0e03 	bleq	e83f58 <DISABLE_IRQ+0xe83ed8>
     748:	13490b3b 	cmpne	r9, #60416	; 0xec00
     74c:	0c3c0c3f 	ldceq	12, cr0, [ip], #-252
     750:	01000000 	tsteq	r0, r0
     754:	06100111 	undefined
     758:	01110112 	tsteq	r1, r2, lsl r1
     75c:	0b130e25 	bleq	4c3ff8 <DISABLE_IRQ+0x4c3f78>
     760:	0e1b0e03 	cdpeq	14, 1, cr0, cr11, cr3, {0}
     764:	2e020000 	cdpcs	0, 0, cr0, cr2, cr0, {0}
     768:	030c3f00 	tsteq	ip, #0	; 0x0
     76c:	3b0b3a0e 	blcc	2cefac <DISABLE_IRQ+0x2cef2c>
     770:	110c270b 	tstne	ip, fp, lsl #14
     774:	40011201 	andmi	r1, r1, r1, lsl #4
     778:	0300000a 	tsteq	r0, #10	; 0xa
     77c:	1301012e 	tstne	r1, #-2147483637	; 0x8000000b
     780:	0e030c3f 	mcreq	12, 0, r0, cr3, cr15, {1}
     784:	0b3b0b3a 	bleq	ec3474 <DISABLE_IRQ+0xec33f4>
     788:	01110c27 	tsteq	r1, r7, lsr #24
     78c:	0a400112 	beq	1000bdc <DISABLE_IRQ+0x1000b5c>
     790:	05040000 	streq	r0, [r4]
     794:	3a080300 	bcc	20139c <DISABLE_IRQ+0x20131c>
     798:	490b3b0b 	stmmidb	fp, {r0, r1, r3, r8, r9, fp, ip, sp}
     79c:	000a0213 	andeq	r0, sl, r3, lsl r2
     7a0:	00240500 	eoreq	r0, r4, r0, lsl #10
     7a4:	0b0b0e03 	bleq	2c3fb8 <DISABLE_IRQ+0x2c3f38>
     7a8:	00000b3e 	andeq	r0, r0, lr, lsr fp
     7ac:	3f002e06 	swicc	0x00002e06
     7b0:	3a0e030c 	bcc	3813e8 <DISABLE_IRQ+0x381368>
     7b4:	270b3b0b 	strcs	r3, [fp, -fp, lsl #22]
     7b8:	1113490c 	tstne	r3, ip, lsl #18
     7bc:	40011201 	andmi	r1, r1, r1, lsl #4
     7c0:	0700000a 	streq	r0, [r0, -sl]
     7c4:	0b0b000f 	bleq	2c0808 <DISABLE_IRQ+0x2c0788>
     7c8:	00001349 	andeq	r1, r0, r9, asr #6
     7cc:	01012e08 	tsteq	r1, r8, lsl #28
     7d0:	030c3f13 	tsteq	ip, #76	; 0x4c
     7d4:	3b0b3a0e 	blcc	2cf014 <DISABLE_IRQ+0x2cef94>
     7d8:	490c270b 	stmmidb	ip, {r0, r1, r3, r8, r9, sl, sp}
     7dc:	12011113 	andne	r1, r1, #-1073741820	; 0xc0000004
     7e0:	000a4001 	andeq	r4, sl, r1
     7e4:	01010900 	tsteq	r1, r0, lsl #18
     7e8:	13491301 	cmpne	r9, #67108864	; 0x4000000
     7ec:	210a0000 	tstcs	sl, r0
     7f0:	2f134900 	swics	0x00134900
     7f4:	0b000005 	bleq	810 <DISABLE_IRQ+0x790>
     7f8:	0e030034 	mcreq	0, 0, r0, cr3, cr4, {1}
     7fc:	0b3b0b3a 	bleq	ec34ec <DISABLE_IRQ+0xec346c>
     800:	0a021349 	beq	8552c <DISABLE_IRQ+0x854ac>
     804:	01000000 	tsteq	r0, r0
     808:	06100111 	undefined
     80c:	01110112 	tsteq	r1, r2, lsl r1
     810:	0b130e25 	bleq	4c40ac <DISABLE_IRQ+0x4c402c>
     814:	0e1b0e03 	cdpeq	14, 1, cr0, cr11, cr3, {0}
     818:	13020000 	tstne	r2, #0	; 0x0
     81c:	03130101 	tsteq	r3, #1073741824	; 0x40000000
     820:	3a0b0b0e 	bcc	2c3460 <DISABLE_IRQ+0x2c33e0>
     824:	000b3b0b 	andeq	r3, fp, fp, lsl #22
     828:	000d0300 	andeq	r0, sp, r0, lsl #6
     82c:	0b3a0e03 	bleq	e84040 <DISABLE_IRQ+0xe83fc0>
     830:	13490b3b 	cmpne	r9, #60416	; 0xec00
     834:	00000a38 	andeq	r0, r0, r8, lsr sl
     838:	01010104 	tsteq	r1, r4, lsl #2
     83c:	00134913 	andeqs	r4, r3, r3, lsl r9
     840:	00210500 	eoreq	r0, r1, r0, lsl #10
     844:	0b2f1349 	bleq	bc5570 <DISABLE_IRQ+0xbc54f0>
     848:	24060000 	strcs	r0, [r6]
     84c:	0b0e0300 	bleq	381454 <DISABLE_IRQ+0x3813d4>
     850:	000b3e0b 	andeq	r3, fp, fp, lsl #28
     854:	000f0700 	andeq	r0, pc, r0, lsl #14
     858:	13490b0b 	cmpne	r9, #11264	; 0x2c00
     85c:	15080000 	strne	r0, [r8]
     860:	27130101 	ldrcs	r0, [r3, -r1, lsl #2]
     864:	0013490c 	andeqs	r4, r3, ip, lsl #18
     868:	00050900 	andeq	r0, r5, r0, lsl #18
     86c:	00001349 	andeq	r1, r0, r9, asr #6
     870:	0300160a 	tsteq	r0, #10485760	; 0xa00000
     874:	3b0b3a0e 	blcc	2cf0b4 <DISABLE_IRQ+0x2cf034>
     878:	0013490b 	andeqs	r4, r3, fp, lsl #18
     87c:	00210b00 	eoreq	r0, r1, r0, lsl #22
     880:	00001349 	andeq	r1, r0, r9, asr #6
     884:	01012e0c 	tsteq	r1, ip, lsl #28
     888:	3a0e0313 	bcc	3814dc <DISABLE_IRQ+0x38145c>
     88c:	270b3b0b 	strcs	r3, [fp, -fp, lsl #22]
     890:	1113490c 	tstne	r3, ip, lsl #18
     894:	40011201 	andmi	r1, r1, r1, lsl #4
     898:	0d00000a 	stceq	0, cr0, [r0, #-40]
     89c:	08030005 	stmeqda	r3, {r0, r2}
     8a0:	0b3b0b3a 	bleq	ec3590 <DISABLE_IRQ+0xec3510>
     8a4:	0a021349 	beq	855d0 <DISABLE_IRQ+0x85550>
     8a8:	340e0000 	strcc	r0, [lr]
     8ac:	3a080300 	bcc	2014b4 <DISABLE_IRQ+0x201434>
     8b0:	490b3b0b 	stmmidb	fp, {r0, r1, r3, r8, r9, fp, ip, sp}
     8b4:	000a0213 	andeq	r0, sl, r3, lsl r2
     8b8:	00340f00 	eoreqs	r0, r4, r0, lsl #30
     8bc:	0b3a0803 	bleq	e828d0 <DISABLE_IRQ+0xe82850>
     8c0:	13490b3b 	cmpne	r9, #60416	; 0xec00
     8c4:	2e100000 	wxorcs	wr0, wr0, wr0
     8c8:	3f130101 	swicc	0x00130101
     8cc:	3a0e030c 	bcc	381504 <DISABLE_IRQ+0x381484>
     8d0:	270b3b0b 	strcs	r3, [fp, -fp, lsl #22]
     8d4:	1113490c 	tstne	r3, ip, lsl #18
     8d8:	40011201 	andmi	r1, r1, r1, lsl #4
     8dc:	1100000a 	tstne	r0, sl
     8e0:	0e030005 	cdpeq	0, 0, cr0, cr3, cr5, {0}
     8e4:	0b3b0b3a 	bleq	ec35d4 <DISABLE_IRQ+0xec3554>
     8e8:	0a021349 	beq	85614 <DISABLE_IRQ+0x85594>
     8ec:	34120000 	ldrcc	r0, [r2]
     8f0:	3a0e0300 	bcc	3814f8 <DISABLE_IRQ+0x381478>
     8f4:	490b3b0b 	stmmidb	fp, {r0, r1, r3, r8, r9, fp, ip, sp}
     8f8:	13000013 	tstne	r0, #19	; 0x13
     8fc:	0c3f012e 	ldfeqs	f0, [pc], #-184
     900:	0b3a0e03 	bleq	e84114 <DISABLE_IRQ+0xe84094>
     904:	13490b3b 	cmpne	r9, #60416	; 0xec00
     908:	00000c3c 	andeq	r0, r0, ip, lsr ip
     90c:	00001814 	andeq	r1, r0, r4, lsl r8
     910:	00241500 	eoreq	r1, r4, r0, lsl #10
     914:	0b0b0803 	bleq	2c2928 <DISABLE_IRQ+0x2c28a8>
     918:	00000b3e 	andeq	r0, r0, lr, lsr fp
     91c:	01012e16 	tsteq	r1, r6, lsl lr
     920:	030c3f13 	tsteq	ip, #76	; 0x4c
     924:	3b0b3a0e 	blcc	2cf164 <DISABLE_IRQ+0x2cf0e4>
     928:	110c270b 	tstne	ip, fp, lsl #14
     92c:	40011201 	andmi	r1, r1, r1, lsl #4
     930:	1700000a 	strne	r0, [r0, -sl]
     934:	0e030034 	mcreq	0, 0, r0, cr3, cr4, {1}
     938:	0b3b0b3a 	bleq	ec3628 <DISABLE_IRQ+0xec35a8>
     93c:	0a021349 	beq	85668 <DISABLE_IRQ+0x855e8>
     940:	2e180000 	wxorcs	wr0, wr8, wr0
     944:	3f130101 	swicc	0x00130101
     948:	3a0e030c 	bcc	381580 <DISABLE_IRQ+0x381500>
     94c:	490b3b0b 	stmmidb	fp, {r0, r1, r3, r8, r9, fp, ip, sp}
     950:	000c3c13 	andeq	r3, ip, r3, lsl ip
     954:	000a1900 	andeq	r1, sl, r0, lsl #18
     958:	0b3a0e03 	bleq	e8416c <DISABLE_IRQ+0xe840ec>
     95c:	01110b3b 	tsteq	r1, fp, lsr fp
     960:	1d1a0000 	ldcne	0, cr0, [sl]
     964:	31130101 	tstcc	r3, r1, lsl #2
     968:	12011113 	andne	r1, r1, #-1073741820	; 0xc0000004
     96c:	1b000001 	blne	978 <DISABLE_IRQ+0x8f8>
     970:	13310005 	teqne	r1, #5	; 0x5
     974:	0b1c0000 	bleq	70097c <DISABLE_IRQ+0x7008fc>
     978:	00065501 	andeq	r5, r6, r1, lsl #10
     97c:	00341d00 	eoreqs	r1, r4, r0, lsl #26
     980:	0a021331 	beq	8564c <DISABLE_IRQ+0x855cc>
     984:	0b1e0000 	bleq	78098c <DISABLE_IRQ+0x78090c>
     988:	11130101 	tstne	r3, r1, lsl #2
     98c:	00011201 	andeq	r1, r1, r1, lsl #4
     990:	012e1f00 	teqeq	lr, r0, lsl #30
     994:	0e031301 	cdpeq	3, 0, cr1, cr3, cr1, {0}
     998:	0b3b0b3a 	bleq	ec3688 <DISABLE_IRQ+0xec3608>
     99c:	13490c27 	cmpne	r9, #9984	; 0x2700
     9a0:	00000b20 	andeq	r0, r0, r0, lsr #22
     9a4:	03000520 	tsteq	r0, #134217728	; 0x8000000
     9a8:	3b0b3a08 	blcc	2cf1d0 <DISABLE_IRQ+0x2cf150>
     9ac:	0013490b 	andeqs	r4, r3, fp, lsl #18
     9b0:	00052100 	andeq	r2, r5, r0, lsl #2
     9b4:	0b3a0e03 	bleq	e841c8 <DISABLE_IRQ+0xe84148>
     9b8:	13490b3b 	cmpne	r9, #60416	; 0xec00
     9bc:	34220000 	strcct	r0, [r2]
     9c0:	3a0e0300 	bcc	3815c8 <DISABLE_IRQ+0x381548>
     9c4:	490b3b0b 	stmmidb	fp, {r0, r1, r3, r8, r9, fp, ip, sp}
     9c8:	020c3f13 	andeq	r3, ip, #76	; 0x4c
     9cc:	0000000a 	andeq	r0, r0, sl
     9d0:	10011101 	andne	r1, r1, r1, lsl #2
     9d4:	11011206 	tstne	r1, r6, lsl #4
     9d8:	130e2501 	tstne	lr, #4194304	; 0x400000
     9dc:	1b0e030b 	blne	381610 <DISABLE_IRQ+0x381590>
     9e0:	0200000e 	andeq	r0, r0, #14	; 0xe
     9e4:	13010113 	tstne	r1, #-1073741820	; 0xc0000004
     9e8:	0b0b0e03 	bleq	2c41fc <DISABLE_IRQ+0x2c417c>
     9ec:	0b3b0b3a 	bleq	ec36dc <DISABLE_IRQ+0xec365c>
     9f0:	0d030000 	stceq	0, cr0, [r3]
     9f4:	3a0e0300 	bcc	3815fc <DISABLE_IRQ+0x38157c>
     9f8:	490b3b0b 	stmmidb	fp, {r0, r1, r3, r8, r9, fp, ip, sp}
     9fc:	000a3813 	andeq	r3, sl, r3, lsl r8
     a00:	00240400 	eoreq	r0, r4, r0, lsl #8
     a04:	0b0b0e03 	bleq	2c4218 <DISABLE_IRQ+0x2c4198>
     a08:	00000b3e 	andeq	r0, r0, lr, lsr fp
     a0c:	01010105 	tsteq	r1, r5, lsl #2
     a10:	00134913 	andeqs	r4, r3, r3, lsl r9
     a14:	00210600 	eoreq	r0, r1, r0, lsl #12
     a18:	0b2f1349 	bleq	bc5744 <DISABLE_IRQ+0xbc56c4>
     a1c:	2e070000 	cdpcs	0, 0, cr0, cr7, cr0, {0}
     a20:	3f130101 	swicc	0x00130101
     a24:	3a0e030c 	bcc	38165c <DISABLE_IRQ+0x3815dc>
     a28:	270b3b0b 	strcs	r3, [fp, -fp, lsl #22]
     a2c:	1113490c 	tstne	r3, ip, lsl #18
     a30:	40011201 	andmi	r1, r1, r1, lsl #4
     a34:	0800000a 	stmeqda	r0, {r1, r3}
     a38:	08030005 	stmeqda	r3, {r0, r2}
     a3c:	0b3b0b3a 	bleq	ec372c <DISABLE_IRQ+0xec36ac>
     a40:	0a021349 	beq	8576c <DISABLE_IRQ+0x856ec>
     a44:	05090000 	streq	r0, [r9]
     a48:	3a0e0300 	bcc	381650 <DISABLE_IRQ+0x3815d0>
     a4c:	490b3b0b 	stmmidb	fp, {r0, r1, r3, r8, r9, fp, ip, sp}
     a50:	000a0213 	andeq	r0, sl, r3, lsl r2
     a54:	00340a00 	eoreqs	r0, r4, r0, lsl #20
     a58:	0b3a0e03 	bleq	e8426c <DISABLE_IRQ+0xe841ec>
     a5c:	13490b3b 	cmpne	r9, #60416	; 0xec00
     a60:	00000a02 	andeq	r0, r0, r2, lsl #20
     a64:	01010b0b 	tsteq	r1, fp, lsl #22
     a68:	12011113 	andne	r1, r1, #-1073741820	; 0xc0000004
     a6c:	0c000001 	stceq	0, cr0, [r0], {1}
     a70:	0c3f012e 	ldfeqs	f0, [pc], #-184
     a74:	0b3a0e03 	bleq	e84288 <DISABLE_IRQ+0xe84208>
     a78:	13490b3b 	cmpne	r9, #60416	; 0xec00
     a7c:	00000c3c 	andeq	r0, r0, ip, lsr ip
     a80:	0000180d 	andeq	r1, r0, sp, lsl #16
     a84:	010b0e00 	tsteq	fp, r0, lsl #28
     a88:	01120111 	tsteq	r2, r1, lsl r1
     a8c:	240f0000 	strcs	r0, [pc], #0	; a94 <DISABLE_IRQ+0xa14>
     a90:	0b080300 	bleq	201698 <DISABLE_IRQ+0x201618>
     a94:	000b3e0b 	andeq	r3, fp, fp, lsl #28
     a98:	012e1000 	teqeq	lr, r0
     a9c:	0c3f1301 	ldceq	3, cr1, [pc], #-4
     aa0:	0b3a0e03 	bleq	e842b4 <DISABLE_IRQ+0xe84234>
     aa4:	0c27053b 	cfstr32eq	mvfx0, [r7], #-236
     aa8:	01111349 	tsteq	r1, r9, asr #6
     aac:	0a400112 	beq	1000efc <DISABLE_IRQ+0x1000e7c>
     ab0:	05110000 	ldreq	r0, [r1]
     ab4:	3a0e0300 	bcc	3816bc <DISABLE_IRQ+0x38163c>
     ab8:	49053b0b 	stmmidb	r5, {r0, r1, r3, r8, r9, fp, ip, sp}
     abc:	000a0213 	andeq	r0, sl, r3, lsl r2
     ac0:	000f1200 	andeq	r1, pc, r0, lsl #4
     ac4:	13490b0b 	cmpne	r9, #11264	; 0x2c00
     ac8:	2e130000 	wxorcs	wr0, wr3, wr0
     acc:	030c3f00 	tsteq	ip, #0	; 0x0
     ad0:	3b0b3a0e 	blcc	2cf310 <DISABLE_IRQ+0x2cf290>
     ad4:	110c2705 	tstne	ip, r5, lsl #14
     ad8:	40011201 	andmi	r1, r1, r1, lsl #4
     adc:	1400000a 	strne	r0, [r0], #-10
     ae0:	0c3f002e 	ldceq	0, cr0, [pc], #-184
     ae4:	0b3a0e03 	bleq	e842f8 <DISABLE_IRQ+0xe84278>
     ae8:	0c27053b 	cfstr32eq	mvfx0, [r7], #-236
     aec:	01111349 	tsteq	r1, r9, asr #6
     af0:	0a400112 	beq	1000f40 <DISABLE_IRQ+0x1000ec0>
     af4:	34150000 	ldrcc	r0, [r5]
     af8:	3a080300 	bcc	201700 <DISABLE_IRQ+0x201680>
     afc:	49053b0b 	stmmidb	r5, {r0, r1, r3, r8, r9, fp, ip, sp}
     b00:	000a0213 	andeq	r0, sl, r3, lsl r2
     b04:	00051600 	andeq	r1, r5, r0, lsl #12
     b08:	0b3a0803 	bleq	e82b1c <DISABLE_IRQ+0xe82a9c>
     b0c:	1349053b 	cmpne	r9, #247463936	; 0xec00000
     b10:	00000a02 	andeq	r0, r0, r2, lsl #20
     b14:	03003417 	tsteq	r0, #385875968	; 0x17000000
     b18:	3b0b3a0e 	blcc	2cf358 <DISABLE_IRQ+0x2cf2d8>
     b1c:	02134905 	andeqs	r4, r3, #81920	; 0x14000
     b20:	1800000a 	stmneda	r0, {r1, r3}
     b24:	1301012e 	tstne	r1, #-2147483637	; 0x8000000b
     b28:	0e030c3f 	mcreq	12, 0, r0, cr3, cr15, {1}
     b2c:	053b0b3a 	ldreq	r0, [fp, #-2874]!
     b30:	01110c27 	tsteq	r1, r7, lsr #24
     b34:	0a400112 	beq	1000f84 <DISABLE_IRQ+0x1000f04>
     b38:	2e190000 	wxorcs	wr0, wr9, wr0
     b3c:	3f130101 	swicc	0x00130101
     b40:	3a0e030c 	bcc	381778 <DISABLE_IRQ+0x3816f8>
     b44:	490b3b0b 	stmmidb	fp, {r0, r1, r3, r8, r9, fp, ip, sp}
     b48:	12011113 	andne	r1, r1, #-1073741820	; 0xc0000004
     b4c:	000a4001 	andeq	r4, sl, r1
     b50:	00341a00 	eoreqs	r1, r4, r0, lsl #20
     b54:	0b3a0803 	bleq	e82b68 <DISABLE_IRQ+0xe82ae8>
     b58:	13490b3b 	cmpne	r9, #60416	; 0xec00
     b5c:	00000a02 	andeq	r0, r0, r2, lsl #20
     b60:	4900211b 	stmmidb	r0, {r0, r1, r3, r4, r8, sp}
     b64:	00052f13 	andeq	r2, r5, r3, lsl pc
     b68:	00341c00 	eoreqs	r1, r4, r0, lsl #24
     b6c:	0b3a0e03 	bleq	e84380 <DISABLE_IRQ+0xe84300>
     b70:	13490b3b 	cmpne	r9, #60416	; 0xec00
     b74:	0a020c3f 	beq	83c78 <DISABLE_IRQ+0x83bf8>
     b78:	01000000 	tsteq	r0, r0
     b7c:	06100011 	undefined
     b80:	01120111 	tsteq	r2, r1, lsl r1
     b84:	081b0803 	ldmeqda	fp, {r0, r1, fp}
     b88:	05130825 	ldreq	r0, [r3, #-2085]
     b8c:	01000000 	tsteq	r0, r0
     b90:	06100011 	undefined
     b94:	01120111 	tsteq	r2, r1, lsl r1
     b98:	081b0803 	ldmeqda	fp, {r0, r1, fp}
     b9c:	05130825 	ldreq	r0, [r3, #-2085]
     ba0:	01000000 	tsteq	r0, r0
     ba4:	06100111 	undefined
     ba8:	01110112 	tsteq	r1, r2, lsl r1
     bac:	0b130e25 	bleq	4c4448 <DISABLE_IRQ+0x4c43c8>
     bb0:	0e1b0e03 	cdpeq	14, 1, cr0, cr11, cr3, {0}
     bb4:	01020000 	tsteq	r2, r0
     bb8:	49130101 	ldmmidb	r3, {r0, r8}
     bbc:	03000013 	tsteq	r0, #19	; 0x13
     bc0:	13490021 	cmpne	r9, #33	; 0x21
     bc4:	00000b2f 	andeq	r0, r0, pc, lsr #22
     bc8:	03002404 	tsteq	r0, #67108864	; 0x4000000
     bcc:	3e0b0b0e 	fmacdcc	d0, d11, d14
     bd0:	0500000b 	streq	r0, [r0, #-11]
     bd4:	0e030034 	mcreq	0, 0, r0, cr3, cr4, {1}
     bd8:	0b3b0b3a 	bleq	ec38c8 <DISABLE_IRQ+0xec3848>
     bdc:	0c3f1349 	ldceq	3, cr1, [pc], #-292
     be0:	00000a02 	andeq	r0, r0, r2, lsl #20
     be4:	01110100 	tsteq	r1, r0, lsl #2
     be8:	01120610 	tsteq	r2, r0, lsl r6
     bec:	0e250111 	mcreq	1, 1, r0, cr5, cr1, {0}
     bf0:	0e030b13 	mcreq	11, 0, r0, cr3, cr3, {0}
     bf4:	00000e1b 	andeq	r0, r0, fp, lsl lr
     bf8:	03002402 	tsteq	r0, #33554432	; 0x2000000
     bfc:	3e0b0b0e 	fmacdcc	d0, d11, d14
     c00:	0300000b 	tsteq	r0, #11	; 0xb
     c04:	0e030016 	mcreq	0, 0, r0, cr3, cr6, {0}
     c08:	0b3b0b3a 	bleq	ec38f8 <DISABLE_IRQ+0xec3878>
     c0c:	00001349 	andeq	r1, r0, r9, asr #6
     c10:	03002404 	tsteq	r0, #67108864	; 0x4000000
     c14:	3e0b0b08 	fmacdcc	d0, d11, d8
     c18:	0500000b 	streq	r0, [r0, #-11]
     c1c:	13010113 	tstne	r1, #-1073741820	; 0xc0000004
     c20:	0b0b0e03 	bleq	2c4434 <DISABLE_IRQ+0x2c43b4>
     c24:	0b3b0b3a 	bleq	ec3914 <DISABLE_IRQ+0xec3894>
     c28:	0d060000 	stceq	0, cr0, [r6]
     c2c:	3a080300 	bcc	201834 <DISABLE_IRQ+0x2017b4>
     c30:	490b3b0b 	stmmidb	fp, {r0, r1, r3, r8, r9, fp, ip, sp}
     c34:	000a3813 	andeq	r3, sl, r3, lsl r8
     c38:	000d0700 	andeq	r0, sp, r0, lsl #14
     c3c:	0b3a0e03 	bleq	e84450 <DISABLE_IRQ+0xe843d0>
     c40:	13490b3b 	cmpne	r9, #60416	; 0xec00
     c44:	00000a38 	andeq	r0, r0, r8, lsr sl
     c48:	01011708 	tsteq	r1, r8, lsl #14
     c4c:	3a0b0b13 	bcc	2c38a0 <DISABLE_IRQ+0x2c3820>
     c50:	000b3b0b 	andeq	r3, fp, fp, lsl #22
     c54:	000d0900 	andeq	r0, sp, r0, lsl #18
     c58:	0b3a0803 	bleq	e82c6c <DISABLE_IRQ+0xe82bec>
     c5c:	13490b3b 	cmpne	r9, #60416	; 0xec00
     c60:	2e0a0000 	cdpcs	0, 0, cr0, cr10, cr0, {0}
     c64:	030c3f01 	tsteq	ip, #4	; 0x4
     c68:	3b0b3a0e 	blcc	2cf4a8 <DISABLE_IRQ+0x2cf428>
     c6c:	490c270b 	stmmidb	ip, {r0, r1, r3, r8, r9, sl, sp}
     c70:	12011113 	andne	r1, r1, #-1073741820	; 0xc0000004
     c74:	000a4001 	andeq	r4, sl, r1
     c78:	00050b00 	andeq	r0, r5, r0, lsl #22
     c7c:	0b3a0803 	bleq	e82c90 <DISABLE_IRQ+0xe82c10>
     c80:	13490b3b 	cmpne	r9, #60416	; 0xec00
     c84:	00000a02 	andeq	r0, r0, r2, lsl #20
     c88:	0300340c 	tsteq	r0, #201326592	; 0xc000000
     c8c:	3b0b3a08 	blcc	2cf4b4 <DISABLE_IRQ+0x2cf434>
     c90:	0213490b 	andeqs	r4, r3, #180224	; 0x2c000
     c94:	0d00000a 	stceq	0, cr0, [r0, #-40]
     c98:	08030034 	stmeqda	r3, {r2, r4, r5}
     c9c:	0b3b0b3a 	bleq	ec398c <DISABLE_IRQ+0xec390c>
     ca0:	00001349 	andeq	r1, r0, r9, asr #6
     ca4:	11010b0e 	tstne	r1, lr, lsl #22
     ca8:	00011201 	andeq	r1, r1, r1, lsl #4
     cac:	00340f00 	eoreqs	r0, r4, r0, lsl #30
     cb0:	0b3a0e03 	bleq	e844c4 <DISABLE_IRQ+0xe84444>
     cb4:	13490b3b 	cmpne	r9, #60416	; 0xec00
     cb8:	00000a02 	andeq	r0, r0, r2, lsl #20
     cbc:	01110100 	tsteq	r1, r0, lsl #2
     cc0:	01120610 	tsteq	r2, r0, lsl r6
     cc4:	0e250111 	mcreq	1, 1, r0, cr5, cr1, {0}
     cc8:	0e030b13 	mcreq	11, 0, r0, cr3, cr3, {0}
     ccc:	00000e1b 	andeq	r0, r0, fp, lsl lr
     cd0:	03002402 	tsteq	r0, #33554432	; 0x2000000
     cd4:	3e0b0b0e 	fmacdcc	d0, d11, d14
     cd8:	0300000b 	tsteq	r0, #11	; 0xb
     cdc:	0e030016 	mcreq	0, 0, r0, cr3, cr6, {0}
     ce0:	0b3b0b3a 	bleq	ec39d0 <DISABLE_IRQ+0xec3950>
     ce4:	00001349 	andeq	r1, r0, r9, asr #6
     ce8:	0b000f04 	bleq	4900 <DISABLE_IRQ+0x4880>
     cec:	0013490b 	andeqs	r4, r3, fp, lsl #18
     cf0:	012e0500 	teqeq	lr, r0, lsl #10
     cf4:	0c3f1301 	ldceq	3, cr1, [pc], #-4
     cf8:	0b3a0e03 	bleq	e8450c <DISABLE_IRQ+0xe8448c>
     cfc:	0c270b3b 	stceq	11, cr0, [r7], #-236
     d00:	01111349 	tsteq	r1, r9, asr #6
     d04:	0a400112 	beq	1001154 <DISABLE_IRQ+0x10010d4>
     d08:	05060000 	streq	r0, [r6]
     d0c:	3a080300 	bcc	201914 <DISABLE_IRQ+0x201894>
     d10:	490b3b0b 	stmmidb	fp, {r0, r1, r3, r8, r9, fp, ip, sp}
     d14:	000a0213 	andeq	r0, sl, r3, lsl r2
     d18:	00180700 	andeqs	r0, r8, r0, lsl #14
     d1c:	34080000 	strcc	r0, [r8]
     d20:	3a080300 	bcc	201928 <DISABLE_IRQ+0x2018a8>
     d24:	490b3b0b 	stmmidb	fp, {r0, r1, r3, r8, r9, fp, ip, sp}
     d28:	000a0213 	andeq	r0, sl, r3, lsl r2
     d2c:	00340900 	eoreqs	r0, r4, r0, lsl #18
     d30:	0b3a0e03 	bleq	e84544 <DISABLE_IRQ+0xe844c4>
     d34:	13490b3b 	cmpne	r9, #60416	; 0xec00
     d38:	240a0000 	strcs	r0, [sl]
     d3c:	0b080300 	bleq	201944 <DISABLE_IRQ+0x2018c4>
     d40:	000b3e0b 	andeq	r3, fp, fp, lsl #28
     d44:	00260b00 	eoreq	r0, r6, r0, lsl #22
     d48:	00001349 	andeq	r1, r0, r9, asr #6
     d4c:	0101010c 	tsteq	r1, ip, lsl #2
     d50:	00134913 	andeqs	r4, r3, r3, lsl r9
     d54:	00210d00 	eoreq	r0, r1, r0, lsl #26
     d58:	052f1349 	streq	r1, [pc, #-841]!	; a17 <DISABLE_IRQ+0x997>
     d5c:	340e0000 	strcc	r0, [lr]
     d60:	3a0e0300 	bcc	381968 <DISABLE_IRQ+0x3818e8>
     d64:	490b3b0b 	stmmidb	fp, {r0, r1, r3, r8, r9, fp, ip, sp}
     d68:	000a0213 	andeq	r0, sl, r3, lsl r2
     d6c:	11010000 	tstne	r1, r0
     d70:	12061001 	andne	r1, r6, #1	; 0x1
     d74:	25011101 	strcs	r1, [r1, #-257]
     d78:	030b130e 	tsteq	fp, #939524096	; 0x38000000
     d7c:	000e1b0e 	andeq	r1, lr, lr, lsl #22
     d80:	00160200 	andeqs	r0, r6, r0, lsl #4
     d84:	0b3a0e03 	bleq	e84598 <DISABLE_IRQ+0xe84518>
     d88:	13490b3b 	cmpne	r9, #60416	; 0xec00
     d8c:	24030000 	strcs	r0, [r3]
     d90:	0b0e0300 	bleq	381998 <DISABLE_IRQ+0x381918>
     d94:	000b3e0b 	andeq	r3, fp, fp, lsl #28
     d98:	012e0400 	teqeq	lr, r0, lsl #8
     d9c:	0c3f1301 	ldceq	3, cr1, [pc], #-4
     da0:	0b3a0e03 	bleq	e845b4 <DISABLE_IRQ+0xe84534>
     da4:	0c270b3b 	stceq	11, cr0, [r7], #-236
     da8:	01111349 	tsteq	r1, r9, asr #6
     dac:	0a400112 	beq	10011fc <DISABLE_IRQ+0x100117c>
     db0:	05050000 	streq	r0, [r5]
     db4:	3a080300 	bcc	2019bc <DISABLE_IRQ+0x20193c>
     db8:	490b3b0b 	stmmidb	fp, {r0, r1, r3, r8, r9, fp, ip, sp}
     dbc:	000a0213 	andeq	r0, sl, r3, lsl r2
     dc0:	00340600 	eoreqs	r0, r4, r0, lsl #12
     dc4:	0b3a0803 	bleq	e82dd8 <DISABLE_IRQ+0xe82d58>
     dc8:	13490b3b 	cmpne	r9, #60416	; 0xec00
     dcc:	00000a02 	andeq	r0, r0, r2, lsl #20
     dd0:	01011d07 	tsteq	r1, r7, lsl #26
     dd4:	11133113 	tstne	r3, r3, lsl r1
     dd8:	00011201 	andeq	r1, r1, r1, lsl #4
     ddc:	00050800 	andeq	r0, r5, r0, lsl #16
     de0:	0a021331 	beq	85aac <DISABLE_IRQ+0x85a2c>
     de4:	1d090000 	stcne	0, cr0, [r9]
     de8:	11133101 	tstne	r3, r1, lsl #2
     dec:	00011201 	andeq	r1, r1, r1, lsl #4
     df0:	00240a00 	eoreq	r0, r4, r0, lsl #20
     df4:	0b0b0803 	bleq	2c2e08 <DISABLE_IRQ+0x2c2d88>
     df8:	00000b3e 	andeq	r0, r0, lr, lsr fp
     dfc:	0b000f0b 	bleq	4a30 <DISABLE_IRQ+0x49b0>
     e00:	0013490b 	andeqs	r4, r3, fp, lsl #18
     e04:	00260c00 	eoreq	r0, r6, r0, lsl #24
     e08:	00001349 	andeq	r1, r0, r9, asr #6
     e0c:	01012e0d 	tsteq	r1, sp, lsl #28
     e10:	3a0e0313 	bcc	381a64 <DISABLE_IRQ+0x3819e4>
     e14:	270b3b0b 	strcs	r3, [fp, -fp, lsl #22]
     e18:	2013490c 	andcss	r4, r3, ip, lsl #18
     e1c:	0e00000b 	cdpeq	0, 0, cr0, cr0, cr11, {0}
     e20:	08030005 	stmeqda	r3, {r0, r2}
     e24:	0b3b0b3a 	bleq	ec3b14 <DISABLE_IRQ+0xec3a94>
     e28:	00001349 	andeq	r1, r0, r9, asr #6
     e2c:	0300050f 	tsteq	r0, #62914560	; 0x3c00000
     e30:	3b0b3a0e 	blcc	2cf670 <DISABLE_IRQ+0x2cf5f0>
     e34:	0213490b 	andeqs	r4, r3, #180224	; 0x2c000
     e38:	1000000a 	andne	r0, r0, sl
     e3c:	0e030034 	mcreq	0, 0, r0, cr3, cr4, {1}
     e40:	0b3b0b3a 	bleq	ec3b30 <DISABLE_IRQ+0xec3ab0>
     e44:	0a021349 	beq	85b70 <DISABLE_IRQ+0x85af0>
     e48:	34110000 	ldrcc	r0, [r1]
     e4c:	3a080300 	bcc	201a54 <DISABLE_IRQ+0x2019d4>
     e50:	49053b0b 	stmmidb	r5, {r0, r1, r3, r8, r9, fp, ip, sp}
     e54:	000a0213 	andeq	r0, sl, r3, lsl r2
     e58:	00341200 	eoreqs	r1, r4, r0, lsl #4
     e5c:	0b3a0e03 	bleq	e84670 <DISABLE_IRQ+0xe845f0>
     e60:	1349053b 	cmpne	r9, #247463936	; 0xec00000
     e64:	00000a02 	andeq	r0, r0, r2, lsl #20
     e68:	01012e13 	tsteq	r1, r3, lsl lr
     e6c:	030c3f13 	tsteq	ip, #76	; 0x4c
     e70:	3b0b3a0e 	blcc	2cf6b0 <DISABLE_IRQ+0x2cf630>
     e74:	490c2705 	stmmidb	ip, {r0, r2, r8, r9, sl, sp}
     e78:	12011113 	andne	r1, r1, #-1073741820	; 0xc0000004
     e7c:	000a4001 	andeq	r4, sl, r1
     e80:	00051400 	andeq	r1, r5, r0, lsl #8
     e84:	0b3a0803 	bleq	e82e98 <DISABLE_IRQ+0xe82e18>
     e88:	1349053b 	cmpne	r9, #247463936	; 0xec00000
     e8c:	00000a02 	andeq	r0, r0, r2, lsl #20
     e90:	03000515 	tsteq	r0, #88080384	; 0x5400000
     e94:	3b0b3a0e 	blcc	2cf6d4 <DISABLE_IRQ+0x2cf654>
     e98:	02134905 	andeqs	r4, r3, #81920	; 0x14000
     e9c:	1600000a 	strne	r0, [r0], -sl
     ea0:	0b0b000f 	bleq	2c0ee4 <DISABLE_IRQ+0x2c0e64>
     ea4:	2e170000 	wxorcs	wr0, wr7, wr0
     ea8:	3f130101 	swicc	0x00130101
     eac:	3a0e030c 	bcc	381ae4 <DISABLE_IRQ+0x381a64>
     eb0:	27053b0b 	strcs	r3, [r5, -fp, lsl #22]
     eb4:	1201110c 	andne	r1, r1, #3	; 0x3
     eb8:	000a4001 	andeq	r4, sl, r1
     ebc:	00261800 	eoreq	r1, r6, r0, lsl #16
     ec0:	34190000 	ldrcc	r0, [r9]
     ec4:	3a080300 	bcc	201acc <DISABLE_IRQ+0x201a4c>
     ec8:	49053b0b 	stmmidb	r5, {r0, r1, r3, r8, r9, fp, ip, sp}
     ecc:	1a000013 	bne	f20 <DISABLE_IRQ+0xea0>
     ed0:	13010101 	tstne	r1, #1073741824	; 0x40000000
     ed4:	00001349 	andeq	r1, r0, r9, asr #6
     ed8:	0000211b 	andeq	r2, r0, fp, lsl r1
     edc:	00341c00 	eoreqs	r1, r4, r0, lsl #24
     ee0:	0b3a0e03 	bleq	e846f4 <DISABLE_IRQ+0xe84674>
     ee4:	13490b3b 	cmpne	r9, #60416	; 0xec00
     ee8:	0c3c0c3f 	ldceq	12, cr0, [ip], #-252
     eec:	341d0000 	ldrcc	r0, [sp]
     ef0:	3a0e0300 	bcc	381af8 <DISABLE_IRQ+0x381a78>
     ef4:	490b3b0b 	stmmidb	fp, {r0, r1, r3, r8, r9, fp, ip, sp}
     ef8:	020c3f13 	andeq	r3, ip, #76	; 0x4c
     efc:	0000000a 	andeq	r0, r0, sl
     f00:	10011101 	andne	r1, r1, r1, lsl #2
     f04:	11011206 	tstne	r1, r6, lsl #4
     f08:	130e2501 	tstne	lr, #4194304	; 0x400000
     f0c:	1b0e030b 	blne	381b40 <DISABLE_IRQ+0x381ac0>
     f10:	0200000e 	andeq	r0, r0, #14	; 0xe
     f14:	0e030016 	mcreq	0, 0, r0, cr3, cr6, {0}
     f18:	0b3b0b3a 	bleq	ec3c08 <DISABLE_IRQ+0xec3b88>
     f1c:	00001349 	andeq	r1, r0, r9, asr #6
     f20:	03002403 	tsteq	r0, #50331648	; 0x3000000
     f24:	3e0b0b0e 	fmacdcc	d0, d11, d14
     f28:	0400000b 	streq	r0, [r0], #-11
     f2c:	0b0b000f 	bleq	2c0f70 <DISABLE_IRQ+0x2c0ef0>
     f30:	00001349 	andeq	r1, r0, r9, asr #6
     f34:	01012e05 	tsteq	r1, r5, lsl #28
     f38:	030c3f13 	tsteq	ip, #76	; 0x4c
     f3c:	3b0b3a0e 	blcc	2cf77c <DISABLE_IRQ+0x2cf6fc>
     f40:	490c270b 	stmmidb	ip, {r0, r1, r3, r8, r9, sl, sp}
     f44:	12011113 	andne	r1, r1, #-1073741820	; 0xc0000004
     f48:	000a4001 	andeq	r4, sl, r1
     f4c:	00050600 	andeq	r0, r5, r0, lsl #12
     f50:	0b3a0803 	bleq	e82f64 <DISABLE_IRQ+0xe82ee4>
     f54:	13490b3b 	cmpne	r9, #60416	; 0xec00
     f58:	00000a02 	andeq	r0, r0, r2, lsl #20
     f5c:	03000507 	tsteq	r0, #29360128	; 0x1c00000
     f60:	3b0b3a0e 	blcc	2cf7a0 <DISABLE_IRQ+0x2cf720>
     f64:	0213490b 	andeqs	r4, r3, #180224	; 0x2c000
     f68:	0800000a 	stmeqda	r0, {r1, r3}
     f6c:	0e030034 	mcreq	0, 0, r0, cr3, cr4, {1}
     f70:	0b3b0b3a 	bleq	ec3c60 <DISABLE_IRQ+0xec3be0>
     f74:	0a021349 	beq	85ca0 <DISABLE_IRQ+0x85c20>
     f78:	1d090000 	stcne	0, cr0, [r9]
     f7c:	31130101 	tstcc	r3, r1, lsl #2
     f80:	12011113 	andne	r1, r1, #-1073741820	; 0xc0000004
     f84:	0a000001 	beq	f90 <DISABLE_IRQ+0xf10>
     f88:	13310005 	teqne	r1, #5	; 0x5
     f8c:	00000a02 	andeq	r0, r0, r2, lsl #20
     f90:	31011d0b 	tstcc	r1, fp, lsl #26
     f94:	12011113 	andne	r1, r1, #-1073741820	; 0xc0000004
     f98:	0c000001 	stceq	0, cr0, [r0], {1}
     f9c:	13490026 	cmpne	r9, #38	; 0x26
     fa0:	2e0d0000 	cdpcs	0, 0, cr0, cr13, cr0, {0}
     fa4:	03130101 	tsteq	r3, #1073741824	; 0x40000000
     fa8:	3b0b3a0e 	blcc	2cf7e8 <DISABLE_IRQ+0x2cf768>
     fac:	490c270b 	stmmidb	ip, {r0, r1, r3, r8, r9, sl, sp}
     fb0:	000b2013 	andeq	r2, fp, r3, lsl r0
     fb4:	00050e00 	andeq	r0, r5, r0, lsl #28
     fb8:	0b3a0803 	bleq	e82fcc <DISABLE_IRQ+0xe82f4c>
     fbc:	13490b3b 	cmpne	r9, #60416	; 0xec00
     fc0:	2e0f0000 	cdpcs	0, 0, cr0, cr15, cr0, {0}
     fc4:	03130101 	tsteq	r3, #1073741824	; 0x40000000
     fc8:	3b0b3a0e 	blcc	2cf808 <DISABLE_IRQ+0x2cf788>
     fcc:	490c270b 	stmmidb	ip, {r0, r1, r3, r8, r9, sl, sp}
     fd0:	12011113 	andne	r1, r1, #-1073741820	; 0xc0000004
     fd4:	000a4001 	andeq	r4, sl, r1
     fd8:	00341000 	eoreqs	r1, r4, r0
     fdc:	0b3a0803 	bleq	e82ff0 <DISABLE_IRQ+0xe82f70>
     fe0:	13490b3b 	cmpne	r9, #60416	; 0xec00
     fe4:	00000a02 	andeq	r0, r0, r2, lsl #20
     fe8:	03002411 	tsteq	r0, #285212672	; 0x11000000
     fec:	3e0b0b08 	fmacdcc	d0, d11, d8
     ff0:	1200000b 	andne	r0, r0, #11	; 0xb
     ff4:	0655010b 	ldreqb	r0, [r5], -fp, lsl #2
     ff8:	01130000 	tsteq	r3, r0
     ffc:	49130101 	ldmmidb	r3, {r0, r8}
    1000:	14000013 	strne	r0, [r0], #-19
    1004:	13490021 	cmpne	r9, #33	; 0x21
    1008:	00000b2f 	andeq	r0, r0, pc, lsr #22
    100c:	01012e15 	tsteq	r1, r5, lsl lr
    1010:	030c3f13 	tsteq	ip, #76	; 0x4c
    1014:	3b0b3a0e 	blcc	2cf854 <DISABLE_IRQ+0x2cf7d4>
    1018:	490c2705 	stmmidb	ip, {r0, r2, r8, r9, sl, sp}
    101c:	12011113 	andne	r1, r1, #-1073741820	; 0xc0000004
    1020:	000a4001 	andeq	r4, sl, r1
    1024:	00051600 	andeq	r1, r5, r0, lsl #12
    1028:	0b3a0803 	bleq	e8303c <DISABLE_IRQ+0xe82fbc>
    102c:	1349053b 	cmpne	r9, #247463936	; 0xec00000
    1030:	00000a02 	andeq	r0, r0, r2, lsl #20
    1034:	03000517 	tsteq	r0, #96468992	; 0x5c00000
    1038:	3b0b3a0e 	blcc	2cf878 <DISABLE_IRQ+0x2cf7f8>
    103c:	02134905 	andeqs	r4, r3, #81920	; 0x14000
    1040:	1800000a 	stmneda	r0, {r1, r3}
    1044:	08030034 	stmeqda	r3, {r2, r4, r5}
    1048:	053b0b3a 	ldreq	r0, [fp, #-2874]!
    104c:	0a021349 	beq	85d78 <DISABLE_IRQ+0x85cf8>
    1050:	34190000 	ldrcc	r0, [r9]
    1054:	3a0e0300 	bcc	381c5c <DISABLE_IRQ+0x381bdc>
    1058:	49053b0b 	stmmidb	r5, {r0, r1, r3, r8, r9, fp, ip, sp}
    105c:	000a0213 	andeq	r0, sl, r3, lsl r2
    1060:	000a1a00 	andeq	r1, sl, r0, lsl #20
    1064:	0b3a0e03 	bleq	e84878 <DISABLE_IRQ+0xe847f8>
    1068:	0111053b 	tsteq	r1, fp, lsr r5
    106c:	0b1b0000 	bleq	6c1074 <DISABLE_IRQ+0x6c0ff4>
    1070:	55130101 	ldrpl	r0, [r3, #-257]
    1074:	1c000006 	stcne	0, cr0, [r0], {6}
    1078:	0111010b 	tsteq	r1, fp, lsl #2
    107c:	00000112 	andeq	r0, r0, r2, lsl r1
    1080:	0000181d 	andeq	r1, r0, sp, lsl r8
    1084:	00341e00 	eoreqs	r1, r4, r0, lsl #28
    1088:	0b3a0e03 	bleq	e8489c <DISABLE_IRQ+0xe8481c>
    108c:	1349053b 	cmpne	r9, #247463936	; 0xec00000
    1090:	341f0000 	ldrcc	r0, [pc], #0	; 1098 <DISABLE_IRQ+0x1018>
    1094:	3a080300 	bcc	201c9c <DISABLE_IRQ+0x201c1c>
    1098:	49053b0b 	stmmidb	r5, {r0, r1, r3, r8, r9, fp, ip, sp}
    109c:	20000013 	andcs	r0, r0, r3, lsl r0
    10a0:	1301010b 	tstne	r1, #-1073741822	; 0xc0000002
    10a4:	01120111 	tsteq	r2, r1, lsl r1
    10a8:	21210000 	teqcs	r1, r0
    10ac:	22000000 	andcs	r0, r0, #0	; 0x0
    10b0:	0e030034 	mcreq	0, 0, r0, cr3, cr4, {1}
    10b4:	0b3b0b3a 	bleq	ec3da4 <DISABLE_IRQ+0xec3d24>
    10b8:	0c3f1349 	ldceq	3, cr1, [pc], #-292
    10bc:	00000c3c 	andeq	r0, r0, ip, lsr ip
	...
Disassembly of section .debug_aranges:

00000000 <.debug_aranges>:
   0:	0000001c 	andeq	r0, r0, ip, lsl r0
   4:	00000002 	andeq	r0, r0, r2
   8:	00040000 	andeq	r0, r4, r0
   c:	00000000 	andeq	r0, r0, r0
  10:	30000000 	andcc	r0, r0, r0
  14:	0000021c 	andeq	r0, r0, ip, lsl r2
	...
  20:	0000001c 	andeq	r0, r0, ip, lsl r0
  24:	00410002 	subeq	r0, r1, r2
  28:	00040000 	andeq	r0, r4, r0
  2c:	00000000 	andeq	r0, r0, r0
  30:	30000220 	andcc	r0, r0, r0, lsr #4
  34:	00000130 	andeq	r0, r0, r0, lsr r1
	...
  40:	0000001c 	andeq	r0, r0, ip, lsl r0
  44:	00db0002 	sbceqs	r0, fp, r2
  48:	00040000 	andeq	r0, r4, r0
  4c:	00000000 	andeq	r0, r0, r0
  50:	30000350 	andcc	r0, r0, r0, asr r3
  54:	000003fc 	streqd	r0, [r0], -ip
	...
  60:	0000001c 	andeq	r0, r0, ip, lsl r0
  64:	04cf0002 	streqb	r0, [pc], #2	; 6c <DISABLE_FIQ+0x2c>
  68:	00040000 	andeq	r0, r4, r0
  6c:	00000000 	andeq	r0, r0, r0
  70:	3000074c 	andcc	r0, r0, ip, asr #14
  74:	000000fc 	streqd	r0, [r0], -ip
	...
  80:	0000001c 	andeq	r0, r0, ip, lsl r0
  84:	07fd0002 	ldreqb	r0, [sp, r2]!
  88:	00040000 	andeq	r0, r4, r0
  8c:	00000000 	andeq	r0, r0, r0
  90:	30000848 	andcc	r0, r0, r8, asr #16
  94:	000000e4 	andeq	r0, r0, r4, ror #1
	...
  a0:	0000001c 	andeq	r0, r0, ip, lsl r0
  a4:	0adb0002 	beq	ff6c00b4 <CLKDIVN+0xb36c00a0>
  a8:	00040000 	andeq	r0, r4, r0
  ac:	00000000 	andeq	r0, r0, r0
  b0:	3000092c 	andcc	r0, r0, ip, lsr #18
  b4:	00000078 	andeq	r0, r0, r8, ror r0
	...
  c0:	0000001c 	andeq	r0, r0, ip, lsl r0
  c4:	0ba30002 	bleq	fe8c00d4 <CLKDIVN+0xb28c00c0>
  c8:	00040000 	andeq	r0, r4, r0
  cc:	00000000 	andeq	r0, r0, r0
  d0:	300009a4 	andcc	r0, r0, r4, lsr #19
  d4:	0000031c 	andeq	r0, r0, ip, lsl r3
	...
  e0:	0000001c 	andeq	r0, r0, ip, lsl r0
  e4:	0de20002 	stceql	0, cr0, [r2, #8]!
  e8:	00040000 	andeq	r0, r4, r0
  ec:	00000000 	andeq	r0, r0, r0
  f0:	30000cc0 	andcc	r0, r0, r0, asr #25
  f4:	00000284 	andeq	r0, r0, r4, lsl #5
	...
 100:	0000001c 	andeq	r0, r0, ip, lsl r0
 104:	0fde0002 	swieq	0x00de0002
 108:	00040000 	andeq	r0, r4, r0
 10c:	00000000 	andeq	r0, r0, r0
 110:	30000f44 	andcc	r0, r0, r4, asr #30
 114:	0000005c 	andeq	r0, r0, ip, asr r0
	...
 120:	0000001c 	andeq	r0, r0, ip, lsl r0
 124:	11b60002 	movnes	r0, r2
 128:	00040000 	andeq	r0, r4, r0
 12c:	00000000 	andeq	r0, r0, r0
 130:	30000fa0 	andcc	r0, r0, r0, lsr #31
 134:	000000d4 	ldreqd	r0, [r0], -r4
	...
 140:	0000001c 	andeq	r0, r0, ip, lsl r0
 144:	12ba0002 	adcnes	r0, sl, #2	; 0x2
 148:	00040000 	andeq	r0, r4, r0
 14c:	00000000 	andeq	r0, r0, r0
 150:	30001074 	andcc	r1, r0, r4, ror r0
 154:	000002d4 	ldreqd	r0, [r0], -r4
	...
 160:	0000001c 	andeq	r0, r0, ip, lsl r0
 164:	166b0002 	strnebt	r0, [fp], -r2
 168:	00040000 	andeq	r0, r4, r0
 16c:	00000000 	andeq	r0, r0, r0
 170:	30001348 	andcc	r1, r0, r8, asr #6
 174:	00000e8c 	andeq	r0, r0, ip, lsl #29
	...
 180:	0000001c 	andeq	r0, r0, ip, lsl r0
 184:	1d850002 	stcne	0, cr0, [r5, #8]
 188:	00040000 	andeq	r0, r4, r0
 18c:	00000000 	andeq	r0, r0, r0
 190:	300021e0 	andcc	r2, r0, r0, ror #3
 194:	0000012c 	andeq	r0, r0, ip, lsr #2
	...
 1a0:	0000001c 	andeq	r0, r0, ip, lsl r0
 1a4:	1dcb0002 	stcnel	0, cr0, [fp, #8]
 1a8:	00040000 	andeq	r0, r4, r0
 1ac:	00000000 	andeq	r0, r0, r0
 1b0:	30002310 	andcc	r2, r0, r0, lsl r3
 1b4:	000003b0 	streqh	r0, [r0], -r0
	...
 1c0:	0000001c 	andeq	r0, r0, ip, lsl r0
 1c4:	1e6b0002 	cdpne	0, 6, cr0, cr11, cr2, {0}
 1c8:	00040000 	andeq	r0, r4, r0
 1cc:	00000000 	andeq	r0, r0, r0
 1d0:	300026c0 	andcc	r2, r0, r0, asr #13
 1d4:	00000050 	andeq	r0, r0, r0, asr r0
	...
 1e0:	0000001c 	andeq	r0, r0, ip, lsl r0
 1e4:	1fce0002 	swine	0x00ce0002
 1e8:	00040000 	andeq	r0, r4, r0
 1ec:	00000000 	andeq	r0, r0, r0
 1f0:	30002710 	andcc	r2, r0, r0, lsl r7
 1f4:	000000b0 	streqh	r0, [r0], -r0
	...
 200:	0000001c 	andeq	r0, r0, ip, lsl r0
 204:	21000002 	tstcs	r0, r2
 208:	00040000 	andeq	r0, r4, r0
 20c:	00000000 	andeq	r0, r0, r0
 210:	300027c0 	andcc	r2, r0, r0, asr #15
 214:	000005b8 	streqh	r0, [r0], -r8
	...
 220:	0000001c 	andeq	r0, r0, ip, lsl r0
 224:	29060002 	stmcsdb	r6, {r1}
 228:	00040000 	andeq	r0, r4, r0
 22c:	00000000 	andeq	r0, r0, r0
 230:	30002d78 	andcc	r2, r0, r8, ror sp
 234:	000013c0 	andeq	r1, r0, r0, asr #7
	...
Disassembly of section .debug_frame:

00000000 <.debug_frame>:
   0:	0000000c 	andeq	r0, r0, ip
   4:	ffffffff 	swinv	0x00ffffff
   8:	7c010001 	stcvc	0, cr0, [r1], {1}
   c:	000d0c0e 	andeq	r0, sp, lr, lsl #24
  10:	0000000c 	andeq	r0, r0, ip
  14:	00000000 	andeq	r0, r0, r0
  18:	30000220 	andcc	r0, r0, r0, lsr #4
  1c:	00000034 	andeq	r0, r0, r4, lsr r0
  20:	00000010 	andeq	r0, r0, r0, lsl r0
  24:	00000000 	andeq	r0, r0, r0
  28:	30000254 	andcc	r0, r0, r4, asr r2
  2c:	00000078 	andeq	r0, r0, r8, ror r0
  30:	00080e44 	andeq	r0, r8, r4, asr #28
  34:	0000000c 	andeq	r0, r0, ip
  38:	00000000 	andeq	r0, r0, r0
  3c:	300002cc 	andcc	r0, r0, ip, asr #5
  40:	00000048 	andeq	r0, r0, r8, asr #32
  44:	0000000c 	andeq	r0, r0, ip
  48:	00000000 	andeq	r0, r0, r0
  4c:	30000314 	andcc	r0, r0, r4, lsl r3
  50:	0000003c 	andeq	r0, r0, ip, lsr r0
  54:	0000000c 	andeq	r0, r0, ip
  58:	ffffffff 	swinv	0x00ffffff
  5c:	7c010001 	stcvc	0, cr0, [r1], {1}
  60:	000d0c0e 	andeq	r0, sp, lr, lsl #24
  64:	00000014 	andeq	r0, r0, r4, lsl r0
  68:	00000054 	andeq	r0, r0, r4, asr r0
  6c:	30000350 	andcc	r0, r0, r0, asr r3
  70:	00000088 	andeq	r0, r0, r8, lsl #1
  74:	68040e44 	stmvsda	r4, {r2, r6, r9, sl, fp}
  78:	018e080e 	orreq	r0, lr, lr, lsl #16
  7c:	0000000c 	andeq	r0, r0, ip
  80:	00000054 	andeq	r0, r0, r4, asr r0
  84:	300003d8 	ldrccd	r0, [r0], -r8
  88:	00000020 	andeq	r0, r0, r0, lsr #32
  8c:	0000001c 	andeq	r0, r0, ip, lsl r0
  90:	00000054 	andeq	r0, r0, r4, asr r0
  94:	300003f8 	strccd	r0, [r0], -r8
  98:	0000016c 	andeq	r0, r0, ip, ror #2
  9c:	8e100e44 	cdphi	14, 1, cr0, cr0, cr4, {2}
  a0:	85028601 	strhi	r8, [r2, #-1537]
  a4:	50048403 	andpl	r8, r4, r3, lsl #8
  a8:	0000540e 	andeq	r5, r0, lr, lsl #8
  ac:	0000001c 	andeq	r0, r0, ip, lsl r0
  b0:	00000054 	andeq	r0, r0, r4, asr r0
  b4:	30000564 	andcc	r0, r0, r4, ror #10
  b8:	00000084 	andeq	r0, r0, r4, lsl #1
  bc:	8e100e44 	cdphi	14, 1, cr0, cr0, cr4, {2}
  c0:	85028601 	strhi	r8, [r2, #-1537]
  c4:	50048403 	andpl	r8, r4, r3, lsl #8
  c8:	0000140e 	andeq	r1, r0, lr, lsl #8
  cc:	0000000c 	andeq	r0, r0, ip
  d0:	00000054 	andeq	r0, r0, r4, asr r0
  d4:	300005e8 	andcc	r0, r0, r8, ror #11
  d8:	0000000c 	andeq	r0, r0, ip
  dc:	00000014 	andeq	r0, r0, r4, lsl r0
  e0:	00000054 	andeq	r0, r0, r4, asr r0
  e4:	300005f4 	strccd	r0, [r0], -r4
  e8:	00000060 	andeq	r0, r0, r0, rrx
  ec:	8e080e44 	cdphi	14, 0, cr0, cr8, cr4, {2}
  f0:	00028401 	andeq	r8, r2, r1, lsl #8
  f4:	0000001c 	andeq	r0, r0, ip, lsl r0
  f8:	00000054 	andeq	r0, r0, r4, asr r0
  fc:	30000654 	andcc	r0, r0, r4, asr r6
 100:	00000070 	andeq	r0, r0, r0, ror r0
 104:	44100e44 	ldrmi	r0, [r0], #-3652
 108:	018e300e 	orreq	r3, lr, lr
 10c:	03850286 	orreq	r0, r5, #1610612744	; 0x60000008
 110:	00000484 	andeq	r0, r0, r4, lsl #9
 114:	00000018 	andeq	r0, r0, r8, lsl r0
 118:	00000054 	andeq	r0, r0, r4, asr r0
 11c:	300006c4 	andcc	r0, r0, r4, asr #13
 120:	00000088 	andeq	r0, r0, r8, lsl #1
 124:	8e0c0e44 	cdphi	14, 0, cr0, cr12, cr4, {2}
 128:	84028501 	strhi	r8, [r2], #-1281
 12c:	100e4c03 	andne	r4, lr, r3, lsl #24
 130:	0000000c 	andeq	r0, r0, ip
 134:	ffffffff 	swinv	0x00ffffff
 138:	7c010001 	stcvc	0, cr0, [r1], {1}
 13c:	000d0c0e 	andeq	r0, sp, lr, lsl #24
 140:	0000000c 	andeq	r0, r0, ip
 144:	00000130 	andeq	r0, r0, r0, lsr r1
 148:	3000074c 	andcc	r0, r0, ip, asr #14
 14c:	0000000c 	andeq	r0, r0, ip
 150:	00000014 	andeq	r0, r0, r4, lsl r0
 154:	00000130 	andeq	r0, r0, r0, lsr r1
 158:	30000758 	andcc	r0, r0, r8, asr r7
 15c:	00000014 	andeq	r0, r0, r4, lsl r0
 160:	8e040e44 	cdphi	14, 0, cr0, cr4, cr4, {2}
 164:	00000001 	andeq	r0, r0, r1
 168:	00000014 	andeq	r0, r0, r4, lsl r0
 16c:	00000130 	andeq	r0, r0, r0, lsr r1
 170:	3000076c 	andcc	r0, r0, ip, ror #14
 174:	00000018 	andeq	r0, r0, r8, lsl r0
 178:	84040e44 	strhi	r0, [r4], #-3652
 17c:	00000001 	andeq	r0, r0, r1
 180:	00000014 	andeq	r0, r0, r4, lsl r0
 184:	00000130 	andeq	r0, r0, r0, lsr r1
 188:	30000784 	andcc	r0, r0, r4, lsl #15
 18c:	00000018 	andeq	r0, r0, r8, lsl r0
 190:	84040e44 	strhi	r0, [r4], #-3652
 194:	00000001 	andeq	r0, r0, r1
 198:	00000014 	andeq	r0, r0, r4, lsl r0
 19c:	00000130 	andeq	r0, r0, r0, lsr r1
 1a0:	3000079c 	mulcc	r0, ip, r7
 1a4:	0000002c 	andeq	r0, r0, ip, lsr #32
 1a8:	8e040e44 	cdphi	14, 0, cr0, cr4, cr4, {2}
 1ac:	00000001 	andeq	r0, r0, r1
 1b0:	0000000c 	andeq	r0, r0, ip
 1b4:	00000130 	andeq	r0, r0, r0, lsr r1
 1b8:	300007c8 	andcc	r0, r0, r8, asr #15
 1bc:	00000004 	andeq	r0, r0, r4
 1c0:	0000000c 	andeq	r0, r0, ip
 1c4:	00000130 	andeq	r0, r0, r0, lsr r1
 1c8:	300007cc 	andcc	r0, r0, ip, asr #15
 1cc:	00000004 	andeq	r0, r0, r4
 1d0:	00000018 	andeq	r0, r0, r8, lsl r0
 1d4:	00000130 	andeq	r0, r0, r0, lsr r1
 1d8:	300007d0 	ldrccd	r0, [r0], -r0
 1dc:	00000030 	andeq	r0, r0, r0, lsr r0
 1e0:	8e0c0e44 	cdphi	14, 0, cr0, cr12, cr4, {2}
 1e4:	84028501 	strhi	r8, [r2], #-1281
 1e8:	00000003 	andeq	r0, r0, r3
 1ec:	00000018 	andeq	r0, r0, r8, lsl r0
 1f0:	00000130 	andeq	r0, r0, r0, lsr r1
 1f4:	30000800 	andcc	r0, r0, r0, lsl #16
 1f8:	00000048 	andeq	r0, r0, r8, asr #32
 1fc:	8e0c0e44 	cdphi	14, 0, cr0, cr12, cr4, {2}
 200:	84028501 	strhi	r8, [r2], #-1281
 204:	00000003 	andeq	r0, r0, r3
 208:	0000000c 	andeq	r0, r0, ip
 20c:	ffffffff 	swinv	0x00ffffff
 210:	7c010001 	stcvc	0, cr0, [r1], {1}
 214:	000d0c0e 	andeq	r0, sp, lr, lsl #24
 218:	0000000c 	andeq	r0, r0, ip
 21c:	00000208 	andeq	r0, r0, r8, lsl #4
 220:	30000848 	andcc	r0, r0, r8, asr #16
 224:	00000018 	andeq	r0, r0, r8, lsl r0
 228:	0000000c 	andeq	r0, r0, ip
 22c:	00000208 	andeq	r0, r0, r8, lsl #4
 230:	30000860 	andcc	r0, r0, r0, ror #16
 234:	00000008 	andeq	r0, r0, r8
 238:	0000001c 	andeq	r0, r0, ip, lsl r0
 23c:	00000208 	andeq	r0, r0, r8, lsl #4
 240:	30000868 	andcc	r0, r0, r8, ror #16
 244:	0000009c 	muleq	r0, ip, r0
 248:	8e140e44 	cdphi	14, 1, cr0, cr4, cr4, {2}
 24c:	86028701 	strhi	r8, [r2], -r1, lsl #14
 250:	84048503 	strhi	r8, [r4], #-1283
 254:	00000005 	andeq	r0, r0, r5
 258:	00000018 	andeq	r0, r0, r8, lsl r0
 25c:	00000208 	andeq	r0, r0, r8, lsl #4
 260:	30000904 	andcc	r0, r0, r4, lsl #18
 264:	00000028 	andeq	r0, r0, r8, lsr #32
 268:	8e0c0e44 	cdphi	14, 0, cr0, cr12, cr4, {2}
 26c:	84028501 	strhi	r8, [r2], #-1281
 270:	00000003 	andeq	r0, r0, r3
 274:	0000000c 	andeq	r0, r0, ip
 278:	ffffffff 	swinv	0x00ffffff
 27c:	7c010001 	stcvc	0, cr0, [r1], {1}
 280:	000d0c0e 	andeq	r0, sp, lr, lsl #24
 284:	0000000c 	andeq	r0, r0, ip
 288:	00000274 	andeq	r0, r0, r4, ror r2
 28c:	3000092c 	andcc	r0, r0, ip, lsr #18
 290:	0000004c 	andeq	r0, r0, ip, asr #32
 294:	0000000c 	andeq	r0, r0, ip
 298:	00000274 	andeq	r0, r0, r4, ror r2
 29c:	30000978 	andcc	r0, r0, r8, ror r9
 2a0:	0000002c 	andeq	r0, r0, ip, lsr #32
 2a4:	0000000c 	andeq	r0, r0, ip
 2a8:	ffffffff 	swinv	0x00ffffff
 2ac:	7c010001 	stcvc	0, cr0, [r1], {1}
 2b0:	000d0c0e 	andeq	r0, sp, lr, lsl #24
 2b4:	0000000c 	andeq	r0, r0, ip
 2b8:	000002a4 	andeq	r0, r0, r4, lsr #5
 2bc:	300009a4 	andcc	r0, r0, r4, lsr #19
 2c0:	0000002c 	andeq	r0, r0, ip, lsr #32
 2c4:	0000000c 	andeq	r0, r0, ip
 2c8:	000002a4 	andeq	r0, r0, r4, lsr #5
 2cc:	300009d0 	ldrccd	r0, [r0], -r0
 2d0:	0000002c 	andeq	r0, r0, ip, lsr #32
 2d4:	0000000c 	andeq	r0, r0, ip
 2d8:	000002a4 	andeq	r0, r0, r4, lsr #5
 2dc:	300009fc 	strccd	r0, [r0], -ip
 2e0:	00000018 	andeq	r0, r0, r8, lsl r0
 2e4:	0000000c 	andeq	r0, r0, ip
 2e8:	000002a4 	andeq	r0, r0, r4, lsr #5
 2ec:	30000a14 	andcc	r0, r0, r4, lsl sl
 2f0:	00000014 	andeq	r0, r0, r4, lsl r0
 2f4:	0000000c 	andeq	r0, r0, ip
 2f8:	000002a4 	andeq	r0, r0, r4, lsr #5
 2fc:	30000a28 	andcc	r0, r0, r8, lsr #20
 300:	00000014 	andeq	r0, r0, r4, lsl r0
 304:	00000010 	andeq	r0, r0, r0, lsl r0
 308:	000002a4 	andeq	r0, r0, r4, lsr #5
 30c:	30000a3c 	andcc	r0, r0, ip, lsr sl
 310:	00000044 	andeq	r0, r0, r4, asr #32
 314:	00040e44 	andeq	r0, r4, r4, asr #28
 318:	00000010 	andeq	r0, r0, r0, lsl r0
 31c:	000002a4 	andeq	r0, r0, r4, lsr #5
 320:	30000a80 	andcc	r0, r0, r0, lsl #21
 324:	0000011c 	andeq	r0, r0, ip, lsl r1
 328:	00040e54 	andeq	r0, r4, r4, asr lr
 32c:	0000000c 	andeq	r0, r0, ip
 330:	000002a4 	andeq	r0, r0, r4, lsr #5
 334:	30000b9c 	mulcc	r0, ip, fp
 338:	00000014 	andeq	r0, r0, r4, lsl r0
 33c:	0000000c 	andeq	r0, r0, ip
 340:	000002a4 	andeq	r0, r0, r4, lsr #5
 344:	30000bb0 	strcch	r0, [r0], -r0
 348:	0000000c 	andeq	r0, r0, ip
 34c:	00000020 	andeq	r0, r0, r0, lsr #32
 350:	000002a4 	andeq	r0, r0, r4, lsr #5
 354:	30000bbc 	strcch	r0, [r0], -ip
 358:	000000b0 	streqh	r0, [r0], -r0
 35c:	8e1c0e44 	cdphi	14, 1, cr0, cr12, cr4, {2}
 360:	88028a01 	stmhida	r2, {r0, r9, fp, pc}
 364:	86048703 	strhi	r8, [r4], -r3, lsl #14
 368:	84068505 	strhi	r8, [r6], #-1285
 36c:	00000007 	andeq	r0, r0, r7
 370:	00000018 	andeq	r0, r0, r8, lsl r0
 374:	000002a4 	andeq	r0, r0, r4, lsr #5
 378:	30000c6c 	andcc	r0, r0, ip, ror #24
 37c:	00000054 	andeq	r0, r0, r4, asr r0
 380:	8e100e44 	cdphi	14, 1, cr0, cr0, cr4, {2}
 384:	85028601 	strhi	r8, [r2, #-1537]
 388:	00048403 	andeq	r8, r4, r3, lsl #8
 38c:	0000000c 	andeq	r0, r0, ip
 390:	ffffffff 	swinv	0x00ffffff
 394:	7c010001 	stcvc	0, cr0, [r1], {1}
 398:	000d0c0e 	andeq	r0, sp, lr, lsl #24
 39c:	0000000c 	andeq	r0, r0, ip
 3a0:	0000038c 	andeq	r0, r0, ip, lsl #7
 3a4:	30000cc0 	andcc	r0, r0, r0, asr #25
 3a8:	0000004c 	andeq	r0, r0, ip, asr #32
 3ac:	00000014 	andeq	r0, r0, r4, lsl r0
 3b0:	0000038c 	andeq	r0, r0, ip, lsl #7
 3b4:	30000d0c 	andcc	r0, r0, ip, lsl #26
 3b8:	00000074 	andeq	r0, r0, r4, ror r0
 3bc:	8e080e44 	cdphi	14, 0, cr0, cr8, cr4, {2}
 3c0:	00028401 	andeq	r8, r2, r1, lsl #8
 3c4:	0000000c 	andeq	r0, r0, ip
 3c8:	0000038c 	andeq	r0, r0, ip, lsl #7
 3cc:	30000d80 	andcc	r0, r0, r0, lsl #27
 3d0:	0000003c 	andeq	r0, r0, ip, lsr r0
 3d4:	0000000c 	andeq	r0, r0, ip
 3d8:	0000038c 	andeq	r0, r0, ip, lsl #7
 3dc:	30000dbc 	strcch	r0, [r0], -ip
 3e0:	00000024 	andeq	r0, r0, r4, lsr #32
 3e4:	0000000c 	andeq	r0, r0, ip
 3e8:	0000038c 	andeq	r0, r0, ip, lsl #7
 3ec:	30000de0 	andcc	r0, r0, r0, ror #27
 3f0:	00000028 	andeq	r0, r0, r8, lsr #32
 3f4:	00000014 	andeq	r0, r0, r4, lsl r0
 3f8:	0000038c 	andeq	r0, r0, ip, lsl #7
 3fc:	30000e08 	andcc	r0, r0, r8, lsl #28
 400:	00000058 	andeq	r0, r0, r8, asr r0
 404:	8e040e44 	cdphi	14, 0, cr0, cr4, cr4, {2}
 408:	00000001 	andeq	r0, r0, r1
 40c:	0000001c 	andeq	r0, r0, ip, lsl r0
 410:	0000038c 	andeq	r0, r0, ip, lsl #7
 414:	30000e60 	andcc	r0, r0, r0, ror #28
 418:	0000006c 	andeq	r0, r0, ip, rrx
 41c:	8e180e44 	cdphi	14, 1, cr0, cr8, cr4, {2}
 420:	87028801 	strhi	r8, [r2, -r1, lsl #16]
 424:	85048603 	strhi	r8, [r4, #-1539]
 428:	00068405 	andeq	r8, r6, r5, lsl #8
 42c:	00000020 	andeq	r0, r0, r0, lsr #32
 430:	0000038c 	andeq	r0, r0, ip, lsl #7
 434:	30000ecc 	andcc	r0, r0, ip, asr #29
 438:	00000058 	andeq	r0, r0, r8, asr r0
 43c:	8e1c0e44 	cdphi	14, 1, cr0, cr12, cr4, {2}
 440:	88028a01 	stmhida	r2, {r0, r9, fp, pc}
 444:	86048703 	strhi	r8, [r4], -r3, lsl #14
 448:	84068505 	strhi	r8, [r6], #-1285
 44c:	00000007 	andeq	r0, r0, r7
 450:	00000014 	andeq	r0, r0, r4, lsl r0
 454:	0000038c 	andeq	r0, r0, ip, lsl #7
 458:	30000f24 	andcc	r0, r0, r4, lsr #30
 45c:	00000020 	andeq	r0, r0, r0, lsr #32
 460:	8e040e44 	cdphi	14, 0, cr0, cr4, cr4, {2}
 464:	00000001 	andeq	r0, r0, r1
 468:	0000000c 	andeq	r0, r0, ip
 46c:	ffffffff 	swinv	0x00ffffff
 470:	7c010001 	stcvc	0, cr0, [r1], {1}
 474:	000d0c0e 	andeq	r0, sp, lr, lsl #24
 478:	0000000c 	andeq	r0, r0, ip
 47c:	00000468 	andeq	r0, r0, r8, ror #8
 480:	30000f44 	andcc	r0, r0, r4, asr #30
 484:	0000000c 	andeq	r0, r0, ip
 488:	0000000c 	andeq	r0, r0, ip
 48c:	00000468 	andeq	r0, r0, r8, ror #8
 490:	30000f50 	andcc	r0, r0, r0, asr pc
 494:	0000000c 	andeq	r0, r0, ip
 498:	0000000c 	andeq	r0, r0, ip
 49c:	00000468 	andeq	r0, r0, r8, ror #8
 4a0:	30000f5c 	andcc	r0, r0, ip, asr pc
 4a4:	00000008 	andeq	r0, r0, r8
 4a8:	0000000c 	andeq	r0, r0, ip
 4ac:	00000468 	andeq	r0, r0, r8, ror #8
 4b0:	30000f64 	andcc	r0, r0, r4, ror #30
 4b4:	00000014 	andeq	r0, r0, r4, lsl r0
 4b8:	0000000c 	andeq	r0, r0, ip
 4bc:	00000468 	andeq	r0, r0, r8, ror #8
 4c0:	30000f78 	andcc	r0, r0, r8, ror pc
 4c4:	00000014 	andeq	r0, r0, r4, lsl r0
 4c8:	0000000c 	andeq	r0, r0, ip
 4cc:	00000468 	andeq	r0, r0, r8, ror #8
 4d0:	30000f8c 	andcc	r0, r0, ip, lsl #31
 4d4:	00000008 	andeq	r0, r0, r8
 4d8:	0000000c 	andeq	r0, r0, ip
 4dc:	00000468 	andeq	r0, r0, r8, ror #8
 4e0:	30000f94 	mulcc	r0, r4, pc
 4e4:	0000000c 	andeq	r0, r0, ip
 4e8:	0000000c 	andeq	r0, r0, ip
 4ec:	ffffffff 	swinv	0x00ffffff
 4f0:	7c010001 	stcvc	0, cr0, [r1], {1}
 4f4:	000d0c0e 	andeq	r0, sp, lr, lsl #24
 4f8:	0000000c 	andeq	r0, r0, ip
 4fc:	000004e8 	andeq	r0, r0, r8, ror #9
 500:	30000fa0 	andcc	r0, r0, r0, lsr #31
 504:	0000004c 	andeq	r0, r0, ip, asr #32
 508:	0000000c 	andeq	r0, r0, ip
 50c:	000004e8 	andeq	r0, r0, r8, ror #9
 510:	30000fec 	andcc	r0, r0, ip, ror #31
 514:	0000001c 	andeq	r0, r0, ip, lsl r0
 518:	0000000c 	andeq	r0, r0, ip
 51c:	000004e8 	andeq	r0, r0, r8, ror #9
 520:	30001008 	andcc	r1, r0, r8
 524:	00000018 	andeq	r0, r0, r8, lsl r0
 528:	00000014 	andeq	r0, r0, r4, lsl r0
 52c:	000004e8 	andeq	r0, r0, r8, ror #9
 530:	30001020 	andcc	r1, r0, r0, lsr #32
 534:	00000028 	andeq	r0, r0, r8, lsr #32
 538:	8e080e44 	cdphi	14, 0, cr0, cr8, cr4, {2}
 53c:	00028401 	andeq	r8, r2, r1, lsl #8
 540:	00000014 	andeq	r0, r0, r4, lsl r0
 544:	000004e8 	andeq	r0, r0, r8, ror #9
 548:	30001048 	andcc	r1, r0, r8, asr #32
 54c:	0000002c 	andeq	r0, r0, ip, lsr #32
 550:	8e080e44 	cdphi	14, 0, cr0, cr8, cr4, {2}
 554:	00028401 	andeq	r8, r2, r1, lsl #8
 558:	0000000c 	andeq	r0, r0, ip
 55c:	ffffffff 	swinv	0x00ffffff
 560:	7c010001 	stcvc	0, cr0, [r1], {1}
 564:	000d0c0e 	andeq	r0, sp, lr, lsl #24
 568:	00000018 	andeq	r0, r0, r8, lsl r0
 56c:	00000558 	andeq	r0, r0, r8, asr r5
 570:	30001074 	andcc	r1, r0, r4, ror r0
 574:	00000054 	andeq	r0, r0, r4, asr r0
 578:	8e100e44 	cdphi	14, 1, cr0, cr0, cr4, {2}
 57c:	85028601 	strhi	r8, [r2, #-1537]
 580:	00048403 	andeq	r8, r4, r3, lsl #8
 584:	00000018 	andeq	r0, r0, r8, lsl r0
 588:	00000558 	andeq	r0, r0, r8, asr r5
 58c:	300010c8 	andcc	r1, r0, r8, asr #1
 590:	00000044 	andeq	r0, r0, r4, asr #32
 594:	8e0c0e44 	cdphi	14, 0, cr0, cr12, cr4, {2}
 598:	84028501 	strhi	r8, [r2], #-1281
 59c:	00000003 	andeq	r0, r0, r3
 5a0:	00000028 	andeq	r0, r0, r8, lsr #32
 5a4:	00000558 	andeq	r0, r0, r8, asr r5
 5a8:	3000110c 	andcc	r1, r0, ip, lsl #2
 5ac:	0000023c 	andeq	r0, r0, ip, lsr r2
 5b0:	8e240e44 	cdphi	14, 2, cr0, cr4, cr4, {2}
 5b4:	8a028b01 	bhi	a31c0 <DISABLE_IRQ+0xa3140>
 5b8:	88048903 	stmhida	r4, {r0, r1, r8, fp, pc}
 5bc:	86068705 	strhi	r8, [r6], -r5, lsl #14
 5c0:	84088507 	strhi	r8, [r8], #-1287
 5c4:	b00e4809 	andlt	r4, lr, r9, lsl #16
 5c8:	00000002 	andeq	r0, r0, r2
 5cc:	0000000c 	andeq	r0, r0, ip
 5d0:	ffffffff 	swinv	0x00ffffff
 5d4:	7c010001 	stcvc	0, cr0, [r1], {1}
 5d8:	000d0c0e 	andeq	r0, sp, lr, lsl #24
 5dc:	00000014 	andeq	r0, r0, r4, lsl r0
 5e0:	000005cc 	andeq	r0, r0, ip, asr #11
 5e4:	30001348 	andcc	r1, r0, r8, asr #6
 5e8:	00000104 	andeq	r0, r0, r4, lsl #2
 5ec:	8e080e48 	cdphi	14, 0, cr0, cr8, cr8, {2}
 5f0:	00028401 	andeq	r8, r2, r1, lsl #8
 5f4:	00000014 	andeq	r0, r0, r4, lsl r0
 5f8:	000005cc 	andeq	r0, r0, ip, asr #11
 5fc:	3000144c 	andcc	r1, r0, ip, asr #8
 600:	00000048 	andeq	r0, r0, r8, asr #32
 604:	8e080e48 	cdphi	14, 0, cr0, cr8, cr8, {2}
 608:	00028401 	andeq	r8, r2, r1, lsl #8
 60c:	00000018 	andeq	r0, r0, r8, lsl r0
 610:	000005cc 	andeq	r0, r0, ip, asr #11
 614:	30001494 	mulcc	r0, r4, r4
 618:	0000005c 	andeq	r0, r0, ip, asr r0
 61c:	8e0c0e48 	cdphi	14, 0, cr0, cr12, cr8, {2}
 620:	84028501 	strhi	r8, [r2], #-1281
 624:	00000003 	andeq	r0, r0, r3
 628:	00000018 	andeq	r0, r0, r8, lsl r0
 62c:	000005cc 	andeq	r0, r0, ip, asr #11
 630:	300014f0 	strccd	r1, [r0], -r0
 634:	00000084 	andeq	r0, r0, r4, lsl #1
 638:	8e100e48 	cdphi	14, 1, cr0, cr0, cr8, {2}
 63c:	85028601 	strhi	r8, [r2, #-1537]
 640:	00048403 	andeq	r8, r4, r3, lsl #8
 644:	00000018 	andeq	r0, r0, r8, lsl r0
 648:	000005cc 	andeq	r0, r0, ip, asr #11
 64c:	30001574 	andcc	r1, r0, r4, ror r5
 650:	000000f4 	streqd	r0, [r0], -r4
 654:	8e0c0e48 	cdphi	14, 0, cr0, cr12, cr8, {2}
 658:	84028501 	strhi	r8, [r2], #-1281
 65c:	00000003 	andeq	r0, r0, r3
 660:	00000014 	andeq	r0, r0, r4, lsl r0
 664:	000005cc 	andeq	r0, r0, ip, asr #11
 668:	30001668 	andcc	r1, r0, r8, ror #12
 66c:	00000030 	andeq	r0, r0, r0, lsr r0
 670:	8e080e44 	cdphi	14, 0, cr0, cr8, cr4, {2}
 674:	00028401 	andeq	r8, r2, r1, lsl #8
 678:	00000014 	andeq	r0, r0, r4, lsl r0
 67c:	000005cc 	andeq	r0, r0, ip, asr #11
 680:	30001698 	mulcc	r0, r8, r6
 684:	00000058 	andeq	r0, r0, r8, asr r0
 688:	8e080e50 	mcrhi	14, 0, r0, cr8, cr0, {2}
 68c:	00028401 	andeq	r8, r2, r1, lsl #8
 690:	00000014 	andeq	r0, r0, r4, lsl r0
 694:	000005cc 	andeq	r0, r0, ip, asr #11
 698:	300016f0 	strccd	r1, [r0], -r0
 69c:	0000002c 	andeq	r0, r0, ip, lsr #32
 6a0:	8e080e44 	cdphi	14, 0, cr0, cr8, cr4, {2}
 6a4:	00028401 	andeq	r8, r2, r1, lsl #8
 6a8:	00000018 	andeq	r0, r0, r8, lsl r0
 6ac:	000005cc 	andeq	r0, r0, ip, asr #11
 6b0:	3000171c 	andcc	r1, r0, ip, lsl r7
 6b4:	00000094 	muleq	r0, r4, r0
 6b8:	8e0c0e4c 	cdphi	14, 0, cr0, cr12, cr12, {2}
 6bc:	84028501 	strhi	r8, [r2], #-1281
 6c0:	00000003 	andeq	r0, r0, r3
 6c4:	00000014 	andeq	r0, r0, r4, lsl r0
 6c8:	000005cc 	andeq	r0, r0, ip, asr #11
 6cc:	300017b0 	strcch	r1, [r0], -r0
 6d0:	00000020 	andeq	r0, r0, r0, lsr #32
 6d4:	8e040e48 	cdphi	14, 0, cr0, cr4, cr8, {2}
 6d8:	00000001 	andeq	r0, r0, r1
 6dc:	00000014 	andeq	r0, r0, r4, lsl r0
 6e0:	000005cc 	andeq	r0, r0, ip, asr #11
 6e4:	300017d0 	ldrccd	r1, [r0], -r0
 6e8:	00000038 	andeq	r0, r0, r8, lsr r0
 6ec:	8e080e44 	cdphi	14, 0, cr0, cr8, cr4, {2}
 6f0:	00028401 	andeq	r8, r2, r1, lsl #8
 6f4:	00000014 	andeq	r0, r0, r4, lsl r0
 6f8:	000005cc 	andeq	r0, r0, ip, asr #11
 6fc:	30001808 	andcc	r1, r0, r8, lsl #16
 700:	00000034 	andeq	r0, r0, r4, lsr r0
 704:	8e040e54 	mcrhi	14, 0, r0, cr4, cr4, {2}
 708:	00000001 	andeq	r0, r0, r1
 70c:	00000014 	andeq	r0, r0, r4, lsl r0
 710:	000005cc 	andeq	r0, r0, ip, asr #11
 714:	3000183c 	andcc	r1, r0, ip, lsr r8
 718:	00000034 	andeq	r0, r0, r4, lsr r0
 71c:	8e040e54 	mcrhi	14, 0, r0, cr4, cr4, {2}
 720:	00000001 	andeq	r0, r0, r1
 724:	00000020 	andeq	r0, r0, r0, lsr #32
 728:	000005cc 	andeq	r0, r0, ip, asr #11
 72c:	30001870 	andcc	r1, r0, r0, ror r8
 730:	00000128 	andeq	r0, r0, r8, lsr #2
 734:	8e1c0e44 	cdphi	14, 1, cr0, cr12, cr4, {2}
 738:	88028a01 	stmhida	r2, {r0, r9, fp, pc}
 73c:	86048703 	strhi	r8, [r4], -r3, lsl #14
 740:	84068505 	strhi	r8, [r6], #-1285
 744:	00000007 	andeq	r0, r0, r7
 748:	00000014 	andeq	r0, r0, r4, lsl r0
 74c:	000005cc 	andeq	r0, r0, ip, asr #11
 750:	30001998 	mulcc	r0, r8, r9
 754:	00000030 	andeq	r0, r0, r0, lsr r0
 758:	8e040e50 	mcrhi	14, 0, r0, cr4, cr0, {2}
 75c:	00000001 	andeq	r0, r0, r1
 760:	00000014 	andeq	r0, r0, r4, lsl r0
 764:	000005cc 	andeq	r0, r0, ip, asr #11
 768:	300019c8 	andcc	r1, r0, r8, asr #19
 76c:	00000034 	andeq	r0, r0, r4, lsr r0
 770:	8e040e54 	mcrhi	14, 0, r0, cr4, cr4, {2}
 774:	00000001 	andeq	r0, r0, r1
 778:	00000020 	andeq	r0, r0, r0, lsr #32
 77c:	000005cc 	andeq	r0, r0, ip, asr #11
 780:	300019fc 	strccd	r1, [r0], -ip
 784:	000000ec 	andeq	r0, r0, ip, ror #1
 788:	8e1c0e44 	cdphi	14, 1, cr0, cr12, cr4, {2}
 78c:	88028a01 	stmhida	r2, {r0, r9, fp, pc}
 790:	86048703 	strhi	r8, [r4], -r3, lsl #14
 794:	84068505 	strhi	r8, [r6], #-1285
 798:	00000007 	andeq	r0, r0, r7
 79c:	00000014 	andeq	r0, r0, r4, lsl r0
 7a0:	000005cc 	andeq	r0, r0, ip, asr #11
 7a4:	30001ae8 	andcc	r1, r0, r8, ror #21
 7a8:	0000003c 	andeq	r0, r0, ip, lsr r0
 7ac:	8e080e48 	cdphi	14, 0, cr0, cr8, cr8, {2}
 7b0:	00028401 	andeq	r8, r2, r1, lsl #8
 7b4:	00000018 	andeq	r0, r0, r8, lsl r0
 7b8:	000005cc 	andeq	r0, r0, ip, asr #11
 7bc:	30001b24 	andcc	r1, r0, r4, lsr #22
 7c0:	0000006c 	andeq	r0, r0, ip, rrx
 7c4:	8e0c0e48 	cdphi	14, 0, cr0, cr12, cr8, {2}
 7c8:	84028501 	strhi	r8, [r2], #-1281
 7cc:	00000003 	andeq	r0, r0, r3
 7d0:	00000014 	andeq	r0, r0, r4, lsl r0
 7d4:	000005cc 	andeq	r0, r0, ip, asr #11
 7d8:	30001b90 	mulcc	r0, r0, fp
 7dc:	00000038 	andeq	r0, r0, r8, lsr r0
 7e0:	8e040e5c 	mcrhi	14, 0, r0, cr4, cr12, {2}
 7e4:	00000001 	andeq	r0, r0, r1
 7e8:	00000014 	andeq	r0, r0, r4, lsl r0
 7ec:	000005cc 	andeq	r0, r0, ip, asr #11
 7f0:	30001bc8 	andcc	r1, r0, r8, asr #23
 7f4:	000000b8 	streqh	r0, [r0], -r8
 7f8:	8e080e48 	cdphi	14, 0, cr0, cr8, cr8, {2}
 7fc:	00028401 	andeq	r8, r2, r1, lsl #8
 800:	0000000c 	andeq	r0, r0, ip
 804:	000005cc 	andeq	r0, r0, ip, asr #11
 808:	30001c80 	andcc	r1, r0, r0, lsl #25
 80c:	0000000c 	andeq	r0, r0, ip
 810:	0000001c 	andeq	r0, r0, ip, lsl r0
 814:	000005cc 	andeq	r0, r0, ip, asr #11
 818:	30001c8c 	andcc	r1, r0, ip, lsl #25
 81c:	00000064 	andeq	r0, r0, r4, rrx
 820:	8e140e44 	cdphi	14, 1, cr0, cr4, cr4, {2}
 824:	86028701 	strhi	r8, [r2], -r1, lsl #14
 828:	84048503 	strhi	r8, [r4], #-1283
 82c:	00000005 	andeq	r0, r0, r5
 830:	0000001c 	andeq	r0, r0, ip, lsl r0
 834:	000005cc 	andeq	r0, r0, ip, asr #11
 838:	30001cf0 	strccd	r1, [r0], -r0
 83c:	000003a4 	andeq	r0, r0, r4, lsr #7
 840:	8e180e44 	cdphi	14, 1, cr0, cr8, cr4, {2}
 844:	87028801 	strhi	r8, [r2, -r1, lsl #16]
 848:	85048603 	strhi	r8, [r4, #-1539]
 84c:	00068405 	andeq	r8, r6, r5, lsl #8
 850:	00000018 	andeq	r0, r0, r8, lsl r0
 854:	000005cc 	andeq	r0, r0, ip, asr #11
 858:	30002094 	mulcc	r0, r4, r0
 85c:	00000140 	andeq	r0, r0, r0, asr #2
 860:	8e100e44 	cdphi	14, 1, cr0, cr0, cr4, {2}
 864:	85028601 	strhi	r8, [r2, #-1537]
 868:	00048403 	andeq	r8, r4, r3, lsl #8
 86c:	0000000c 	andeq	r0, r0, ip
 870:	ffffffff 	swinv	0x00ffffff
 874:	7c010001 	stcvc	0, cr0, [r1], {1}
 878:	000d0c0e 	andeq	r0, sp, lr, lsl #24
 87c:	0000001c 	andeq	r0, r0, ip, lsl r0
 880:	0000086c 	andeq	r0, r0, ip, ror #16
 884:	300026c0 	andcc	r2, r0, r0, asr #13
 888:	00000050 	andeq	r0, r0, r0, asr r0
 88c:	8e180e48 	cdphi	14, 1, cr0, cr8, cr8, {2}
 890:	87028801 	strhi	r8, [r2, -r1, lsl #16]
 894:	85048603 	strhi	r8, [r4, #-1539]
 898:	00068405 	andeq	r8, r6, r5, lsl #8
 89c:	0000000c 	andeq	r0, r0, ip
 8a0:	ffffffff 	swinv	0x00ffffff
 8a4:	7c010001 	stcvc	0, cr0, [r1], {1}
 8a8:	000d0c0e 	andeq	r0, sp, lr, lsl #24
 8ac:	00000024 	andeq	r0, r0, r4, lsr #32
 8b0:	0000089c 	muleq	r0, ip, r8
 8b4:	30002710 	andcc	r2, r0, r0, lsl r7
 8b8:	00000058 	andeq	r0, r0, r8, asr r0
 8bc:	83100e44 	tsthi	r0, #1088	; 0x440
 8c0:	81028201 	tsthi	r2, r1, lsl #4
 8c4:	48048003 	stmmida	r4, {r0, r1, pc}
 8c8:	058e200e 	streq	r2, [lr, #14]
 8cc:	07850686 	streq	r0, [r5, r6, lsl #13]
 8d0:	00000884 	andeq	r0, r0, r4, lsl #17
 8d4:	00000020 	andeq	r0, r0, r0, lsr #32
 8d8:	0000089c 	muleq	r0, ip, r8
 8dc:	30002768 	andcc	r2, r0, r8, ror #14
 8e0:	00000058 	andeq	r0, r0, r8, asr r0
 8e4:	44100e44 	ldrmi	r0, [r0], #-3652
 8e8:	058e1c0e 	streq	r1, [lr, #3086]
 8ec:	07840685 	streq	r0, [r4, r5, lsl #13]
 8f0:	02820183 	addeq	r0, r2, #-1073741792	; 0xc0000020
 8f4:	04800381 	streq	r0, [r0], #897
 8f8:	0000000c 	andeq	r0, r0, ip
 8fc:	ffffffff 	swinv	0x00ffffff
 900:	7c010001 	stcvc	0, cr0, [r1], {1}
 904:	000d0c0e 	andeq	r0, sp, lr, lsl #24
 908:	0000001c 	andeq	r0, r0, ip, lsl r0
 90c:	000008f8 	streqd	r0, [r0], -r8
 910:	300027c0 	andcc	r2, r0, r0, asr #15
 914:	0000008c 	andeq	r0, r0, ip, lsl #1
 918:	8e180e44 	cdphi	14, 1, cr0, cr8, cr4, {2}
 91c:	87028801 	strhi	r8, [r2, -r1, lsl #16]
 920:	85048603 	strhi	r8, [r4, #-1539]
 924:	00068405 	andeq	r8, r6, r5, lsl #8
 928:	0000000c 	andeq	r0, r0, ip
 92c:	000008f8 	streqd	r0, [r0], -r8
 930:	3000284c 	andcc	r2, r0, ip, asr #16
 934:	0000001c 	andeq	r0, r0, ip, lsl r0
 938:	0000000c 	andeq	r0, r0, ip
 93c:	000008f8 	streqd	r0, [r0], -r8
 940:	30002868 	andcc	r2, r0, r8, ror #16
 944:	00000024 	andeq	r0, r0, r4, lsr #32
 948:	0000000c 	andeq	r0, r0, ip
 94c:	000008f8 	streqd	r0, [r0], -r8
 950:	3000288c 	andcc	r2, r0, ip, lsl #17
 954:	00000030 	andeq	r0, r0, r0, lsr r0
 958:	0000000c 	andeq	r0, r0, ip
 95c:	000008f8 	streqd	r0, [r0], -r8
 960:	300028bc 	strcch	r2, [r0], -ip
 964:	00000044 	andeq	r0, r0, r4, asr #32
 968:	0000000c 	andeq	r0, r0, ip
 96c:	000008f8 	streqd	r0, [r0], -r8
 970:	30002900 	andcc	r2, r0, r0, lsl #18
 974:	00000030 	andeq	r0, r0, r0, lsr r0
 978:	00000014 	andeq	r0, r0, r4, lsl r0
 97c:	000008f8 	streqd	r0, [r0], -r8
 980:	30002930 	andcc	r2, r0, r0, lsr r9
 984:	00000048 	andeq	r0, r0, r8, asr #32
 988:	8e040e48 	cdphi	14, 0, cr0, cr4, cr8, {2}
 98c:	00000001 	andeq	r0, r0, r1
 990:	0000000c 	andeq	r0, r0, ip
 994:	000008f8 	streqd	r0, [r0], -r8
 998:	30002978 	andcc	r2, r0, r8, ror r9
 99c:	00000034 	andeq	r0, r0, r4, lsr r0
 9a0:	0000000c 	andeq	r0, r0, ip
 9a4:	000008f8 	streqd	r0, [r0], -r8
 9a8:	300029ac 	andcc	r2, r0, ip, lsr #19
 9ac:	00000024 	andeq	r0, r0, r4, lsr #32
 9b0:	00000018 	andeq	r0, r0, r8, lsl r0
 9b4:	000008f8 	streqd	r0, [r0], -r8
 9b8:	300029d0 	ldrccd	r2, [r0], -r0
 9bc:	00000038 	andeq	r0, r0, r8, lsr r0
 9c0:	8e0c0e44 	cdphi	14, 0, cr0, cr12, cr4, {2}
 9c4:	84028501 	strhi	r8, [r2], #-1281
 9c8:	00000003 	andeq	r0, r0, r3
 9cc:	0000000c 	andeq	r0, r0, ip
 9d0:	000008f8 	streqd	r0, [r0], -r8
 9d4:	30002a08 	andcc	r2, r0, r8, lsl #20
 9d8:	00000040 	andeq	r0, r0, r0, asr #32
 9dc:	00000014 	andeq	r0, r0, r4, lsl r0
 9e0:	000008f8 	streqd	r0, [r0], -r8
 9e4:	30002a48 	andcc	r2, r0, r8, asr #20
 9e8:	00000074 	andeq	r0, r0, r4, ror r0
 9ec:	8e080e44 	cdphi	14, 0, cr0, cr8, cr4, {2}
 9f0:	00028401 	andeq	r8, r2, r1, lsl #8
 9f4:	00000014 	andeq	r0, r0, r4, lsl r0
 9f8:	000008f8 	streqd	r0, [r0], -r8
 9fc:	30002abc 	strcch	r2, [r0], -ip
 a00:	0000004c 	andeq	r0, r0, ip, asr #32
 a04:	8e040e44 	cdphi	14, 0, cr0, cr4, cr4, {2}
 a08:	00000001 	andeq	r0, r0, r1
 a0c:	00000018 	andeq	r0, r0, r8, lsl r0
 a10:	000008f8 	streqd	r0, [r0], -r8
 a14:	30002b08 	andcc	r2, r0, r8, lsl #22
 a18:	00000084 	andeq	r0, r0, r4, lsl #1
 a1c:	8e100e44 	cdphi	14, 1, cr0, cr0, cr4, {2}
 a20:	85028601 	strhi	r8, [r2, #-1537]
 a24:	00048403 	andeq	r8, r4, r3, lsl #8
 a28:	00000018 	andeq	r0, r0, r8, lsl r0
 a2c:	000008f8 	streqd	r0, [r0], -r8
 a30:	30002b8c 	andcc	r2, r0, ip, lsl #23
 a34:	00000038 	andeq	r0, r0, r8, lsr r0
 a38:	8e0c0e44 	cdphi	14, 0, cr0, cr12, cr4, {2}
 a3c:	84028501 	strhi	r8, [r2], #-1281
 a40:	00000003 	andeq	r0, r0, r3
 a44:	0000000c 	andeq	r0, r0, ip
 a48:	000008f8 	streqd	r0, [r0], -r8
 a4c:	30002bc4 	andcc	r2, r0, r4, asr #23
 a50:	00000024 	andeq	r0, r0, r4, lsr #32
 a54:	0000000c 	andeq	r0, r0, ip
 a58:	000008f8 	streqd	r0, [r0], -r8
 a5c:	30002be8 	andcc	r2, r0, r8, ror #23
 a60:	00000020 	andeq	r0, r0, r0, lsr #32
 a64:	0000000c 	andeq	r0, r0, ip
 a68:	000008f8 	streqd	r0, [r0], -r8
 a6c:	30002c08 	andcc	r2, r0, r8, lsl #24
 a70:	00000028 	andeq	r0, r0, r8, lsr #32
 a74:	0000000c 	andeq	r0, r0, ip
 a78:	000008f8 	streqd	r0, [r0], -r8
 a7c:	30002c30 	andcc	r2, r0, r0, lsr ip
 a80:	00000058 	andeq	r0, r0, r8, asr r0
 a84:	0000000c 	andeq	r0, r0, ip
 a88:	000008f8 	streqd	r0, [r0], -r8
 a8c:	30002c88 	andcc	r2, r0, r8, lsl #25
 a90:	00000034 	andeq	r0, r0, r4, lsr r0
 a94:	0000000c 	andeq	r0, r0, ip
 a98:	000008f8 	streqd	r0, [r0], -r8
 a9c:	30002cbc 	strcch	r2, [r0], -ip
 aa0:	00000024 	andeq	r0, r0, r4, lsr #32
 aa4:	0000001c 	andeq	r0, r0, ip, lsl r0
 aa8:	000008f8 	streqd	r0, [r0], -r8
 aac:	30002ce0 	andcc	r2, r0, r0, ror #25
 ab0:	00000068 	andeq	r0, r0, r8, rrx
 ab4:	8e140e44 	cdphi	14, 1, cr0, cr4, cr4, {2}
 ab8:	86028701 	strhi	r8, [r2], -r1, lsl #14
 abc:	84048503 	strhi	r8, [r4], #-1283
 ac0:	00000005 	andeq	r0, r0, r5
 ac4:	0000000c 	andeq	r0, r0, ip
 ac8:	000008f8 	streqd	r0, [r0], -r8
 acc:	30002d48 	andcc	r2, r0, r8, asr #26
 ad0:	00000030 	andeq	r0, r0, r0, lsr r0
 ad4:	0000000c 	andeq	r0, r0, ip
 ad8:	ffffffff 	swinv	0x00ffffff
 adc:	7c010001 	stcvc	0, cr0, [r1], {1}
 ae0:	000d0c0e 	andeq	r0, sp, lr, lsl #24
 ae4:	00000018 	andeq	r0, r0, r8, lsl r0
 ae8:	00000ad4 	ldreqd	r0, [r0], -r4
 aec:	30002d78 	andcc	r2, r0, r8, ror sp
 af0:	000000f8 	streqd	r0, [r0], -r8
 af4:	8e0c0e44 	cdphi	14, 0, cr0, cr12, cr4, {2}
 af8:	84028501 	strhi	r8, [r2], #-1281
 afc:	00000003 	andeq	r0, r0, r3
 b00:	00000014 	andeq	r0, r0, r4, lsl r0
 b04:	00000ad4 	ldreqd	r0, [r0], -r4
 b08:	30002e70 	andcc	r2, r0, r0, ror lr
 b0c:	00000028 	andeq	r0, r0, r8, lsr #32
 b10:	8e040e44 	cdphi	14, 0, cr0, cr4, cr4, {2}
 b14:	00000001 	andeq	r0, r0, r1
 b18:	00000024 	andeq	r0, r0, r4, lsr #32
 b1c:	00000ad4 	ldreqd	r0, [r0], -r4
 b20:	30002e98 	mulcc	r0, r8, lr
 b24:	00000148 	andeq	r0, r0, r8, asr #2
 b28:	8e240e44 	cdphi	14, 2, cr0, cr4, cr4, {2}
 b2c:	8a028b01 	bhi	a3738 <DISABLE_IRQ+0xa36b8>
 b30:	88048903 	stmhida	r4, {r0, r1, r8, fp, pc}
 b34:	86068705 	strhi	r8, [r6], -r5, lsl #14
 b38:	84088507 	strhi	r8, [r8], #-1287
 b3c:	00000009 	andeq	r0, r0, r9
 b40:	00000014 	andeq	r0, r0, r4, lsl r0
 b44:	00000ad4 	ldreqd	r0, [r0], -r4
 b48:	30002fe0 	andcc	r2, r0, r0, ror #31
 b4c:	0000002c 	andeq	r0, r0, ip, lsr #32
 b50:	8e040e44 	cdphi	14, 0, cr0, cr4, cr4, {2}
 b54:	00000001 	andeq	r0, r0, r1
 b58:	00000014 	andeq	r0, r0, r4, lsl r0
 b5c:	00000ad4 	ldreqd	r0, [r0], -r4
 b60:	3000300c 	andcc	r3, r0, ip
 b64:	00000050 	andeq	r0, r0, r0, asr r0
 b68:	8e080e44 	cdphi	14, 0, cr0, cr8, cr4, {2}
 b6c:	00028401 	andeq	r8, r2, r1, lsl #8
 b70:	00000024 	andeq	r0, r0, r4, lsr #32
 b74:	00000ad4 	ldreqd	r0, [r0], -r4
 b78:	3000305c 	andcc	r3, r0, ip, asr r0
 b7c:	000002e8 	andeq	r0, r0, r8, ror #5
 b80:	8e240e44 	cdphi	14, 2, cr0, cr4, cr4, {2}
 b84:	8a028b01 	bhi	a3790 <DISABLE_IRQ+0xa3710>
 b88:	88048903 	stmhida	r4, {r0, r1, r8, fp, pc}
 b8c:	86068705 	strhi	r8, [r6], -r5, lsl #14
 b90:	84088507 	strhi	r8, [r8], #-1287
 b94:	780e5809 	stmvcda	lr, {r0, r3, fp, ip, lr}
 b98:	00000024 	andeq	r0, r0, r4, lsr #32
 b9c:	00000ad4 	ldreqd	r0, [r0], -r4
 ba0:	30003344 	andcc	r3, r0, r4, asr #6
 ba4:	0000062c 	andeq	r0, r0, ip, lsr #12
 ba8:	8e240e44 	cdphi	14, 2, cr0, cr4, cr4, {2}
 bac:	8a028b01 	bhi	a37b8 <DISABLE_IRQ+0xa3738>
 bb0:	88048903 	stmhida	r4, {r0, r1, r8, fp, pc}
 bb4:	86068705 	strhi	r8, [r6], -r5, lsl #14
 bb8:	84088507 	strhi	r8, [r8], #-1287
 bbc:	3c0e5809 	stccc	8, cr5, [lr], {9}
 bc0:	00000014 	andeq	r0, r0, r4, lsl r0
 bc4:	00000ad4 	ldreqd	r0, [r0], -r4
 bc8:	30003970 	andcc	r3, r0, r0, ror r9
 bcc:	00000020 	andeq	r0, r0, r0, lsr #32
 bd0:	8e080e44 	cdphi	14, 0, cr0, cr8, cr4, {2}
 bd4:	00028401 	andeq	r8, r2, r1, lsl #8
 bd8:	00000018 	andeq	r0, r0, r8, lsl r0
 bdc:	00000ad4 	ldreqd	r0, [r0], -r4
 be0:	30003990 	mulcc	r0, r0, r9
 be4:	00000020 	andeq	r0, r0, r0, lsr #32
 be8:	44080e44 	strmi	r0, [r8], #-3652
 bec:	038e0c0e 	orreq	r0, lr, #3584	; 0xe00
 bf0:	02820183 	addeq	r0, r2, #-1073741792	; 0xc0000020
 bf4:	0000001c 	andeq	r0, r0, ip, lsl r0
 bf8:	00000ad4 	ldreqd	r0, [r0], -r4
 bfc:	300039b0 	strcch	r3, [r0], -r0
 c00:	00000034 	andeq	r0, r0, r4, lsr r0
 c04:	44080e44 	strmi	r0, [r8], #-3652
 c08:	038e100e 	orreq	r1, lr, #14	; 0xe
 c0c:	01830484 	orreq	r0, r3, r4, lsl #9
 c10:	00000282 	andeq	r0, r0, r2, lsl #5
 c14:	0000000c 	andeq	r0, r0, ip
 c18:	00000ad4 	ldreqd	r0, [r0], -r4
 c1c:	300039e4 	andcc	r3, r0, r4, ror #19
 c20:	00000010 	andeq	r0, r0, r0, lsl r0
 c24:	0000001c 	andeq	r0, r0, ip, lsl r0
 c28:	00000ad4 	ldreqd	r0, [r0], -r4
 c2c:	300039f4 	strccd	r3, [r0], -r4
 c30:	00000020 	andeq	r0, r0, r0, lsr #32
 c34:	440c0e44 	strmi	r0, [ip], #-3652
 c38:	048e100e 	streq	r1, [lr], #14
 c3c:	02820183 	addeq	r0, r2, #-1073741792	; 0xc0000020
 c40:	00000381 	andeq	r0, r0, r1, lsl #7
 c44:	00000020 	andeq	r0, r0, r0, lsr #32
 c48:	00000ad4 	ldreqd	r0, [r0], -r4
 c4c:	30003a14 	andcc	r3, r0, r4, lsl sl
 c50:	00000704 	andeq	r0, r0, r4, lsl #14
 c54:	8e1c0e44 	cdphi	14, 1, cr0, cr12, cr4, {2}
 c58:	88028a01 	stmhida	r2, {r0, r9, fp, pc}
 c5c:	86048703 	strhi	r8, [r4], -r3, lsl #14
 c60:	84068505 	strhi	r8, [r6], #-1285
 c64:	240e5407 	strcs	r5, [lr], #-1031
 c68:	0000001c 	andeq	r0, r0, ip, lsl r0
 c6c:	00000ad4 	ldreqd	r0, [r0], -r4
 c70:	30004118 	andcc	r4, r0, r8, lsl r1
 c74:	00000020 	andeq	r0, r0, r0, lsr #32
 c78:	440c0e44 	strmi	r0, [ip], #-3652
 c7c:	048e100e 	streq	r1, [lr], #14
 c80:	02820183 	addeq	r0, r2, #-1073741792	; 0xc0000020
 c84:	00000381 	andeq	r0, r0, r1, lsl #7
Disassembly of section .debug_pubnames:

00000000 <.debug_pubnames>:
   0:	00000042 	andeq	r0, r0, r2, asr #32
   4:	00410002 	subeq	r0, r1, r2
   8:	009a0000 	addeqs	r0, sl, r0
   c:	00250000 	eoreq	r0, r5, r0
  10:	656c0000 	strvsb	r0, [ip]!
  14:	6e695f64 	cdpvs	15, 6, cr5, cr9, cr4, {3}
  18:	37007469 	strcc	r7, [r0, -r9, ror #8]
  1c:	64000000 	strvs	r0, [r0]
  20:	79616c65 	stmvcdb	r1!, {r0, r2, r5, r6, sl, fp, sp, lr}^
  24:	00007300 	andeq	r7, r0, r0, lsl #6
  28:	6d697400 	cfstrdvs	mvd7, [r9]
  2c:	5f307265 	swipl	0x00307265
  30:	74696e69 	strvcbt	r6, [r9], #-3689
  34:	00008600 	andeq	r8, r0, r0, lsl #12
  38:	79656b00 	stmvcdb	r5!, {r8, r9, fp, sp, lr}^
  3c:	696e695f 	stmvsdb	lr!, {r0, r1, r2, r3, r4, r6, r8, fp, sp, lr}^
  40:	00000074 	andeq	r0, r0, r4, ror r0
  44:	00940000 	addeqs	r0, r4, r0
  48:	00020000 	andeq	r0, r2, r0
  4c:	000000db 	ldreqd	r0, [r0], -fp
  50:	000003f4 	streqd	r0, [r0], -r4
  54:	00000146 	andeq	r0, r0, r6, asr #2
  58:	5f717269 	swipl	0x00717269
  5c:	646e6168 	strvsbt	r6, [lr], #-360
  60:	0072656c 	rsbeqs	r6, r2, ip, ror #10
  64:	00000188 	andeq	r0, r0, r8, lsl #3
  68:	61656c63 	cmnvs	r5, r3, ror #24
  6c:	72695f72 	rsbvc	r5, r9, #456	; 0x1c8
  70:	019b0071 	orreqs	r0, fp, r1, ror r0
  74:	6f720000 	swivs	0x00720000
  78:	5f73666d 	swipl	0x0073666d
  7c:	6b736174 	blvs	1cd8654 <DISABLE_IRQ+0x1cd85d4>
  80:	00022200 	andeq	r2, r2, r0, lsl #4
  84:	64636c00 	strvsbt	r6, [r3], #-3072
  88:	7361745f 	cmnvc	r1, #1593835520	; 0x5f000000
  8c:	0254006b 	subeqs	r0, r4, #107	; 0x6b
  90:	78650000 	stmvcda	r5!, {}^
  94:	00766365 	rsbeqs	r6, r6, r5, ror #6
  98:	0000027d 	andeq	r0, r0, sp, ror r2
  9c:	5f6e7572 	swipl	0x006e7572
  a0:	6d6d6f63 	stcvsl	15, cr6, [sp, #-396]!
  a4:	00646e6f 	rsbeq	r6, r4, pc, ror #28
  a8:	000002ca 	andeq	r0, r0, sl, asr #5
  ac:	6c656873 	stcvsl	8, cr6, [r5], #-460
  b0:	0370006c 	cmneq	r0, #108	; 0x6c
  b4:	6e690000 	cdpvs	0, 6, cr0, cr9, cr0, {0}
  b8:	c9007469 	stmgtdb	r0, {r0, r3, r5, r6, sl, ip, sp, lr}
  bc:	77000003 	strvc	r0, [r0, -r3]
  c0:	5f746961 	swipl	0x00746961
  c4:	75657571 	strvcb	r7, [r5, #-1393]!
  c8:	65685f65 	strvsb	r5, [r8, #-3941]!
  cc:	db006461 	blle	19258 <DISABLE_IRQ+0x191d8>
  d0:	62000003 	andvs	r0, r0, #3	; 0x3
  d4:	65666675 	strvsb	r6, [r6, #-1653]!
  d8:	00000072 	andeq	r0, r0, r2, ror r0
  dc:	009d0000 	addeqs	r0, sp, r0
  e0:	00020000 	andeq	r0, r2, r0
  e4:	000004cf 	andeq	r0, r0, pc, asr #9
  e8:	0000032e 	andeq	r0, r0, lr, lsr #6
  ec:	000001a4 	andeq	r0, r0, r4, lsr #3
  f0:	5f746567 	swipl	0x00746567
  f4:	72727563 	rsbvcs	r7, r2, #415236096	; 0x18c00000
  f8:	00746e65 	rsbeqs	r6, r4, r5, ror #28
  fc:	000001d9 	ldreqd	r0, [r0], -r9
 100:	6b736174 	blvs	1cd86d8 <DISABLE_IRQ+0x1cd8658>
 104:	696e695f 	stmvsdb	lr!, {r0, r1, r2, r3, r4, r6, r8, fp, sp, lr}^
 108:	01ec0074 	mvneq	r0, r4, ror r0
 10c:	6e650000 	cdpvs	0, 6, cr0, cr5, cr0, {0}
 110:	656c6261 	strvsb	r6, [ip, #-609]!
 114:	7172695f 	cmnvc	r2, pc, asr r9
 118:	0001ff00 	andeq	pc, r1, r0, lsl #30
 11c:	73696400 	cmnvc	r9, #0	; 0x0
 120:	656c6261 	strvsb	r6, [ip, #-609]!
 124:	7172695f 	cmnvc	r2, pc, asr r9
 128:	00021200 	andeq	r1, r2, r0, lsl #4
 12c:	635f5f00 	cmpvs	pc, #0	; 0x0
 130:	6f6d6d6f 	swivs	0x006d6d6f
 134:	63735f6e 	cmnvs	r3, #440	; 0x1b8
 138:	75646568 	strvcb	r6, [r4, #-1384]!
 13c:	6500656c 	strvs	r6, [r0, #-1388]
 140:	73000002 	tstvc	r0, #2	; 0x2
 144:	63746977 	cmnvs	r4, #1949696	; 0x1dc000
 148:	6f745f68 	swivs	0x00745f68
 14c:	00028a00 	andeq	r8, r2, r0, lsl #20
 150:	68637300 	stmvsda	r3!, {r8, r9, ip, sp, lr}^
 154:	6c756465 	cfldrdvs	mvd6, [r5], #-404
 158:	029d0065 	addeqs	r0, sp, #101	; 0x65
 15c:	61770000 	cmnvs	r7, r0
 160:	755f656b 	ldrvcb	r6, [pc, #-1387]	; fffffbfd <CLKDIVN+0xb3fffbe9>
 164:	02d80070 	sbceqs	r0, r8, #112	; 0x70
 168:	6c730000 	ldcvsl	0, cr0, [r3]
 16c:	5f706565 	swipl	0x00706565
 170:	1b006e6f 	blne	1bb34 <DISABLE_IRQ+0x1bab4>
 174:	74000003 	strvc	r0, [r0], #-3
 178:	0000706d 	andeq	r7, r0, sp, rrx
 17c:	49000000 	stmmidb	r0, {}
 180:	02000000 	andeq	r0, r0, #0	; 0x0
 184:	0007fd00 	andeq	pc, r7, r0, lsl #26
 188:	0002de00 	andeq	sp, r2, r0, lsl #28
 18c:	0001a400 	andeq	sl, r1, r0, lsl #8
 190:	74656700 	strvcbt	r6, [r5], #-1792
 194:	7361745f 	cmnvc	r1, #1593835520	; 0x5f000000
 198:	74735f6b 	ldrvcbt	r5, [r3], #-3947
 19c:	74637572 	strvcbt	r7, [r3], #-1394
 1a0:	6464615f 	strvsbt	r6, [r4], #-351
 1a4:	01e40072 	mvneq	r0, r2, ror r0
 1a8:	65670000 	strvsb	r0, [r7]!
 1ac:	70635f74 	rsbvc	r5, r3, r4, ror pc
 1b0:	0b007273 	bleq	1cb84 <DISABLE_IRQ+0x1cb04>
 1b4:	64000002 	strvs	r0, [r0], #-2
 1b8:	6f665f6f 	swivs	0x00665f6f
 1bc:	7b006b72 	blvc	1af8c <DISABLE_IRQ+0x1af0c>
 1c0:	65000002 	strvs	r0, [r0, #-2]
 1c4:	00636578 	rsbeq	r6, r3, r8, ror r5
 1c8:	00000000 	andeq	r0, r0, r0
 1cc:	0000003a 	andeq	r0, r0, sl, lsr r0
 1d0:	0adb0002 	beq	ff6c01e0 <CLKDIVN+0xb36c01cc>
 1d4:	00c80000 	sbceq	r0, r8, r0
 1d8:	00250000 	eoreq	r0, r5, r0
 1dc:	65670000 	strvsb	r0, [r7]!
 1e0:	72665f74 	rsbvc	r5, r6, #464	; 0x1d0
 1e4:	705f6565 	subvcs	r6, pc, r5, ror #10
 1e8:	00656761 	rsbeq	r6, r5, r1, ror #14
 1ec:	00000060 	andeq	r0, r0, r0, rrx
 1f0:	65657266 	strvsb	r7, [r5, #-614]!
 1f4:	6761705f 	undefined
 1f8:	00b50065 	adceqs	r0, r5, r5, rrx
 1fc:	656d0000 	strvsb	r0, [sp]!
 200:	616d5f6d 	cmnvs	sp, sp, ror #30
 204:	00000070 	andeq	r0, r0, r0, ror r0
 208:	00c50000 	sbceq	r0, r5, r0
 20c:	00020000 	andeq	r0, r2, r0
 210:	00000ba3 	andeq	r0, r0, r3, lsr #23
 214:	0000023f 	andeq	r0, r0, pc, lsr r2
 218:	00000025 	andeq	r0, r0, r5, lsr #32
 21c:	6f427369 	swivs	0x00427369
 220:	7246746f 	subvc	r7, r6, #1862270976	; 0x6f000000
 224:	6f4e6d6f 	swivs	0x004e6d6f
 228:	616c4672 	cmnvs	ip, r2, ror r6
 22c:	6b006873 	blvs	1a400 <DISABLE_IRQ+0x1a380>
 230:	63000000 	tstvs	r0, #0	; 0x0
 234:	7261656c 	rsbvc	r6, r1, #452984832	; 0x1b000000
 238:	7373625f 	cmnvc	r3, #-268435451	; 0xf0000005
 23c:	0000ae00 	andeq	sl, r0, r0, lsl #28
 240:	6e616e00 	cdpvs	14, 6, cr6, cr1, cr0, {0}
 244:	6e695f64 	cdpvs	15, 6, cr5, cr9, cr4, {3}
 248:	c1007469 	tstgt	r0, r9, ror #8
 24c:	6e000000 	cdpvs	0, 0, cr0, cr0, cr0, {0}
 250:	5f646e61 	swipl	0x00646e61
 254:	656c6573 	strvsb	r6, [ip, #-1395]!
 258:	d4007463 	strle	r7, [r0], #-1123
 25c:	6e000000 	cdpvs	0, 0, cr0, cr0, cr0, {0}
 260:	5f646e61 	swipl	0x00646e61
 264:	65736564 	ldrvsb	r6, [r3, #-1380]!
 268:	7463656c 	strvcbt	r6, [r3], #-1388
 26c:	0000e700 	andeq	lr, r0, r0, lsl #14
 270:	6e616e00 	cdpvs	14, 6, cr6, cr1, cr0, {0}
 274:	6d635f64 	stcvsl	15, cr5, [r3, #-400]!
 278:	011f0064 	tsteq	pc, r4, rrx
 27c:	616e0000 	cmnvs	lr, r0
 280:	615f646e 	cmpvs	pc, lr, ror #8
 284:	00726464 	rsbeqs	r6, r2, r4, ror #8
 288:	00000171 	andeq	r0, r0, r1, ror r1
 28c:	646e616e 	strvsbt	r6, [lr], #-366
 290:	6961775f 	stmvsdb	r1!, {r0, r1, r2, r3, r4, r6, r8, r9, sl, ip, sp, lr}^
 294:	65725f74 	ldrvsb	r5, [r2, #-3956]!
 298:	00796461 	rsbeqs	r6, r9, r1, ror #8
 29c:	00000184 	andeq	r0, r0, r4, lsl #3
 2a0:	646e616e 	strvsbt	r6, [lr], #-366
 2a4:	7461645f 	strvcbt	r6, [r1], #-1119
 2a8:	019b0061 	orreqs	r0, fp, r1, rrx
 2ac:	616e0000 	cmnvs	lr, r0
 2b0:	725f646e 	subvcs	r6, pc, #1845493760	; 0x6e000000
 2b4:	00646165 	rsbeq	r6, r4, r5, ror #2
 2b8:	000001f8 	streqd	r0, [r0], -r8
 2bc:	79706f63 	ldmvcdb	r0!, {r0, r1, r5, r6, r8, r9, sl, fp, sp, lr}^
 2c0:	646f635f 	strvsbt	r6, [pc], #863	; 2c8 <DISABLE_IRQ+0x248>
 2c4:	6f745f65 	swivs	0x00745f65
 2c8:	7264735f 	rsbvc	r7, r4, #2080374785	; 0x7c000001
 2cc:	00006d61 	andeq	r6, r0, r1, ror #26
 2d0:	cf000000 	swigt	0x00000000
 2d4:	02000000 	andeq	r0, r0, #0	; 0x0
 2d8:	000de200 	andeq	lr, sp, r0, lsl #4
 2dc:	0001fc00 	andeq	pc, r1, r0, lsl #24
 2e0:	00002500 	andeq	r2, r0, r0, lsl #10
 2e4:	64636c00 	strvsbt	r6, [r3], #-3072
 2e8:	726f705f 	rsbvc	r7, pc, #95	; 0x5f
 2ec:	6e695f74 	mcrvs	15, 3, r5, cr9, cr4, {3}
 2f0:	37007469 	strcc	r7, [r0, -r9, ror #8]
 2f4:	6c000000 	stcvs	0, cr0, [r0], {0}
 2f8:	635f6463 	cmpvs	pc, #1660944384	; 0x63000000
 2fc:	72746e6f 	rsbvcs	r6, r4, #1776	; 0x6f0
 300:	72656c6f 	rsbvc	r6, r5, #28416	; 0x6f00
 304:	696e695f 	stmvsdb	lr!, {r0, r1, r2, r3, r4, r6, r8, fp, sp, lr}^
 308:	00490074 	subeq	r0, r9, r4, ror r0
 30c:	636c0000 	cmnvs	ip, #0	; 0x0
 310:	6f705f64 	swivs	0x00705f64
 314:	5f726577 	swipl	0x00726577
 318:	62616e65 	rsbvs	r6, r1, #1616	; 0x650
 31c:	5b00656c 	blpl	198d4 <DISABLE_IRQ+0x19854>
 320:	6c000000 	stcvs	0, cr0, [r0], {0}
 324:	655f6463 	ldrvsb	r6, [pc, #-1123]	; fffffec9 <CLKDIVN+0xb3fffeb5>
 328:	6469766e 	strvsbt	r7, [r9], #-1646
 32c:	006e6f5f 	rsbeq	r6, lr, pc, asr pc
 330:	0000006d 	andeq	r0, r0, sp, rrx
 334:	5f64636c 	swipl	0x0064636c
 338:	69766e65 	ldmvsdb	r6!, {r0, r2, r5, r6, r9, sl, fp, sp, lr}^
 33c:	666f5f64 	strvsbt	r5, [pc], -r4, ror #30
 340:	007f0066 	rsbeqs	r0, pc, r6, rrx
 344:	72640000 	rsbvc	r0, r4, #0	; 0x0
 348:	705f7761 	subvcs	r7, pc, r1, ror #14
 34c:	6c657869 	stcvsl	8, cr7, [r5], #-420
 350:	00010900 	andeq	r0, r1, r0, lsl #18
 354:	656c6300 	strvsb	r6, [ip, #-768]!
 358:	735f7261 	cmpvc	pc, #268435462	; 0x10000006
 35c:	65657263 	strvsb	r7, [r5, #-611]!
 360:	0144006e 	cmpeq	r4, lr, rrx
 364:	72640000 	rsbvc	r0, r4, #0	; 0x0
 368:	725f7761 	subvcs	r7, pc, #25427968	; 0x1840000
 36c:	00746365 	rsbeqs	r6, r4, r5, ror #6
 370:	000001b3 	streqh	r0, [r0], -r3
 374:	5f64636c 	swipl	0x0064636c
 378:	74696e69 	strvcbt	r6, [r9], #-3689
 37c:	0001c500 	andeq	ip, r1, r0, lsl #10
 380:	5f626600 	swipl	0x00626600
 384:	65736162 	ldrvsb	r6, [r3, #-354]!
 388:	6464615f 	strvsbt	r6, [r4], #-351
 38c:	01d70072 	biceqs	r0, r7, r2, ror r0
 390:	73780000 	cmnvc	r8, #0	; 0x0
 394:	00657a69 	rsbeq	r7, r5, r9, ror #20
 398:	000001e9 	andeq	r0, r0, r9, ror #3
 39c:	7a697379 	bvc	1a5d188 <DISABLE_IRQ+0x1a5d108>
 3a0:	00000065 	andeq	r0, r0, r5, rrx
 3a4:	00750000 	rsbeqs	r0, r5, r0
 3a8:	00020000 	andeq	r0, r2, r0
 3ac:	00000fde 	ldreqd	r0, [r0], -lr
 3b0:	000001d8 	ldreqd	r0, [r0], -r8
 3b4:	00000070 	andeq	r0, r0, r0, ror r0
 3b8:	7473696c 	ldrvcbt	r6, [r3], #-2412
 3bc:	696e695f 	stmvsdb	lr!, {r0, r1, r2, r3, r4, r6, r8, fp, sp, lr}^
 3c0:	00950074 	addeqs	r0, r5, r4, ror r0
 3c4:	5f5f0000 	swipl	0x005f0000
 3c8:	7473696c 	ldrvcbt	r6, [r3], #-2412
 3cc:	6c65645f 	cfstrdvs	mvd6, [r5], #-380
 3d0:	0000c700 	andeq	ip, r0, r0, lsl #14
 3d4:	73696c00 	cmnvc	r9, #0	; 0x0
 3d8:	65645f74 	strvsb	r5, [r4, #-3956]!
 3dc:	00ec006c 	rsceq	r0, ip, ip, rrx
 3e0:	696c0000 	stmvsdb	ip!, {}^
 3e4:	655f7473 	ldrvsb	r7, [pc, #-1139]	; ffffff79 <CLKDIVN+0xb3ffff65>
 3e8:	7974706d 	ldmvcdb	r4!, {r0, r2, r3, r5, r6, ip, sp, lr}^
 3ec:	00011500 	andeq	r1, r1, r0, lsl #10
 3f0:	6c5f5f00 	mrrcvs	15, 0, r5, pc, cr0
 3f4:	5f747369 	swipl	0x00747369
 3f8:	00646461 	rsbeq	r6, r4, r1, ror #8
 3fc:	00000154 	andeq	r0, r0, r4, asr r1
 400:	7473696c 	ldrvcbt	r6, [r3], #-2412
 404:	6464615f 	strvsbt	r6, [r4], #-351
 408:	00018600 	andeq	r8, r1, r0, lsl #12
 40c:	73696c00 	cmnvc	r9, #0	; 0x0
 410:	64615f74 	strvsbt	r5, [r1], #-3956
 414:	61745f64 	cmnvs	r4, r4, ror #30
 418:	00006c69 	andeq	r6, r0, r9, ror #24
 41c:	41000000 	tstmi	r0, r0
 420:	02000000 	andeq	r0, r0, #0	; 0x0
 424:	0011b600 	andeqs	fp, r1, r0, lsl #12
 428:	00010400 	andeq	r0, r1, r0, lsl #8
 42c:	00002500 	andeq	r2, r0, r0, lsl #10
 430:	72617500 	rsbvc	r7, r1, #0	; 0x0
 434:	695f3074 	ldmvsdb	pc, {r2, r4, r5, r6, ip, sp}^
 438:	0074696e 	rsbeqs	r6, r4, lr, ror #18
 43c:	00000038 	andeq	r0, r0, r8, lsr r0
 440:	63747570 	cmnvs	r4, #469762048	; 0x1c000000
 444:	00006200 	andeq	r6, r0, r0, lsl #4
 448:	74656700 	strvcbt	r6, [r5], #-1792
 44c:	00790063 	rsbeqs	r0, r9, r3, rrx
 450:	75700000 	ldrvcb	r0, [r0]!
 454:	a2007374 	andge	r7, r0, #-805306367	; 0xd0000001
 458:	67000000 	strvs	r0, [r0, -r0]
 45c:	00737465 	rsbeqs	r7, r3, r5, ror #8
 460:	00000000 	andeq	r0, r0, r0
 464:	0000004e 	andeq	r0, r0, lr, asr #32
 468:	12ba0002 	adcnes	r0, sl, #2	; 0x2
 46c:	03b10000 	moveqs	r0, #0	; 0x0
 470:	01db0000 	biceqs	r0, fp, r0
 474:	6f720000 	swivs	0x00720000
 478:	5f73666d 	swipl	0x0073666d
 47c:	5f746567 	swipl	0x00746567
 480:	64646164 	strvsbt	r6, [r4], #-356
 484:	02250072 	eoreq	r0, r5, #114	; 0x72
 488:	69730000 	ldmvsdb	r3!, {}^
 48c:	656c706d 	strvsb	r7, [ip, #-109]!
 490:	6d6f725f 	sfmvs	f7, 2, [pc, #-380]!
 494:	6e5f7366 	cdpvs	3, 5, cr7, cr15, cr6, {3}
 498:	69656d61 	stmvsdb	r5!, {r0, r5, r6, r8, sl, fp, sp, lr}^
 49c:	00039e00 	andeq	r9, r3, r0, lsl #28
 4a0:	6d657400 	cfstrdvs	mvd7, [r5]
 4a4:	6f725f70 	swivs	0x00725f70
 4a8:	5f73666d 	swipl	0x0073666d
 4ac:	646f6e69 	strvsbt	r6, [pc], #3689	; 4b4 <DISABLE_IRQ+0x434>
 4b0:	00000065 	andeq	r0, r0, r5, rrx
 4b4:	01720000 	cmneq	r2, r0
 4b8:	00020000 	andeq	r0, r2, r0
 4bc:	0000166b 	andeq	r1, r0, fp, ror #12
 4c0:	0000071a 	andeq	r0, r0, sl, lsl r7
 4c4:	000000d7 	ldreqd	r0, [r0], -r7
 4c8:	5f494453 	swipl	0x00494453
 4cc:	63656843 	cmnvs	r5, #4390912	; 0x430000
 4d0:	4d435f6b 	stcmil	15, cr5, [r3, #-428]
 4d4:	6e455f44 	cdpvs	15, 4, cr5, cr5, cr4, {2}
 4d8:	01740064 	cmneq	r4, r4, rrx
 4dc:	4d430000 	stcmil	0, cr0, [r3]
 4e0:	00333144 	eoreqs	r3, r3, r4, asr #2
 4e4:	0000019f 	muleq	r0, pc, r1
 4e8:	39444d43 	stmccdb	r4, {r0, r1, r6, r8, sl, fp, lr}^
 4ec:	0001de00 	andeq	sp, r1, r0, lsl #28
 4f0:	444d4300 	strmib	r4, [sp], #-768
 4f4:	021d0033 	andeqs	r0, sp, #51	; 0x33
 4f8:	4d430000 	stcmil	0, cr0, [r3]
 4fc:	4e003244 	cdpmi	2, 0, cr3, cr0, cr4, {2}
 500:	43000002 	tstmi	r0, #2	; 0x2
 504:	0030444d 	eoreqs	r4, r0, sp, asr #8
 508:	00000262 	andeq	r0, r0, r2, ror #4
 50c:	31444d43 	cmpcc	r4, r3, asr #26
 510:	00027a00 	andeq	r7, r2, r0, lsl #20
 514:	49445300 	stmmidb	r4, {r8, r9, ip, lr}^
 518:	434d4d5f 	cmpmi	sp, #6080	; 0x17c0
 51c:	52434f5f 	subpl	r4, r3, #380	; 0x17c
 520:	0002a300 	andeq	sl, r2, r0, lsl #6
 524:	444d4300 	strmib	r4, [sp], #-768
 528:	02dc0037 	sbceqs	r0, ip, #55	; 0x37
 52c:	65730000 	ldrvsb	r0, [r3]!
 530:	7463656c 	strvcbt	r6, [r3], #-1388
 534:	5f726f5f 	swipl	0x00726f5f
 538:	65736564 	ldrvsb	r6, [r3, #-1380]!
 53c:	7463656c 	strvcbt	r6, [r3], #-1388
 540:	00031500 	andeq	r1, r3, r0, lsl #10
 544:	444d4300 	strmib	r4, [sp], #-768
 548:	2d003231 	sfmcs	f3, 4, [r0, #-196]
 54c:	43000003 	tstmi	r0, #3	; 0x3
 550:	3731444d 	ldrcc	r4, [r1, -sp, asr #8]!
 554:	00035800 	andeq	r5, r3, r0, lsl #16
 558:	444d4300 	strmib	r4, [sp], #-768
 55c:	83003831 	tsthi	r0, #3211264	; 0x310000
 560:	73000003 	tstvc	r0, #3	; 0x3
 564:	65725f64 	ldrvsb	r5, [r2, #-3940]!
 568:	735f6461 	cmpvc	pc, #1627389952	; 0x61000000
 56c:	6f746365 	swivs	0x00746365
 570:	03e40072 	mvneq	r0, #114	; 0x72
 574:	4d430000 	stcmil	0, cr0, [r3]
 578:	00343244 	eoreqs	r3, r4, r4, asr #4
 57c:	0000040f 	andeq	r0, r0, pc, lsl #8
 580:	32444d43 	subcc	r4, r4, #4288	; 0x10c0
 584:	043a0035 	ldreqt	r0, [sl], #-53
 588:	64730000 	ldrvsbt	r0, [r3]
 58c:	6972775f 	ldmvsdb	r2!, {r0, r1, r2, r3, r4, r6, r8, r9, sl, ip, sp, lr}^
 590:	735f6574 	cmpvc	pc, #486539264	; 0x1d000000
 594:	6f746365 	swivs	0x00746365
 598:	049b0072 	ldreq	r0, [fp], #114
 59c:	4d430000 	stcmil	0, cr0, [r3]
 5a0:	00353544 	eoreqs	r3, r5, r4, asr #10
 5a4:	000004c6 	andeq	r0, r0, r6, asr #9
 5a8:	444d4341 	strmib	r4, [sp], #-833
 5ac:	04ff0036 	ldreqbt	r0, [pc], #54	; 5b4 <DISABLE_IRQ+0x534>
 5b0:	65530000 	ldrvsb	r0, [r3]
 5b4:	75625f74 	strvcb	r5, [r2, #-3956]!
 5b8:	69575f73 	ldmvsdb	r7, {r0, r1, r4, r5, r6, r8, r9, sl, fp, ip, lr}^
 5bc:	00687464 	rsbeq	r7, r8, r4, ror #8
 5c0:	00000546 	andeq	r0, r0, r6, asr #10
 5c4:	444d4341 	strmib	r4, [sp], #-833
 5c8:	7f003134 	swivc	0x00003134
 5cc:	66000005 	strvs	r0, [r0], -r5
 5d0:	5f656c69 	swipl	0x00656c69
 5d4:	616c6564 	cmnvs	ip, r4, ror #10
 5d8:	05a40079 	streq	r0, [r4, #121]!
 5dc:	44530000 	ldrmib	r0, [r3]
 5e0:	44535f49 	ldrmib	r5, [r3], #-3913
 5e4:	52434f5f 	subpl	r4, r3, #380	; 0x17c
 5e8:	0005cd00 	andeq	ip, r5, r0, lsl #26
 5ec:	69647300 	stmvsdb	r4!, {r8, r9, ip, sp, lr}^
 5f0:	696e695f 	stmvsdb	lr!, {r0, r1, r2, r3, r4, r6, r8, fp, sp, lr}^
 5f4:	06020074 	undefined
 5f8:	64730000 	ldrvsbt	r0, [r3]
 5fc:	65745f69 	ldrvsb	r5, [r4, #-3945]!
 600:	e3007473 	tst	r0, #1929379840	; 0x73000000
 604:	73000006 	tstvc	r0, #6	; 0x6
 608:	5f646e65 	swipl	0x00646e65
 60c:	00667562 	rsbeq	r7, r6, r2, ror #10
 610:	000006f5 	streqd	r0, [r0], -r5
 614:	76636572 	undefined
 618:	6675625f 	undefined
 61c:	00070700 	andeq	r0, r7, r0, lsl #14
 620:	43445300 	cmpmi	r4, #0	; 0x0
 624:	00647261 	rsbeq	r7, r4, r1, ror #4
 628:	00000000 	andeq	r0, r0, r0
 62c:	00000019 	andeq	r0, r0, r9, lsl r0
 630:	1e150002 	wxorne	wr0, wr5, wr2
 634:	00560000 	subeqs	r0, r6, r0
 638:	00430000 	subeq	r0, r3, r0
 63c:	635f0000 	cmpvs	pc, #0	; 0x0
 640:	65707974 	ldrvsb	r7, [r0, #-2420]!
 644:	00000000 	andeq	r0, r0, r0
 648:	00001b00 	andeq	r1, r0, r0, lsl #22
 64c:	6b000200 	blvs	e54 <DISABLE_IRQ+0xdd4>
 650:	6300001e 	tstvs	r0, #30	; 0x1e
 654:	b9000001 	stmltdb	r0, {r0}
 658:	5f000000 	swipl	0x00000000
 65c:	6c756d5f 	ldcvsl	13, cr6, [r5], #-380
 660:	00336964 	eoreqs	r6, r3, r4, ror #18
 664:	00000000 	andeq	r0, r0, r0
 668:	00000023 	andeq	r0, r0, r3, lsr #32
 66c:	1fce0002 	swine	0x00ce0002
 670:	01320000 	teqeq	r2, r0
 674:	00440000 	subeq	r0, r4, r0
 678:	72700000 	rsbvcs	r0, r0, #0	; 0x0
 67c:	6b746e69 	blvs	1d1c028 <DISABLE_IRQ+0x1d1bfa8>
 680:	0000a400 	andeq	sl, r0, r0, lsl #8
 684:	61637300 	cmnvs	r3, r0, lsl #6
 688:	0000666e 	andeq	r6, r0, lr, ror #12
 68c:	22000000 	andcs	r0, r0, #0	; 0x0
 690:	02000001 	andeq	r0, r0, #1	; 0x1
 694:	00210000 	eoreq	r0, r1, r0
 698:	00080600 	andeq	r0, r8, r0, lsl #12
 69c:	00003700 	andeq	r3, r0, r0, lsl #14
 6a0:	72747300 	rsbvcs	r7, r4, #0	; 0x0
 6a4:	6d63696e 	stcvsl	9, cr6, [r3, #-440]!
 6a8:	00f90070 	rsceqs	r0, r9, r0, ror r0
 6ac:	74730000 	ldrvcbt	r0, [r3]
 6b0:	79706372 	ldmvcdb	r0!, {r1, r4, r5, r6, r8, r9, sp, lr}^
 6b4:	00014200 	andeq	r4, r1, r0, lsl #4
 6b8:	72747300 	rsbvcs	r7, r4, #0	; 0x0
 6bc:	7970636e 	ldmvcdb	r0!, {r1, r2, r3, r5, r6, r8, r9, sp, lr}^
 6c0:	00019200 	andeq	r9, r1, r0, lsl #4
 6c4:	72747300 	rsbvcs	r7, r4, #0	; 0x0
 6c8:	00746163 	rsbeqs	r6, r4, r3, ror #2
 6cc:	000001d5 	ldreqd	r0, [r0], -r5
 6d0:	6e727473 	mrcvs	4, 3, r7, cr2, cr3, {3}
 6d4:	00746163 	rsbeqs	r6, r4, r3, ror #2
 6d8:	00000225 	andeq	r0, r0, r5, lsr #4
 6dc:	63727473 	cmnvs	r2, #1929379840	; 0x73000000
 6e0:	6d00706d 	stcvs	0, cr7, [r0, #-436]
 6e4:	73000002 	tstvc	r0, #2	; 0x2
 6e8:	636e7274 	cmnvs	lr, #1073741831	; 0x40000007
 6ec:	bb00706d 	bllt	1c8a8 <DISABLE_IRQ+0x1c828>
 6f0:	73000002 	tstvc	r0, #2	; 0x2
 6f4:	68637274 	stmvsda	r3!, {r2, r4, r5, r6, r9, ip, sp, lr}^
 6f8:	02ed0072 	rsceq	r0, sp, #114	; 0x72
 6fc:	74730000 	ldrvcbt	r0, [r3]
 700:	6e656c72 	mcrvs	12, 3, r6, cr5, cr2, {3}
 704:	00032000 	andeq	r2, r3, r0
 708:	72747300 	rsbvcs	r7, r4, #0	; 0x0
 70c:	72686372 	rsbvc	r6, r8, #-939524095	; 0xc8000001
 710:	00035d00 	andeq	r5, r3, r0, lsl #26
 714:	72747300 	rsbvcs	r7, r4, #0	; 0x0
 718:	6e656c6e 	cdpvs	12, 6, cr6, cr5, cr14, {3}
 71c:	00039d00 	andeq	r9, r3, r0, lsl #26
 720:	72747300 	rsbvcs	r7, r4, #0	; 0x0
 724:	006e7073 	rsbeq	r7, lr, r3, ror r0
 728:	000003f7 	streqd	r0, [r0], -r7
 72c:	70727473 	rsbvcs	r7, r2, r3, ror r4
 730:	006b7262 	rsbeq	r7, fp, r2, ror #4
 734:	0000044a 	andeq	r0, r0, sl, asr #8
 738:	74727473 	ldrvcbt	r7, [r2], #-1139
 73c:	9c006b6f 	stcls	11, cr6, [r0], {111}
 740:	73000004 	tstvc	r0, #4	; 0x4
 744:	65737274 	ldrvsb	r7, [r3, #-628]!
 748:	04f40070 	ldreqbt	r0, [r4], #112
 74c:	656d0000 	strvsb	r0, [sp]!
 750:	7465736d 	strvcbt	r7, [r5], #-877
 754:	00054600 	andeq	r4, r5, r0, lsl #12
 758:	6f636200 	swivs	0x00636200
 75c:	ac007970 	stcge	9, cr7, [r0], {112}
 760:	6d000005 	stcvs	0, cr0, [r0, #-20]
 764:	70636d65 	rsbvc	r6, r3, r5, ror #26
 768:	060d0079 	undefined
 76c:	656d0000 	strvsb	r0, [sp]!
 770:	766f6d6d 	strvcbt	r6, [pc], -sp, ror #26
 774:	066e0065 	streqbt	r0, [lr], -r5, rrx
 778:	656d0000 	strvsb	r0, [sp]!
 77c:	706d636d 	rsbvc	r6, sp, sp, ror #6
 780:	0006e800 	andeq	lr, r6, r0, lsl #16
 784:	6d656d00 	stcvsl	13, cr6, [r5]
 788:	6e616373 	mcrvs	3, 3, r6, cr1, cr3, {3}
 78c:	00073f00 	andeq	r3, r7, r0, lsl #30
 790:	72747300 	rsbvcs	r7, r4, #0	; 0x0
 794:	00727473 	rsbeqs	r7, r2, r3, ror r4
 798:	0000078e 	andeq	r0, r0, lr, lsl #15
 79c:	636d656d 	cmnvs	sp, #457179136	; 0x1b400000
 7a0:	f3007268 	tstnv	r0, #-2147483642	; 0x80000006
 7a4:	5f000007 	swipl	0x00000007
 7a8:	74735f5f 	ldrvcbt	r5, [r3], #-3935
 7ac:	6b6f7472 	blvs	1bdd97c <DISABLE_IRQ+0x1bdd8fc>
 7b0:	00000000 	andeq	r0, r0, r0
 7b4:	0000c200 	andeq	ip, r0, r0, lsl #4
 7b8:	06000200 	streq	r0, [r0], -r0, lsl #4
 7bc:	7f000029 	swivc	0x00000029
 7c0:	4f000009 	swimi	0x00000009
 7c4:	73000000 	tstvc	r0, #0	; 0x0
 7c8:	6c706d69 	ldcvsl	13, cr6, [r0], #-420
 7cc:	74735f65 	ldrvcbt	r5, [r3], #-3941
 7d0:	756f7472 	strvcb	r7, [pc, #-1138]!	; 366 <DISABLE_IRQ+0x2e6>
 7d4:	012c006c 	teqeq	ip, ip, rrx
 7d8:	69730000 	ldmvsdb	r3!, {}^
 7dc:	656c706d 	strvsb	r7, [ip, #-109]!
 7e0:	7274735f 	rsbvcs	r7, r4, #2080374785	; 0x7c000001
 7e4:	006c6f74 	rsbeq	r6, ip, r4, ror pc
 7e8:	00000175 	andeq	r0, r0, r5, ror r1
 7ec:	706d6973 	rsbvc	r6, sp, r3, ror r9
 7f0:	735f656c 	cmpvc	pc, #452984832	; 0x1b000000
 7f4:	6f747274 	swivs	0x00747274
 7f8:	006c6c75 	rsbeq	r6, ip, r5, ror ip
 7fc:	00000229 	andeq	r0, r0, r9, lsr #4
 800:	706d6973 	rsbvc	r6, sp, r3, ror r9
 804:	735f656c 	cmpvc	pc, #452984832	; 0x1b000000
 808:	6f747274 	swivs	0x00747274
 80c:	17006c6c 	strne	r6, [r0, -ip, ror #24]
 810:	76000004 	strvc	r0, [r0], -r4
 814:	72706e73 	rsbvcs	r6, r0, #1840	; 0x730
 818:	66746e69 	ldrvsbt	r6, [r4], -r9, ror #28
 81c:	00055a00 	andeq	r5, r5, r0, lsl #20
 820:	63737600 	cmnvs	r3, #0	; 0x0
 824:	6972706e 	ldmvsdb	r2!, {r1, r2, r3, r5, r6, ip, sp, lr}^
 828:	0066746e 	rsbeq	r7, r6, lr, ror #8
 82c:	000005bb 	streqh	r0, [r0], -fp
 830:	72706e73 	rsbvcs	r6, r0, #1840	; 0x730
 834:	66746e69 	ldrvsbt	r6, [r4], -r9, ror #28
 838:	00061a00 	andeq	r1, r6, r0, lsl #20
 83c:	6e637300 	cdpvs	3, 6, cr7, cr3, cr0, {0}
 840:	6e697270 	mcrvs	2, 3, r7, cr9, cr0, {3}
 844:	7b006674 	blvc	1a21c <DISABLE_IRQ+0x1a19c>
 848:	76000006 	strvc	r0, [r0], -r6
 84c:	69727073 	ldmvsdb	r2!, {r0, r1, r4, r5, r6, ip, sp, lr}^
 850:	0066746e 	rsbeq	r7, r6, lr, ror #8
 854:	000006c2 	andeq	r0, r0, r2, asr #13
 858:	69727073 	ldmvsdb	r2!, {r0, r1, r4, r5, r6, ip, sp, lr}^
 85c:	0066746e 	rsbeq	r7, r6, lr, ror #8
 860:	00000713 	andeq	r0, r0, r3, lsl r7
 864:	63737376 	cmnvs	r3, #-671088639	; 0xd8000001
 868:	00666e61 	rsbeq	r6, r6, r1, ror #28
 86c:	00000915 	andeq	r0, r0, r5, lsl r9
 870:	61637373 	cmnvs	r3, r3, ror r3
 874:	0000666e 	andeq	r6, r0, lr, ror #12
 878:	Address 0x878 is out of bounds.

Disassembly of section .debug_str:

00000000 <.debug_str>:
   0:	5f79656b 	swipl	0x0079656b
   4:	74696e69 	strvcbt	r6, [r9], #-3689
   8:	554e4700 	strplb	r4, [lr, #-1792]
   c:	33204320 	teqcc	r0, #-2147483648	; 0x80000000
  10:	352e342e 	strcc	r3, [lr, #-1070]!
  14:	6d697400 	cfstrdvs	mvd7, [r9]
  18:	5f307265 	swipl	0x00307265
  1c:	74696e69 	strvcbt	r6, [r9], #-3689
  20:	64656c00 	strvsbt	r6, [r5], #-3072
  24:	696e695f 	stmvsdb	lr!, {r0, r1, r2, r3, r4, r6, r8, fp, sp, lr}^
  28:	6e690074 	mcrvs	0, 3, r0, cr9, cr4, {3}
  2c:	632e7469 	teqvs	lr, #1761607680	; 0x69000000
  30:	6e6d2f00 	cdpvs	15, 6, cr2, cr13, cr0, {0}
  34:	67682f74 	undefined
  38:	412f7366 	teqmi	pc, r6, ror #6
  3c:	706d7973 	rsbvc	r7, sp, r3, ror r9
  40:	65746f74 	ldrvsb	r6, [r4, #-3956]!
  44:	5f647300 	swipl	0x00647300
  48:	64616572 	strvsbt	r6, [r1], #-1394
  4c:	6365735f 	cmnvs	r5, #2080374785	; 0x7c000001
  50:	00726f74 	rsbeqs	r6, r2, r4, ror pc
  54:	63657865 	cmnvs	r5, #6619136	; 0x650000
  58:	73640076 	cmnvc	r4, #118	; 0x76
  5c:	00657a69 	rsbeq	r7, r5, r9, ror #20
  60:	666d6f72 	uqsub16vs	r6, sp, r2
  64:	61745f73 	cmnvs	r4, r3, ror pc
  68:	77006b73 	smlsdxvc	r0, r3, fp, r6
  6c:	5f746961 	swipl	0x00746961
  70:	75657571 	strvcb	r7, [r5, #-1393]!
  74:	65685f65 	strvsb	r5, [r8, #-3941]!
  78:	73006461 	tstvc	r0, #1627389952	; 0x61000000
  7c:	72657075 	rsbvc	r7, r5, #117	; 0x75
  80:	6f6c625f 	swivs	0x006c625f
  84:	67006b63 	strvs	r6, [r0, -r3, ror #22]
  88:	00637465 	rsbeq	r7, r3, r5, ror #8
  8c:	5f6e7572 	swipl	0x006e7572
  90:	6d6d6f63 	stcvsl	15, cr6, [sp, #-396]!
  94:	00646e6f 	rsbeq	r6, r4, pc, ror #28
  98:	706d5f5f 	rsbvc	r5, sp, pc, asr pc
  9c:	6c007274 	sfmvs	f7, 4, [r0], {116}
  a0:	745f6463 	ldrvcb	r6, [pc], #1123	; a8 <DISABLE_IRQ+0x28>
  a4:	006b7361 	rsbeq	r7, fp, r1, ror #6
  a8:	6c656873 	stcvsl	8, cr6, [r5], #-460
  ac:	7269006c 	rsbvc	r0, r9, #108	; 0x6c
  b0:	61685f71 	cmnvs	r8, r1, ror pc
  b4:	656c646e 	strvsb	r6, [ip, #-1134]!
  b8:	6e750072 	mrcvs	0, 3, r0, cr5, cr2, {3}
  bc:	6e676973 	mcrvs	9, 3, r6, cr7, cr3, {3}
  c0:	63206465 	teqvs	r0, #1694498816	; 0x65000000
  c4:	00726168 	rsbeqs	r6, r2, r8, ror #2
  c8:	67616c66 	strvsb	r6, [r1, -r6, ror #24]!
  cc:	616c6600 	cmnvs	ip, r0, lsl #12
  d0:	75007367 	strvc	r7, [r0, #-871]
  d4:	30747261 	rsbccs	r7, r4, r1, ror #4
  d8:	696e695f 	stmvsdb	lr!, {r0, r1, r2, r3, r4, r6, r8, fp, sp, lr}^
  dc:	75730074 	ldrvcb	r0, [r3, #-116]!
  e0:	00726570 	rsbeqs	r6, r2, r0, ror r5
  e4:	63727473 	cmnvs	r2, #1929379840	; 0x73000000
  e8:	6c00706d 	stcvs	0, cr7, [r0], {109}
  ec:	5f747369 	swipl	0x00747369
  f0:	64616568 	strvsbt	r6, [r1], #-1384
  f4:	656c6300 	strvsb	r6, [ip, #-768]!
  f8:	695f7261 	ldmvsdb	pc, {r0, r5, r6, r9, ip, sp, lr}^
  fc:	6d007172 	stfvss	f7, [r0, #-456]
 100:	2e6e6961 	cdpcs	9, 6, cr6, cr14, cr1, {3}
 104:	635f0063 	cmpvs	pc, #99	; 0x63
 108:	65707974 	ldrvsb	r7, [r0, #-2420]!
 10c:	69647300 	stmvsdb	r4!, {r8, r9, ip, sp, lr}^
 110:	696e695f 	stmvsdb	lr!, {r0, r1, r2, r3, r4, r6, r8, fp, sp, lr}^
 114:	75700074 	ldrvcb	r0, [r0, #-116]!
 118:	6d006374 	stcvs	3, cr6, [r0, #-464]
 11c:	70636d65 	rsbvc	r6, r3, r5, ror #26
 120:	72700079 	rsbvcs	r0, r0, #121	; 0x79
 124:	6b746e69 	blvs	1d1bad0 <DISABLE_IRQ+0x1d1ba50>
 128:	66756200 	ldrvsbt	r6, [r5], -r0, lsl #4
 12c:	00726566 	rsbeqs	r6, r2, r6, ror #10
 130:	6d6d6f63 	stcvsl	15, cr6, [sp, #-396]!
 134:	00646e61 	rsbeq	r6, r4, r1, ror #28
 138:	7478656e 	ldrvcbt	r6, [r8], #-1390
 13c:	65727000 	ldrvsb	r7, [r2]!
 140:	5f690076 	swipl	0x00690076
 144:	00766564 	rsbeqs	r6, r6, r4, ror #10
 148:	74617473 	strvcbt	r7, [r1], #-1139
 14c:	65670065 	strvsb	r0, [r7, #-101]!
 150:	75635f74 	strvcb	r5, [r3, #-3956]!
 154:	6e657272 	mcrvs	2, 3, r7, cr5, cr2, {3}
 158:	64660074 	strvsbt	r0, [r6], #-116
 15c:	646f6d5f 	strvsbt	r6, [pc], #3423	; 164 <DISABLE_IRQ+0xe4>
 160:	63730065 	cmnvs	r3, #101	; 0x65
 164:	2e646568 	cdpcs	5, 6, cr6, cr4, cr8, {3}
 168:	61740063 	cmnvs	r4, r3, rrx
 16c:	695f6b73 	ldmvsdb	pc, {r0, r1, r4, r5, r6, r8, r9, fp, sp, lr}^
 170:	0074696e 	rsbeqs	r6, r4, lr, ror #18
 174:	705f6466 	subvcs	r6, pc, r6, ror #8
 178:	7400736f 	strvc	r7, [r0], #-879
 17c:	5f6b7361 	swipl	0x006b7361
 180:	75727473 	ldrvcb	r7, [r2, #-1139]!
 184:	66007463 	strvs	r7, [r0], -r3, ror #8
 188:	00656c69 	rsbeq	r6, r5, r9, ror #24
 18c:	695f6466 	ldmvsdb	pc, {r1, r2, r5, r6, sl, sp, lr}^
 190:	65646f6e 	strvsb	r6, [r4, #-3950]!
 194:	7274705f 	rsbvcs	r7, r4, #95	; 0x5f
 198:	6e5f6900 	cdpvs	9, 5, cr6, cr15, cr0, {0}
 19c:	77006d75 	smlsdxvc	r0, r5, sp, r6
 1a0:	5f656b61 	swipl	0x00656b61
 1a4:	69007075 	stmvsdb	r0, {r0, r2, r4, r5, r6, ip, sp, lr}
 1a8:	6174735f 	cmnvs	r4, pc, asr r3
 1ac:	735f7472 	cmpvc	pc, #1912602624	; 0x72000000
 1b0:	00746365 	rsbeqs	r6, r4, r5, ror #6
 1b4:	6e755f69 	cdpvs	15, 7, cr5, cr5, cr9, {3}
 1b8:	64657375 	strvsbt	r7, [r5], #-885
 1bc:	6d5f6900 	ldcvsl	9, cr6, [pc]
 1c0:	0065646f 	rsbeq	r6, r5, pc, ror #8
 1c4:	6f745f69 	swivs	0x00745f69
 1c8:	5f6c6174 	swipl	0x006c6174
 1cc:	74636573 	strvcbt	r6, [r3], #-1395
 1d0:	6e650073 	mcrvs	0, 3, r0, cr5, cr3, {3}
 1d4:	656c6261 	strvsb	r6, [ip, #-609]!
 1d8:	7172695f 	cmnvc	r2, pc, asr r9
 1dc:	73696400 	cmnvc	r9, #0	; 0x0
 1e0:	656c6261 	strvsb	r6, [ip, #-609]!
 1e4:	7172695f 	cmnvc	r2, pc, asr r9
 1e8:	6c696600 	stcvsl	6, cr6, [r9]
 1ec:	77730070 	undefined
 1f0:	68637469 	stmvsda	r3!, {r0, r3, r5, r6, sl, ip, sp, lr}^
 1f4:	006f745f 	rsbeq	r7, pc, pc, asr r4
 1f8:	69735f69 	ldmvsdb	r3!, {r0, r3, r5, r6, r8, r9, sl, fp, ip, lr}^
 1fc:	6900657a 	stmvsdb	r0, {r1, r3, r4, r5, r6, r8, sl, sp, lr}
 200:	746e635f 	strvcbt	r6, [lr], #-863
 204:	656c7300 	strvsb	r7, [ip, #-768]!
 208:	6f5f7065 	swivs	0x005f7065
 20c:	5f5f006e 	swipl	0x005f006e
 210:	6d6d6f63 	stcvsl	15, cr6, [sp, #-396]!
 214:	735f6e6f 	cmpvc	pc, #1776	; 0x6f0
 218:	64656863 	strvsbt	r6, [r5], #-2147
 21c:	00656c75 	rsbeq	r6, r5, r5, ror ip
 220:	5f746567 	swipl	0x00746567
 224:	6b736174 	blvs	1cd87fc <DISABLE_IRQ+0x1cd877c>
 228:	7274735f 	rsbvcs	r7, r4, #2080374785	; 0x7c000001
 22c:	5f746375 	swipl	0x00746375
 230:	72646461 	rsbvc	r6, r4, #1627389952	; 0x61000000
 234:	73617400 	cmnvc	r1, #0	; 0x0
 238:	74735f6b 	ldrvcbt	r5, [r3], #-3947
 23c:	5f6b6361 	swipl	0x006b6361
 240:	72646461 	rsbvc	r6, r4, #1627389952	; 0x61000000
 244:	7361625f 	cmnvc	r1, #-268435451	; 0xf0000005
 248:	65670065 	strvsb	r0, [r7, #-101]!
 24c:	70635f74 	rsbvc	r5, r3, r4, ror pc
 250:	61007273 	tstvs	r0, r3, ror r2
 254:	00736772 	rsbeqs	r6, r3, r2, ror r7
 258:	665f6f64 	ldrvsb	r6, [pc], -r4, ror #30
 25c:	006b726f 	rsbeq	r7, fp, pc, ror #4
 260:	736d656d 	cmnvc	sp, #457179136	; 0x1b400000
 264:	66007465 	strvs	r7, [r0], -r5, ror #8
 268:	2e6b726f 	cdpcs	2, 6, cr7, cr11, cr15, {3}
 26c:	78650063 	stmvcda	r5!, {r0, r1, r5, r6}^
 270:	6e006365 	cdpvs	3, 0, cr6, cr0, cr5, {3}
 274:	5f646e61 	swipl	0x00646e61
 278:	72646461 	rsbvc	r6, r4, #1627389952	; 0x61000000
 27c:	6d656d00 	stcvsl	13, cr6, [r5]
 280:	70616d5f 	rsbvc	r6, r1, pc, asr sp
 284:	6d656d00 	stcvsl	13, cr6, [r5]
 288:	6700632e 	strvs	r6, [r0, -lr, lsr #6]
 28c:	665f7465 	ldrvsb	r7, [pc], -r5, ror #8
 290:	5f656572 	swipl	0x00656572
 294:	65676170 	strvsb	r6, [r7, #-368]!
 298:	6e616e00 	cdpvs	14, 6, cr6, cr1, cr0, {0}
 29c:	6e695f64 	cdpvs	15, 6, cr5, cr9, cr4, {3}
 2a0:	6e007469 	cdpvs	4, 0, cr7, cr0, cr9, {3}
 2a4:	5f646e61 	swipl	0x00646e61
 2a8:	65736564 	ldrvsb	r6, [r3, #-1380]!
 2ac:	7463656c 	strvcbt	r6, [r3], #-1388
 2b0:	6e616e00 	cdpvs	14, 6, cr6, cr1, cr0, {0}
 2b4:	61775f64 	cmnvs	r7, r4, ror #30
 2b8:	725f7469 	subvcs	r7, pc, #1761607680	; 0x69000000
 2bc:	79646165 	stmvcdb	r4!, {r0, r2, r5, r6, r8, sp, lr}^
 2c0:	625f5f00 	subvss	r5, pc, #0	; 0x0
 2c4:	735f7373 	cmpvc	pc, #-872415231	; 0xcc000001
 2c8:	74726174 	ldrvcbt	r6, [r2], #-372
 2cc:	42736900 	rsbmis	r6, r3, #0	; 0x0
 2d0:	46746f6f 	ldrmibt	r6, [r4], -pc, ror #30
 2d4:	4e6d6f72 	mcrmi	15, 3, r6, cr13, cr2, {3}
 2d8:	6c46726f 	sfmvs	f7, 2, [r6], {111}
 2dc:	00687361 	rsbeq	r7, r8, r1, ror #6
 2e0:	74736564 	ldrvcbt	r6, [r3], #-1380
 2e4:	625f5f00 	subvss	r5, pc, #0	; 0x0
 2e8:	655f7373 	ldrvsb	r7, [pc, #-883]	; ffffff7d <CLKDIVN+0xb3ffff69>
 2ec:	6e00646e 	cdpvs	4, 0, cr6, cr0, cr14, {3}
 2f0:	5f646e61 	swipl	0x00646e61
 2f4:	61746164 	cmnvs	r4, r4, ror #2
 2f8:	6e616e00 	cdpvs	14, 6, cr6, cr1, cr0, {0}
 2fc:	65725f64 	ldrvsb	r5, [r2, #-3940]!
 300:	6e006461 	cdpvs	4, 0, cr6, cr0, cr1, {3}
 304:	2e646e61 	cdpcs	14, 6, cr6, cr4, cr1, {3}
 308:	6c630063 	stcvsl	0, cr0, [r3], #-396
 30c:	5f726165 	swipl	0x00726165
 310:	00737362 	rsbeqs	r7, r3, r2, ror #6
 314:	646e616e 	strvsbt	r6, [lr], #-366
 318:	6c65735f 	stcvsl	3, cr7, [r5], #-380
 31c:	00746365 	rsbeqs	r6, r4, r5, ror #6
 320:	79706f63 	ldmvcdb	r0!, {r0, r1, r5, r6, r8, r9, sl, fp, sp, lr}^
 324:	646f635f 	strvsbt	r6, [pc], #863	; 32c <DISABLE_IRQ+0x2ac>
 328:	6f745f65 	swivs	0x00745f65
 32c:	7264735f 	rsbvc	r7, r4, #2080374785	; 0x7c000001
 330:	6e006d61 	cdpvs	13, 0, cr6, cr0, cr1, {3}
 334:	5f646e61 	swipl	0x00646e61
 338:	00646d63 	rsbeq	r6, r4, r3, ror #26
 33c:	726f6873 	rsbvc	r6, pc, #7536640	; 0x730000
 340:	6e752074 	mrcvs	0, 3, r2, cr5, cr4, {3}
 344:	6e676973 	mcrvs	9, 3, r6, cr7, cr3, {3}
 348:	69206465 	stmvsdb	r0!, {r0, r2, r5, r6, sl, sp, lr}
 34c:	6200746e 	andvs	r7, r0, #1845493760	; 0x6e000000
 350:	0065756c 	rsbeq	r7, r5, ip, ror #10
 354:	2e64636c 	cdpcs	3, 6, cr6, cr4, cr12, {3}
 358:	73790063 	cmnvc	r9, #99	; 0x63
 35c:	00657a69 	rsbeq	r7, r5, r9, ror #20
 360:	5f64636c 	swipl	0x0064636c
 364:	74726f70 	ldrvcbt	r6, [r2], #-3952
 368:	696e695f 	stmvsdb	lr!, {r0, r1, r2, r3, r4, r6, r8, fp, sp, lr}^
 36c:	6f630074 	swivs	0x00630074
 370:	00726f6c 	rsbeqs	r6, r2, ip, ror #30
 374:	65657267 	strvsb	r7, [r5, #-615]!
 378:	636c006e 	cmnvs	ip, #110	; 0x6e
 37c:	6f705f64 	swivs	0x00705f64
 380:	5f726577 	swipl	0x00726577
 384:	62616e65 	rsbvs	r6, r1, #1616	; 0x650
 388:	7800656c 	stmvcda	r0, {r2, r3, r5, r6, r8, sl, sp, lr}
 38c:	6174735f 	cmnvs	r4, pc, asr r3
 390:	78007472 	stmvcda	r0, {r1, r4, r5, r6, sl, ip, sp, lr}
 394:	657a6973 	ldrvsb	r6, [sl, #-2419]!
 398:	64636c00 	strvsbt	r6, [r3], #-3072
 39c:	766e655f 	undefined
 3a0:	6f5f6469 	swivs	0x005f6469
 3a4:	5f78006e 	swipl	0x0078006e
 3a8:	00646e65 	rsbeq	r6, r4, r5, ror #28
 3ac:	5f64636c 	swipl	0x0064636c
 3b0:	746e6f63 	strvcbt	r6, [lr], #-3939
 3b4:	656c6f72 	strvsb	r6, [ip, #-3954]!
 3b8:	6e695f72 	mcrvs	15, 3, r5, cr9, cr2, {3}
 3bc:	79007469 	stmvcdb	r0, {r0, r3, r5, r6, sl, ip, sp, lr}
 3c0:	646e655f 	strvsbt	r6, [lr], #-1375
 3c4:	61726400 	cmnvs	r2, r0, lsl #8
 3c8:	69705f77 	ldmvsdb	r0!, {r0, r1, r2, r4, r5, r6, r8, r9, sl, fp, ip, lr}^
 3cc:	006c6578 	rsbeq	r6, ip, r8, ror r5
 3d0:	74735f79 	ldrvcbt	r5, [r3], #-3961
 3d4:	00747261 	rsbeqs	r7, r4, r1, ror #4
 3d8:	625f6266 	subvss	r6, pc, #1610612742	; 0x60000006
 3dc:	5f657361 	swipl	0x00657361
 3e0:	72646461 	rsbvc	r6, r4, #1627389952	; 0x61000000
 3e4:	64636c00 	strvsbt	r6, [r3], #-3072
 3e8:	696e695f 	stmvsdb	lr!, {r0, r1, r2, r3, r4, r6, r8, fp, sp, lr}^
 3ec:	6c630074 	stcvsl	0, cr0, [r3], #-464
 3f0:	5f726165 	swipl	0x00726165
 3f4:	65726373 	ldrvsb	r6, [r2, #-883]!
 3f8:	64006e65 	strvs	r6, [r0], #-3685
 3fc:	5f776172 	swipl	0x00776172
 400:	74636572 	strvcbt	r6, [r3], #-1394
 404:	64636c00 	strvsbt	r6, [r3], #-3072
 408:	766e655f 	undefined
 40c:	6f5f6469 	swivs	0x005f6469
 410:	6c006666 	stcvs	6, cr6, [r0], {102}
 414:	5f747369 	swipl	0x00747369
 418:	74706d65 	ldrvcbt	r6, [r0], #-3429
 41c:	6e650079 	mcrvs	0, 3, r0, cr5, cr9, {3}
 420:	00797274 	rsbeqs	r7, r9, r4, ror r2
 424:	696c5f5f 	stmvsdb	ip!, {r0, r1, r2, r3, r4, r6, r8, r9, sl, fp, ip, lr}^
 428:	645f7473 	ldrvsb	r7, [pc], #1139	; 430 <DISABLE_IRQ+0x3b0>
 42c:	6c006c65 	stcvs	12, cr6, [r0], {101}
 430:	5f747369 	swipl	0x00747369
 434:	5f646461 	swipl	0x00646461
 438:	6c696174 	stfvse	f6, [r9], #-464
 43c:	73696c00 	cmnvc	r9, #0	; 0x0
 440:	00632e74 	rsbeq	r2, r3, r4, ror lr
 444:	696c5f5f 	stmvsdb	ip!, {r0, r1, r2, r3, r4, r6, r8, r9, sl, fp, ip, lr}^
 448:	615f7473 	cmpvs	pc, r3, ror r4
 44c:	6c006464 	cfstrsvs	mvf6, [r0], {100}
 450:	5f747369 	swipl	0x00747369
 454:	74696e69 	strvcbt	r6, [r9], #-3689
 458:	74656700 	strvcbt	r6, [r5], #-1792
 45c:	61750073 	cmnvs	r5, r3, ror r0
 460:	632e7472 	teqvs	lr, #1912602624	; 0x72000000
 464:	705f6700 	subvcs	r6, pc, r0, lsl #14
 468:	74754f63 	ldrvcbt	r4, [r5], #-3939
 46c:	00667542 	rsbeq	r7, r6, r2, asr #10
 470:	73747570 	cmnvc	r4, #469762048	; 0x1c000000
 474:	705f6700 	subvcs	r6, pc, r0, lsl #14
 478:	426e4963 	rsbmi	r4, lr, #1622016	; 0x18c000
 47c:	73006675 	tstvc	r0, #122683392	; 0x7500000
 480:	5f657a69 	swipl	0x00657a69
 484:	6e660074 	mcrvs	0, 3, r0, cr6, cr4, {3}
 488:	00656d61 	rsbeq	r6, r5, r1, ror #26
 48c:	70616d62 	rsbvc	r6, r1, r2, ror #26
 490:	646e6900 	strvsbt	r6, [lr], #-2304
 494:	63007865 	tstvs	r0, #6619136	; 0x650000
 498:	6b636568 	blvs	18d9a40 <DISABLE_IRQ+0x18d99c0>
 49c:	006d7573 	rsbeq	r7, sp, r3, ror r5
 4a0:	666d6f72 	uqsub16vs	r6, sp, r2
 4a4:	65675f73 	strvsb	r5, [r7, #-3955]!
 4a8:	61645f74 	cmnvs	r4, r4, ror pc
 4ac:	00726464 	rsbeqs	r6, r2, r4, ror #8
 4b0:	666d6f72 	uqsub16vs	r6, sp, r2
 4b4:	00632e73 	rsbeq	r2, r3, r3, ror lr
 4b8:	5f746567 	swipl	0x00746567
 4bc:	5f656874 	swipl	0x00656874
 4c0:	656c6966 	strvsb	r6, [ip, #-2406]!
 4c4:	6d616e5f 	stcvsl	14, cr6, [r1, #-380]!
 4c8:	5f5f0065 	swipl	0x005f0065
 4cc:	6c5f3273 	lfmvs	f3, 2, [pc], {115}
 4d0:	73006e65 	tstvc	r0, #1616	; 0x650
 4d4:	00636570 	rsbeq	r6, r3, r0, ror r5
 4d8:	706d6574 	rsbvc	r6, sp, r4, ror r5
 4dc:	6d6f725f 	sfmvs	f7, 2, [pc, #-380]!
 4e0:	695f7366 	ldmvsdb	pc, {r1, r2, r5, r6, r8, r9, ip, sp, lr}^
 4e4:	65646f6e 	strvsb	r6, [r4, #-3950]!
 4e8:	554f4600 	strplb	r4, [pc, #-1536]	; fffffef0 <CLKDIVN+0xb3fffedc>
 4ec:	4944444e 	stmmidb	r4, {r1, r2, r3, r6, sl, lr}^
 4f0:	616e0052 	qdsubvs	r0, r2, lr
 4f4:	735f656d 	cmpvc	pc, #457179136	; 0x1b400000
 4f8:	00657a69 	rsbeq	r7, r5, r9, ror #20
 4fc:	706d6973 	rsbvc	r6, sp, r3, ror r9
 500:	725f656c 	subvcs	r6, pc, #452984832	; 0x1b000000
 504:	73666d6f 	cmnvc	r6, #7104	; 0x1bc0
 508:	6d616e5f 	stcvsl	14, cr6, [r1, #-380]!
 50c:	46006965 	strmi	r6, [r0], -r5, ror #18
 510:	444e554f 	strmib	r5, [lr], #-1359
 514:	735f5f00 	cmpvc	pc, #0	; 0x0
 518:	656c5f31 	strvsb	r5, [ip, #-3889]!
 51c:	6473006e 	ldrvsbt	r0, [r3], #-110
 520:	64695769 	strvsbt	r5, [r9], #-1897
 524:	436c0065 	cmnmi	ip, #101	; 0x65
 528:	53647261 	cmnpl	r4, #268435462	; 0x10000006
 52c:	00657a69 	rsbeq	r7, r5, r9, ror #20
 530:	72614363 	rsbvc	r4, r1, #-1946157055	; 0x8c000001
 534:	70795464 	rsbvcs	r5, r9, r4, ror #8
 538:	69660065 	stmvsdb	r6!, {r0, r2, r5, r6}^
 53c:	6873696e 	ldmvsda	r3!, {r1, r2, r3, r5, r6, r8, fp, sp, lr}^
 540:	74730030 	ldrvcbt	r0, [r3], #-48
 544:	73757461 	cmnvc	r5, #1627389952	; 0x61000000
 548:	6c657300 	stcvsl	3, cr7, [r5]
 54c:	5f746365 	swipl	0x00746365
 550:	645f726f 	ldrvsb	r7, [pc], #623	; 558 <DISABLE_IRQ+0x4d8>
 554:	6c657365 	stcvsl	3, cr7, [r5], #-404
 558:	00746365 	rsbeqs	r6, r4, r5, ror #6
 55c:	54696473 	strplbt	r6, [r9], #-1139
 560:	00657079 	rsbeq	r7, r5, r9, ror r0
 564:	695f6473 	ldmvsdb	pc, {r0, r1, r4, r5, r6, sl, sp, lr}^
 568:	006f666e 	rsbeq	r6, pc, lr, ror #12
 56c:	5f494453 	swipl	0x00494453
 570:	63656843 	cmnvs	r5, #4390912	; 0x430000
 574:	4d435f6b 	stcmil	15, cr5, [r3, #-428]
 578:	6e455f44 	cdpvs	15, 4, cr5, cr5, cr4, {2}
 57c:	42630064 	rsbmi	r0, r3, #100	; 0x64
 580:	69577375 	ldmvsdb	r7, {r0, r2, r4, r5, r6, r8, r9, ip, sp, lr}^
 584:	00687464 	rsbeq	r7, r8, r4, ror #8
 588:	444d4341 	strmib	r4, [sp], #-833
 58c:	436c0036 	cmnmi	ip, #54	; 0x36
 590:	43647261 	cmnmi	r4, #268435462	; 0x10000006
 594:	6c004453 	cfstrsvs	mvf4, [r0], {83}
 598:	74636553 	strvcbt	r6, [r3], #-1363
 59c:	6953726f 	ldmvsdb	r3, {r0, r1, r2, r3, r5, r6, r9, ip, sp, lr}^
 5a0:	4300657a 	tstmi	r0, #511705088	; 0x1e800000
 5a4:	3231444d 	eorccs	r4, r1, #1291845632	; 0x4d000000
 5a8:	444d4300 	strmib	r4, [sp], #-768
 5ac:	69003331 	stmvsdb	r0, {r0, r4, r5, r8, r9, ip, sp}
 5b0:	64726143 	ldrvsbt	r6, [r2], #-323
 5b4:	65707954 	ldrvsb	r7, [r0, #-2388]!
 5b8:	444d4300 	strmib	r4, [sp], #-768
 5bc:	43003731 	tstmi	r0, #12845056	; 0xc40000
 5c0:	3831444d 	ldmccda	r1!, {r0, r2, r3, r6, sl, lr}
 5c4:	69647300 	stmvsdb	r4!, {r8, r9, ip, sp, lr}^
 5c8:	00414352 	subeq	r4, r1, r2, asr r3
 5cc:	74655263 	strvcbt	r5, [r5], #-611
 5d0:	006e7275 	rsbeq	r7, lr, r5, ror r2
 5d4:	632e6473 	teqvs	lr, #1929379840	; 0x73000000
 5d8:	49445300 	stmmidb	r4, {r8, r9, ip, lr}^
 5dc:	5f44535f 	swipl	0x0044535f
 5e0:	0052434f 	subeqs	r4, r2, pc, asr #6
 5e4:	5f696473 	swipl	0x00696473
 5e8:	74736574 	ldrvcbt	r6, [r3], #-1396
 5ec:	444d4300 	strmib	r4, [sp], #-768
 5f0:	73003535 	tstvc	r0, #222298112	; 0xd400000
 5f4:	5f646e65 	swipl	0x00646e65
 5f8:	00667562 	rsbeq	r7, r6, r2, ror #10
 5fc:	6c655363 	stcvsl	3, cr5, [r5], #-396
 600:	65736544 	ldrvsb	r6, [r3, #-1348]!
 604:	6572006c 	ldrvsb	r0, [r2, #-108]!
 608:	625f7663 	subvss	r7, pc, #103809024	; 0x6300000
 60c:	69006675 	stmvsdb	r0, {r0, r2, r4, r5, r6, r9, sl, sp, lr}
 610:	64726143 	ldrvsbt	r6, [r2], #-323
 614:	00414352 	subeq	r4, r1, r2, asr r3
 618:	30444d43 	subcc	r4, r4, r3, asr #26
 61c:	444d4300 	strmib	r4, [sp], #-768
 620:	4d430031 	stcmil	0, cr0, [r3, #-196]
 624:	43003244 	tstmi	r0, #1073741828	; 0x40000004
 628:	0033444d 	eoreqs	r4, r3, sp, asr #8
 62c:	725f6562 	subvcs	r6, pc, #411041792	; 0x18800000
 630:	00707365 	rsbeqs	r7, r0, r5, ror #6
 634:	37444d43 	strccb	r4, [r4, -r3, asr #26]
 638:	444d4300 	strmib	r4, [sp], #-768
 63c:	44530039 	ldrmib	r0, [r3], #-57
 640:	4d4d5f49 	stcmil	15, cr5, [sp, #-292]
 644:	434f5f43 	cmpmi	pc, #268	; 0x10c
 648:	44530052 	ldrmib	r0, [r3], #-82
 64c:	64726143 	ldrvsbt	r6, [r2], #-323
 650:	444d4300 	strmib	r4, [sp], #-768
 654:	63003532 	tstvs	r0, #209715200	; 0xc800000
 658:	64726143 	ldrvsbt	r6, [r2], #-323
 65c:	00444943 	subeq	r4, r4, r3, asr #18
 660:	775f6473 	undefined
 664:	65746972 	ldrvsb	r6, [r4, #-2418]!
 668:	6365735f 	cmnvs	r5, #2080374785	; 0x7c000001
 66c:	00726f74 	rsbeqs	r6, r2, r4, ror pc
 670:	726f5363 	rsbvc	r5, pc, #-1946157055	; 0x8c000001
 674:	65530044 	ldrvsb	r0, [r3, #-68]
 678:	75625f74 	strvcb	r5, [r2, #-3956]!
 67c:	69575f73 	ldmvsdb	r7, {r0, r1, r4, r5, r6, r8, r9, sl, fp, ip, lr}^
 680:	00687464 	rsbeq	r7, r8, r4, ror #8
 684:	444d4341 	strmib	r4, [sp], #-833
 688:	62003134 	andvs	r3, r0, #13	; 0xd
 68c:	6b636f6c 	blvs	18dc444 <DISABLE_IRQ+0x18dc3c4>
 690:	6d756e5f 	ldcvsl	14, cr6, [r5, #-380]!
 694:	444d4300 	strmib	r4, [sp], #-768
 698:	6c003432 	cfstrsvs	mvf3, [r0], {50}
 69c:	00445343 	subeq	r5, r4, r3, asr #6
 6a0:	656c6966 	strvsb	r6, [ip, #-2406]!
 6a4:	6c65645f 	cfstrdvs	mvd6, [r5], #-380
 6a8:	63007961 	tstvs	r0, #1589248	; 0x184000
 6ac:	5f444943 	swipl	0x00444943
 6b0:	6f666e49 	swivs	0x00666e49
 6b4:	79746300 	ldmvcdb	r4!, {r8, r9, sp, lr}^
 6b8:	632e6570 	teqvs	lr, #469762048	; 0x1c000000
 6bc:	6e6d2f00 	cdpvs	15, 6, cr2, cr13, cr0, {0}
 6c0:	67682f74 	undefined
 6c4:	412f7366 	teqmi	pc, r6, ror #6
 6c8:	706d7973 	rsbvc	r7, sp, r3, ror r9
 6cc:	65746f74 	ldrvsb	r6, [r4, #-3956]!
 6d0:	62696c2f 	rsbvs	r6, r9, #12032	; 0x2f00
 6d4:	75494400 	strvcb	r4, [r9, #-1024]
 6d8:	6e6f696e 	cdpvs	9, 6, cr6, cr15, cr14, {3}
 6dc:	73494400 	cmpvc	r9, #0	; 0x0
 6e0:	63757274 	cmnvs	r5, #1073741831	; 0x40000007
 6e4:	69680074 	stmvsdb	r8!, {r2, r4, r5, r6}^
 6e8:	6c006867 	stcvs	8, cr6, [r0], {103}
 6ec:	20676e6f 	rsbcs	r6, r7, pc, ror #28
 6f0:	676e6f6c 	strvsb	r6, [lr, -ip, ror #30]!
 6f4:	736e7520 	cmnvc	lr, #134217728	; 0x8000000
 6f8:	656e6769 	strvsb	r6, [lr, #-1897]!
 6fc:	6e692064 	cdpvs	0, 6, cr2, cr9, cr4, {3}
 700:	5f5f0074 	swipl	0x005f0074
 704:	6c003274 	sfmvs	f3, 4, [r0], {116}
 708:	20676e6f 	rsbcs	r6, r7, pc, ror #28
 70c:	676e6f6c 	strvsb	r6, [lr, -ip, ror #30]!
 710:	746e6920 	strvcbt	r6, [lr], #-2336
 714:	49535500 	ldmmidb	r3, {r8, sl, ip, lr}^
 718:	65707974 	ldrvsb	r7, [r0, #-2420]!
 71c:	745f5f00 	ldrvcb	r5, [pc], #3840	; 724 <DISABLE_IRQ+0x6a4>
 720:	5f5f0030 	swipl	0x005f0030
 724:	44003174 	strmi	r3, [r0], #-372
 728:	70797449 	rsbvcs	r7, r9, r9, asr #8
 72c:	756d0065 	strvcb	r0, [sp, #-101]!
 730:	3369646c 	cmncc	r9, #1811939328	; 0x6c000000
 734:	5f00632e 	swipl	0x0000632e
 738:	6c756d5f 	ldcvsl	13, cr6, [r5], #-380
 73c:	00336964 	eoreqs	r6, r3, r4, ror #18
 740:	6c5f6176 	ldfvse	f6, [pc], {118}
 744:	00747369 	rsbeqs	r7, r4, r9, ror #6
 748:	73727473 	cmnvc	r2, #1929379840	; 0x73000000
 74c:	6d007065 	stcvs	0, cr7, [r0, #-404]
 750:	6f6d6d65 	swivs	0x006d6d65
 754:	61006576 	tstvs	r0, r6, ror r5
 758:	70656363 	rsbvc	r6, r5, r3, ror #6
 75c:	74730074 	ldrvcbt	r0, [r3], #-116
 760:	72686372 	rsbvc	r6, r8, #-939524095	; 0xc8000001
 764:	6d656d00 	stcvsl	13, cr6, [r5]
 768:	00706d63 	rsbeqs	r6, r0, r3, ror #26
 76c:	73727473 	cmnvc	r2, #1929379840	; 0x73000000
 770:	6d007274 	sfmvs	f7, 4, [r0, #-464]
 774:	68636d65 	stmvsda	r3!, {r0, r2, r5, r6, r8, sl, fp, sp, lr}^
 778:	656d0072 	strvsb	r0, [sp, #-114]!
 77c:	6163736d 	cmnvs	r3, sp, ror #6
 780:	7473006e 	ldrvcbt	r0, [r3], #-110
 784:	676e6972 	undefined
 788:	5f00632e 	swipl	0x0000632e
 78c:	6c6f745f 	cfstrdvs	mvd7, [pc], #-380
 790:	7265776f 	rsbvc	r7, r5, #29097984	; 0x1bc0000
 794:	5f5f5f00 	swipl	0x005f5f00
 798:	74727473 	ldrvcbt	r7, [r2], #-1139
 79c:	73006b6f 	tstvc	r0, #113664	; 0x1bc00
 7a0:	656c7274 	strvsb	r7, [ip, #-628]!
 7a4:	6362006e 	cmnvs	r2, #110	; 0x6e
 7a8:	0079706f 	rsbeqs	r7, r9, pc, rrx
 7ac:	63727473 	cmnvs	r2, #1929379840	; 0x73000000
 7b0:	73007970 	tstvc	r0, #1835008	; 0x1c0000
 7b4:	61637274 	cmnvs	r3, r4, ror r2
 7b8:	74730074 	ldrvcbt	r0, [r3], #-116
 7bc:	70636e72 	rsbvc	r6, r3, r2, ror lr
 7c0:	72730079 	rsbvcs	r0, r3, #121	; 0x79
 7c4:	706d5463 	rsbvc	r5, sp, r3, ror #8
 7c8:	72747300 	rsbvcs	r7, r4, #0	; 0x0
 7cc:	6b726270 	blvs	1c99194 <DISABLE_IRQ+0x1c99114>
 7d0:	72747300 	rsbvcs	r7, r4, #0	; 0x0
 7d4:	7461636e 	strvcbt	r6, [r1], #-878
 7d8:	6e657300 	cdpvs	3, 6, cr7, cr5, cr0, {0}
 7dc:	74730064 	ldrvcbt	r0, [r3], #-100
 7e0:	656c6e72 	strvsb	r6, [ip, #-3698]!
 7e4:	6564006e 	strvsb	r0, [r4, #-110]!
 7e8:	6d547473 	cfldrdvs	mvd7, [r4, #-460]
 7ec:	6f630070 	swivs	0x00630070
 7f0:	00746e75 	rsbeqs	r6, r4, r5, ror lr
 7f4:	67656273 	undefined
 7f8:	73006e69 	tstvc	r0, #1680	; 0x690
 7fc:	70737274 	rsbvcs	r7, r3, r4, ror r2
 800:	7473006e 	ldrvcbt	r0, [r3], #-110
 804:	63696e72 	cmnvs	r9, #1824	; 0x720
 808:	5f00706d 	swipl	0x0000706d
 80c:	7365725f 	cmnvc	r5, #-268435451	; 0xf0000005
 810:	72747300 	rsbvcs	r7, r4, #0	; 0x0
 814:	706d636e 	rsbvc	r6, sp, lr, ror #6
 818:	72747300 	rsbvcs	r7, r4, #0	; 0x0
 81c:	72686372 	rsbvc	r6, r8, #-939524095	; 0xc8000001
 820:	6e737600 	cdpvs	6, 7, cr7, cr3, cr0, {0}
 824:	6e697270 	mcrvs	2, 3, r7, cr9, cr0, {3}
 828:	73006674 	tstvc	r0, #121634816	; 0x7400000
 82c:	6c706d69 	ldcvsl	13, cr6, [r0], #-420
 830:	74735f65 	ldrvcbt	r5, [r3], #-3941
 834:	756f7472 	strvcb	r7, [pc, #-1138]!	; 3ca <DISABLE_IRQ+0x34a>
 838:	616c006c 	cmnvs	ip, ip, rrx
 83c:	5f656772 	swipl	0x00656772
 840:	69676964 	stmvsdb	r7!, {r2, r5, r6, r8, fp, sp, lr}^
 844:	76007374 	undefined
 848:	65756c61 	ldrvsb	r6, [r5, #-3169]!
 84c:	6d697300 	stcvsl	3, cr7, [r9]
 850:	5f656c70 	swipl	0x00656c70
 854:	74727473 	ldrvcbt	r7, [r2], #-1139
 858:	73006c6f 	tstvc	r0, #28416	; 0x6f00
 85c:	5f70696b 	swipl	0x0070696b
 860:	696f7461 	stmvsdb	pc!, {r0, r5, r6, sl, ip, sp, lr}^
 864:	67696400 	strvsb	r6, [r9, -r0, lsl #8]!
 868:	73007469 	tstvc	r0, #1761607680	; 0x69000000
 86c:	74726f68 	ldrvcbt	r6, [r2], #-3944
 870:	746e6920 	strvcbt	r6, [lr], #-2336
 874:	63737600 	cmnvs	r3, #0	; 0x0
 878:	6972706e 	ldmvsdb	r2!, {r1, r2, r3, r5, r6, ip, sp, lr}^
 87c:	0066746e 	rsbeq	r7, r6, lr, ror #8
 880:	61625f5f 	cmnvs	r2, pc, asr pc
 884:	5f006573 	swipl	0x00006573
 888:	756f745f 	strvcb	r7, [pc, #-1119]!	; 431 <DISABLE_IRQ+0x3b1>
 88c:	72657070 	rsbvc	r7, r5, #112	; 0x70
 890:	72617700 	rsbvc	r7, r1, #0	; 0x0
 894:	6973006e 	ldmvsdb	r3!, {r1, r2, r3, r5, r6}^
 898:	656c706d 	strvsb	r7, [ip, #-109]!
 89c:	7274735f 	rsbvcs	r7, r4, #2080374785	; 0x7c000001
 8a0:	6c756f74 	ldcvsl	15, cr6, [r5], #-464
 8a4:	6973006c 	ldmvsdb	r3!, {r2, r3, r5, r6}^
 8a8:	656c706d 	strvsb	r7, [ip, #-109]!
 8ac:	7274735f 	rsbvcs	r7, r4, #2080374785	; 0x7c000001
 8b0:	6c6c6f74 	stcvsl	15, cr6, [ip], #-464
 8b4:	73737600 	cmnvc	r3, #0	; 0x0
 8b8:	666e6163 	strvsbt	r6, [lr], -r3, ror #2
 8bc:	646e6500 	strvsbt	r6, [lr], #-1280
 8c0:	6d730070 	ldcvsl	0, cr0, [r3, #-448]!
 8c4:	5f6c6c61 	swipl	0x006c6c61
 8c8:	69676964 	stmvsdb	r7!, {r2, r5, r6, r8, fp, sp, lr}^
 8cc:	71007374 	tstvc	r0, r4, ror r3
 8d0:	696c6175 	stmvsdb	ip!, {r0, r2, r4, r5, r6, r8, sp, lr}^
 8d4:	72656966 	rsbvc	r6, r5, #1671168	; 0x198000
 8d8:	73657200 	cmnvc	r5, #0	; 0x0
 8dc:	00746c75 	rsbeqs	r6, r4, r5, ror ip
 8e0:	72707376 	rsbvcs	r7, r0, #-671088639	; 0xd8000001
 8e4:	66746e69 	ldrvsbt	r6, [r4], -r9, ror #28
 8e8:	7200632e 	andvc	r6, r0, #-1207959552	; 0xb8000000
 8ec:	61657065 	cmnvs	r5, r5, rrx
 8f0:	756e0074 	strvcb	r0, [lr, #-116]!
 8f4:	7265626d 	rsbvc	r6, r5, #-805306362	; 0xd0000006
 8f8:	65727000 	ldrvsb	r7, [r2]!
 8fc:	69736963 	ldmvsdb	r3!, {r0, r1, r5, r6, r8, fp, sp, lr}^
 900:	66006e6f 	strvs	r6, [r0], -pc, ror #28
 904:	646c6569 	strvsbt	r6, [ip], #-1385
 908:	6469775f 	strvsbt	r7, [r9], #-1887
 90c:	5f006874 	swipl	0x00006874
 910:	6d65725f 	sfmvs	f7, 2, [r5, #-380]!
 914:	5f736900 	swipl	0x00736900
 918:	6e676973 	mcrvs	9, 3, r6, cr7, cr3, {3}
 91c:	70737600 	rsbvcs	r7, r3, r0, lsl #12
 920:	746e6972 	strvcbt	r6, [lr], #-2418
 924:	Address 0x924 is out of bounds.

Disassembly of section .comment:

00000000 <.comment>:
   0:	43434700 	cmpmi	r3, #0	; 0x0
   4:	4728203a 	undefined
   8:	2029554e 	eorcs	r5, r9, lr, asr #10
   c:	2e342e33 	mrccs	14, 1, r2, cr4, cr3, {1}
  10:	47000035 	smladxmi	r0, r5, r0, r0
  14:	203a4343 	eorcss	r4, sl, r3, asr #6
  18:	554e4728 	strplb	r4, [lr, #-1832]
  1c:	2e332029 	cdpcs	0, 3, cr2, cr3, cr9, {1}
  20:	00352e34 	eoreqs	r2, r5, r4, lsr lr
  24:	43434700 	cmpmi	r3, #0	; 0x0
  28:	4728203a 	undefined
  2c:	2029554e 	eorcs	r5, r9, lr, asr #10
  30:	2e342e33 	mrccs	14, 1, r2, cr4, cr3, {1}
  34:	47000035 	smladxmi	r0, r5, r0, r0
  38:	203a4343 	eorcss	r4, sl, r3, asr #6
  3c:	554e4728 	strplb	r4, [lr, #-1832]
  40:	2e332029 	cdpcs	0, 3, cr2, cr3, cr9, {1}
  44:	00352e34 	eoreqs	r2, r5, r4, lsr lr
  48:	43434700 	cmpmi	r3, #0	; 0x0
  4c:	4728203a 	undefined
  50:	2029554e 	eorcs	r5, r9, lr, asr #10
  54:	2e342e33 	mrccs	14, 1, r2, cr4, cr3, {1}
  58:	47000035 	smladxmi	r0, r5, r0, r0
  5c:	203a4343 	eorcss	r4, sl, r3, asr #6
  60:	554e4728 	strplb	r4, [lr, #-1832]
  64:	2e332029 	cdpcs	0, 3, cr2, cr3, cr9, {1}
  68:	00352e34 	eoreqs	r2, r5, r4, lsr lr
  6c:	43434700 	cmpmi	r3, #0	; 0x0
  70:	4728203a 	undefined
  74:	2029554e 	eorcs	r5, r9, lr, asr #10
  78:	2e342e33 	mrccs	14, 1, r2, cr4, cr3, {1}
  7c:	47000035 	smladxmi	r0, r5, r0, r0
  80:	203a4343 	eorcss	r4, sl, r3, asr #6
  84:	554e4728 	strplb	r4, [lr, #-1832]
  88:	2e332029 	cdpcs	0, 3, cr2, cr3, cr9, {1}
  8c:	00352e34 	eoreqs	r2, r5, r4, lsr lr
  90:	43434700 	cmpmi	r3, #0	; 0x0
  94:	4728203a 	undefined
  98:	2029554e 	eorcs	r5, r9, lr, asr #10
  9c:	2e342e33 	mrccs	14, 1, r2, cr4, cr3, {1}
  a0:	47000035 	smladxmi	r0, r5, r0, r0
  a4:	203a4343 	eorcss	r4, sl, r3, asr #6
  a8:	554e4728 	strplb	r4, [lr, #-1832]
  ac:	2e332029 	cdpcs	0, 3, cr2, cr3, cr9, {1}
  b0:	00352e34 	eoreqs	r2, r5, r4, lsr lr
  b4:	43434700 	cmpmi	r3, #0	; 0x0
  b8:	4728203a 	undefined
  bc:	2029554e 	eorcs	r5, r9, lr, asr #10
  c0:	2e342e33 	mrccs	14, 1, r2, cr4, cr3, {1}
  c4:	47000035 	smladxmi	r0, r5, r0, r0
  c8:	203a4343 	eorcss	r4, sl, r3, asr #6
  cc:	554e4728 	strplb	r4, [lr, #-1832]
  d0:	2e332029 	cdpcs	0, 3, cr2, cr3, cr9, {1}
  d4:	00352e34 	eoreqs	r2, r5, r4, lsr lr
  d8:	43434700 	cmpmi	r3, #0	; 0x0
  dc:	4728203a 	undefined
  e0:	2029554e 	eorcs	r5, r9, lr, asr #10
  e4:	2e342e33 	mrccs	14, 1, r2, cr4, cr3, {1}
  e8:	47000035 	smladxmi	r0, r5, r0, r0
  ec:	203a4343 	eorcss	r4, sl, r3, asr #6
  f0:	554e4728 	strplb	r4, [lr, #-1832]
  f4:	2e332029 	cdpcs	0, 3, cr2, cr3, cr9, {1}
  f8:	00352e34 	eoreqs	r2, r5, r4, lsr lr
  fc:	43434700 	cmpmi	r3, #0	; 0x0
 100:	4728203a 	undefined
 104:	2029554e 	eorcs	r5, r9, lr, asr #10
 108:	2e342e33 	mrccs	14, 1, r2, cr4, cr3, {1}
 10c:	47000035 	smladxmi	r0, r5, r0, r0
 110:	203a4343 	eorcss	r4, sl, r3, asr #6
 114:	554e4728 	strplb	r4, [lr, #-1832]
 118:	2e332029 	cdpcs	0, 3, cr2, cr3, cr9, {1}
 11c:	00352e34 	eoreqs	r2, r5, r4, lsr lr
Disassembly of section .debug_ranges:

00000000 <.debug_ranges>:
   0:	00000004 	andeq	r0, r0, r4
   4:	00000008 	andeq	r0, r0, r8
   8:	00000018 	andeq	r0, r0, r8, lsl r0
   c:	00000020 	andeq	r0, r0, r0, lsr #32
	...
  18:	000002e8 	andeq	r0, r0, r8, ror #5
  1c:	000002f0 	streqd	r0, [r0], -r0
  20:	000002f8 	streqd	r0, [r0], -r8
  24:	00000304 	andeq	r0, r0, r4, lsl #6
	...
  30:	00000320 	andeq	r0, r0, r0, lsr #6
  34:	00000334 	andeq	r0, r0, r4, lsr r3
  38:	00000340 	andeq	r0, r0, r0, asr #6
  3c:	00000344 	andeq	r0, r0, r4, asr #6
	...
  48:	00000060 	andeq	r0, r0, r0, rrx
  4c:	00000064 	andeq	r0, r0, r4, rrx
  50:	00000070 	andeq	r0, r0, r0, ror r0
  54:	00000074 	andeq	r0, r0, r4, ror r0
  58:	00000068 	andeq	r0, r0, r8, rrx
  5c:	0000006c 	andeq	r0, r0, ip, rrx
	...
  68:	00000064 	andeq	r0, r0, r4, rrx
  6c:	00000068 	andeq	r0, r0, r8, rrx
  70:	0000006c 	andeq	r0, r0, ip, rrx
  74:	00000070 	andeq	r0, r0, r0, ror r0
	...
  80:	000000b4 	streqh	r0, [r0], -r4
  84:	000000f4 	streqd	r0, [r0], -r4
  88:	000000fc 	streqd	r0, [r0], -ip
  8c:	00000100 	andeq	r0, r0, r0, lsl #2
	...
  98:	000001f8 	streqd	r0, [r0], -r8
  9c:	00000200 	andeq	r0, r0, r0, lsl #4
  a0:	00000208 	andeq	r0, r0, r8, lsl #4
  a4:	0000020c 	andeq	r0, r0, ip, lsl #4
	...
  b0:	000003ac 	andeq	r0, r0, ip, lsr #7
  b4:	000003c0 	andeq	r0, r0, r0, asr #7
  b8:	000003d8 	ldreqd	r0, [r0], -r8
  bc:	000003dc 	ldreqd	r0, [r0], -ip
	...
  c8:	000005d8 	ldreqd	r0, [r0], -r8
  cc:	000005dc 	ldreqd	r0, [r0], -ip
  d0:	000005f8 	streqd	r0, [r0], -r8
  d4:	000005fc 	streqd	r0, [r0], -ip
  d8:	000005ec 	andeq	r0, r0, ip, ror #11
  dc:	000005f4 	streqd	r0, [r0], -r4
	...
  e8:	00000f6c 	andeq	r0, r0, ip, ror #30
  ec:	00000f70 	andeq	r0, r0, r0, ror pc
  f0:	00001214 	andeq	r1, r0, r4, lsl r2
  f4:	00001228 	andeq	r1, r0, r8, lsr #4
	...
 100:	00001178 	andeq	r1, r0, r8, ror r1
 104:	000011ac 	andeq	r1, r0, ip, lsr #3
 108:	000012d0 	ldreqd	r1, [r0], -r0
 10c:	00001334 	andeq	r1, r0, r4, lsr r3
 110:	000011e0 	andeq	r1, r0, r0, ror #3
 114:	000011e8 	andeq	r1, r0, r8, ror #3
	...
 120:	00001240 	andeq	r1, r0, r0, asr #4
 124:	00001250 	andeq	r1, r0, r0, asr r2
 128:	00001360 	andeq	r1, r0, r0, ror #6
 12c:	00001374 	andeq	r1, r0, r4, ror r3
 130:	00001344 	andeq	r1, r0, r4, asr #6
 134:	0000134c 	andeq	r1, r0, ip, asr #6
 138:	00001288 	andeq	r1, r0, r8, lsl #5
 13c:	00001290 	muleq	r0, r0, r2
	...
 148:	00001268 	andeq	r1, r0, r8, ror #4
 14c:	00001270 	andeq	r1, r0, r0, ror r2
 150:	0000134c 	andeq	r1, r0, ip, asr #6
 154:	00001360 	andeq	r1, r0, r0, ror #6
	...
