
start.elf:     file format elf32-littlearm

Disassembly of section .text:

30000000 <_start>:
30000000:	ea000006 	b	30000020 <Reset>

30000004 <HandleUndef>:
30000004:	eafffffe 	b	30000004 <HandleUndef>

30000008 <HandleSvc>:
30000008:	eafffffe 	b	30000008 <HandleSvc>

3000000c <HandlePrefetchAbort>:
3000000c:	eafffffe 	b	3000000c <HandlePrefetchAbort>

30000010 <HandleDataAbort>:
30000010:	eafffffe 	b	30000010 <HandleDataAbort>

30000014 <HandleNotUsed>:
30000014:	eafffffe 	b	30000014 <HandleNotUsed>
30000018:	ea000012 	b	30000068 <HandleIRQ>

3000001c <HandleFIQ>:
3000001c:	eafffffe 	b	3000001c <HandleFIQ>

30000020 <Reset>:
30000020:	e3a0da01 	mov	sp, #4096	; 0x1000
30000024:	eb000043 	bl	30000138 <disable_watch_dog>
30000028:	eb000046 	bl	30000148 <clock_init>
3000002c:	eb00004f 	bl	30000170 <sdram_init>
30000030:	eb0002b2 	bl	30000b00 <nand_init>
30000034:	e3a01203 	mov	r1, #805306368	; 0x30000000
30000038:	e3a00000 	mov	r0, #0	; 0x0
3000003c:	e3a02b32 	mov	r2, #51200	; 0xc800
30000040:	eb00031e 	bl	30000cc0 <nand_read>
30000044:	e59ff1a8 	ldr	pc, [pc, #424]	; 300001f4 <mem_cfg_val+0x34>

30000048 <on_sdram>:
30000048:	e321f0d2 	msr	CPSR_c, #210	; 0xd2
3000004c:	e3a0d433 	mov	sp, #855638016	; 0x33000000
30000050:	e321f0df 	msr	CPSR_c, #223	; 0xdf
30000054:	e3a0d30d 	mov	sp, #872415232	; 0x34000000
30000058:	e321f05f 	msr	CPSR_c, #95	; 0x5f
3000005c:	e59fe194 	ldr	lr, [pc, #404]	; 300001f8 <mem_cfg_val+0x38>
30000060:	e59ff194 	ldr	pc, [pc, #404]	; 300001fc <mem_cfg_val+0x3c>

30000064 <loop>:
30000064:	eafffffe 	b	30000064 <loop>

30000068 <HandleIRQ>:
30000068:	e24ee004 	sub	lr, lr, #4	; 0x4
3000006c:	e92d5fff 	stmdb	sp!, {r0, r1, r2, r3, r4, r5, r6, r7, r8, r9, sl, fp, ip, lr}
30000070:	e59f0188 	ldr	r0, [pc, #392]	; 30000200 <mem_cfg_val+0x40>
30000074:	e5901000 	ldr	r1, [r0]
30000078:	e3a0200a 	mov	r2, #10	; 0xa
3000007c:	e1510002 	cmp	r1, r2
30000080:	0a00000b 	beq	300000b4 <timer0_irq>
30000084:	e59fe178 	ldr	lr, [pc, #376]	; 30000204 <mem_cfg_val+0x44>
30000088:	e59ff178 	ldr	pc, [pc, #376]	; 30000208 <mem_cfg_val+0x48>

3000008c <ret>:
3000008c:	e92d000e 	stmdb	sp!, {r1, r2, r3}
30000090:	e3a0244a 	mov	r2, #1241513984	; 0x4a000000
30000094:	e2821010 	add	r1, r2, #16	; 0x10
30000098:	e5910000 	ldr	r0, [r1]
3000009c:	e5923000 	ldr	r3, [r2]
300000a0:	e1833001 	orr	r3, r3, r1
300000a4:	e5823000 	str	r3, [r2]
300000a8:	e5810000 	str	r0, [r1]
300000ac:	e8bd000e 	ldmia	sp!, {r1, r2, r3}
300000b0:	e8fd9fff 	ldmia	sp!, {r0, r1, r2, r3, r4, r5, r6, r7, r8, r9, sl, fp, ip, pc}^

300000b4 <timer0_irq>:
300000b4:	e8bd5fff 	ldmia	sp!, {r0, r1, r2, r3, r4, r5, r6, r7, r8, r9, sl, fp, ip, lr}
300000b8:	e92d0001 	stmdb	sp!, {r0}
300000bc:	e92d000e 	stmdb	sp!, {r1, r2, r3}
300000c0:	e3a0244a 	mov	r2, #1241513984	; 0x4a000000
300000c4:	e2821010 	add	r1, r2, #16	; 0x10
300000c8:	e5910000 	ldr	r0, [r1]
300000cc:	e5923000 	ldr	r3, [r2]
300000d0:	e1833001 	orr	r3, r3, r1
300000d4:	e5823000 	str	r3, [r2]
300000d8:	e5810000 	str	r0, [r1]
300000dc:	e8bd000e 	ldmia	sp!, {r1, r2, r3}
300000e0:	e1a0000e 	mov	r0, lr
300000e4:	e321f0df 	msr	CPSR_c, #223	; 0xdf
300000e8:	e92d0001 	stmdb	sp!, {r0}
300000ec:	e92d4000 	stmdb	sp!, {lr}
300000f0:	e321f0d2 	msr	CPSR_c, #210	; 0xd2
300000f4:	e8bd0001 	ldmia	sp!, {r0}
300000f8:	e59fe10c 	ldr	lr, [pc, #268]	; 3000020c <mem_cfg_val+0x4c>
300000fc:	e92d4000 	stmdb	sp!, {lr}
30000100:	e8fd8000 	ldmia	sp!, {pc}^

30000104 <__asm_schedule>:
30000104:	e92d1fff 	stmdb	sp!, {r0, r1, r2, r3, r4, r5, r6, r7, r8, r9, sl, fp, ip}
30000108:	e10f1000 	mrs	r1, CPSR
3000010c:	e92d0002 	stmdb	sp!, {r1}
30000110:	e1a0100d 	mov	r1, sp
30000114:	e3c11eff 	bic	r1, r1, #4080	; 0xff0
30000118:	e3c1100f 	bic	r1, r1, #15	; 0xf
3000011c:	e1a0000d 	mov	r0, sp
30000120:	e5810000 	str	r0, [r1]

30000124 <__switch_to>:
30000124:	eb0001dd 	bl	300008a0 <__common_schedule>
30000128:	e590d000 	ldr	sp, [r0]
3000012c:	e8bd0002 	ldmia	sp!, {r1}
30000130:	e12ff001 	msr	CPSR_fsxc, r1
30000134:	e8bddfff 	ldmia	sp!, {r0, r1, r2, r3, r4, r5, r6, r7, r8, r9, sl, fp, ip, lr, pc}

30000138 <disable_watch_dog>:
30000138:	e3a00453 	mov	r0, #1392508928	; 0x53000000
3000013c:	e3a01000 	mov	r1, #0	; 0x0
30000140:	e5801000 	str	r1, [r0]
30000144:	e1a0f00e 	mov	pc, lr

30000148 <clock_init>:
30000148:	e59f00c0 	ldr	r0, [pc, #192]	; 30000210 <mem_cfg_val+0x50>
3000014c:	e3a01003 	mov	r1, #3	; 0x3
30000150:	e5801000 	str	r1, [r0]
30000154:	ee111f10 	mrc	15, 0, r1, cr1, cr0, {0}
30000158:	e3811103 	orr	r1, r1, #-1073741824	; 0xc0000000
3000015c:	ee011f10 	mcr	15, 0, r1, cr1, cr0, {0}
30000160:	e59f00ac 	ldr	r0, [pc, #172]	; 30000214 <mem_cfg_val+0x54>
30000164:	e59f10ac 	ldr	r1, [pc, #172]	; 30000218 <mem_cfg_val+0x58>
30000168:	e5801000 	str	r1, [r0]
3000016c:	e1a0f00e 	mov	pc, lr

30000170 <sdram_init>:
30000170:	e3a01312 	mov	r1, #1207959552	; 0x48000000
30000174:	e28f2044 	add	r2, pc, #68	; 0x44
30000178:	e1a00000 	nop			(mov r0,r0)
3000017c:	e2813034 	add	r3, r1, #52	; 0x34
30000180:	e4924004 	ldr	r4, [r2], #4
30000184:	e4814004 	str	r4, [r1], #4
30000188:	e1510003 	cmp	r1, r3
3000018c:	1afffffb 	bne	30000180 <sdram_init+0x10>
30000190:	e1a0f00e 	mov	pc, lr

30000194 <copy_steppingstone_to_sdram>:
30000194:	e3a01000 	mov	r1, #0	; 0x0
30000198:	e3a02203 	mov	r2, #805306368	; 0x30000000
3000019c:	e3a03a01 	mov	r3, #4096	; 0x1000
300001a0:	e4914004 	ldr	r4, [r1], #4
300001a4:	e4824004 	str	r4, [r2], #4
300001a8:	e1510003 	cmp	r1, r3
300001ac:	1afffffb 	bne	300001a0 <copy_steppingstone_to_sdram+0xc>
300001b0:	e1a0f00e 	mov	pc, lr
	...

300001c0 <mem_cfg_val>:
300001c0:	22011110 	andcs	r1, r1, #4	; 0x4
300001c4:	00000700 	andeq	r0, r0, r0, lsl #14
300001c8:	00000700 	andeq	r0, r0, r0, lsl #14
300001cc:	00000700 	andeq	r0, r0, r0, lsl #14
300001d0:	00000700 	andeq	r0, r0, r0, lsl #14
300001d4:	00000700 	andeq	r0, r0, r0, lsl #14
300001d8:	00000700 	andeq	r0, r0, r0, lsl #14
300001dc:	00018005 	andeq	r8, r1, r5
300001e0:	00018005 	andeq	r8, r1, r5
300001e4:	008c07a3 	addeq	r0, ip, r3, lsr #15
300001e8:	000000b1 	streqh	r0, [r0], -r1
300001ec:	00000030 	andeq	r0, r0, r0, lsr r0
300001f0:	00000030 	andeq	r0, r0, r0, lsr r0
300001f4:	30000048 	andcc	r0, r0, r8, asr #32
300001f8:	30000064 	andcc	r0, r0, r4, rrx
300001fc:	300007a8 	andcc	r0, r0, r8, lsr #15
30000200:	4a000014 	bmi	30000258 <delay+0x4>
30000204:	3000008c 	andcc	r0, r0, ip, lsl #1
30000208:	30000350 	andcc	r0, r0, r0, asr r3
3000020c:	30000104 	andcc	r0, r0, r4, lsl #2
30000210:	4c000014 	stcmi	0, cr0, [r0], {20}
30000214:	4c000004 	stcmi	0, cr0, [r0], {4}
30000218:	0005c012 	andeq	ip, r5, r2, lsl r0
3000021c:	e1a00000 	nop			(mov r0,r0)

30000220 <led_init>:
30000220:	e3a01456 	mov	r1, #1442840576	; 0x56000000
30000224:	e5913050 	ldr	r3, [r1, #80]
30000228:	e3833c01 	orr	r3, r3, #256	; 0x100
3000022c:	e5813050 	str	r3, [r1, #80]
30000230:	e5912050 	ldr	r2, [r1, #80]
30000234:	e3822b01 	orr	r2, r2, #1024	; 0x400
30000238:	e5812050 	str	r2, [r1, #80]
3000023c:	e3a020ff 	mov	r2, #255	; 0xff
30000240:	e5913050 	ldr	r3, [r1, #80]
30000244:	e3833a01 	orr	r3, r3, #4096	; 0x1000
30000248:	e5813050 	str	r3, [r1, #80]
3000024c:	e5812054 	str	r2, [r1, #84]
30000250:	e1a0f00e 	mov	pc, lr

30000254 <delay>:
30000254:	e24dd008 	sub	sp, sp, #8	; 0x8
30000258:	e3a02000 	mov	r2, #0	; 0x0
3000025c:	e58d2004 	str	r2, [sp, #4]
30000260:	e59d3004 	ldr	r3, [sp, #4]
30000264:	e3a01f4a 	mov	r1, #296	; 0x128
30000268:	e2811003 	add	r1, r1, #3	; 0x3
3000026c:	e1530001 	cmp	r3, r1
30000270:	8a000013 	bhi	300002c4 <delay+0x70>
30000274:	e1a0c002 	mov	ip, r2
30000278:	e1a00001 	mov	r0, r1
3000027c:	e58dc000 	str	ip, [sp]
30000280:	e59d3000 	ldr	r3, [sp]
30000284:	e1530001 	cmp	r3, r1
30000288:	8a000005 	bhi	300002a4 <delay+0x50>
3000028c:	e59d3000 	ldr	r3, [sp]
30000290:	e2833001 	add	r3, r3, #1	; 0x1
30000294:	e58d3000 	str	r3, [sp]
30000298:	e59d2000 	ldr	r2, [sp]
3000029c:	e1520000 	cmp	r2, r0
300002a0:	9afffff9 	bls	3000028c <delay+0x38>
300002a4:	e59d3004 	ldr	r3, [sp, #4]
300002a8:	e2833001 	add	r3, r3, #1	; 0x1
300002ac:	e58d3004 	str	r3, [sp, #4]
300002b0:	e59d2004 	ldr	r2, [sp, #4]
300002b4:	e3a01f4a 	mov	r1, #296	; 0x128
300002b8:	e2811003 	add	r1, r1, #3	; 0x3
300002bc:	e1520001 	cmp	r2, r1
300002c0:	9affffed 	bls	3000027c <delay+0x28>
300002c4:	e28dd008 	add	sp, sp, #8	; 0x8
300002c8:	e1a0f00e 	mov	pc, lr

300002cc <timer0_init>:
300002cc:	e3a01451 	mov	r1, #1358954496	; 0x51000000
300002d0:	e3a03063 	mov	r3, #99	; 0x63
300002d4:	e3a02d61 	mov	r2, #6208	; 0x1840
300002d8:	e5813000 	str	r3, [r1]
300002dc:	e282202a 	add	r2, r2, #42	; 0x2a
300002e0:	e2433060 	sub	r3, r3, #96	; 0x60
300002e4:	e3a0044a 	mov	r0, #1241513984	; 0x4a000000
300002e8:	e5813004 	str	r3, [r1, #4]
300002ec:	e581200c 	str	r2, [r1, #12]
300002f0:	e3a02009 	mov	r2, #9	; 0x9
300002f4:	e5913008 	ldr	r3, [r1, #8]
300002f8:	e3833002 	orr	r3, r3, #2	; 0x2
300002fc:	e5813008 	str	r3, [r1, #8]
30000300:	e5812008 	str	r2, [r1, #8]
30000304:	e5903008 	ldr	r3, [r0, #8]
30000308:	e3c33b01 	bic	r3, r3, #1024	; 0x400
3000030c:	e5803008 	str	r3, [r0, #8]
30000310:	e1a0f00e 	mov	pc, lr

30000314 <key_init>:
30000314:	e3a01456 	mov	r1, #1442840576	; 0x56000000
30000318:	e5913050 	ldr	r3, [r1, #80]
3000031c:	e3c33033 	bic	r3, r3, #51	; 0x33
30000320:	e5813050 	str	r3, [r1, #80]
30000324:	e3a0044a 	mov	r0, #1241513984	; 0x4a000000
30000328:	e5913050 	ldr	r3, [r1, #80]
3000032c:	e3833022 	orr	r3, r3, #34	; 0x22
30000330:	e5813050 	str	r3, [r1, #80]
30000334:	e590200c 	ldr	r2, [r0, #12]
30000338:	e3c22001 	bic	r2, r2, #1	; 0x1
3000033c:	e580200c 	str	r2, [r0, #12]
30000340:	e5903008 	ldr	r3, [r0, #8]
30000344:	e3c33005 	bic	r3, r3, #5	; 0x5
30000348:	e5803008 	str	r3, [r0, #8]
3000034c:	e1a0f00e 	mov	pc, lr

30000350 <irq_handler>:
30000350:	e52de004 	str	lr, [sp, #-4]!
30000354:	e59f3078 	ldr	r3, [pc, #120]	; 300003d4 <.text+0x3d4>
30000358:	e3a02000 	mov	r2, #0	; 0x0
3000035c:	e3a01203 	mov	r1, #805306368	; 0x30000000
30000360:	e2811603 	add	r1, r1, #3145728	; 0x300000
30000364:	e2811f43 	add	r1, r1, #268	; 0x10c
30000368:	e5930004 	ldr	r0, [r3, #4]
3000036c:	e2403f43 	sub	r3, r0, #268	; 0x10c
30000370:	e5832008 	str	r2, [r3, #8]
30000374:	e3a03456 	mov	r3, #1442840576	; 0x56000000
30000378:	e24dd004 	sub	sp, sp, #4	; 0x4
3000037c:	e5832054 	str	r2, [r3, #84]
30000380:	eb000342 	bl	30001090 <list_add>
30000384:	ebffffb2 	bl	30000254 <delay>
30000388:	e3a000c8 	mov	r0, #200	; 0xc8
3000038c:	e3a020fa 	mov	r2, #250	; 0xfa
30000390:	e3a0c8ff 	mov	ip, #16711680	; 0xff0000
30000394:	e28cccff 	add	ip, ip, #65280	; 0xff00
30000398:	e1a01000 	mov	r1, r0
3000039c:	e1a03002 	mov	r3, r2
300003a0:	e58dc000 	str	ip, [sp]
300003a4:	eb000309 	bl	30000fd0 <draw_rect>
300003a8:	ebffffa9 	bl	30000254 <delay>
300003ac:	e3a000c8 	mov	r0, #200	; 0xc8
300003b0:	e3a020fa 	mov	r2, #250	; 0xfa
300003b4:	e3e0c4ff 	mvn	ip, #-16777216	; 0xff000000
300003b8:	e1a01000 	mov	r1, r0
300003bc:	e1a03002 	mov	r3, r2
300003c0:	e58dc000 	str	ip, [sp]
300003c4:	eb000301 	bl	30000fd0 <draw_rect>
300003c8:	e28dd004 	add	sp, sp, #4	; 0x4
300003cc:	e49de004 	ldr	lr, [sp], #4
300003d0:	eaffff9f 	b	30000254 <delay>
300003d4:	3000aef4 	strccd	sl, [r0], -r4

300003d8 <clear_irq>:
300003d8:	e3a0144a 	mov	r1, #1241513984	; 0x4a000000
300003dc:	e5912014 	ldr	r2, [r1, #20]
300003e0:	e3a03001 	mov	r3, #1	; 0x1
300003e4:	e1a03213 	mov	r3, r3, lsl r2
300003e8:	e5813000 	str	r3, [r1]
300003ec:	e5912010 	ldr	r2, [r1, #16]
300003f0:	e5812010 	str	r2, [r1, #16]
300003f4:	e1a0f00e 	mov	pc, lr

300003f8 <fun_task1>:
300003f8:	e92d4030 	stmdb	sp!, {r4, r5, lr}
300003fc:	e3a05456 	mov	r5, #1442840576	; 0x56000000
30000400:	e24dd004 	sub	sp, sp, #4	; 0x4
30000404:	e3a00050 	mov	r0, #80	; 0x50
30000408:	e3a02078 	mov	r2, #120	; 0x78
3000040c:	e3e0c020 	mvn	ip, #32	; 0x20
30000410:	e585c054 	str	ip, [r5, #84]
30000414:	e1a01000 	mov	r1, r0
30000418:	e1a03002 	mov	r3, r2
3000041c:	e3a04cff 	mov	r4, #65280	; 0xff00
30000420:	e58d4000 	str	r4, [sp]
30000424:	eb0002e9 	bl	30000fd0 <draw_rect>
30000428:	ebffff89 	bl	30000254 <delay>
3000042c:	e3a00050 	mov	r0, #80	; 0x50
30000430:	e3a02078 	mov	r2, #120	; 0x78
30000434:	e3a0c0ff 	mov	ip, #255	; 0xff
30000438:	e585c054 	str	ip, [r5, #84]
3000043c:	e1a01000 	mov	r1, r0
30000440:	e1a03002 	mov	r3, r2
30000444:	e3e044ff 	mvn	r4, #-16777216	; 0xff000000
30000448:	e58d4000 	str	r4, [sp]
3000044c:	eb0002df 	bl	30000fd0 <draw_rect>
30000450:	ebffff7f 	bl	30000254 <delay>
30000454:	eaffffea 	b	30000404 <fun_task1+0xc>

30000458 <fun_task2>:
30000458:	e92d4070 	stmdb	sp!, {r4, r5, r6, lr}
3000045c:	e59f0074 	ldr	r0, [pc, #116]	; 300004d8 <.text+0x4d8>
30000460:	e3a06000 	mov	r6, #0	; 0x0
30000464:	e3a05456 	mov	r5, #1442840576	; 0x56000000
30000468:	e24dd004 	sub	sp, sp, #4	; 0x4
3000046c:	eb0002f5 	bl	30001048 <list_init>
30000470:	e3a00096 	mov	r0, #150	; 0x96
30000474:	e3a020be 	mov	r2, #190	; 0xbe
30000478:	e3e0c040 	mvn	ip, #64	; 0x40
3000047c:	e1a01000 	mov	r1, r0
30000480:	e1a03002 	mov	r3, r2
30000484:	e585c054 	str	ip, [r5, #84]
30000488:	e3a048ff 	mov	r4, #16711680	; 0xff0000
3000048c:	e58d4000 	str	r4, [sp]
30000490:	eb0002ce 	bl	30000fd0 <draw_rect>
30000494:	ebffff6e 	bl	30000254 <delay>
30000498:	e3a00096 	mov	r0, #150	; 0x96
3000049c:	e3a020be 	mov	r2, #190	; 0xbe
300004a0:	e3a0c0ff 	mov	ip, #255	; 0xff
300004a4:	e1a01000 	mov	r1, r0
300004a8:	e585c054 	str	ip, [r5, #84]
300004ac:	e1a03002 	mov	r3, r2
300004b0:	e3e044ff 	mvn	r4, #-16777216	; 0xff000000
300004b4:	e58d4000 	str	r4, [sp]
300004b8:	eb0002c4 	bl	30000fd0 <draw_rect>
300004bc:	ebffff64 	bl	30000254 <delay>
300004c0:	e3560000 	cmp	r6, #0	; 0x0
300004c4:	e59f000c 	ldr	r0, [pc, #12]	; 300004d8 <.text+0x4d8>
300004c8:	1affffe8 	bne	30000470 <fun_task2+0x18>
300004cc:	eb00010c 	bl	30000904 <sleep_on>
300004d0:	e2866001 	add	r6, r6, #1	; 0x1
300004d4:	eaffffe5 	b	30000470 <fun_task2+0x18>
300004d8:	3000aef4 	strccd	sl, [r0], -r4

300004dc <fs_task>:
300004dc:	e92d40f0 	stmdb	sp!, {r4, r5, r6, r7, lr}
300004e0:	e3a0204f 	mov	r2, #79	; 0x4f
300004e4:	e59f10f4 	ldr	r1, [pc, #244]	; 300005e0 <.text+0x5e0>
300004e8:	e3a04000 	mov	r4, #0	; 0x0
300004ec:	e24dd054 	sub	sp, sp, #84	; 0x54
300004f0:	e28d7004 	add	r7, sp, #4	; 0x4
300004f4:	e1a00007 	mov	r0, r7
300004f8:	eb000de2 	bl	30003c88 <memcpy>
300004fc:	e59f00e0 	ldr	r0, [pc, #224]	; 300005e4 <.text+0x5e4>
30000500:	e5cd4003 	strb	r4, [sp, #3]
30000504:	eb000ca1 	bl	30003790 <printk>
30000508:	e1a01004 	mov	r1, r4
3000050c:	e59f00d4 	ldr	r0, [pc, #212]	; 300005e8 <.text+0x5e8>
30000510:	eb000627 	bl	30001db4 <open>
30000514:	e1a05000 	mov	r5, r0
30000518:	e3750001 	cmn	r5, #1	; 0x1
3000051c:	e1a01000 	mov	r1, r0
30000520:	e59f00c4 	ldr	r0, [pc, #196]	; 300005ec <.text+0x5ec>
30000524:	0a000027 	beq	300005c8 <fs_task+0xec>
30000528:	eb000c98 	bl	30003790 <printk>
3000052c:	e1a00007 	mov	r0, r7
30000530:	eb000d3d 	bl	30003a2c <strlen>
30000534:	e1a01007 	mov	r1, r7
30000538:	e1a02000 	mov	r2, r0
3000053c:	e1a00005 	mov	r0, r5
30000540:	eb000767 	bl	300022e4 <write>
30000544:	e1a01000 	mov	r1, r0
30000548:	e1a04000 	mov	r4, r0
3000054c:	e59f009c 	ldr	r0, [pc, #156]	; 300005f0 <.text+0x5f0>
30000550:	eb000c8e 	bl	30003790 <printk>
30000554:	e1a00005 	mov	r0, r5
30000558:	eb0006c7 	bl	3000207c <close>
3000055c:	e3a01001 	mov	r1, #1	; 0x1
30000560:	e59f0080 	ldr	r0, [pc, #128]	; 300005e8 <.text+0x5e8>
30000564:	eb000612 	bl	30001db4 <open>
30000568:	e1a05000 	mov	r5, r0
3000056c:	e3750001 	cmn	r5, #1	; 0x1
30000570:	e1a01000 	mov	r1, r0
30000574:	e28d6003 	add	r6, sp, #3	; 0x3
30000578:	e59f0074 	ldr	r0, [pc, #116]	; 300005f4 <.text+0x5f4>
3000057c:	0a000014 	beq	300005d4 <fs_task+0xf8>
30000580:	eb000c82 	bl	30003790 <printk>
30000584:	e1a00007 	mov	r0, r7
30000588:	eb000d27 	bl	30003a2c <strlen>
3000058c:	e1a01006 	mov	r1, r6
30000590:	e1a02000 	mov	r2, r0
30000594:	e1a00005 	mov	r0, r5
30000598:	eb000753 	bl	300022ec <read>
3000059c:	e3a03000 	mov	r3, #0	; 0x0
300005a0:	e1a04000 	mov	r4, r0
300005a4:	e1a01000 	mov	r1, r0
300005a8:	e1a02006 	mov	r2, r6
300005ac:	e59f0044 	ldr	r0, [pc, #68]	; 300005f8 <.text+0x5f8>
300005b0:	e7c43006 	strb	r3, [r4, r6]
300005b4:	eb000c75 	bl	30003790 <printk>
300005b8:	e1a00005 	mov	r0, r5
300005bc:	eb0006ae 	bl	3000207c <close>
300005c0:	e28dd054 	add	sp, sp, #84	; 0x54
300005c4:	e8bd80f0 	ldmia	sp!, {r4, r5, r6, r7, pc}
300005c8:	e59f002c 	ldr	r0, [pc, #44]	; 300005fc <.text+0x5fc>
300005cc:	eb000c6f 	bl	30003790 <printk>
300005d0:	eaffffe1 	b	3000055c <fs_task+0x80>
300005d4:	e59f0020 	ldr	r0, [pc, #32]	; 300005fc <.text+0x5fc>
300005d8:	eb000c6c 	bl	30003790 <printk>
300005dc:	eafffff7 	b	300005c0 <fs_task+0xe4>
300005e0:	30005208 	andcc	r5, r0, r8, lsl #4
300005e4:	30005258 	andcc	r5, r0, r8, asr r2
300005e8:	3000526c 	andcc	r5, r0, ip, ror #4
300005ec:	30005274 	andcc	r5, r0, r4, ror r2
300005f0:	3000529c 	mulcc	r0, ip, r2
300005f4:	300052b8 	strcch	r5, [r0], -r8
300005f8:	300052e0 	andcc	r5, r0, r0, ror #5
300005fc:	30005314 	andcc	r5, r0, r4, lsl r3

30000600 <run_commond>:
30000600:	e52de004 	str	lr, [sp, #-4]!
30000604:	e5d02000 	ldrb	r2, [r0]
30000608:	e352006c 	cmp	r2, #108	; 0x6c
3000060c:	e24dd004 	sub	sp, sp, #4	; 0x4
30000610:	0a000008 	beq	30000638 <run_commond+0x38>
30000614:	e3520067 	cmp	r2, #103	; 0x67
30000618:	0a000010 	beq	30000660 <run_commond+0x60>
3000061c:	e3520062 	cmp	r2, #98	; 0x62
30000620:	0a00001d 	beq	3000069c <run_commond+0x9c>
30000624:	eb0002be 	bl	30001124 <puts>
30000628:	e59f00d0 	ldr	r0, [pc, #208]	; 30000700 <.text+0x700>
3000062c:	e28dd004 	add	sp, sp, #4	; 0x4
30000630:	e49de004 	ldr	lr, [sp], #4
30000634:	ea0002ba 	b	30001124 <puts>
30000638:	e5d03001 	ldrb	r3, [r0, #1]
3000063c:	e3530073 	cmp	r3, #115	; 0x73
30000640:	1afffff3 	bne	30000614 <run_commond+0x14>
30000644:	e59f00b8 	ldr	r0, [pc, #184]	; 30000704 <.text+0x704>
30000648:	eb0002b5 	bl	30001124 <puts>
3000064c:	e3a00000 	mov	r0, #0	; 0x0
30000650:	ebffffa1 	bl	300004dc <fs_task>
30000654:	e28dd004 	add	sp, sp, #4	; 0x4
30000658:	e49de004 	ldr	lr, [sp], #4
3000065c:	ea000724 	b	300022f4 <show_dir_entry>
30000660:	e5d03001 	ldrb	r3, [r0, #1]
30000664:	e3530072 	cmp	r3, #114	; 0x72
30000668:	1affffeb 	bne	3000061c <run_commond+0x1c>
3000066c:	e5d03002 	ldrb	r3, [r0, #2]
30000670:	e3530065 	cmp	r3, #101	; 0x65
30000674:	1affffe8 	bne	3000061c <run_commond+0x1c>
30000678:	e3a000c8 	mov	r0, #200	; 0xc8
3000067c:	e1a03000 	mov	r3, r0
30000680:	e3a01064 	mov	r1, #100	; 0x64
30000684:	e3a02e19 	mov	r2, #400	; 0x190
30000688:	e3a0c0ff 	mov	ip, #255	; 0xff
3000068c:	e58dc000 	str	ip, [sp]
30000690:	eb00024e 	bl	30000fd0 <draw_rect>
30000694:	e59f006c 	ldr	r0, [pc, #108]	; 30000708 <.text+0x708>
30000698:	eaffffe3 	b	3000062c <run_commond+0x2c>
3000069c:	e5d03001 	ldrb	r3, [r0, #1]
300006a0:	e353006c 	cmp	r3, #108	; 0x6c
300006a4:	0a00000c 	beq	300006dc <run_commond+0xdc>
300006a8:	e3520062 	cmp	r2, #98	; 0x62
300006ac:	1affffdc 	bne	30000624 <run_commond+0x24>
300006b0:	e5d03001 	ldrb	r3, [r0, #1]
300006b4:	e353006f 	cmp	r3, #111	; 0x6f
300006b8:	1affffd9 	bne	30000624 <run_commond+0x24>
300006bc:	e5d03002 	ldrb	r3, [r0, #2]
300006c0:	e353006f 	cmp	r3, #111	; 0x6f
300006c4:	1affffd6 	bne	30000624 <run_commond+0x24>
300006c8:	e5d03003 	ldrb	r3, [r0, #3]
300006cc:	e3530074 	cmp	r3, #116	; 0x74
300006d0:	1affffd3 	bne	30000624 <run_commond+0x24>
300006d4:	e28dd004 	add	sp, sp, #4	; 0x4
300006d8:	e8bd8000 	ldmia	sp!, {pc}
300006dc:	e5d03002 	ldrb	r3, [r0, #2]
300006e0:	e3530075 	cmp	r3, #117	; 0x75
300006e4:	1affffef 	bne	300006a8 <run_commond+0xa8>
300006e8:	e3a00064 	mov	r0, #100	; 0x64
300006ec:	e2822066 	add	r2, r2, #102	; 0x66
300006f0:	e1a01000 	mov	r1, r0
300006f4:	e1a03002 	mov	r3, r2
300006f8:	e3a0ccff 	mov	ip, #65280	; 0xff00
300006fc:	eaffffe2 	b	3000068c <run_commond+0x8c>
30000700:	30005328 	andcc	r5, r0, r8, lsr #6
30000704:	3000533c 	andcc	r5, r0, ip, lsr r3
30000708:	3000534c 	andcc	r5, r0, ip, asr #6

3000070c <fun_task3>:
3000070c:	e92d4070 	stmdb	sp!, {r4, r5, r6, lr}
30000710:	e3a0000d 	mov	r0, #13	; 0xd
30000714:	e24dd020 	sub	sp, sp, #32	; 0x20
30000718:	eb000274 	bl	300010f0 <putc>
3000071c:	e3a0000a 	mov	r0, #10	; 0xa
30000720:	eb000272 	bl	300010f0 <putc>
30000724:	e59f0078 	ldr	r0, [pc, #120]	; 300007a4 <.text+0x7a4>
30000728:	eb00027d 	bl	30001124 <puts>
3000072c:	e1a0600d 	mov	r6, sp
30000730:	e3a05000 	mov	r5, #0	; 0x0
30000734:	ea000004 	b	3000074c <fun_task3+0x40>
30000738:	eb00026c 	bl	300010f0 <putc>
3000073c:	e28d2020 	add	r2, sp, #32	; 0x20
30000740:	e0853002 	add	r3, r5, r2
30000744:	e5434020 	strb	r4, [r3, #-32]
30000748:	e2855001 	add	r5, r5, #1	; 0x1
3000074c:	eb00026e 	bl	3000110c <getc>
30000750:	e20040ff 	and	r4, r0, #255	; 0xff
30000754:	e354000d 	cmp	r4, #13	; 0xd
30000758:	e1a00004 	mov	r0, r4
3000075c:	1afffff5 	bne	30000738 <fun_task3+0x2c>
30000760:	e28d3020 	add	r3, sp, #32	; 0x20
30000764:	e0832005 	add	r2, r3, r5
30000768:	e3a03000 	mov	r3, #0	; 0x0
3000076c:	e5423020 	strb	r3, [r2, #-32]
30000770:	e3a0000d 	mov	r0, #13	; 0xd
30000774:	eb00025d 	bl	300010f0 <putc>
30000778:	e3a0000a 	mov	r0, #10	; 0xa
3000077c:	eb00025b 	bl	300010f0 <putc>
30000780:	e1a00006 	mov	r0, r6
30000784:	ebffff9d 	bl	30000600 <run_commond>
30000788:	e3a0000d 	mov	r0, #13	; 0xd
3000078c:	eb000257 	bl	300010f0 <putc>
30000790:	e3a0000a 	mov	r0, #10	; 0xa
30000794:	eb000255 	bl	300010f0 <putc>
30000798:	e59f0004 	ldr	r0, [pc, #4]	; 300007a4 <.text+0x7a4>
3000079c:	eb000260 	bl	30001124 <puts>
300007a0:	eaffffe2 	b	30000730 <fun_task3+0x24>
300007a4:	30005360 	andcc	r5, r0, r0, ror #6

300007a8 <init>:
300007a8:	e92d4030 	stmdb	sp!, {r4, r5, lr}
300007ac:	e3a05456 	mov	r5, #1442840576	; 0x56000000
300007b0:	e3a040ff 	mov	r4, #255	; 0xff
300007b4:	e24dd004 	sub	sp, sp, #4	; 0x4
300007b8:	ebfffec3 	bl	300002cc <timer0_init>
300007bc:	ebfffed4 	bl	30000314 <key_init>
300007c0:	eb000237 	bl	300010a4 <uart0_init>
300007c4:	ebfffe95 	bl	30000220 <led_init>
300007c8:	eb000216 	bl	30001028 <lcd_init>
300007cc:	eb000022 	bl	3000085c <task_init>
300007d0:	eb000969 	bl	30002d7c <sdi_init>
300007d4:	e3a01003 	mov	r1, #3	; 0x3
300007d8:	e59f0064 	ldr	r0, [pc, #100]	; 30000844 <.text+0x844>
300007dc:	eb000062 	bl	3000096c <do_fork>
300007e0:	e3a0107b 	mov	r1, #123	; 0x7b
300007e4:	e59f205c 	ldr	r2, [pc, #92]	; 30000848 <.text+0x848>
300007e8:	e59f005c 	ldr	r0, [pc, #92]	; 3000084c <.text+0x84c>
300007ec:	eb000be7 	bl	30003790 <printk>
300007f0:	eb0005bf 	bl	30001ef4 <init_fs>
300007f4:	eb0006be 	bl	300022f4 <show_dir_entry>
300007f8:	e3a0000a 	mov	r0, #10	; 0xa
300007fc:	e3a02032 	mov	r2, #50	; 0x32
30000800:	e3e0c010 	mvn	ip, #16	; 0x10
30000804:	e585c054 	str	ip, [r5, #84]
30000808:	e1a01000 	mov	r1, r0
3000080c:	e1a03002 	mov	r3, r2
30000810:	e58d4000 	str	r4, [sp]
30000814:	eb0001ed 	bl	30000fd0 <draw_rect>
30000818:	ebfffe8d 	bl	30000254 <delay>
3000081c:	e3a0000a 	mov	r0, #10	; 0xa
30000820:	e3a02032 	mov	r2, #50	; 0x32
30000824:	e3e0c4ff 	mvn	ip, #-16777216	; 0xff000000
30000828:	e1a01000 	mov	r1, r0
3000082c:	e1a03002 	mov	r3, r2
30000830:	e5854054 	str	r4, [r5, #84]
30000834:	e58dc000 	str	ip, [sp]
30000838:	eb0001e4 	bl	30000fd0 <draw_rect>
3000083c:	ebfffe84 	bl	30000254 <delay>
30000840:	eaffffec 	b	300007f8 <init+0x50>
30000844:	3000070c 	andcc	r0, r0, ip, lsl #14
30000848:	30005370 	andcc	r5, r0, r0, ror r3
3000084c:	30005378 	andcc	r5, r0, r8, ror r3

30000850 <get_current>:
30000850:	e3cd0eff 	bic	r0, sp, #4080	; 0xff0
30000854:	e3c0000f 	bic	r0, r0, #15	; 0xf
30000858:	e1a0f00e 	mov	pc, lr

3000085c <task_init>:
3000085c:	e52de004 	str	lr, [sp, #-4]!
30000860:	ebfffffa 	bl	30000850 <get_current>
30000864:	e2800f43 	add	r0, r0, #268	; 0x10c
30000868:	e49de004 	ldr	lr, [sp], #4
3000086c:	ea0001f5 	b	30001048 <list_init>

30000870 <enable_irq>:
30000870:	e52d4004 	str	r4, [sp, #-4]!
30000874:	e10f4000 	mrs	r4, CPSR
30000878:	e3c44080 	bic	r4, r4, #128	; 0x80
3000087c:	e129f004 	msr	CPSR_fc, r4
30000880:	e8bd0010 	ldmia	sp!, {r4}
30000884:	e1a0f00e 	mov	pc, lr

30000888 <disable_irq>:
30000888:	e52d4004 	str	r4, [sp, #-4]!
3000088c:	e10f4000 	mrs	r4, CPSR
30000890:	e3844080 	orr	r4, r4, #128	; 0x80
30000894:	e129f004 	msr	CPSR_fc, r4
30000898:	e8bd0010 	ldmia	sp!, {r4}
3000089c:	e1a0f00e 	mov	pc, lr

300008a0 <__common_schedule>:
300008a0:	e52de004 	str	lr, [sp, #-4]!
300008a4:	ebffffe9 	bl	30000850 <get_current>
300008a8:	e5903008 	ldr	r3, [r0, #8]
300008ac:	e3530000 	cmp	r3, #0	; 0x0
300008b0:	159f3010 	ldrne	r3, [pc, #16]	; 300008c8 <.text+0x8c8>
300008b4:	05903110 	ldreq	r3, [r0, #272]
300008b8:	15932000 	ldrne	r2, [r3]
300008bc:	02430f43 	subeq	r0, r3, #268	; 0x10c
300008c0:	12420f43 	subne	r0, r2, #268	; 0x10c
300008c4:	e49df004 	ldr	pc, [sp], #4
300008c8:	3000aefc 	strccd	sl, [r0], -ip

300008cc <switch_to>:
300008cc:	e1a0f00e 	mov	pc, lr

300008d0 <schedule>:
300008d0:	e1a0f00e 	mov	pc, lr

300008d4 <wake_up>:
300008d4:	e92d4030 	stmdb	sp!, {r4, r5, lr}
300008d8:	e1a04000 	mov	r4, r0
300008dc:	ebffffe9 	bl	30000888 <disable_irq>
300008e0:	e5945004 	ldr	r5, [r4, #4]
300008e4:	e3a03000 	mov	r3, #0	; 0x0
300008e8:	e5053104 	str	r3, [r5, #-260]
300008ec:	ebffffd7 	bl	30000850 <get_current>
300008f0:	e2801f43 	add	r1, r0, #268	; 0x10c
300008f4:	e1a00005 	mov	r0, r5
300008f8:	eb0001e4 	bl	30001090 <list_add>
300008fc:	e8bd4030 	ldmia	sp!, {r4, r5, lr}
30000900:	eaffffda 	b	30000870 <enable_irq>

30000904 <sleep_on>:
30000904:	e92d4030 	stmdb	sp!, {r4, r5, lr}
30000908:	e1a05000 	mov	r5, r0
3000090c:	ebffffcf 	bl	30000850 <get_current>
30000910:	e3a03001 	mov	r3, #1	; 0x1
30000914:	e5902110 	ldr	r2, [r0, #272]
30000918:	e5803008 	str	r3, [r0, #8]
3000091c:	e59f3024 	ldr	r3, [pc, #36]	; 30000948 <.text+0x948>
30000920:	e2804f43 	add	r4, r0, #268	; 0x10c
30000924:	e5832000 	str	r2, [r3]
30000928:	ebffffd6 	bl	30000888 <disable_irq>
3000092c:	e1a00004 	mov	r0, r4
30000930:	eb0001ca 	bl	30001060 <list_del>
30000934:	e1a00004 	mov	r0, r4
30000938:	e1a01005 	mov	r1, r5
3000093c:	eb0001d3 	bl	30001090 <list_add>
30000940:	e8bd4030 	ldmia	sp!, {r4, r5, lr}
30000944:	eaffffc9 	b	30000870 <enable_irq>
30000948:	3000aefc 	strccd	sl, [r0], -ip

3000094c <get_task_struct_addr>:
3000094c:	e59f300c 	ldr	r3, [pc, #12]	; 30000960 <.text+0x960>
30000950:	e5930000 	ldr	r0, [r3]
30000954:	e2802a01 	add	r2, r0, #4096	; 0x1000
30000958:	e5832000 	str	r2, [r3]
3000095c:	e1a0f00e 	mov	pc, lr
30000960:	30005de0 	andcc	r5, r0, r0, ror #27

30000964 <get_cpsr>:
30000964:	e10f0000 	mrs	r0, CPSR
30000968:	e1a0f00e 	mov	pc, lr

3000096c <do_fork>:
3000096c:	e92d40f0 	stmdb	sp!, {r4, r5, r6, r7, lr}
30000970:	e1a07001 	mov	r7, r1
30000974:	e1a04000 	mov	r4, r0
30000978:	ebfffff3 	bl	3000094c <get_task_struct_addr>
3000097c:	e3a06000 	mov	r6, #0	; 0x0
30000980:	e2505000 	subs	r5, r0, #0	; 0x0
30000984:	e3a02f45 	mov	r2, #276	; 0x114
30000988:	e1a01006 	mov	r1, r6
3000098c:	e3e03000 	mvn	r3, #0	; 0x0
30000990:	0a00001a 	beq	30000a00 <do_fork+0x94>
30000994:	eb000caa 	bl	30003c44 <memset>
30000998:	e2853eff 	add	r3, r5, #4080	; 0xff0
3000099c:	e283300c 	add	r3, r3, #12	; 0xc
300009a0:	e2432004 	sub	r2, r3, #4	; 0x4
300009a4:	e5852000 	str	r2, [r5]
300009a8:	e5854ffc 	str	r4, [r5, #4092]
300009ac:	e5036004 	str	r6, [r3, #-4]
300009b0:	e5952000 	ldr	r2, [r5]
300009b4:	e2423034 	sub	r3, r2, #52	; 0x34
300009b8:	e5853000 	str	r3, [r5]
300009bc:	e5027034 	str	r7, [r2, #-52]
300009c0:	e5954000 	ldr	r4, [r5]
300009c4:	e2443004 	sub	r3, r4, #4	; 0x4
300009c8:	e5853000 	str	r3, [r5]
300009cc:	ebffffe4 	bl	30000964 <get_cpsr>
300009d0:	e200001f 	and	r0, r0, #31	; 0x1f
300009d4:	e5040004 	str	r0, [r4, #-4]
300009d8:	e5856008 	str	r6, [r5, #8]
300009dc:	ebffff9b 	bl	30000850 <get_current>
300009e0:	e5806008 	str	r6, [r0, #8]
300009e4:	ebffffa7 	bl	30000888 <disable_irq>
300009e8:	ebffff98 	bl	30000850 <get_current>
300009ec:	e2801f43 	add	r1, r0, #268	; 0x10c
300009f0:	e2850f43 	add	r0, r5, #268	; 0x10c
300009f4:	eb0001a7 	bl	30001098 <list_add_tail>
300009f8:	ebffff9c 	bl	30000870 <enable_irq>
300009fc:	e1a03006 	mov	r3, r6
30000a00:	e1a00003 	mov	r0, r3
30000a04:	e8bd80f0 	ldmia	sp!, {r4, r5, r6, r7, pc}

30000a08 <exec>:
30000a08:	e92d4030 	stmdb	sp!, {r4, r5, lr}
30000a0c:	e1a04000 	mov	r4, r0
30000a10:	eb000006 	bl	30000a30 <get_free_page>
30000a14:	e1a05000 	mov	r5, r0
30000a18:	e1a01005 	mov	r1, r5
30000a1c:	e1a00004 	mov	r0, r4
30000a20:	e3a02a01 	mov	r2, #4096	; 0x1000
30000a24:	eb0000a5 	bl	30000cc0 <nand_read>
30000a28:	e1a00005 	mov	r0, r5
30000a2c:	e8bd8030 	ldmia	sp!, {r4, r5, pc}

30000a30 <get_free_page>:
30000a30:	e3a01dff 	mov	r1, #16320	; 0x3fc0
30000a34:	e59fc03c 	ldr	ip, [pc, #60]	; 30000a78 <.text+0xa78>
30000a38:	e281103f 	add	r1, r1, #63	; 0x3f
30000a3c:	e3a02000 	mov	r2, #0	; 0x0
30000a40:	e3a00432 	mov	r0, #838860800	; 0x32000000
30000a44:	ea000003 	b	30000a58 <get_free_page+0x28>
30000a48:	e2822001 	add	r2, r2, #1	; 0x1
30000a4c:	e1520001 	cmp	r2, r1
30000a50:	e2800a01 	add	r0, r0, #4096	; 0x1000
30000a54:	ca000005 	bgt	30000a70 <get_free_page+0x40>
30000a58:	e7dc3002 	ldrb	r3, [ip, r2]
30000a5c:	e3530000 	cmp	r3, #0	; 0x0
30000a60:	1afffff8 	bne	30000a48 <get_free_page+0x18>
30000a64:	e2833001 	add	r3, r3, #1	; 0x1
30000a68:	e7cc3002 	strb	r3, [ip, r2]
30000a6c:	e1a0f00e 	mov	pc, lr
30000a70:	e3e00000 	mvn	r0, #0	; 0x0
30000a74:	e1a0f00e 	mov	pc, lr
30000a78:	30005ef4 	strccd	r5, [r0], -r4

30000a7c <free_page>:
30000a7c:	e1a03fc0 	mov	r3, r0, asr #31
30000a80:	e59f201c 	ldr	r2, [pc, #28]	; 30000aa4 <.text+0xaa4>
30000a84:	e0800a23 	add	r0, r0, r3, lsr #20
30000a88:	e1a00640 	mov	r0, r0, asr #12
30000a8c:	e7d23000 	ldrb	r3, [r2, r0]
30000a90:	e3530000 	cmp	r3, #0	; 0x0
30000a94:	13a03000 	movne	r3, #0	; 0x0
30000a98:	17c23000 	strneb	r3, [r2, r0]
30000a9c:	e3a00000 	mov	r0, #0	; 0x0
30000aa0:	e1a0f00e 	mov	pc, lr
30000aa4:	30005ef4 	strccd	r5, [r0], -r4

30000aa8 <isBootFromNorFlash>:
30000aa8:	e59f2020 	ldr	r2, [pc, #32]	; 30000ad0 <.text+0xad0>
30000aac:	e3a01000 	mov	r1, #0	; 0x0
30000ab0:	e591c000 	ldr	ip, [r1]
30000ab4:	e5812000 	str	r2, [r1]
30000ab8:	e1a00001 	mov	r0, r1
30000abc:	e5913000 	ldr	r3, [r1]
30000ac0:	e1530002 	cmp	r3, r2
30000ac4:	13a00001 	movne	r0, #1	; 0x1
30000ac8:	0581c000 	streq	ip, [r1]
30000acc:	e1a0f00e 	mov	pc, lr
30000ad0:	12345678 	eornes	r5, r4, #125829120	; 0x7800000

30000ad4 <clear_bss>:
30000ad4:	e59f301c 	ldr	r3, [pc, #28]	; 30000af8 <.text+0xaf8>
30000ad8:	e59f101c 	ldr	r1, [pc, #28]	; 30000afc <.text+0xafc>
30000adc:	e1530001 	cmp	r3, r1
30000ae0:	21a0f00e 	movcs	pc, lr
30000ae4:	e3a02000 	mov	r2, #0	; 0x0
30000ae8:	e4832004 	str	r2, [r3], #4
30000aec:	e1530001 	cmp	r3, r1
30000af0:	3afffffc 	bcc	30000ae8 <clear_bss+0x14>
30000af4:	e1a0f00e 	mov	pc, lr
30000af8:	30005ef4 	strccd	r5, [r0], -r4
30000afc:	3000c494 	mulcc	r0, r4, r4

30000b00 <nand_init>:
30000b00:	e3a0344e 	mov	r3, #1308622848	; 0x4e000000
30000b04:	e3a02c01 	mov	r2, #256	; 0x100
30000b08:	e3a01013 	mov	r1, #19	; 0x13
30000b0c:	e5832000 	str	r2, [r3]
30000b10:	e5831004 	str	r1, [r3, #4]
30000b14:	e1a0f00e 	mov	pc, lr

30000b18 <nand_select>:
30000b18:	e3a0244e 	mov	r2, #1308622848	; 0x4e000000
30000b1c:	e5923004 	ldr	r3, [r2, #4]
30000b20:	e3c33002 	bic	r3, r3, #2	; 0x2
30000b24:	e5823004 	str	r3, [r2, #4]
30000b28:	e1a0f00e 	mov	pc, lr

30000b2c <nand_deselect>:
30000b2c:	e3a0244e 	mov	r2, #1308622848	; 0x4e000000
30000b30:	e5923004 	ldr	r3, [r2, #4]
30000b34:	e3833002 	orr	r3, r3, #2	; 0x2
30000b38:	e5823004 	str	r3, [r2, #4]
30000b3c:	e1a0f00e 	mov	pc, lr

30000b40 <nand_cmd>:
30000b40:	e24dd004 	sub	sp, sp, #4	; 0x4
30000b44:	e3a0344e 	mov	r3, #1308622848	; 0x4e000000
30000b48:	e20000ff 	and	r0, r0, #255	; 0xff
30000b4c:	e3a02000 	mov	r2, #0	; 0x0
30000b50:	e5c30008 	strb	r0, [r3, #8]
30000b54:	e58d2000 	str	r2, [sp]
30000b58:	e59d3000 	ldr	r3, [sp]
30000b5c:	e3530009 	cmp	r3, #9	; 0x9
30000b60:	ca000005 	bgt	30000b7c <nand_cmd+0x3c>
30000b64:	e59d3000 	ldr	r3, [sp]
30000b68:	e2833001 	add	r3, r3, #1	; 0x1
30000b6c:	e58d3000 	str	r3, [sp]
30000b70:	e59d2000 	ldr	r2, [sp]
30000b74:	e3520009 	cmp	r2, #9	; 0x9
30000b78:	dafffff9 	ble	30000b64 <nand_cmd+0x24>
30000b7c:	e28dd004 	add	sp, sp, #4	; 0x4
30000b80:	e1a0f00e 	mov	pc, lr

30000b84 <nand_addr>:
30000b84:	e1a01a80 	mov	r1, r0, lsl #21
30000b88:	e3a0344e 	mov	r3, #1308622848	; 0x4e000000
30000b8c:	e1a01aa1 	mov	r1, r1, lsr #21
30000b90:	e5c3100c 	strb	r1, [r3, #12]
30000b94:	e24dd004 	sub	sp, sp, #4	; 0x4
30000b98:	e1a005a0 	mov	r0, r0, lsr #11
30000b9c:	e28334b2 	add	r3, r3, #-1308622848	; 0xb2000000
30000ba0:	ea000001 	b	30000bac <nand_addr+0x28>
30000ba4:	e59d3000 	ldr	r3, [sp]
30000ba8:	e2833001 	add	r3, r3, #1	; 0x1
30000bac:	e58d3000 	str	r3, [sp]
30000bb0:	e59d2000 	ldr	r2, [sp]
30000bb4:	e3520009 	cmp	r2, #9	; 0x9
30000bb8:	dafffff9 	ble	30000ba4 <nand_addr+0x20>
30000bbc:	e3a0344e 	mov	r3, #1308622848	; 0x4e000000
30000bc0:	e1a01421 	mov	r1, r1, lsr #8
30000bc4:	e3a02000 	mov	r2, #0	; 0x0
30000bc8:	e5c3100c 	strb	r1, [r3, #12]
30000bcc:	e58d2000 	str	r2, [sp]
30000bd0:	e59d3000 	ldr	r3, [sp]
30000bd4:	e3530009 	cmp	r3, #9	; 0x9
30000bd8:	ca000005 	bgt	30000bf4 <nand_addr+0x70>
30000bdc:	e59d3000 	ldr	r3, [sp]
30000be0:	e2833001 	add	r3, r3, #1	; 0x1
30000be4:	e58d3000 	str	r3, [sp]
30000be8:	e59d2000 	ldr	r2, [sp]
30000bec:	e3520009 	cmp	r2, #9	; 0x9
30000bf0:	dafffff9 	ble	30000bdc <nand_addr+0x58>
30000bf4:	e3a0344e 	mov	r3, #1308622848	; 0x4e000000
30000bf8:	e3a02000 	mov	r2, #0	; 0x0
30000bfc:	e5c3000c 	strb	r0, [r3, #12]
30000c00:	e58d2000 	str	r2, [sp]
30000c04:	e59d3000 	ldr	r3, [sp]
30000c08:	e3530009 	cmp	r3, #9	; 0x9
30000c0c:	ca000005 	bgt	30000c28 <nand_addr+0xa4>
30000c10:	e59d3000 	ldr	r3, [sp]
30000c14:	e2833001 	add	r3, r3, #1	; 0x1
30000c18:	e58d3000 	str	r3, [sp]
30000c1c:	e59d2000 	ldr	r2, [sp]
30000c20:	e3520009 	cmp	r2, #9	; 0x9
30000c24:	dafffff9 	ble	30000c10 <nand_addr+0x8c>
30000c28:	e3a0344e 	mov	r3, #1308622848	; 0x4e000000
30000c2c:	e1a01420 	mov	r1, r0, lsr #8
30000c30:	e3a02000 	mov	r2, #0	; 0x0
30000c34:	e5c3100c 	strb	r1, [r3, #12]
30000c38:	e58d2000 	str	r2, [sp]
30000c3c:	e59d3000 	ldr	r3, [sp]
30000c40:	e3530009 	cmp	r3, #9	; 0x9
30000c44:	ca000005 	bgt	30000c60 <nand_addr+0xdc>
30000c48:	e59d3000 	ldr	r3, [sp]
30000c4c:	e2833001 	add	r3, r3, #1	; 0x1
30000c50:	e58d3000 	str	r3, [sp]
30000c54:	e59d2000 	ldr	r2, [sp]
30000c58:	e3520009 	cmp	r2, #9	; 0x9
30000c5c:	dafffff9 	ble	30000c48 <nand_addr+0xc4>
30000c60:	e3a0344e 	mov	r3, #1308622848	; 0x4e000000
30000c64:	e1a01820 	mov	r1, r0, lsr #16
30000c68:	e3a02000 	mov	r2, #0	; 0x0
30000c6c:	e5c3100c 	strb	r1, [r3, #12]
30000c70:	e58d2000 	str	r2, [sp]
30000c74:	e59d3000 	ldr	r3, [sp]
30000c78:	e3530009 	cmp	r3, #9	; 0x9
30000c7c:	ca000005 	bgt	30000c98 <nand_addr+0x114>
30000c80:	e59d3000 	ldr	r3, [sp]
30000c84:	e2833001 	add	r3, r3, #1	; 0x1
30000c88:	e58d3000 	str	r3, [sp]
30000c8c:	e59d2000 	ldr	r2, [sp]
30000c90:	e3520009 	cmp	r2, #9	; 0x9
30000c94:	dafffff9 	ble	30000c80 <nand_addr+0xfc>
30000c98:	e28dd004 	add	sp, sp, #4	; 0x4
30000c9c:	e1a0f00e 	mov	pc, lr

30000ca0 <nand_wait_ready>:
30000ca0:	e3a0244e 	mov	r2, #1308622848	; 0x4e000000
30000ca4:	e5d23020 	ldrb	r3, [r2, #32]
30000ca8:	e3130001 	tst	r3, #1	; 0x1
30000cac:	0afffffc 	beq	30000ca4 <nand_wait_ready+0x4>
30000cb0:	e1a0f00e 	mov	pc, lr

30000cb4 <nand_data>:
30000cb4:	e3a0344e 	mov	r3, #1308622848	; 0x4e000000
30000cb8:	e5d30010 	ldrb	r0, [r3, #16]
30000cbc:	e1a0f00e 	mov	pc, lr

30000cc0 <nand_read>:
30000cc0:	e92d45f0 	stmdb	sp!, {r4, r5, r6, r7, r8, sl, lr}
30000cc4:	e1a06000 	mov	r6, r0
30000cc8:	e1a07002 	mov	r7, r2
30000ccc:	e3a05000 	mov	r5, #0	; 0x0
30000cd0:	e1a0a001 	mov	sl, r1
30000cd4:	e1a04a86 	mov	r4, r6, lsl #21
30000cd8:	ebffff8e 	bl	30000b18 <nand_select>
30000cdc:	e1550007 	cmp	r5, r7
30000ce0:	e1a04aa4 	mov	r4, r4, lsr #21
30000ce4:	2a00001f 	bcs	30000d68 <nand_read+0xa8>
30000ce8:	e3a00000 	mov	r0, #0	; 0x0
30000cec:	ebffff93 	bl	30000b40 <nand_cmd>
30000cf0:	e1a00006 	mov	r0, r6
30000cf4:	ebffffa2 	bl	30000b84 <nand_addr>
30000cf8:	e3a00030 	mov	r0, #48	; 0x30
30000cfc:	ebffff8f 	bl	30000b40 <nand_cmd>
30000d00:	ebffffe6 	bl	30000ca0 <nand_wait_ready>
30000d04:	e3a02e7f 	mov	r2, #2032	; 0x7f0
30000d08:	e282200f 	add	r2, r2, #15	; 0xf
30000d0c:	e1540002 	cmp	r4, r2
30000d10:	c3a03000 	movgt	r3, #0	; 0x0
30000d14:	d3a03001 	movle	r3, #1	; 0x1
30000d18:	e1550007 	cmp	r5, r7
30000d1c:	23a03000 	movcs	r3, #0	; 0x0
30000d20:	e3530000 	cmp	r3, #0	; 0x0
30000d24:	0a00000c 	beq	30000d5c <nand_read+0x9c>
30000d28:	e1a08002 	mov	r8, r2
30000d2c:	ebffffe0 	bl	30000cb4 <nand_data>
30000d30:	e2844001 	add	r4, r4, #1	; 0x1
30000d34:	e7ca0005 	strb	r0, [sl, r5]
30000d38:	e2855001 	add	r5, r5, #1	; 0x1
30000d3c:	e1540008 	cmp	r4, r8
30000d40:	c3a03000 	movgt	r3, #0	; 0x0
30000d44:	d3a03001 	movle	r3, #1	; 0x1
30000d48:	e1550007 	cmp	r5, r7
30000d4c:	23a03000 	movcs	r3, #0	; 0x0
30000d50:	e3530000 	cmp	r3, #0	; 0x0
30000d54:	e2866001 	add	r6, r6, #1	; 0x1
30000d58:	1afffff3 	bne	30000d2c <nand_read+0x6c>
30000d5c:	e1550007 	cmp	r5, r7
30000d60:	e3a04000 	mov	r4, #0	; 0x0
30000d64:	3affffdf 	bcc	30000ce8 <nand_read+0x28>
30000d68:	e8bd45f0 	ldmia	sp!, {r4, r5, r6, r7, r8, sl, lr}
30000d6c:	eaffff6e 	b	30000b2c <nand_deselect>

30000d70 <copy_code_to_sdram>:
30000d70:	e92d4070 	stmdb	sp!, {r4, r5, r6, lr}
30000d74:	e1a04002 	mov	r4, r2
30000d78:	e1a05000 	mov	r5, r0
30000d7c:	e1a06001 	mov	r6, r1
30000d80:	ebffff48 	bl	30000aa8 <isBootFromNorFlash>
30000d84:	e3500000 	cmp	r0, #0	; 0x0
30000d88:	e3a02000 	mov	r2, #0	; 0x0
30000d8c:	0a000007 	beq	30000db0 <copy_code_to_sdram+0x40>
30000d90:	e1520004 	cmp	r2, r4
30000d94:	28bd8070 	ldmcsia	sp!, {r4, r5, r6, pc}
30000d98:	e7d53002 	ldrb	r3, [r5, r2]
30000d9c:	e7c63002 	strb	r3, [r6, r2]
30000da0:	e2822001 	add	r2, r2, #1	; 0x1
30000da4:	e1520004 	cmp	r2, r4
30000da8:	3afffffa 	bcc	30000d98 <copy_code_to_sdram+0x28>
30000dac:	e8bd8070 	ldmia	sp!, {r4, r5, r6, pc}
30000db0:	e1a00005 	mov	r0, r5
30000db4:	e1a01006 	mov	r1, r6
30000db8:	e1a02004 	mov	r2, r4
30000dbc:	e8bd4070 	ldmia	sp!, {r4, r5, r6, lr}
30000dc0:	eaffffbe 	b	30000cc0 <nand_read>

30000dc4 <lcd_port_init>:
30000dc4:	e3a02caa 	mov	r2, #43520	; 0xaa00
30000dc8:	e28220aa 	add	r2, r2, #170	; 0xaa
30000dcc:	e3a01456 	mov	r1, #1442840576	; 0x56000000
30000dd0:	e1822802 	orr	r2, r2, r2, lsl #16
30000dd4:	e3e03000 	mvn	r3, #0	; 0x0
30000dd8:	e5813028 	str	r3, [r1, #40]
30000ddc:	e5812020 	str	r2, [r1, #32]
30000de0:	e5813038 	str	r3, [r1, #56]
30000de4:	e5812030 	str	r2, [r1, #48]
30000de8:	e5913010 	ldr	r3, [r1, #16]
30000dec:	e3c33003 	bic	r3, r3, #3	; 0x3
30000df0:	e5813010 	str	r3, [r1, #16]
30000df4:	e5912010 	ldr	r2, [r1, #16]
30000df8:	e3822001 	orr	r2, r2, #1	; 0x1
30000dfc:	e5812010 	str	r2, [r1, #16]
30000e00:	e5913014 	ldr	r3, [r1, #20]
30000e04:	e3c33001 	bic	r3, r3, #1	; 0x1
30000e08:	e5813014 	str	r3, [r1, #20]
30000e0c:	e1a0f00e 	mov	pc, lr

30000e10 <lcd_controler_init>:
30000e10:	e92d4010 	stmdb	sp!, {r4, lr}
30000e14:	e3a02505 	mov	r2, #20971520	; 0x1400000
30000e18:	e3a01a9d 	mov	r1, #643072	; 0x9d000
30000e1c:	e282290f 	add	r2, r2, #245760	; 0x3c000
30000e20:	e3a00e47 	mov	r0, #1136	; 0x470
30000e24:	e3a0344d 	mov	r3, #1291845632	; 0x4d000000
30000e28:	e2822049 	add	r2, r2, #73	; 0x49
30000e2c:	e2811c0f 	add	r1, r1, #3840	; 0xf00
30000e30:	e2800008 	add	r0, r0, #8	; 0x8
30000e34:	e2811001 	add	r1, r1, #1	; 0x1
30000e38:	e3a0cc0b 	mov	ip, #2816	; 0xb00
30000e3c:	e5830000 	str	r0, [r3]
30000e40:	e3a0e306 	mov	lr, #402653184	; 0x18000000
30000e44:	e3a04b7f 	mov	r4, #130048	; 0x1fc00
30000e48:	e28cc002 	add	ip, ip, #2	; 0x2
30000e4c:	e28ee602 	add	lr, lr, #2097152	; 0x200000
30000e50:	e5832004 	str	r2, [r3, #4]
30000e54:	e3a02028 	mov	r2, #40	; 0x28
30000e58:	e2844c02 	add	r4, r4, #512	; 0x200
30000e5c:	e5831008 	str	r1, [r3, #8]
30000e60:	e3a01000 	mov	r1, #0	; 0x0
30000e64:	e583200c 	str	r2, [r3, #12]
30000e68:	e2822f6e 	add	r2, r2, #440	; 0x1b8
30000e6c:	e583c010 	str	ip, [r3, #16]
30000e70:	e583e014 	str	lr, [r3, #20]
30000e74:	e5834018 	str	r4, [r3, #24]
30000e78:	e583201c 	str	r2, [r3, #28]
30000e7c:	e5831050 	str	r1, [r3, #80]
30000e80:	e8bd8010 	ldmia	sp!, {r4, pc}

30000e84 <lcd_power_enable>:
30000e84:	e3a01456 	mov	r1, #1442840576	; 0x56000000
30000e88:	e5913060 	ldr	r3, [r1, #96]
30000e8c:	e3833c03 	orr	r3, r3, #768	; 0x300
30000e90:	e5813060 	str	r3, [r1, #96]
30000e94:	e3a0044d 	mov	r0, #1291845632	; 0x4d000000
30000e98:	e5913068 	ldr	r3, [r1, #104]
30000e9c:	e3833010 	orr	r3, r3, #16	; 0x10
30000ea0:	e5813068 	str	r3, [r1, #104]
30000ea4:	e5902010 	ldr	r2, [r0, #16]
30000ea8:	e3c22020 	bic	r2, r2, #32	; 0x20
30000eac:	e5802010 	str	r2, [r0, #16]
30000eb0:	e5903010 	ldr	r3, [r0, #16]
30000eb4:	e3833008 	orr	r3, r3, #8	; 0x8
30000eb8:	e5803010 	str	r3, [r0, #16]
30000ebc:	e1a0f00e 	mov	pc, lr

30000ec0 <lcd_envid_on>:
30000ec0:	e3a0244d 	mov	r2, #1291845632	; 0x4d000000
30000ec4:	e5923000 	ldr	r3, [r2]
30000ec8:	e3833001 	orr	r3, r3, #1	; 0x1
30000ecc:	e5823000 	str	r3, [r2]
30000ed0:	e3a01456 	mov	r1, #1442840576	; 0x56000000
30000ed4:	e5913014 	ldr	r3, [r1, #20]
30000ed8:	e3833001 	orr	r3, r3, #1	; 0x1
30000edc:	e5813014 	str	r3, [r1, #20]
30000ee0:	e1a0f00e 	mov	pc, lr

30000ee4 <lcd_envid_off>:
30000ee4:	e3a0144d 	mov	r1, #1291845632	; 0x4d000000
30000ee8:	e5913000 	ldr	r3, [r1]
30000eec:	e3c3337f 	bic	r3, r3, #-67108863	; 0xfc000001
30000ef0:	e3c337ff 	bic	r3, r3, #66846720	; 0x3fc0000
30000ef4:	e5813000 	str	r3, [r1]
30000ef8:	e3a02456 	mov	r2, #1442840576	; 0x56000000
30000efc:	e5923014 	ldr	r3, [r2, #20]
30000f00:	e3c33001 	bic	r3, r3, #1	; 0x1
30000f04:	e5823014 	str	r3, [r2, #20]
30000f08:	e1a0f00e 	mov	pc, lr

30000f0c <draw_pixel>:
30000f0c:	e52de004 	str	lr, [sp, #-4]!
30000f10:	e59f3044 	ldr	r3, [pc, #68]	; 30000f5c <.text+0xf5c>
30000f14:	e593c000 	ldr	ip, [r3]
30000f18:	e02e019c 	mla	lr, ip, r1, r0
30000f1c:	e1a032a2 	mov	r3, r2, lsr #5
30000f20:	e1a0c002 	mov	ip, r2
30000f24:	e1a01422 	mov	r1, r2, lsr #8
30000f28:	e59f2030 	ldr	r2, [pc, #48]	; 30000f60 <.text+0xf60>
30000f2c:	e2033e7e 	and	r3, r3, #2016	; 0x7e0
30000f30:	e2011b3e 	and	r1, r1, #63488	; 0xf800
30000f34:	e5920000 	ldr	r0, [r2]
30000f38:	e1811003 	orr	r1, r1, r3
30000f3c:	e1a03c0c 	mov	r3, ip, lsl #24
30000f40:	e181cda3 	orr	ip, r1, r3, lsr #27
30000f44:	e1a0e08e 	mov	lr, lr, lsl #1
30000f48:	e1a0244c 	mov	r2, ip, asr #8
30000f4c:	e08e3000 	add	r3, lr, r0
30000f50:	e7cec000 	strb	ip, [lr, r0]
30000f54:	e5c32001 	strb	r2, [r3, #1]
30000f58:	e49df004 	ldr	pc, [sp], #4
30000f5c:	30005de8 	andcc	r5, r0, r8, ror #27
30000f60:	30005dec 	andcc	r5, r0, ip, ror #27

30000f64 <clear_screen>:
30000f64:	e92d41f0 	stmdb	sp!, {r4, r5, r6, r7, r8, lr}
30000f68:	e59f8058 	ldr	r8, [pc, #88]	; 30000fc8 <.text+0xfc8>
30000f6c:	e5983000 	ldr	r3, [r8]
30000f70:	e3a05000 	mov	r5, #0	; 0x0
30000f74:	e1550003 	cmp	r5, r3
30000f78:	e1a06000 	mov	r6, r0
30000f7c:	28bd81f0 	ldmcsia	sp!, {r4, r5, r6, r7, r8, pc}
30000f80:	e59f7044 	ldr	r7, [pc, #68]	; 30000fcc <.text+0xfcc>
30000f84:	e5973000 	ldr	r3, [r7]
30000f88:	e3a04000 	mov	r4, #0	; 0x0
30000f8c:	e1540003 	cmp	r4, r3
30000f90:	2a000007 	bcs	30000fb4 <clear_screen+0x50>
30000f94:	e1a00004 	mov	r0, r4
30000f98:	e1a01005 	mov	r1, r5
30000f9c:	e1a02006 	mov	r2, r6
30000fa0:	ebffffd9 	bl	30000f0c <draw_pixel>
30000fa4:	e2844001 	add	r4, r4, #1	; 0x1
30000fa8:	e5973000 	ldr	r3, [r7]
30000fac:	e1540003 	cmp	r4, r3
30000fb0:	3afffff7 	bcc	30000f94 <clear_screen+0x30>
30000fb4:	e5983000 	ldr	r3, [r8]
30000fb8:	e2855001 	add	r5, r5, #1	; 0x1
30000fbc:	e1550003 	cmp	r5, r3
30000fc0:	3affffef 	bcc	30000f84 <clear_screen+0x20>
30000fc4:	e8bd81f0 	ldmia	sp!, {r4, r5, r6, r7, r8, pc}
30000fc8:	30005de4 	andcc	r5, r0, r4, ror #27
30000fcc:	30005de8 	andcc	r5, r0, r8, ror #27

30000fd0 <draw_rect>:
30000fd0:	e92d45f0 	stmdb	sp!, {r4, r5, r6, r7, r8, sl, lr}
30000fd4:	e1510003 	cmp	r1, r3
30000fd8:	e1a0a003 	mov	sl, r3
30000fdc:	e1a05001 	mov	r5, r1
30000fe0:	e1a08000 	mov	r8, r0
30000fe4:	e1a06002 	mov	r6, r2
30000fe8:	e59d701c 	ldr	r7, [sp, #28]
30000fec:	28bd85f0 	ldmcsia	sp!, {r4, r5, r6, r7, r8, sl, pc}
30000ff0:	e1a04008 	mov	r4, r8
30000ff4:	e1540006 	cmp	r4, r6
30000ff8:	2a000006 	bcs	30001018 <draw_rect+0x48>
30000ffc:	e1a00004 	mov	r0, r4
30001000:	e1a01005 	mov	r1, r5
30001004:	e1a02007 	mov	r2, r7
30001008:	e2844001 	add	r4, r4, #1	; 0x1
3000100c:	ebffffbe 	bl	30000f0c <draw_pixel>
30001010:	e1540006 	cmp	r4, r6
30001014:	3afffff8 	bcc	30000ffc <draw_rect+0x2c>
30001018:	e2855001 	add	r5, r5, #1	; 0x1
3000101c:	e155000a 	cmp	r5, sl
30001020:	3afffff2 	bcc	30000ff0 <draw_rect+0x20>
30001024:	e8bd85f0 	ldmia	sp!, {r4, r5, r6, r7, r8, sl, pc}

30001028 <lcd_init>:
30001028:	e52de004 	str	lr, [sp, #-4]!
3000102c:	ebffff64 	bl	30000dc4 <lcd_port_init>
30001030:	ebffff76 	bl	30000e10 <lcd_controler_init>
30001034:	ebffff92 	bl	30000e84 <lcd_power_enable>
30001038:	e3e004ff 	mvn	r0, #-16777216	; 0xff000000
3000103c:	ebffffc8 	bl	30000f64 <clear_screen>
30001040:	e49de004 	ldr	lr, [sp], #4
30001044:	eaffff9d 	b	30000ec0 <lcd_envid_on>

30001048 <list_init>:
30001048:	e5800004 	str	r0, [r0, #4]
3000104c:	e5800000 	str	r0, [r0]
30001050:	e1a0f00e 	mov	pc, lr

30001054 <__list_del>:
30001054:	e5801004 	str	r1, [r0, #4]
30001058:	e5810000 	str	r0, [r1]
3000105c:	e1a0f00e 	mov	pc, lr

30001060 <list_del>:
30001060:	e8900003 	ldmia	r0, {r0, r1}
30001064:	eafffffa 	b	30001054 <__list_del>

30001068 <list_empty>:
30001068:	e5903004 	ldr	r3, [r0, #4]
3000106c:	e1530000 	cmp	r3, r0
30001070:	13a00000 	movne	r0, #0	; 0x0
30001074:	03a00001 	moveq	r0, #1	; 0x1
30001078:	e1a0f00e 	mov	pc, lr

3000107c <__list_add>:
3000107c:	e5802004 	str	r2, [r0, #4]
30001080:	e5820000 	str	r0, [r2]
30001084:	e5810004 	str	r0, [r1, #4]
30001088:	e5801000 	str	r1, [r0]
3000108c:	e1a0f00e 	mov	pc, lr

30001090 <list_add>:
30001090:	e5912004 	ldr	r2, [r1, #4]
30001094:	eafffff8 	b	3000107c <__list_add>

30001098 <list_add_tail>:
30001098:	e1a02001 	mov	r2, r1
3000109c:	e5911000 	ldr	r1, [r1]
300010a0:	eafffff5 	b	3000107c <__list_add>

300010a4 <uart0_init>:
300010a4:	e3a01456 	mov	r1, #1442840576	; 0x56000000
300010a8:	e5913070 	ldr	r3, [r1, #112]
300010ac:	e38330a0 	orr	r3, r3, #160	; 0xa0
300010b0:	e5813070 	str	r3, [r1, #112]
300010b4:	e3a0c205 	mov	ip, #1342177280	; 0x50000000
300010b8:	e3a0200c 	mov	r2, #12	; 0xc
300010bc:	e3a03003 	mov	r3, #3	; 0x3
300010c0:	e3a00000 	mov	r0, #0	; 0x0
300010c4:	e5812078 	str	r2, [r1, #120]
300010c8:	e242224b 	sub	r2, r2, #-1342177276	; 0xb0000004
300010cc:	e3a01005 	mov	r1, #5	; 0x5
300010d0:	e58c3000 	str	r3, [ip]
300010d4:	e2833215 	add	r3, r3, #1342177281	; 0x50000001
300010d8:	e4831008 	str	r1, [r3], #8
300010dc:	e5820000 	str	r0, [r2]
300010e0:	e3a0201a 	mov	r2, #26	; 0x1a
300010e4:	e5830000 	str	r0, [r3]
300010e8:	e58c2028 	str	r2, [ip, #40]
300010ec:	e1a0f00e 	mov	pc, lr

300010f0 <putc>:
300010f0:	e20000ff 	and	r0, r0, #255	; 0xff
300010f4:	e3a02205 	mov	r2, #1342177280	; 0x50000000
300010f8:	e5923010 	ldr	r3, [r2, #16]
300010fc:	e3130004 	tst	r3, #4	; 0x4
30001100:	0afffffc 	beq	300010f8 <putc+0x8>
30001104:	e5c20020 	strb	r0, [r2, #32]
30001108:	e1a0f00e 	mov	pc, lr

3000110c <getc>:
3000110c:	e3a02205 	mov	r2, #1342177280	; 0x50000000
30001110:	e5923010 	ldr	r3, [r2, #16]
30001114:	e3130001 	tst	r3, #1	; 0x1
30001118:	0afffffc 	beq	30001110 <getc+0x4>
3000111c:	e5d20024 	ldrb	r0, [r2, #36]
30001120:	e1a0f00e 	mov	pc, lr

30001124 <puts>:
30001124:	e92d4010 	stmdb	sp!, {r4, lr}
30001128:	e1a04000 	mov	r4, r0
3000112c:	e5d00000 	ldrb	r0, [r0]
30001130:	e3500000 	cmp	r0, #0	; 0x0
30001134:	08bd8010 	ldmeqia	sp!, {r4, pc}
30001138:	ebffffec 	bl	300010f0 <putc>
3000113c:	e5f40001 	ldrb	r0, [r4, #1]!
30001140:	e3500000 	cmp	r0, #0	; 0x0
30001144:	1afffffb 	bne	30001138 <puts+0x14>
30001148:	e8bd8010 	ldmia	sp!, {r4, pc}

3000114c <gets>:
3000114c:	e92d4010 	stmdb	sp!, {r4, lr}
30001150:	e1a04000 	mov	r4, r0
30001154:	e5d03000 	ldrb	r3, [r0]
30001158:	ea000002 	b	30001168 <gets+0x1c>
3000115c:	ebffffea 	bl	3000110c <getc>
30001160:	e5c40000 	strb	r0, [r4]
30001164:	e5f43001 	ldrb	r3, [r4, #1]!
30001168:	e353000d 	cmp	r3, #13	; 0xd
3000116c:	1afffffa 	bne	3000115c <gets+0x10>
30001170:	e1a00004 	mov	r0, r4
30001174:	e8bd8010 	ldmia	sp!, {r4, pc}

30001178 <buf_set_0>:
30001178:	e3a03000 	mov	r3, #0	; 0x0
3000117c:	e3a02f7f 	mov	r2, #508	; 0x1fc
30001180:	e2822003 	add	r2, r2, #3	; 0x3
30001184:	e1a01003 	mov	r1, r3
30001188:	e7c01003 	strb	r1, [r0, r3]
3000118c:	e2833001 	add	r3, r3, #1	; 0x1
30001190:	e1530002 	cmp	r3, r2
30001194:	dafffffb 	ble	30001188 <buf_set_0+0x10>
30001198:	e1a0f00e 	mov	pc, lr

3000119c <create_fs>:
3000119c:	e92d4070 	stmdb	sp!, {r4, r5, r6, lr}
300011a0:	e3a01000 	mov	r1, #0	; 0x0
300011a4:	e3a02c02 	mov	r2, #512	; 0x200
300011a8:	e3a04001 	mov	r4, #1	; 0x1
300011ac:	e59f5234 	ldr	r5, [pc, #564]	; 300013e8 <.text+0x13e8>
300011b0:	e24ddc02 	sub	sp, sp, #512	; 0x200
300011b4:	e1a0000d 	mov	r0, sp
300011b8:	eb000aa1 	bl	30003c44 <memset>
300011bc:	e3a0cfc2 	mov	ip, #776	; 0x308
300011c0:	e08cc004 	add	ip, ip, r4
300011c4:	e58dc000 	str	ip, [sp]
300011c8:	e3a03a01 	mov	r3, #4096	; 0x1000
300011cc:	e3a0c502 	mov	ip, #8388608	; 0x800000
300011d0:	e3a0ec09 	mov	lr, #2304	; 0x900
300011d4:	e28ee002 	add	lr, lr, #2	; 0x2
300011d8:	e58d3004 	str	r3, [sp, #4]
300011dc:	e2433c0f 	sub	r3, r3, #3840	; 0xf00
300011e0:	e1a02004 	mov	r2, r4
300011e4:	e3a01000 	mov	r1, #0	; 0x0
300011e8:	e1a0000d 	mov	r0, sp
300011ec:	e58dc008 	str	ip, [sp, #8]
300011f0:	e3a0cb02 	mov	ip, #2048	; 0x800
300011f4:	e1a0600d 	mov	r6, sp
300011f8:	e58d300c 	str	r3, [sp, #12]
300011fc:	e24330e0 	sub	r3, r3, #224	; 0xe0
30001200:	e58dc014 	str	ip, [sp, #20]
30001204:	e24cce7f 	sub	ip, ip, #2032	; 0x7f0
30001208:	e58de01c 	str	lr, [sp, #28]
3000120c:	e58dc024 	str	ip, [sp, #36]
30001210:	e58d3020 	str	r3, [sp, #32]
30001214:	e58d4010 	str	r4, [sp, #16]
30001218:	e58d4018 	str	r4, [sp, #24]
3000121c:	eb000619 	bl	30002a88 <sd_write_sector>
30001220:	e31000ff 	tst	r0, #255	; 0xff
30001224:	059f01c0 	ldreq	r0, [pc, #448]	; 300013ec <.text+0x13ec>
30001228:	159f01c0 	ldrne	r0, [pc, #448]	; 300013f0 <.text+0x13f0>
3000122c:	eb000957 	bl	30003790 <printk>
30001230:	e1a00005 	mov	r0, r5
30001234:	ebffffcf 	bl	30001178 <buf_set_0>
30001238:	e3a0301f 	mov	r3, #31	; 0x1f
3000123c:	e5c53000 	strb	r3, [r5]
30001240:	e3a02001 	mov	r2, #1	; 0x1
30001244:	e59d1010 	ldr	r1, [sp, #16]
30001248:	e1a00005 	mov	r0, r5
3000124c:	eb00060d 	bl	30002a88 <sd_write_sector>
30001250:	e31000ff 	tst	r0, #255	; 0xff
30001254:	059f0198 	ldreq	r0, [pc, #408]	; 300013f4 <.text+0x13f4>
30001258:	159f0198 	ldrne	r0, [pc, #408]	; 300013f8 <.text+0x13f8>
3000125c:	eb00094b 	bl	30003790 <printk>
30001260:	e59f0180 	ldr	r0, [pc, #384]	; 300013e8 <.text+0x13e8>
30001264:	ebffffc3 	bl	30001178 <buf_set_0>
30001268:	e3a04000 	mov	r4, #0	; 0x0
3000126c:	e3e02000 	mvn	r2, #0	; 0x0
30001270:	e3a03c01 	mov	r3, #256	; 0x100
30001274:	e7c52004 	strb	r2, [r5, r4]
30001278:	e2844001 	add	r4, r4, #1	; 0x1
3000127c:	e1530004 	cmp	r3, r4
30001280:	cafffffb 	bgt	30001274 <create_fs+0xd8>
30001284:	e5d53100 	ldrb	r3, [r5, #256]
30001288:	e3833001 	orr	r3, r3, #1	; 0x1
3000128c:	e5c53100 	strb	r3, [r5, #256]
30001290:	e3a02001 	mov	r2, #1	; 0x1
30001294:	e59f014c 	ldr	r0, [pc, #332]	; 300013e8 <.text+0x13e8>
30001298:	e59f4148 	ldr	r4, [pc, #328]	; 300013e8 <.text+0x13e8>
3000129c:	e5961010 	ldr	r1, [r6, #16]
300012a0:	e0811002 	add	r1, r1, r2
300012a4:	eb0005f7 	bl	30002a88 <sd_write_sector>
300012a8:	e31000ff 	tst	r0, #255	; 0xff
300012ac:	059f0148 	ldreq	r0, [pc, #328]	; 300013fc <.text+0x13fc>
300012b0:	159f0148 	ldrne	r0, [pc, #328]	; 30001400 <.text+0x1400>
300012b4:	eb000935 	bl	30003790 <printk>
300012b8:	e1a00004 	mov	r0, r4
300012bc:	ebffffad 	bl	30001178 <buf_set_0>
300012c0:	e1a05004 	mov	r5, r4
300012c4:	e3a02000 	mov	r2, #0	; 0x0
300012c8:	e3a03040 	mov	r3, #64	; 0x40
300012cc:	e5843004 	str	r3, [r4, #4]
300012d0:	e1a01002 	mov	r1, r2
300012d4:	e1a04002 	mov	r4, r2
300012d8:	e2833d1f 	add	r3, r3, #1984	; 0x7c0
300012dc:	e2850020 	add	r0, r5, #32	; 0x20
300012e0:	e5852000 	str	r2, [r5]
300012e4:	e3a0c001 	mov	ip, #1	; 0x1
300012e8:	e596201c 	ldr	r2, [r6, #28]
300012ec:	e585300c 	str	r3, [r5, #12]
300012f0:	e5852008 	str	r2, [r5, #8]
300012f4:	e1a02284 	mov	r2, r4, lsl #5
300012f8:	e0823000 	add	r3, r2, r0
300012fc:	e5834008 	str	r4, [r3, #8]
30001300:	e2844001 	add	r4, r4, #1	; 0x1
30001304:	e3540002 	cmp	r4, #2	; 0x2
30001308:	e782c000 	str	ip, [r2, r0]
3000130c:	e583100c 	str	r1, [r3, #12]
30001310:	e5831004 	str	r1, [r3, #4]
30001314:	dafffff6 	ble	300012f4 <create_fs+0x158>
30001318:	e2863010 	add	r3, r6, #16	; 0x10
3000131c:	e893000a 	ldmia	r3, {r1, r3}
30001320:	e0811003 	add	r1, r1, r3
30001324:	e1a0200c 	mov	r2, ip
30001328:	e2811001 	add	r1, r1, #1	; 0x1
3000132c:	e59f00b4 	ldr	r0, [pc, #180]	; 300013e8 <.text+0x13e8>
30001330:	eb0005d4 	bl	30002a88 <sd_write_sector>
30001334:	e31000ff 	tst	r0, #255	; 0xff
30001338:	059f00c4 	ldreq	r0, [pc, #196]	; 30001404 <.text+0x1404>
3000133c:	159f00c4 	ldrne	r0, [pc, #196]	; 30001408 <.text+0x1408>
30001340:	eb000912 	bl	30003790 <printk>
30001344:	e59f009c 	ldr	r0, [pc, #156]	; 300013e8 <.text+0x13e8>
30001348:	e1a05000 	mov	r5, r0
3000134c:	ebffff89 	bl	30001178 <buf_set_0>
30001350:	e1a00005 	mov	r0, r5
30001354:	e3a03001 	mov	r3, #1	; 0x1
30001358:	e4803004 	str	r3, [r0], #4
3000135c:	e59f10a8 	ldr	r1, [pc, #168]	; 3000140c <.text+0x140c>
30001360:	eb000959 	bl	300038cc <strcpy>
30001364:	e3a04000 	mov	r4, #0	; 0x0
30001368:	e2843002 	add	r3, r4, #2	; 0x2
3000136c:	e3540001 	cmp	r4, #1	; 0x1
30001370:	e59f1098 	ldr	r1, [pc, #152]	; 30001410 <.text+0x1410>
30001374:	e5a53010 	str	r3, [r5, #16]!
30001378:	0a000017 	beq	300013dc <create_fs+0x240>
3000137c:	ca000010 	bgt	300013c4 <create_fs+0x228>
30001380:	e3540000 	cmp	r4, #0	; 0x0
30001384:	e2850004 	add	r0, r5, #4	; 0x4
30001388:	e59f1084 	ldr	r1, [pc, #132]	; 30001414 <.text+0x1414>
3000138c:	0a000010 	beq	300013d4 <create_fs+0x238>
30001390:	e2844001 	add	r4, r4, #1	; 0x1
30001394:	e3540002 	cmp	r4, #2	; 0x2
30001398:	dafffff2 	ble	30001368 <create_fs+0x1cc>
3000139c:	e596101c 	ldr	r1, [r6, #28]
300013a0:	e3a02001 	mov	r2, #1	; 0x1
300013a4:	e59f003c 	ldr	r0, [pc, #60]	; 300013e8 <.text+0x13e8>
300013a8:	eb0005b6 	bl	30002a88 <sd_write_sector>
300013ac:	e31000ff 	tst	r0, #255	; 0xff
300013b0:	059f0060 	ldreq	r0, [pc, #96]	; 30001418 <.text+0x1418>
300013b4:	159f0060 	ldrne	r0, [pc, #96]	; 3000141c <.text+0x141c>
300013b8:	eb0008f4 	bl	30003790 <printk>
300013bc:	e28ddc02 	add	sp, sp, #512	; 0x200
300013c0:	e8bd8070 	ldmia	sp!, {r4, r5, r6, pc}
300013c4:	e3540002 	cmp	r4, #2	; 0x2
300013c8:	e2850004 	add	r0, r5, #4	; 0x4
300013cc:	e59f104c 	ldr	r1, [pc, #76]	; 30001420 <.text+0x1420>
300013d0:	1affffee 	bne	30001390 <create_fs+0x1f4>
300013d4:	eb00093c 	bl	300038cc <strcpy>
300013d8:	eaffffec 	b	30001390 <create_fs+0x1f4>
300013dc:	e2850004 	add	r0, r5, #4	; 0x4
300013e0:	eb000939 	bl	300038cc <strcpy>
300013e4:	eaffffe9 	b	30001390 <create_fs+0x1f4>
300013e8:	3000be64 	andcc	fp, r0, r4, ror #28
300013ec:	300053f8 	strccd	r5, [r0], -r8
300013f0:	3000541c 	andcc	r5, r0, ip, lsl r4
300013f4:	30005440 	andcc	r5, r0, r0, asr #8
300013f8:	30005460 	andcc	r5, r0, r0, ror #8
300013fc:	30005480 	andcc	r5, r0, r0, lsl #9
30001400:	300054a8 	andcc	r5, r0, r8, lsr #9
30001404:	300054d0 	ldrccd	r5, [r0], -r0
30001408:	300054e8 	andcc	r5, r0, r8, ror #9
3000140c:	30005500 	andcc	r5, r0, r0, lsl #10
30001410:	30005504 	andcc	r5, r0, r4, lsl #10
30001414:	30005510 	andcc	r5, r0, r0, lsl r5
30001418:	3000551c 	andcc	r5, r0, ip, lsl r5
3000141c:	30005534 	andcc	r5, r0, r4, lsr r5
30001420:	3000554c 	andcc	r5, r0, ip, asr #10

30001424 <read_super_block>:
30001424:	e92d41f0 	stmdb	sp!, {r4, r5, r6, r7, r8, lr}
30001428:	e59f8094 	ldr	r8, [pc, #148]	; 300014c4 <.text+0x14c4>
3000142c:	e1a07000 	mov	r7, r0
30001430:	e3a05000 	mov	r5, #0	; 0x0
30001434:	e2882028 	add	r2, r8, #40	; 0x28
30001438:	e492302c 	ldr	r3, [r2], #44
3000143c:	e3530000 	cmp	r3, #0	; 0x0
30001440:	e1a04105 	mov	r4, r5, lsl #2
30001444:	0a000003 	beq	30001458 <read_super_block+0x34>
30001448:	e2855001 	add	r5, r5, #1	; 0x1
3000144c:	e3550007 	cmp	r5, #7	; 0x7
30001450:	dafffff8 	ble	30001438 <read_super_block+0x14>
30001454:	e1a04105 	mov	r4, r5, lsl #2
30001458:	e3550008 	cmp	r5, #8	; 0x8
3000145c:	0a000015 	beq	300014b8 <read_super_block+0x94>
30001460:	e59f6060 	ldr	r6, [pc, #96]	; 300014c8 <.text+0x14c8>
30001464:	e3a01000 	mov	r1, #0	; 0x0
30001468:	e3a02001 	mov	r2, #1	; 0x1
3000146c:	e1a00006 	mov	r0, r6
30001470:	eb000528 	bl	30002918 <sd_read_sector>
30001474:	e31000ff 	tst	r0, #255	; 0xff
30001478:	059f004c 	ldreq	r0, [pc, #76]	; 300014cc <.text+0x14cc>
3000147c:	159f004c 	ldrne	r0, [pc, #76]	; 300014d0 <.text+0x14d0>
30001480:	eb0008c2 	bl	30003790 <printk>
30001484:	e0844005 	add	r4, r4, r5
30001488:	e0854084 	add	r4, r5, r4, lsl #1
3000148c:	e1a0e006 	mov	lr, r6
30001490:	e8be000f 	ldmia	lr!, {r0, r1, r2, r3}
30001494:	e0884104 	add	r4, r8, r4, lsl #2
30001498:	e1a0c004 	mov	ip, r4
3000149c:	e8ac000f 	stmia	ip!, {r0, r1, r2, r3}
300014a0:	e8be000f 	ldmia	lr!, {r0, r1, r2, r3}
300014a4:	e8ac000f 	stmia	ip!, {r0, r1, r2, r3}
300014a8:	e89e0007 	ldmia	lr, {r0, r1, r2}
300014ac:	e88c0007 	stmia	ip, {r0, r1, r2}
300014b0:	e5847028 	str	r7, [r4, #40]
300014b4:	e8bd81f0 	ldmia	sp!, {r4, r5, r6, r7, r8, pc}
300014b8:	e59f0014 	ldr	r0, [pc, #20]	; 300014d4 <.text+0x14d4>
300014bc:	eb0008b3 	bl	30003790 <printk>
300014c0:	eaffffe6 	b	30001460 <read_super_block+0x3c>
300014c4:	3000af00 	andcc	sl, r0, r0, lsl #30
300014c8:	3000be64 	andcc	fp, r0, r4, ror #28
300014cc:	30005558 	andcc	r5, r0, r8, asr r5
300014d0:	30005570 	andcc	r5, r0, r0, ror r5
300014d4:	30005588 	andcc	r5, r0, r8, lsl #11

300014d8 <get_super_block>:
300014d8:	e52de004 	str	lr, [sp, #-4]!
300014dc:	e59f2038 	ldr	r2, [pc, #56]	; 3000151c <.text+0x151c>
300014e0:	e2821e16 	add	r1, r2, #352	; 0x160
300014e4:	ea000003 	b	300014f8 <get_super_block+0x20>
300014e8:	e5923028 	ldr	r3, [r2, #40]
300014ec:	e1530000 	cmp	r3, r0
300014f0:	0a000007 	beq	30001514 <get_super_block+0x3c>
300014f4:	e282202c 	add	r2, r2, #44	; 0x2c
300014f8:	e1520001 	cmp	r2, r1
300014fc:	3afffff9 	bcc	300014e8 <get_super_block+0x10>
30001500:	e1a01000 	mov	r1, r0
30001504:	e59f0014 	ldr	r0, [pc, #20]	; 30001520 <.text+0x1520>
30001508:	eb0008a0 	bl	30003790 <printk>
3000150c:	e3a00000 	mov	r0, #0	; 0x0
30001510:	e49df004 	ldr	pc, [sp], #4
30001514:	e1a00002 	mov	r0, r2
30001518:	e49df004 	ldr	pc, [sp], #4
3000151c:	3000af00 	andcc	sl, r0, r0, lsl #30
30001520:	300055a4 	andcc	r5, r0, r4, lsr #11

30001524 <get_inode>:
30001524:	e92d45f0 	stmdb	sp!, {r4, r5, r6, r7, r8, sl, lr}
30001528:	e2518000 	subs	r8, r1, #0	; 0x0
3000152c:	e3a07000 	mov	r7, #0	; 0x0
30001530:	e1a04000 	mov	r4, r0
30001534:	01a0c007 	moveq	ip, r7
30001538:	0a00003f 	beq	3000163c <get_inode+0x118>
3000153c:	e59f2128 	ldr	r2, [pc, #296]	; 3000166c <.text+0x166c>
30001540:	e2820c0b 	add	r0, r2, #2816	; 0xb00
30001544:	e1520000 	cmp	r2, r0
30001548:	3a000006 	bcc	30001568 <get_inode+0x44>
3000154c:	ea000043 	b	30001660 <get_inode+0x13c>
30001550:	e5923020 	ldr	r3, [r2, #32]
30001554:	e1530004 	cmp	r3, r4
30001558:	0a000039 	beq	30001644 <get_inode+0x120>
3000155c:	e282202c 	add	r2, r2, #44	; 0x2c
30001560:	e1520000 	cmp	r2, r0
30001564:	2a000007 	bcs	30001588 <get_inode+0x64>
30001568:	e5921024 	ldr	r1, [r2, #36]
3000156c:	e3510000 	cmp	r1, #0	; 0x0
30001570:	1afffff6 	bne	30001550 <get_inode+0x2c>
30001574:	e3570000 	cmp	r7, #0	; 0x0
30001578:	01a07002 	moveq	r7, r2
3000157c:	e282202c 	add	r2, r2, #44	; 0x2c
30001580:	e1520000 	cmp	r2, r0
30001584:	3afffff7 	bcc	30001568 <get_inode+0x44>
30001588:	e3570000 	cmp	r7, #0	; 0x0
3000158c:	0a000033 	beq	30001660 <get_inode+0x13c>
30001590:	e3a05001 	mov	r5, #1	; 0x1
30001594:	e5874020 	str	r4, [r7, #32]
30001598:	e1a00004 	mov	r0, r4
3000159c:	e2486001 	sub	r6, r8, #1	; 0x1
300015a0:	e59fa0c8 	ldr	sl, [pc, #200]	; 30001670 <.text+0x1670>
300015a4:	e5875024 	str	r5, [r7, #36]
300015a8:	e5878028 	str	r8, [r7, #40]
300015ac:	ebffffc9 	bl	300014d8 <get_super_block>
300015b0:	e2803010 	add	r3, r0, #16	; 0x10
300015b4:	e8930018 	ldmia	r3, {r3, r4}
300015b8:	e0834004 	add	r4, r3, r4
300015bc:	e1a03fc6 	mov	r3, r6, asr #31
300015c0:	e0863e23 	add	r3, r6, r3, lsr #28
300015c4:	e0844243 	add	r4, r4, r3, asr #4
300015c8:	e0844005 	add	r4, r4, r5
300015cc:	e1a01004 	mov	r1, r4
300015d0:	e59f009c 	ldr	r0, [pc, #156]	; 30001674 <.text+0x1674>
300015d4:	eb00086d 	bl	30003790 <printk>
300015d8:	e1a02005 	mov	r2, r5
300015dc:	e1a01004 	mov	r1, r4
300015e0:	e1a0000a 	mov	r0, sl
300015e4:	eb0004cb 	bl	30002918 <sd_read_sector>
300015e8:	e31000ff 	tst	r0, #255	; 0xff
300015ec:	059f0084 	ldreq	r0, [pc, #132]	; 30001678 <.text+0x1678>
300015f0:	159f0084 	ldrne	r0, [pc, #132]	; 3000167c <.text+0x167c>
300015f4:	eb000865 	bl	30003790 <printk>
300015f8:	e1a01fc6 	mov	r1, r6, asr #31
300015fc:	e0861e21 	add	r1, r6, r1, lsr #28
30001600:	e3c1100f 	bic	r1, r1, #15	; 0xf
30001604:	e0611006 	rsb	r1, r1, r6
30001608:	e1a05281 	mov	r5, r1, lsl #5
3000160c:	e085400a 	add	r4, r5, sl
30001610:	e59f0068 	ldr	r0, [pc, #104]	; 30001680 <.text+0x1680>
30001614:	eb00085d 	bl	30003790 <printk>
30001618:	e795300a 	ldr	r3, [r5, sl]
3000161c:	e594000c 	ldr	r0, [r4, #12]
30001620:	e5942004 	ldr	r2, [r4, #4]
30001624:	e5941008 	ldr	r1, [r4, #8]
30001628:	e5873000 	str	r3, [r7]
3000162c:	e1a0c007 	mov	ip, r7
30001630:	e5872004 	str	r2, [r7, #4]
30001634:	e5871008 	str	r1, [r7, #8]
30001638:	e587000c 	str	r0, [r7, #12]
3000163c:	e1a0000c 	mov	r0, ip
30001640:	e8bd85f0 	ldmia	sp!, {r4, r5, r6, r7, r8, sl, pc}
30001644:	e5923028 	ldr	r3, [r2, #40]
30001648:	e1530008 	cmp	r3, r8
3000164c:	1affffc2 	bne	3000155c <get_inode+0x38>
30001650:	e2813001 	add	r3, r1, #1	; 0x1
30001654:	e1a0c002 	mov	ip, r2
30001658:	e5823024 	str	r3, [r2, #36]
3000165c:	eafffff6 	b	3000163c <get_inode+0x118>
30001660:	e59f001c 	ldr	r0, [pc, #28]	; 30001684 <.text+0x1684>
30001664:	eb000849 	bl	30003790 <printk>
30001668:	eaffffc8 	b	30001590 <get_inode+0x6c>
3000166c:	3000b064 	andcc	fp, r0, r4, rrx
30001670:	3000be64 	andcc	fp, r0, r4, ror #28
30001674:	300055c8 	andcc	r5, r0, r8, asr #11
30001678:	300055d8 	ldrccd	r5, [r0], -r8
3000167c:	300055fc 	strccd	r5, [r0], -ip
30001680:	30005620 	andcc	r5, r0, r0, lsr #12
30001684:	30005654 	andcc	r5, r0, r4, asr r6

30001688 <put_inode>:
30001688:	e5903024 	ldr	r3, [r0, #36]
3000168c:	e2433001 	sub	r3, r3, #1	; 0x1
30001690:	e5803024 	str	r3, [r0, #36]
30001694:	e1a0f00e 	mov	pc, lr

30001698 <sync_inode>:
30001698:	e92d41f0 	stmdb	sp!, {r4, r5, r6, r7, r8, lr}
3000169c:	e1a05000 	mov	r5, r0
300016a0:	e59f70a4 	ldr	r7, [pc, #164]	; 3000174c <.text+0x174c>
300016a4:	e5900020 	ldr	r0, [r0, #32]
300016a8:	ebffff8a 	bl	300014d8 <get_super_block>
300016ac:	e5953028 	ldr	r3, [r5, #40]
300016b0:	e2433001 	sub	r3, r3, #1	; 0x1
300016b4:	e2802010 	add	r2, r0, #16	; 0x10
300016b8:	e8920006 	ldmia	r2, {r1, r2}
300016bc:	e0811002 	add	r1, r1, r2
300016c0:	e1a02fc3 	mov	r2, r3, asr #31
300016c4:	e0833e22 	add	r3, r3, r2, lsr #28
300016c8:	e0811243 	add	r1, r1, r3, asr #4
300016cc:	e2818001 	add	r8, r1, #1	; 0x1
300016d0:	e1a01008 	mov	r1, r8
300016d4:	e3a02001 	mov	r2, #1	; 0x1
300016d8:	e1a00007 	mov	r0, r7
300016dc:	eb00048d 	bl	30002918 <sd_read_sector>
300016e0:	e31000ff 	tst	r0, #255	; 0xff
300016e4:	e59f0064 	ldr	r0, [pc, #100]	; 30001750 <.text+0x1750>
300016e8:	159f0064 	ldrne	r0, [pc, #100]	; 30001754 <.text+0x1754>
300016ec:	eb000827 	bl	30003790 <printk>
300016f0:	e595c028 	ldr	ip, [r5, #40]
300016f4:	e24cc001 	sub	ip, ip, #1	; 0x1
300016f8:	e1a03fcc 	mov	r3, ip, asr #31
300016fc:	e08c3e23 	add	r3, ip, r3, lsr #28
30001700:	e3c3300f 	bic	r3, r3, #15	; 0xf
30001704:	e063c00c 	rsb	ip, r3, ip
30001708:	e595600c 	ldr	r6, [r5, #12]
3000170c:	e1a0c28c 	mov	ip, ip, lsl #5
30001710:	e595e000 	ldr	lr, [r5]
30001714:	e9950030 	ldmib	r5, {r4, r5}
30001718:	e08c3007 	add	r3, ip, r7
3000171c:	e1a01008 	mov	r1, r8
30001720:	e3a02001 	mov	r2, #1	; 0x1
30001724:	e583600c 	str	r6, [r3, #12]
30001728:	e59f001c 	ldr	r0, [pc, #28]	; 3000174c <.text+0x174c>
3000172c:	e9830030 	stmib	r3, {r4, r5}
30001730:	e78ce007 	str	lr, [ip, r7]
30001734:	eb0004d3 	bl	30002a88 <sd_write_sector>
30001738:	e31000ff 	tst	r0, #255	; 0xff
3000173c:	e59f0014 	ldr	r0, [pc, #20]	; 30001758 <.text+0x1758>
30001740:	159f0014 	ldrne	r0, [pc, #20]	; 3000175c <.text+0x175c>
30001744:	e8bd41f0 	ldmia	sp!, {r4, r5, r6, r7, r8, lr}
30001748:	ea000810 	b	30003790 <printk>
3000174c:	3000be64 	andcc	fp, r0, r4, ror #28
30001750:	300055e4 	andcc	r5, r0, r4, ror #11
30001754:	30005608 	andcc	r5, r0, r8, lsl #12
30001758:	30005670 	andcc	r5, r0, r0, ror r6
3000175c:	30005688 	andcc	r5, r0, r8, lsl #13

30001760 <strip_path>:
30001760:	e3510000 	cmp	r1, #0	; 0x0
30001764:	e52de004 	str	lr, [sp, #-4]!
30001768:	e1a0c000 	mov	ip, r0
3000176c:	e1a0e002 	mov	lr, r2
30001770:	0a000014 	beq	300017c8 <strip_path+0x68>
30001774:	e5d13000 	ldrb	r3, [r1]
30001778:	e353002f 	cmp	r3, #47	; 0x2f
3000177c:	02811001 	addeq	r1, r1, #1	; 0x1
30001780:	e5d12000 	ldrb	r2, [r1]
30001784:	e20230ff 	and	r3, r2, #255	; 0xff
30001788:	e3530000 	cmp	r3, #0	; 0x0
3000178c:	0a000006 	beq	300017ac <strip_path+0x4c>
30001790:	e353002f 	cmp	r3, #47	; 0x2f
30001794:	0a00000b 	beq	300017c8 <strip_path+0x68>
30001798:	e4cc2001 	strb	r2, [ip], #1
3000179c:	e2811001 	add	r1, r1, #1	; 0x1
300017a0:	e060300c 	rsb	r3, r0, ip
300017a4:	e353000b 	cmp	r3, #11	; 0xb
300017a8:	dafffff4 	ble	30001780 <strip_path+0x20>
300017ac:	e3a03000 	mov	r3, #0	; 0x0
300017b0:	e5cc3000 	strb	r3, [ip]
300017b4:	e59f2014 	ldr	r2, [pc, #20]	; 300017d0 <.text+0x17d0>
300017b8:	e1a00003 	mov	r0, r3
300017bc:	e5923000 	ldr	r3, [r2]
300017c0:	e58e3000 	str	r3, [lr]
300017c4:	e49df004 	ldr	pc, [sp], #4
300017c8:	e3e00000 	mvn	r0, #0	; 0x0
300017cc:	e49df004 	ldr	pc, [sp], #4
300017d0:	3000b060 	andcc	fp, r0, r0, rrx

300017d4 <alloc_imap_bit>:
300017d4:	e92d4070 	stmdb	sp!, {r4, r5, r6, lr}
300017d8:	ebffff3e 	bl	300014d8 <get_super_block>
300017dc:	e5903010 	ldr	r3, [r0, #16]
300017e0:	e3530000 	cmp	r3, #0	; 0x0
300017e4:	e3a06000 	mov	r6, #0	; 0x0
300017e8:	da000029 	ble	30001894 <alloc_imap_bit+0xc0>
300017ec:	e3a01001 	mov	r1, #1	; 0x1
300017f0:	e59f00ac 	ldr	r0, [pc, #172]	; 300018a4 <.text+0x18a4>
300017f4:	e1a02001 	mov	r2, r1
300017f8:	eb000446 	bl	30002918 <sd_read_sector>
300017fc:	e31000ff 	tst	r0, #255	; 0xff
30001800:	059f00a0 	ldreq	r0, [pc, #160]	; 300018a8 <.text+0x18a8>
30001804:	1a00001c 	bne	3000187c <alloc_imap_bit+0xa8>
30001808:	eb0007e0 	bl	30003790 <printk>
3000180c:	e59f5090 	ldr	r5, [pc, #144]	; 300018a4 <.text+0x18a4>
30001810:	e3a04000 	mov	r4, #0	; 0x0
30001814:	e7d52004 	ldrb	r2, [r5, r4]
30001818:	e20230ff 	and	r3, r2, #255	; 0xff
3000181c:	e35300ff 	cmp	r3, #255	; 0xff
30001820:	0a000017 	beq	30001884 <alloc_imap_bit+0xb0>
30001824:	e3120001 	tst	r2, #1	; 0x1
30001828:	e3a0e000 	mov	lr, #0	; 0x0
3000182c:	0a000004 	beq	30001844 <alloc_imap_bit+0x70>
30001830:	e1a02003 	mov	r2, r3
30001834:	e28ee001 	add	lr, lr, #1	; 0x1
30001838:	e1a03e52 	mov	r3, r2, asr lr
3000183c:	e3130001 	tst	r3, #1	; 0x1
30001840:	1afffffb 	bne	30001834 <alloc_imap_bit+0x60>
30001844:	e7d5c004 	ldrb	ip, [r5, r4]
30001848:	e3a01001 	mov	r1, #1	; 0x1
3000184c:	e18cce11 	orr	ip, ip, r1, lsl lr
30001850:	e59f004c 	ldr	r0, [pc, #76]	; 300018a4 <.text+0x18a4>
30001854:	e1a02001 	mov	r2, r1
30001858:	e7c5c004 	strb	ip, [r5, r4]
3000185c:	e08e6184 	add	r6, lr, r4, lsl #3
30001860:	eb000488 	bl	30002a88 <sd_write_sector>
30001864:	e31000ff 	tst	r0, #255	; 0xff
30001868:	059f003c 	ldreq	r0, [pc, #60]	; 300018ac <.text+0x18ac>
3000186c:	159f003c 	ldrne	r0, [pc, #60]	; 300018b0 <.text+0x18b0>
30001870:	eb0007c6 	bl	30003790 <printk>
30001874:	e1a00006 	mov	r0, r6
30001878:	e8bd8070 	ldmia	sp!, {r4, r5, r6, pc}
3000187c:	e59f0030 	ldr	r0, [pc, #48]	; 300018b4 <.text+0x18b4>
30001880:	eaffffe0 	b	30001808 <alloc_imap_bit+0x34>
30001884:	e2844001 	add	r4, r4, #1	; 0x1
30001888:	e3540c02 	cmp	r4, #512	; 0x200
3000188c:	baffffe0 	blt	30001814 <alloc_imap_bit+0x40>
30001890:	eafffff7 	b	30001874 <alloc_imap_bit+0xa0>
30001894:	e59f001c 	ldr	r0, [pc, #28]	; 300018b8 <.text+0x18b8>
30001898:	eb0007bc 	bl	30003790 <printk>
3000189c:	e3a00000 	mov	r0, #0	; 0x0
300018a0:	e8bd8070 	ldmia	sp!, {r4, r5, r6, pc}
300018a4:	3000be64 	andcc	fp, r0, r4, ror #28
300018a8:	300056a0 	andcc	r5, r0, r0, lsr #13
300018ac:	300056c0 	andcc	r5, r0, r0, asr #13
300018b0:	300056e0 	andcc	r5, r0, r0, ror #13
300018b4:	30005700 	andcc	r5, r0, r0, lsl #14
300018b8:	30005720 	andcc	r5, r0, r0, lsr #14

300018bc <alloc_smap_bit>:
300018bc:	e92d47f0 	stmdb	sp!, {r4, r5, r6, r7, r8, r9, sl, lr}
300018c0:	e1a04001 	mov	r4, r1
300018c4:	ebffff03 	bl	300014d8 <get_super_block>
300018c8:	e2802010 	add	r2, r0, #16	; 0x10
300018cc:	e892000c 	ldmia	r2, {r2, r3}
300018d0:	e3a06000 	mov	r6, #0	; 0x0
300018d4:	e3530000 	cmp	r3, #0	; 0x0
300018d8:	e1a07000 	mov	r7, r0
300018dc:	e2829001 	add	r9, r2, #1	; 0x1
300018e0:	e1a08006 	mov	r8, r6
300018e4:	da00003b 	ble	300019d8 <alloc_smap_bit+0x11c>
300018e8:	e59f5114 	ldr	r5, [pc, #276]	; 30001a04 <.text+0x1a04>
300018ec:	e089a008 	add	sl, r9, r8
300018f0:	e1a0100a 	mov	r1, sl
300018f4:	e3a02001 	mov	r2, #1	; 0x1
300018f8:	e59f0104 	ldr	r0, [pc, #260]	; 30001a04 <.text+0x1a04>
300018fc:	eb000405 	bl	30002918 <sd_read_sector>
30001900:	e31000ff 	tst	r0, #255	; 0xff
30001904:	059f00fc 	ldreq	r0, [pc, #252]	; 30001a08 <.text+0x1a08>
30001908:	159f00fc 	ldrne	r0, [pc, #252]	; 30001a0c <.text+0x1a0c>
3000190c:	eb00079f 	bl	30003790 <printk>
30001910:	e3540000 	cmp	r4, #0	; 0x0
30001914:	e3a0c000 	mov	ip, #0	; 0x0
30001918:	da000026 	ble	300019b8 <alloc_smap_bit+0xfc>
3000191c:	e3560000 	cmp	r6, #0	; 0x0
30001920:	e3a01000 	mov	r1, #0	; 0x0
30001924:	1a000012 	bne	30001974 <alloc_smap_bit+0xb8>
30001928:	e59f50d4 	ldr	r5, [pc, #212]	; 30001a04 <.text+0x1a04>
3000192c:	e7d5200c 	ldrb	r2, [r5, ip]
30001930:	e20230ff 	and	r3, r2, #255	; 0xff
30001934:	e35300ff 	cmp	r3, #255	; 0xff
30001938:	0a000016 	beq	30001998 <alloc_smap_bit+0xdc>
3000193c:	e3120001 	tst	r2, #1	; 0x1
30001940:	0a000004 	beq	30001958 <alloc_smap_bit+0x9c>
30001944:	e1a02003 	mov	r2, r3
30001948:	e2811001 	add	r1, r1, #1	; 0x1
3000194c:	e1a03152 	mov	r3, r2, asr r1
30001950:	e3130001 	tst	r3, #1	; 0x1
30001954:	1afffffb 	bne	30001948 <alloc_smap_bit+0x8c>
30001958:	e08c3488 	add	r3, ip, r8, lsl #9
3000195c:	e597201c 	ldr	r2, [r7, #28]
30001960:	e0813183 	add	r3, r1, r3, lsl #3
30001964:	e0833002 	add	r3, r3, r2
30001968:	e3510007 	cmp	r1, #7	; 0x7
3000196c:	e2436001 	sub	r6, r3, #1	; 0x1
30001970:	ca000008 	bgt	30001998 <alloc_smap_bit+0xdc>
30001974:	e3a02001 	mov	r2, #1	; 0x1
30001978:	e7d5300c 	ldrb	r3, [r5, ip]
3000197c:	e2544001 	subs	r4, r4, #1	; 0x1
30001980:	e1833112 	orr	r3, r3, r2, lsl r1
30001984:	e7c5300c 	strb	r3, [r5, ip]
30001988:	e2811001 	add	r1, r1, #1	; 0x1
3000198c:	0a000001 	beq	30001998 <alloc_smap_bit+0xdc>
30001990:	e3510007 	cmp	r1, #7	; 0x7
30001994:	dafffff7 	ble	30001978 <alloc_smap_bit+0xbc>
30001998:	e28cc001 	add	ip, ip, #1	; 0x1
3000199c:	e35c0c02 	cmp	ip, #512	; 0x200
300019a0:	a3a03000 	movge	r3, #0	; 0x0
300019a4:	b3a03001 	movlt	r3, #1	; 0x1
300019a8:	e3540000 	cmp	r4, #0	; 0x0
300019ac:	d3a03000 	movle	r3, #0	; 0x0
300019b0:	e3530000 	cmp	r3, #0	; 0x0
300019b4:	1affffd8 	bne	3000191c <alloc_smap_bit+0x60>
300019b8:	e3560000 	cmp	r6, #0	; 0x0
300019bc:	1a000007 	bne	300019e0 <alloc_smap_bit+0x124>
300019c0:	e3540000 	cmp	r4, #0	; 0x0
300019c4:	0a000003 	beq	300019d8 <alloc_smap_bit+0x11c>
300019c8:	e5973014 	ldr	r3, [r7, #20]
300019cc:	e2888001 	add	r8, r8, #1	; 0x1
300019d0:	e1530008 	cmp	r3, r8
300019d4:	caffffc4 	bgt	300018ec <alloc_smap_bit+0x30>
300019d8:	e1a00006 	mov	r0, r6
300019dc:	e8bd87f0 	ldmia	sp!, {r4, r5, r6, r7, r8, r9, sl, pc}
300019e0:	e1a0100a 	mov	r1, sl
300019e4:	e3a02001 	mov	r2, #1	; 0x1
300019e8:	e59f0014 	ldr	r0, [pc, #20]	; 30001a04 <.text+0x1a04>
300019ec:	eb000425 	bl	30002a88 <sd_write_sector>
300019f0:	e31000ff 	tst	r0, #255	; 0xff
300019f4:	059f0014 	ldreq	r0, [pc, #20]	; 30001a10 <.text+0x1a10>
300019f8:	159f0014 	ldrne	r0, [pc, #20]	; 30001a14 <.text+0x1a14>
300019fc:	eb000763 	bl	30003790 <printk>
30001a00:	eaffffee 	b	300019c0 <alloc_smap_bit+0x104>
30001a04:	3000be64 	andcc	fp, r0, r4, ror #28
30001a08:	30005740 	andcc	r5, r0, r0, asr #14
30001a0c:	30005760 	andcc	r5, r0, r0, ror #14
30001a10:	30005780 	andcc	r5, r0, r0, lsl #15
30001a14:	300057a0 	andcc	r5, r0, r0, lsr #15

30001a18 <new_inode>:
30001a18:	e92d40f0 	stmdb	sp!, {r4, r5, r6, r7, lr}
30001a1c:	e1a05002 	mov	r5, r2
30001a20:	e1a07001 	mov	r7, r1
30001a24:	e1a06000 	mov	r6, r0
30001a28:	ebfffebd 	bl	30001524 <get_inode>
30001a2c:	e3a03002 	mov	r3, #2	; 0x2
30001a30:	e5803000 	str	r3, [r0]
30001a34:	e3a03b02 	mov	r3, #2048	; 0x800
30001a38:	e3a02000 	mov	r2, #0	; 0x0
30001a3c:	e1a04000 	mov	r4, r0
30001a40:	e580300c 	str	r3, [r0, #12]
30001a44:	e3a03001 	mov	r3, #1	; 0x1
30001a48:	e9800024 	stmib	r0, {r2, r5}
30001a4c:	e5806020 	str	r6, [r0, #32]
30001a50:	e5803024 	str	r3, [r0, #36]
30001a54:	e5807028 	str	r7, [r0, #40]
30001a58:	ebffff0e 	bl	30001698 <sync_inode>
30001a5c:	e1a00004 	mov	r0, r4
30001a60:	e8bd80f0 	ldmia	sp!, {r4, r5, r6, r7, pc}

30001a64 <new_dir_entry>:
30001a64:	e92d4ff0 	stmdb	sp!, {r4, r5, r6, r7, r8, r9, sl, fp, lr}
30001a68:	e1a09000 	mov	r9, r0
30001a6c:	e3a06000 	mov	r6, #0	; 0x0
30001a70:	e1a04006 	mov	r4, r6
30001a74:	e1a07006 	mov	r7, r6
30001a78:	e5903004 	ldr	r3, [r0, #4]
30001a7c:	e2830c02 	add	r0, r3, #512	; 0x200
30001a80:	e1a0cfc0 	mov	ip, r0, asr #31
30001a84:	e0800bac 	add	r0, r0, ip, lsr #23
30001a88:	e1a0b4c0 	mov	fp, r0, asr #9
30001a8c:	e599a008 	ldr	sl, [r9, #8]
30001a90:	e24dd008 	sub	sp, sp, #8	; 0x8
30001a94:	e156000b 	cmp	r6, fp
30001a98:	e58d1004 	str	r1, [sp, #4]
30001a9c:	e1a05223 	mov	r5, r3, lsr #4
30001aa0:	a1a0800a 	movge	r8, sl
30001aa4:	e58d2000 	str	r2, [sp]
30001aa8:	ba000014 	blt	30001b00 <new_dir_entry+0x9c>
30001aac:	e5993004 	ldr	r3, [r9, #4]
30001ab0:	e2833010 	add	r3, r3, #16	; 0x10
30001ab4:	e5893004 	str	r3, [r9, #4]
30001ab8:	e1a0600e 	mov	r6, lr
30001abc:	e59d3004 	ldr	r3, [sp, #4]
30001ac0:	e4863004 	str	r3, [r6], #4
30001ac4:	e59d1000 	ldr	r1, [sp]
30001ac8:	e1a00006 	mov	r0, r6
30001acc:	eb00077e 	bl	300038cc <strcpy>
30001ad0:	e1a01008 	mov	r1, r8
30001ad4:	e3a02001 	mov	r2, #1	; 0x1
30001ad8:	e59f00a8 	ldr	r0, [pc, #168]	; 30001b88 <.text+0x1b88>
30001adc:	eb0003e9 	bl	30002a88 <sd_write_sector>
30001ae0:	e31000ff 	tst	r0, #255	; 0xff
30001ae4:	059f00a0 	ldreq	r0, [pc, #160]	; 30001b8c <.text+0x1b8c>
30001ae8:	159f00a0 	ldrne	r0, [pc, #160]	; 30001b90 <.text+0x1b90>
30001aec:	eb000727 	bl	30003790 <printk>
30001af0:	e1a00009 	mov	r0, r9
30001af4:	e28dd008 	add	sp, sp, #8	; 0x8
30001af8:	e8bd4ff0 	ldmia	sp!, {r4, r5, r6, r7, r8, r9, sl, fp, lr}
30001afc:	eafffee5 	b	30001698 <sync_inode>
30001b00:	e08a8007 	add	r8, sl, r7
30001b04:	e59f007c 	ldr	r0, [pc, #124]	; 30001b88 <.text+0x1b88>
30001b08:	e1a01008 	mov	r1, r8
30001b0c:	e3a02001 	mov	r2, #1	; 0x1
30001b10:	eb000380 	bl	30002918 <sd_read_sector>
30001b14:	e31000ff 	tst	r0, #255	; 0xff
30001b18:	059f0074 	ldreq	r0, [pc, #116]	; 30001b94 <.text+0x1b94>
30001b1c:	159f0074 	ldrne	r0, [pc, #116]	; 30001b98 <.text+0x1b98>
30001b20:	eb00071a 	bl	30003790 <printk>
30001b24:	e59fe05c 	ldr	lr, [pc, #92]	; 30001b88 <.text+0x1b88>
30001b28:	e3a02000 	mov	r2, #0	; 0x0
30001b2c:	ea000005 	b	30001b48 <new_dir_entry+0xe4>
30001b30:	e59e3000 	ldr	r3, [lr]
30001b34:	e3530000 	cmp	r3, #0	; 0x0
30001b38:	0a000010 	beq	30001b80 <new_dir_entry+0x11c>
30001b3c:	e352001f 	cmp	r2, #31	; 0x1f
30001b40:	e28ee010 	add	lr, lr, #16	; 0x10
30001b44:	8a000003 	bhi	30001b58 <new_dir_entry+0xf4>
30001b48:	e2844001 	add	r4, r4, #1	; 0x1
30001b4c:	e1540005 	cmp	r4, r5
30001b50:	e2822001 	add	r2, r2, #1	; 0x1
30001b54:	dafffff5 	ble	30001b30 <new_dir_entry+0xcc>
30001b58:	e1540005 	cmp	r4, r5
30001b5c:	d3560000 	cmple	r6, #0	; 0x0
30001b60:	1a000003 	bne	30001b74 <new_dir_entry+0x110>
30001b64:	e2877001 	add	r7, r7, #1	; 0x1
30001b68:	e157000b 	cmp	r7, fp
30001b6c:	baffffe3 	blt	30001b00 <new_dir_entry+0x9c>
30001b70:	e08a8007 	add	r8, sl, r7
30001b74:	e3560000 	cmp	r6, #0	; 0x0
30001b78:	1affffcf 	bne	30001abc <new_dir_entry+0x58>
30001b7c:	eaffffca 	b	30001aac <new_dir_entry+0x48>
30001b80:	e1a0600e 	mov	r6, lr
30001b84:	eafffff3 	b	30001b58 <new_dir_entry+0xf4>
30001b88:	3000be64 	andcc	fp, r0, r4, ror #28
30001b8c:	300057c0 	andcc	r5, r0, r0, asr #15
30001b90:	300057d8 	ldrccd	r5, [r0], -r8
30001b94:	300057fc 	strccd	r5, [r0], -ip
30001b98:	30005820 	andcc	r5, r0, r0, lsr #16

30001b9c <search_file>:
30001b9c:	e92d4ff0 	stmdb	sp!, {r4, r5, r6, r7, r8, r9, sl, fp, lr}
30001ba0:	e3a06000 	mov	r6, #0	; 0x0
30001ba4:	e1a0c006 	mov	ip, r6
30001ba8:	e3a0300b 	mov	r3, #11	; 0xb
30001bac:	e24dd010 	sub	sp, sp, #16	; 0x10
30001bb0:	e28d2004 	add	r2, sp, #4	; 0x4
30001bb4:	e2533001 	subs	r3, r3, #1	; 0x1
30001bb8:	e4c2c001 	strb	ip, [r2], #1
30001bbc:	5afffffc 	bpl	30001bb4 <search_file+0x18>
30001bc0:	e28d8004 	add	r8, sp, #4	; 0x4
30001bc4:	e1a01000 	mov	r1, r0
30001bc8:	e1a0200d 	mov	r2, sp
30001bcc:	e1a00008 	mov	r0, r8
30001bd0:	ebfffee2 	bl	30001760 <strip_path>
30001bd4:	e250c000 	subs	ip, r0, #0	; 0x0
30001bd8:	1a000010 	bne	30001c20 <search_file+0x84>
30001bdc:	e5dd3004 	ldrb	r3, [sp, #4]
30001be0:	e3530000 	cmp	r3, #0	; 0x0
30001be4:	059d3000 	ldreq	r3, [sp]
30001be8:	05930028 	ldreq	r0, [r3, #40]
30001bec:	0a00000c 	beq	30001c24 <search_file+0x88>
30001bf0:	e59d0000 	ldr	r0, [sp]
30001bf4:	e5901004 	ldr	r1, [r0, #4]
30001bf8:	e2813f7f 	add	r3, r1, #508	; 0x1fc
30001bfc:	e2833003 	add	r3, r3, #3	; 0x3
30001c00:	e1a02fc3 	mov	r2, r3, asr #31
30001c04:	e0833ba2 	add	r3, r3, r2, lsr #23
30001c08:	e1a094c3 	mov	r9, r3, asr #9
30001c0c:	e15c0009 	cmp	ip, r9
30001c10:	e1a0a00c 	mov	sl, ip
30001c14:	e1a07221 	mov	r7, r1, lsr #4
30001c18:	e590b008 	ldr	fp, [r0, #8]
30001c1c:	ba000002 	blt	30001c2c <search_file+0x90>
30001c20:	e3a00000 	mov	r0, #0	; 0x0
30001c24:	e28dd010 	add	sp, sp, #16	; 0x10
30001c28:	e8bd8ff0 	ldmia	sp!, {r4, r5, r6, r7, r8, r9, sl, fp, pc}
30001c2c:	e08b100a 	add	r1, fp, sl
30001c30:	e3a02001 	mov	r2, #1	; 0x1
30001c34:	e59f0068 	ldr	r0, [pc, #104]	; 30001ca4 <.text+0x1ca4>
30001c38:	eb000336 	bl	30002918 <sd_read_sector>
30001c3c:	e31000ff 	tst	r0, #255	; 0xff
30001c40:	059f0060 	ldreq	r0, [pc, #96]	; 30001ca8 <.text+0x1ca8>
30001c44:	159f0060 	ldrne	r0, [pc, #96]	; 30001cac <.text+0x1cac>
30001c48:	eb0006d0 	bl	30003790 <printk>
30001c4c:	e59f5050 	ldr	r5, [pc, #80]	; 30001ca4 <.text+0x1ca4>
30001c50:	e3a04000 	mov	r4, #0	; 0x0
30001c54:	ea000004 	b	30001c6c <search_file+0xd0>
30001c58:	e1560007 	cmp	r6, r7
30001c5c:	e2855010 	add	r5, r5, #16	; 0x10
30001c60:	caffffee 	bgt	30001c20 <search_file+0x84>
30001c64:	e354001f 	cmp	r4, #31	; 0x1f
30001c68:	8a000009 	bhi	30001c94 <search_file+0xf8>
30001c6c:	e2851004 	add	r1, r5, #4	; 0x4
30001c70:	e1a00008 	mov	r0, r8
30001c74:	e3a0200c 	mov	r2, #12	; 0xc
30001c78:	eb000822 	bl	30003d08 <memcmp>
30001c7c:	e3500000 	cmp	r0, #0	; 0x0
30001c80:	e2844001 	add	r4, r4, #1	; 0x1
30001c84:	e2866001 	add	r6, r6, #1	; 0x1
30001c88:	1afffff2 	bne	30001c58 <search_file+0xbc>
30001c8c:	e5950000 	ldr	r0, [r5]
30001c90:	eaffffe3 	b	30001c24 <search_file+0x88>
30001c94:	e28aa001 	add	sl, sl, #1	; 0x1
30001c98:	e15a0009 	cmp	sl, r9
30001c9c:	aaffffdf 	bge	30001c20 <search_file+0x84>
30001ca0:	eaffffe1 	b	30001c2c <search_file+0x90>
30001ca4:	3000be64 	andcc	fp, r0, r4, ror #28
30001ca8:	300057f0 	strccd	r5, [r0], -r0
30001cac:	30005814 	andcc	r5, r0, r4, lsl r8

30001cb0 <create_file>:
30001cb0:	e92d4070 	stmdb	sp!, {r4, r5, r6, lr}
30001cb4:	e1a01000 	mov	r1, r0
30001cb8:	e3a04000 	mov	r4, #0	; 0x0
30001cbc:	e24dd010 	sub	sp, sp, #16	; 0x10
30001cc0:	e28d6004 	add	r6, sp, #4	; 0x4
30001cc4:	e1a0200d 	mov	r2, sp
30001cc8:	e1a00006 	mov	r0, r6
30001ccc:	ebfffea3 	bl	30001760 <strip_path>
30001cd0:	e3500000 	cmp	r0, #0	; 0x0
30001cd4:	e59f00bc 	ldr	r0, [pc, #188]	; 30001d98 <.text+0x1d98>
30001cd8:	1a00002b 	bne	30001d8c <create_file+0xdc>
30001cdc:	e59d3000 	ldr	r3, [sp]
30001ce0:	e5931000 	ldr	r1, [r3]
30001ce4:	eb0006a9 	bl	30003790 <printk>
30001ce8:	e59d3000 	ldr	r3, [sp]
30001cec:	e59f00a8 	ldr	r0, [pc, #168]	; 30001d9c <.text+0x1d9c>
30001cf0:	e5931004 	ldr	r1, [r3, #4]
30001cf4:	eb0006a5 	bl	30003790 <printk>
30001cf8:	e59d3000 	ldr	r3, [sp]
30001cfc:	e59f009c 	ldr	r0, [pc, #156]	; 30001da0 <.text+0x1da0>
30001d00:	e5931008 	ldr	r1, [r3, #8]
30001d04:	eb0006a1 	bl	30003790 <printk>
30001d08:	e59d3000 	ldr	r3, [sp]
30001d0c:	e59f0090 	ldr	r0, [pc, #144]	; 30001da4 <.text+0x1da4>
30001d10:	e593100c 	ldr	r1, [r3, #12]
30001d14:	eb00069d 	bl	30003790 <printk>
30001d18:	e59d3000 	ldr	r3, [sp]
30001d1c:	e59f0084 	ldr	r0, [pc, #132]	; 30001da8 <.text+0x1da8>
30001d20:	e5931020 	ldr	r1, [r3, #32]
30001d24:	eb000699 	bl	30003790 <printk>
30001d28:	e59d3000 	ldr	r3, [sp]
30001d2c:	e5930020 	ldr	r0, [r3, #32]
30001d30:	ebfffea7 	bl	300017d4 <alloc_imap_bit>
30001d34:	e1a01000 	mov	r1, r0
30001d38:	e1a05000 	mov	r5, r0
30001d3c:	e59f0068 	ldr	r0, [pc, #104]	; 30001dac <.text+0x1dac>
30001d40:	eb000692 	bl	30003790 <printk>
30001d44:	e59d3000 	ldr	r3, [sp]
30001d48:	e3a01b02 	mov	r1, #2048	; 0x800
30001d4c:	e5930020 	ldr	r0, [r3, #32]
30001d50:	ebfffed9 	bl	300018bc <alloc_smap_bit>
30001d54:	e1a04000 	mov	r4, r0
30001d58:	e1a01000 	mov	r1, r0
30001d5c:	e59f004c 	ldr	r0, [pc, #76]	; 30001db0 <.text+0x1db0>
30001d60:	eb00068a 	bl	30003790 <printk>
30001d64:	e59d3000 	ldr	r3, [sp]
30001d68:	e1a02004 	mov	r2, r4
30001d6c:	e1a01005 	mov	r1, r5
30001d70:	e5930020 	ldr	r0, [r3, #32]
30001d74:	ebffff27 	bl	30001a18 <new_inode>
30001d78:	e1a04000 	mov	r4, r0
30001d7c:	e1a02006 	mov	r2, r6
30001d80:	e59d0000 	ldr	r0, [sp]
30001d84:	e5941028 	ldr	r1, [r4, #40]
30001d88:	ebffff35 	bl	30001a64 <new_dir_entry>
30001d8c:	e1a00004 	mov	r0, r4
30001d90:	e28dd010 	add	sp, sp, #16	; 0x10
30001d94:	e8bd8070 	ldmia	sp!, {r4, r5, r6, pc}
30001d98:	30005838 	andcc	r5, r0, r8, lsr r8
30001d9c:	30005850 	andcc	r5, r0, r0, asr r8
30001da0:	30005868 	andcc	r5, r0, r8, ror #16
30001da4:	30005888 	andcc	r5, r0, r8, lsl #17
30001da8:	300058a8 	andcc	r5, r0, r8, lsr #17
30001dac:	300058c0 	andcc	r5, r0, r0, asr #17
30001db0:	300058d0 	ldrccd	r5, [r0], -r0

30001db4 <open>:
30001db4:	e92d45f0 	stmdb	sp!, {r4, r5, r6, r7, r8, sl, lr}
30001db8:	e1a06000 	mov	r6, r0
30001dbc:	e1a07001 	mov	r7, r1
30001dc0:	e3e0a000 	mvn	sl, #0	; 0x0
30001dc4:	e3a04000 	mov	r4, #0	; 0x0
30001dc8:	e24dd010 	sub	sp, sp, #16	; 0x10
30001dcc:	ea000002 	b	30001ddc <open+0x28>
30001dd0:	e2844001 	add	r4, r4, #1	; 0x1
30001dd4:	e354003f 	cmp	r4, #63	; 0x3f
30001dd8:	ca000007 	bgt	30001dfc <open+0x48>
30001ddc:	ebfffa9b 	bl	30000850 <get_current>
30001de0:	e0800104 	add	r0, r0, r4, lsl #2
30001de4:	e590300c 	ldr	r3, [r0, #12]
30001de8:	e3530000 	cmp	r3, #0	; 0x0
30001dec:	1afffff7 	bne	30001dd0 <open+0x1c>
30001df0:	e354003f 	cmp	r4, #63	; 0x3f
30001df4:	e1a0a004 	mov	sl, r4
30001df8:	9a000001 	bls	30001e04 <open+0x50>
30001dfc:	e59f00e0 	ldr	r0, [pc, #224]	; 30001ee4 <.text+0x1ee4>
30001e00:	eb000662 	bl	30003790 <printk>
30001e04:	e59f80dc 	ldr	r8, [pc, #220]	; 30001ee8 <.text+0x1ee8>
30001e08:	e3a04000 	mov	r4, #0	; 0x0
30001e0c:	e2882008 	add	r2, r8, #8	; 0x8
30001e10:	ea000002 	b	30001e20 <open+0x6c>
30001e14:	e2844001 	add	r4, r4, #1	; 0x1
30001e18:	e354003f 	cmp	r4, #63	; 0x3f
30001e1c:	ca000004 	bgt	30001e34 <open+0x80>
30001e20:	e492300c 	ldr	r3, [r2], #12
30001e24:	e3530000 	cmp	r3, #0	; 0x0
30001e28:	1afffff9 	bne	30001e14 <open+0x60>
30001e2c:	e354003f 	cmp	r4, #63	; 0x3f
30001e30:	da000001 	ble	30001e3c <open+0x88>
30001e34:	e59f00b0 	ldr	r0, [pc, #176]	; 30001eec <.text+0x1eec>
30001e38:	eb000654 	bl	30003790 <printk>
30001e3c:	e1a00006 	mov	r0, r6
30001e40:	ebffff55 	bl	30001b9c <search_file>
30001e44:	e3570000 	cmp	r7, #0	; 0x0
30001e48:	e1a05000 	mov	r5, r0
30001e4c:	1a000015 	bne	30001ea8 <open+0xf4>
30001e50:	e3500000 	cmp	r0, #0	; 0x0
30001e54:	1a00001e 	bne	30001ed4 <open+0x120>
30001e58:	e1a00006 	mov	r0, r6
30001e5c:	e1a01007 	mov	r1, r7
30001e60:	ebffff92 	bl	30001cb0 <create_file>
30001e64:	e3500000 	cmp	r0, #0	; 0x0
30001e68:	e1a05000 	mov	r5, r0
30001e6c:	0a00001a 	beq	30001edc <open+0x128>
30001e70:	ebfffa76 	bl	30000850 <get_current>
30001e74:	e0843084 	add	r3, r4, r4, lsl #1
30001e78:	e1a03103 	mov	r3, r3, lsl #2
30001e7c:	e0832008 	add	r2, r3, r8
30001e80:	e080010a 	add	r0, r0, sl, lsl #2
30001e84:	e7837008 	str	r7, [r3, r8]
30001e88:	e3a03000 	mov	r3, #0	; 0x0
30001e8c:	e1a0100a 	mov	r1, sl
30001e90:	e5823004 	str	r3, [r2, #4]
30001e94:	e580200c 	str	r2, [r0, #12]
30001e98:	e5825008 	str	r5, [r2, #8]
30001e9c:	e1a00001 	mov	r0, r1
30001ea0:	e28dd010 	add	sp, sp, #16	; 0x10
30001ea4:	e8bd85f0 	ldmia	sp!, {r4, r5, r6, r7, r8, sl, pc}
30001ea8:	e1a01006 	mov	r1, r6
30001eac:	e28d0004 	add	r0, sp, #4	; 0x4
30001eb0:	e1a0200d 	mov	r2, sp
30001eb4:	ebfffe29 	bl	30001760 <strip_path>
30001eb8:	e3500000 	cmp	r0, #0	; 0x0
30001ebc:	1a000006 	bne	30001edc <open+0x128>
30001ec0:	e59d3000 	ldr	r3, [sp]
30001ec4:	e1a01005 	mov	r1, r5
30001ec8:	e5930020 	ldr	r0, [r3, #32]
30001ecc:	ebfffd94 	bl	30001524 <get_inode>
30001ed0:	eaffffe3 	b	30001e64 <open+0xb0>
30001ed4:	e59f0014 	ldr	r0, [pc, #20]	; 30001ef0 <.text+0x1ef0>
30001ed8:	eb00062c 	bl	30003790 <printk>
30001edc:	e3e01000 	mvn	r1, #0	; 0x0
30001ee0:	eaffffed 	b	30001e9c <open+0xe8>
30001ee4:	300058e4 	andcc	r5, r0, r4, ror #17
30001ee8:	3000bb64 	andcc	fp, r0, r4, ror #22
30001eec:	3000590c 	andcc	r5, r0, ip, lsl #18
30001ef0:	30005924 	andcc	r5, r0, r4, lsr #18

30001ef4 <init_fs>:
30001ef4:	e92d4010 	stmdb	sp!, {r4, lr}
30001ef8:	e3a01000 	mov	r1, #0	; 0x0
30001efc:	e59f4130 	ldr	r4, [pc, #304]	; 30002034 <.text+0x2034>
30001f00:	e3a02c03 	mov	r2, #768	; 0x300
30001f04:	e59f012c 	ldr	r0, [pc, #300]	; 30002038 <.text+0x2038>
30001f08:	eb00074d 	bl	30003c44 <memset>
30001f0c:	e3a01000 	mov	r1, #0	; 0x0
30001f10:	e3a02c0b 	mov	r2, #2816	; 0xb00
30001f14:	e59f0120 	ldr	r0, [pc, #288]	; 3000203c <.text+0x203c>
30001f18:	eb000749 	bl	30003c44 <memset>
30001f1c:	e3a02e16 	mov	r2, #352	; 0x160
30001f20:	e1a00004 	mov	r0, r4
30001f24:	e3a01000 	mov	r1, #0	; 0x0
30001f28:	eb000745 	bl	30003c44 <memset>
30001f2c:	e2842e16 	add	r2, r4, #352	; 0x160
30001f30:	e1540002 	cmp	r4, r2
30001f34:	2a000004 	bcs	30001f4c <init_fs+0x58>
30001f38:	e3a03000 	mov	r3, #0	; 0x0
30001f3c:	e5843028 	str	r3, [r4, #40]
30001f40:	e284402c 	add	r4, r4, #44	; 0x2c
30001f44:	e1540002 	cmp	r4, r2
30001f48:	3afffffb 	bcc	30001f3c <init_fs+0x48>
30001f4c:	ebfffc92 	bl	3000119c <create_fs>
30001f50:	e3a00001 	mov	r0, #1	; 0x1
30001f54:	ebfffd32 	bl	30001424 <read_super_block>
30001f58:	e3a00001 	mov	r0, #1	; 0x1
30001f5c:	ebfffd5d 	bl	300014d8 <get_super_block>
30001f60:	e1a04000 	mov	r4, r0
30001f64:	e5901000 	ldr	r1, [r0]
30001f68:	e59f00d0 	ldr	r0, [pc, #208]	; 30002040 <.text+0x2040>
30001f6c:	eb000607 	bl	30003790 <printk>
30001f70:	e5941004 	ldr	r1, [r4, #4]
30001f74:	e59f00c8 	ldr	r0, [pc, #200]	; 30002044 <.text+0x2044>
30001f78:	eb000604 	bl	30003790 <printk>
30001f7c:	e5941008 	ldr	r1, [r4, #8]
30001f80:	e59f00c0 	ldr	r0, [pc, #192]	; 30002048 <.text+0x2048>
30001f84:	eb000601 	bl	30003790 <printk>
30001f88:	e594100c 	ldr	r1, [r4, #12]
30001f8c:	e59f00b8 	ldr	r0, [pc, #184]	; 3000204c <.text+0x204c>
30001f90:	eb0005fe 	bl	30003790 <printk>
30001f94:	e5941010 	ldr	r1, [r4, #16]
30001f98:	e59f00b0 	ldr	r0, [pc, #176]	; 30002050 <.text+0x2050>
30001f9c:	eb0005fb 	bl	30003790 <printk>
30001fa0:	e5941014 	ldr	r1, [r4, #20]
30001fa4:	e59f00a8 	ldr	r0, [pc, #168]	; 30002054 <.text+0x2054>
30001fa8:	eb0005f8 	bl	30003790 <printk>
30001fac:	e594101c 	ldr	r1, [r4, #28]
30001fb0:	e59f00a0 	ldr	r0, [pc, #160]	; 30002058 <.text+0x2058>
30001fb4:	eb0005f5 	bl	30003790 <printk>
30001fb8:	e5941020 	ldr	r1, [r4, #32]
30001fbc:	e59f0098 	ldr	r0, [pc, #152]	; 3000205c <.text+0x205c>
30001fc0:	eb0005f2 	bl	30003790 <printk>
30001fc4:	e5941024 	ldr	r1, [r4, #36]
30001fc8:	e59f0090 	ldr	r0, [pc, #144]	; 30002060 <.text+0x2060>
30001fcc:	eb0005ef 	bl	30003790 <printk>
30001fd0:	e5941018 	ldr	r1, [r4, #24]
30001fd4:	e59f0088 	ldr	r0, [pc, #136]	; 30002064 <.text+0x2064>
30001fd8:	eb0005ec 	bl	30003790 <printk>
30001fdc:	e3a00001 	mov	r0, #1	; 0x1
30001fe0:	e1a01000 	mov	r1, r0
30001fe4:	ebfffd4e 	bl	30001524 <get_inode>
30001fe8:	e59f4078 	ldr	r4, [pc, #120]	; 30002068 <.text+0x2068>
30001fec:	e1a03000 	mov	r3, r0
30001ff0:	e5901000 	ldr	r1, [r0]
30001ff4:	e5843000 	str	r3, [r4]
30001ff8:	e59f006c 	ldr	r0, [pc, #108]	; 3000206c <.text+0x206c>
30001ffc:	eb0005e3 	bl	30003790 <printk>
30002000:	e5943000 	ldr	r3, [r4]
30002004:	e59f0064 	ldr	r0, [pc, #100]	; 30002070 <.text+0x2070>
30002008:	e5931004 	ldr	r1, [r3, #4]
3000200c:	eb0005df 	bl	30003790 <printk>
30002010:	e5943000 	ldr	r3, [r4]
30002014:	e59f0058 	ldr	r0, [pc, #88]	; 30002074 <.text+0x2074>
30002018:	e5931008 	ldr	r1, [r3, #8]
3000201c:	eb0005db 	bl	30003790 <printk>
30002020:	e5943000 	ldr	r3, [r4]
30002024:	e59f004c 	ldr	r0, [pc, #76]	; 30002078 <.text+0x2078>
30002028:	e593100c 	ldr	r1, [r3, #12]
3000202c:	e8bd4010 	ldmia	sp!, {r4, lr}
30002030:	ea0005d6 	b	30003790 <printk>
30002034:	3000af00 	andcc	sl, r0, r0, lsl #30
30002038:	3000bb64 	andcc	fp, r0, r4, ror #22
3000203c:	3000b064 	andcc	fp, r0, r4, rrx
30002040:	30005934 	andcc	r5, r0, r4, lsr r9
30002044:	30005944 	andcc	r5, r0, r4, asr #18
30002048:	3000595c 	andcc	r5, r0, ip, asr r9
3000204c:	30005974 	andcc	r5, r0, r4, ror r9
30002050:	30005990 	mulcc	r0, r0, r9
30002054:	300059ac 	andcc	r5, r0, ip, lsr #19
30002058:	300059c8 	andcc	r5, r0, r8, asr #19
3000205c:	300059e0 	andcc	r5, r0, r0, ror #19
30002060:	300059f8 	strccd	r5, [r0], -r8
30002064:	30005a14 	andcc	r5, r0, r4, lsl sl
30002068:	3000b060 	andcc	fp, r0, r0, rrx
3000206c:	30005a30 	andcc	r5, r0, r0, lsr sl
30002070:	30005a4c 	andcc	r5, r0, ip, asr #20
30002074:	30005a68 	andcc	r5, r0, r8, ror #20
30002078:	30005a88 	andcc	r5, r0, r8, lsl #21

3000207c <close>:
3000207c:	e92d4030 	stmdb	sp!, {r4, r5, lr}
30002080:	e1a04000 	mov	r4, r0
30002084:	ebfff9f1 	bl	30000850 <get_current>
30002088:	e1a04104 	mov	r4, r4, lsl #2
3000208c:	e0840000 	add	r0, r4, r0
30002090:	e590300c 	ldr	r3, [r0, #12]
30002094:	e5930008 	ldr	r0, [r3, #8]
30002098:	ebfffd7a 	bl	30001688 <put_inode>
3000209c:	ebfff9eb 	bl	30000850 <get_current>
300020a0:	e0840000 	add	r0, r4, r0
300020a4:	e590300c 	ldr	r3, [r0, #12]
300020a8:	e3a05000 	mov	r5, #0	; 0x0
300020ac:	e5835008 	str	r5, [r3, #8]
300020b0:	ebfff9e6 	bl	30000850 <get_current>
300020b4:	e0844000 	add	r4, r4, r0
300020b8:	e1a00005 	mov	r0, r5
300020bc:	e584500c 	str	r5, [r4, #12]
300020c0:	e8bd8030 	ldmia	sp!, {r4, r5, pc}

300020c4 <phys_copy>:
300020c4:	e3a0c000 	mov	ip, #0	; 0x0
300020c8:	e15c0002 	cmp	ip, r2
300020cc:	a1a0f00e 	movge	pc, lr
300020d0:	e7d1300c 	ldrb	r3, [r1, ip]
300020d4:	e7c0300c 	strb	r3, [r0, ip]
300020d8:	e28cc001 	add	ip, ip, #1	; 0x1
300020dc:	e15c0002 	cmp	ip, r2
300020e0:	bafffffa 	blt	300020d0 <phys_copy+0xc>
300020e4:	e1a0f00e 	mov	pc, lr

300020e8 <min>:
300020e8:	e1510000 	cmp	r1, r0
300020ec:	b1a00001 	movlt	r0, r1
300020f0:	e1a0f00e 	mov	pc, lr

300020f4 <do_rdwt>:
300020f4:	e92d4ff0 	stmdb	sp!, {r4, r5, r6, r7, r8, r9, sl, fp, lr}
300020f8:	e1a05002 	mov	r5, r2
300020fc:	e1a04000 	mov	r4, r0
30002100:	e1a0b104 	mov	fp, r4, lsl #2
30002104:	e1a08005 	mov	r8, r5
30002108:	e3a09000 	mov	r9, #0	; 0x0
3000210c:	e24dd010 	sub	sp, sp, #16	; 0x10
30002110:	e58d100c 	str	r1, [sp, #12]
30002114:	e58d3008 	str	r3, [sp, #8]
30002118:	ebfff9cc 	bl	30000850 <get_current>
3000211c:	e08b0000 	add	r0, fp, r0
30002120:	e590300c 	ldr	r3, [r0, #12]
30002124:	e5933008 	ldr	r3, [r3, #8]
30002128:	e58d3004 	str	r3, [sp, #4]
3000212c:	ebfff9c7 	bl	30000850 <get_current>
30002130:	e08b0000 	add	r0, fp, r0
30002134:	e590300c 	ldr	r3, [r0, #12]
30002138:	e59d0004 	ldr	r0, [sp, #4]
3000213c:	e5902000 	ldr	r2, [r0]
30002140:	e5931004 	ldr	r1, [r3, #4]
30002144:	e5903004 	ldr	r3, [r0, #4]
30002148:	e3520001 	cmp	r2, #1	; 0x1
3000214c:	e0816003 	add	r6, r1, r3
30002150:	0a00005d 	beq	300022cc <do_rdwt+0x1d8>
30002154:	e59d1008 	ldr	r1, [sp, #8]
30002158:	e1510009 	cmp	r1, r9
3000215c:	059d2004 	ldreq	r2, [sp, #4]
30002160:	0592100c 	ldreq	r1, [r2, #12]
30002164:	11a01003 	movne	r1, r3
30002168:	01a01481 	moveq	r1, r1, lsl #9
3000216c:	e0860005 	add	r0, r6, r5
30002170:	ebffffdc 	bl	300020e8 <min>
30002174:	e59d3004 	ldr	r3, [sp, #4]
30002178:	e5934008 	ldr	r4, [r3, #8]
3000217c:	e1a03fc6 	mov	r3, r6, asr #31
30002180:	e084a4c0 	add	sl, r4, r0, asr #9
30002184:	e0863ba3 	add	r3, r6, r3, lsr #23
30002188:	e08444c6 	add	r4, r4, r6, asr #9
3000218c:	e3c33f7f 	bic	r3, r3, #508	; 0x1fc
30002190:	e064000a 	rsb	r0, r4, sl
30002194:	e3c33003 	bic	r3, r3, #3	; 0x3
30002198:	e2800001 	add	r0, r0, #1	; 0x1
3000219c:	e3a01001 	mov	r1, #1	; 0x1
300021a0:	e0635006 	rsb	r5, r3, r6
300021a4:	ebffffcf 	bl	300020e8 <min>
300021a8:	e154000a 	cmp	r4, sl
300021ac:	e1a07000 	mov	r7, r0
300021b0:	e1a06004 	mov	r6, r4
300021b4:	ca000031 	bgt	30002280 <do_rdwt+0x18c>
300021b8:	e1a00480 	mov	r0, r0, lsl #9
300021bc:	e58d0000 	str	r0, [sp]
300021c0:	ea00000f 	b	30002204 <do_rdwt+0x110>
300021c4:	e59d100c 	ldr	r1, [sp, #12]
300021c8:	e0810009 	add	r0, r1, r9
300021cc:	e59f10fc 	ldr	r1, [pc, #252]	; 300022d0 <.text+0x22d0>
300021d0:	ebffffbb 	bl	300020c4 <phys_copy>
300021d4:	ebfff99d 	bl	30000850 <get_current>
300021d8:	e08b0000 	add	r0, fp, r0
300021dc:	e590200c 	ldr	r2, [r0, #12]
300021e0:	e5923004 	ldr	r3, [r2, #4]
300021e4:	e0866007 	add	r6, r6, r7
300021e8:	e0833004 	add	r3, r3, r4
300021ec:	e156000a 	cmp	r6, sl
300021f0:	e0648008 	rsb	r8, r4, r8
300021f4:	e0899004 	add	r9, r9, r4
300021f8:	e3a05000 	mov	r5, #0	; 0x0
300021fc:	e5823004 	str	r3, [r2, #4]
30002200:	ca00001e 	bgt	30002280 <do_rdwt+0x18c>
30002204:	e59d2000 	ldr	r2, [sp]
30002208:	e1a00008 	mov	r0, r8
3000220c:	e0651002 	rsb	r1, r5, r2
30002210:	ebffffb4 	bl	300020e8 <min>
30002214:	e1a01006 	mov	r1, r6
30002218:	e1a02007 	mov	r2, r7
3000221c:	e1a04000 	mov	r4, r0
30002220:	e59f00a8 	ldr	r0, [pc, #168]	; 300022d0 <.text+0x22d0>
30002224:	eb0001bb 	bl	30002918 <sd_read_sector>
30002228:	e31000ff 	tst	r0, #255	; 0xff
3000222c:	e59f00a0 	ldr	r0, [pc, #160]	; 300022d4 <.text+0x22d4>
30002230:	159f00a0 	ldrne	r0, [pc, #160]	; 300022d8 <.text+0x22d8>
30002234:	eb000555 	bl	30003790 <printk>
30002238:	e59f3090 	ldr	r3, [pc, #144]	; 300022d0 <.text+0x22d0>
3000223c:	e0850003 	add	r0, r5, r3
30002240:	e59d3008 	ldr	r3, [sp, #8]
30002244:	e59d200c 	ldr	r2, [sp, #12]
30002248:	e3530000 	cmp	r3, #0	; 0x0
3000224c:	e0821009 	add	r1, r2, r9
30002250:	e1a02004 	mov	r2, r4
30002254:	1affffda 	bne	300021c4 <do_rdwt+0xd0>
30002258:	ebffff99 	bl	300020c4 <phys_copy>
3000225c:	e1a01006 	mov	r1, r6
30002260:	e1a02007 	mov	r2, r7
30002264:	e59f0064 	ldr	r0, [pc, #100]	; 300022d0 <.text+0x22d0>
30002268:	eb000206 	bl	30002a88 <sd_write_sector>
3000226c:	e31000ff 	tst	r0, #255	; 0xff
30002270:	e59f0064 	ldr	r0, [pc, #100]	; 300022dc <.text+0x22dc>
30002274:	159f0064 	ldrne	r0, [pc, #100]	; 300022e0 <.text+0x22e0>
30002278:	eb000544 	bl	30003790 <printk>
3000227c:	eaffffd4 	b	300021d4 <do_rdwt+0xe0>
30002280:	ebfff972 	bl	30000850 <get_current>
30002284:	e08b0000 	add	r0, fp, r0
30002288:	e590300c 	ldr	r3, [r0, #12]
3000228c:	e5931004 	ldr	r1, [r3, #4]
30002290:	e59d3004 	ldr	r3, [sp, #4]
30002294:	e5932004 	ldr	r2, [r3, #4]
30002298:	e1510002 	cmp	r1, r2
3000229c:	ca000002 	bgt	300022ac <do_rdwt+0x1b8>
300022a0:	e1a00009 	mov	r0, r9
300022a4:	e28dd010 	add	sp, sp, #16	; 0x10
300022a8:	e8bd8ff0 	ldmia	sp!, {r4, r5, r6, r7, r8, r9, sl, fp, pc}
300022ac:	ebfff967 	bl	30000850 <get_current>
300022b0:	e08b0000 	add	r0, fp, r0
300022b4:	e590300c 	ldr	r3, [r0, #12]
300022b8:	e59d0004 	ldr	r0, [sp, #4]
300022bc:	e5932004 	ldr	r2, [r3, #4]
300022c0:	e5802004 	str	r2, [r0, #4]
300022c4:	ebfffcf3 	bl	30001698 <sync_inode>
300022c8:	eafffff4 	b	300022a0 <do_rdwt+0x1ac>
300022cc:	eafffff4 	b	300022a4 <do_rdwt+0x1b0>
300022d0:	3000be64 	andcc	fp, r0, r4, ror #28
300022d4:	30005aa8 	andcc	r5, r0, r8, lsr #21
300022d8:	30005ac4 	andcc	r5, r0, r4, asr #21
300022dc:	30005ae0 	andcc	r5, r0, r0, ror #21
300022e0:	30005b04 	andcc	r5, r0, r4, lsl #22

300022e4 <write>:
300022e4:	e3a03000 	mov	r3, #0	; 0x0
300022e8:	eaffff81 	b	300020f4 <do_rdwt>

300022ec <read>:
300022ec:	e3a03001 	mov	r3, #1	; 0x1
300022f0:	eaffff7f 	b	300020f4 <do_rdwt>

300022f4 <show_dir_entry>:
300022f4:	e92d4030 	stmdb	sp!, {r4, r5, lr}
300022f8:	e59f30d8 	ldr	r3, [pc, #216]	; 300023d8 <.text+0x23d8>
300022fc:	e59f00d8 	ldr	r0, [pc, #216]	; 300023dc <.text+0x23dc>
30002300:	e59f40d4 	ldr	r4, [pc, #212]	; 300023dc <.text+0x23dc>
30002304:	e59f50d4 	ldr	r5, [pc, #212]	; 300023e0 <.text+0x23e0>
30002308:	e5932000 	ldr	r2, [r3]
3000230c:	e5921008 	ldr	r1, [r2, #8]
30002310:	e3a02001 	mov	r2, #1	; 0x1
30002314:	eb00017f 	bl	30002918 <sd_read_sector>
30002318:	e31000ff 	tst	r0, #255	; 0xff
3000231c:	059f00c0 	ldreq	r0, [pc, #192]	; 300023e4 <.text+0x23e4>
30002320:	159f00c0 	ldrne	r0, [pc, #192]	; 300023e8 <.text+0x23e8>
30002324:	eb000519 	bl	30003790 <printk>
30002328:	e59f00b0 	ldr	r0, [pc, #176]	; 300023e0 <.text+0x23e0>
3000232c:	eb0005be 	bl	30003a2c <strlen>
30002330:	e3500003 	cmp	r0, #3	; 0x3
30002334:	85d42004 	ldrhib	r2, [r4, #4]
30002338:	8a00001e 	bhi	300023b8 <show_dir_entry+0xc4>
3000233c:	e5d41004 	ldrb	r1, [r4, #4]
30002340:	e2503000 	subs	r3, r0, #0	; 0x0
30002344:	13a03001 	movne	r3, #1	; 0x1
30002348:	e3510000 	cmp	r1, #0	; 0x0
3000234c:	13a03000 	movne	r3, #0	; 0x0
30002350:	e3530000 	cmp	r3, #0	; 0x0
30002354:	e284c004 	add	ip, r4, #4	; 0x4
30002358:	0a000015 	beq	300023b4 <show_dir_entry+0xc0>
3000235c:	e5dc1001 	ldrb	r1, [ip, #1]
30002360:	e5d52001 	ldrb	r2, [r5, #1]
30002364:	e3500001 	cmp	r0, #1	; 0x1
30002368:	93a03000 	movls	r3, #0	; 0x0
3000236c:	83a03001 	movhi	r3, #1	; 0x1
30002370:	e1510002 	cmp	r1, r2
30002374:	13a03000 	movne	r3, #0	; 0x0
30002378:	e3530000 	cmp	r3, #0	; 0x0
3000237c:	e0621001 	rsb	r1, r2, r1
30002380:	0a00000b 	beq	300023b4 <show_dir_entry+0xc0>
30002384:	e5d52002 	ldrb	r2, [r5, #2]
30002388:	e5dc1002 	ldrb	r1, [ip, #2]
3000238c:	e3500002 	cmp	r0, #2	; 0x2
30002390:	93a03000 	movls	r3, #0	; 0x0
30002394:	83a03001 	movhi	r3, #1	; 0x1
30002398:	e1510002 	cmp	r1, r2
3000239c:	13a03000 	movne	r3, #0	; 0x0
300023a0:	e3530000 	cmp	r3, #0	; 0x0
300023a4:	e0621001 	rsb	r1, r2, r1
300023a8:	15d53003 	ldrneb	r3, [r5, #3]
300023ac:	15dc2003 	ldrneb	r2, [ip, #3]
300023b0:	10631002 	rsbne	r1, r3, r2
300023b4:	e1a02001 	mov	r2, r1
300023b8:	e3520000 	cmp	r2, #0	; 0x0
300023bc:	e2841004 	add	r1, r4, #4	; 0x4
300023c0:	e59f0024 	ldr	r0, [pc, #36]	; 300023ec <.text+0x23ec>
300023c4:	e2844010 	add	r4, r4, #16	; 0x10
300023c8:	0a000001 	beq	300023d4 <show_dir_entry+0xe0>
300023cc:	eb0004ef 	bl	30003790 <printk>
300023d0:	eaffffd4 	b	30002328 <show_dir_entry+0x34>
300023d4:	e8bd8030 	ldmia	sp!, {r4, r5, pc}
300023d8:	3000b060 	andcc	fp, r0, r0, rrx
300023dc:	3000be64 	andcc	fp, r0, r4, ror #28
300023e0:	30005cf4 	strccd	r5, [r0], -r4
300023e4:	30005390 	mulcc	r0, r0, r3
300023e8:	300053bc 	strcch	r5, [r0], -ip
300023ec:	300053e8 	andcc	r5, r0, r8, ror #7

300023f0 <SDI_Check_CMD_End>:
300023f0:	e3510000 	cmp	r1, #0	; 0x0
300023f4:	e92d4010 	stmdb	sp!, {r4, lr}
300023f8:	1a00000a 	bne	30002428 <SDI_Check_CMD_End+0x38>
300023fc:	e3a0345a 	mov	r3, #1509949440	; 0x5a000000
30002400:	e5932010 	ldr	r2, [r3, #16]
30002404:	e3120b02 	tst	r2, #2048	; 0x800
30002408:	0afffffc 	beq	30002400 <SDI_Check_CMD_End+0x10>
3000240c:	e3a0345a 	mov	r3, #1509949440	; 0x5a000000
30002410:	e1a01002 	mov	r1, r2
30002414:	e59f00d0 	ldr	r0, [pc, #208]	; 300024ec <.text+0x24ec>
30002418:	e5832010 	str	r2, [r3, #16]
3000241c:	eb0004db 	bl	30003790 <printk>
30002420:	e3a00001 	mov	r0, #1	; 0x1
30002424:	e8bd8010 	ldmia	sp!, {r4, pc}
30002428:	e3a0145a 	mov	r1, #1509949440	; 0x5a000000
3000242c:	e5912010 	ldr	r2, [r1, #16]
30002430:	e1a03522 	mov	r3, r2, lsr #10
30002434:	e18334a2 	orr	r3, r3, r2, lsr #9
30002438:	e3130001 	tst	r3, #1	; 0x1
3000243c:	1a000005 	bne	30002458 <SDI_Check_CMD_End+0x68>
30002440:	e1a0c001 	mov	ip, r1
30002444:	e59c2010 	ldr	r2, [ip, #16]
30002448:	e1a03522 	mov	r3, r2, lsr #10
3000244c:	e18334a2 	orr	r3, r3, r2, lsr #9
30002450:	e3130001 	tst	r3, #1	; 0x1
30002454:	0afffffa 	beq	30002444 <SDI_Check_CMD_End+0x54>
30002458:	e3500029 	cmp	r0, #41	; 0x29
3000245c:	13500009 	cmpne	r0, #9	; 0x9
30002460:	13a03000 	movne	r3, #0	; 0x0
30002464:	03a03001 	moveq	r3, #1	; 0x1
30002468:	e3500001 	cmp	r0, #1	; 0x1
3000246c:	11a04003 	movne	r4, r3
30002470:	03834001 	orreq	r4, r3, #1	; 0x1
30002474:	e3540000 	cmp	r4, #0	; 0x0
30002478:	0a00000b 	beq	300024ac <SDI_Check_CMD_End+0xbc>
3000247c:	e2023c0f 	and	r3, r2, #3840	; 0xf00
30002480:	e3530c0a 	cmp	r3, #2560	; 0xa00
30002484:	0a00000f 	beq	300024c8 <SDI_Check_CMD_End+0xd8>
30002488:	e3a0345a 	mov	r3, #1509949440	; 0x5a000000
3000248c:	e3120b01 	tst	r2, #1024	; 0x400
30002490:	e5832010 	str	r2, [r3, #16]
30002494:	0a00000b 	beq	300024c8 <SDI_Check_CMD_End+0xd8>
30002498:	e1a01000 	mov	r1, r0
3000249c:	e59f004c 	ldr	r0, [pc, #76]	; 300024f0 <.text+0x24f0>
300024a0:	eb0004ba 	bl	30003790 <printk>
300024a4:	e3a00000 	mov	r0, #0	; 0x0
300024a8:	e8bd8010 	ldmia	sp!, {r4, pc}
300024ac:	e2023c1f 	and	r3, r2, #7936	; 0x1f00
300024b0:	e3530c0a 	cmp	r3, #2560	; 0xa00
300024b4:	0a000003 	beq	300024c8 <SDI_Check_CMD_End+0xd8>
300024b8:	e3a0345a 	mov	r3, #1509949440	; 0x5a000000
300024bc:	e3120b01 	tst	r2, #1024	; 0x400
300024c0:	e5832010 	str	r2, [r3, #16]
300024c4:	1a000003 	bne	300024d8 <SDI_Check_CMD_End+0xe8>
300024c8:	e3a0345a 	mov	r3, #1509949440	; 0x5a000000
300024cc:	e3a00001 	mov	r0, #1	; 0x1
300024d0:	e5832010 	str	r2, [r3, #16]
300024d4:	e8bd8010 	ldmia	sp!, {r4, pc}
300024d8:	e1a01000 	mov	r1, r0
300024dc:	e59f000c 	ldr	r0, [pc, #12]	; 300024f0 <.text+0x24f0>
300024e0:	eb0004aa 	bl	30003790 <printk>
300024e4:	e1a00004 	mov	r0, r4
300024e8:	e8bd8010 	ldmia	sp!, {r4, pc}
300024ec:	30005c10 	andcc	r5, r0, r0, lsl ip
300024f0:	30005b28 	andcc	r5, r0, r8, lsr #22

300024f4 <CMD13>:
300024f4:	e3a03fd3 	mov	r3, #844	; 0x34c
300024f8:	e92d4010 	stmdb	sp!, {r4, lr}
300024fc:	e1a02800 	mov	r2, r0, lsl #16
30002500:	e2833001 	add	r3, r3, #1	; 0x1
30002504:	e3a0445a 	mov	r4, #1509949440	; 0x5a000000
30002508:	e3a01001 	mov	r1, #1	; 0x1
3000250c:	e3a0000d 	mov	r0, #13	; 0xd
30002510:	e5842008 	str	r2, [r4, #8]
30002514:	e584300c 	str	r3, [r4, #12]
30002518:	ebffffb4 	bl	300023f0 <SDI_Check_CMD_End>
3000251c:	e3500000 	cmp	r0, #0	; 0x0
30002520:	08bd8010 	ldmeqia	sp!, {r4, pc}
30002524:	e3a02c0a 	mov	r2, #2560	; 0xa00
30002528:	e5842010 	str	r2, [r4, #16]
3000252c:	e5943014 	ldr	r3, [r4, #20]
30002530:	e1a03803 	mov	r3, r3, lsl #16
30002534:	e1a00823 	mov	r0, r3, lsr #16
30002538:	e8bd8010 	ldmia	sp!, {r4, pc}

3000253c <CMD9>:
3000253c:	e3a03d1d 	mov	r3, #1856	; 0x740
30002540:	e92d4030 	stmdb	sp!, {r4, r5, lr}
30002544:	e1a02800 	mov	r2, r0, lsl #16
30002548:	e2833009 	add	r3, r3, #9	; 0x9
3000254c:	e3a0445a 	mov	r4, #1509949440	; 0x5a000000
30002550:	e1a05001 	mov	r5, r1
30002554:	e3a00009 	mov	r0, #9	; 0x9
30002558:	e3a01001 	mov	r1, #1	; 0x1
3000255c:	e5842008 	str	r2, [r4, #8]
30002560:	e584300c 	str	r3, [r4, #12]
30002564:	ebffffa1 	bl	300023f0 <SDI_Check_CMD_End>
30002568:	e3500000 	cmp	r0, #0	; 0x0
3000256c:	08bd8030 	ldmeqia	sp!, {r4, r5, pc}
30002570:	e5943014 	ldr	r3, [r4, #20]
30002574:	e5853000 	str	r3, [r5]
30002578:	e3a00001 	mov	r0, #1	; 0x1
3000257c:	e5943018 	ldr	r3, [r4, #24]
30002580:	e5853004 	str	r3, [r5, #4]
30002584:	e594201c 	ldr	r2, [r4, #28]
30002588:	e5852008 	str	r2, [r5, #8]
3000258c:	e5943020 	ldr	r3, [r4, #32]
30002590:	e585300c 	str	r3, [r5, #12]
30002594:	e8bd8030 	ldmia	sp!, {r4, r5, pc}

30002598 <CMD3>:
30002598:	e1a00800 	mov	r0, r0, lsl #16
3000259c:	e92d4070 	stmdb	sp!, {r4, r5, r6, lr}
300025a0:	e3a03d0d 	mov	r3, #832	; 0x340
300025a4:	e1a06820 	mov	r6, r0, lsr #16
300025a8:	e2833003 	add	r3, r3, #3	; 0x3
300025ac:	e3a0445a 	mov	r4, #1509949440	; 0x5a000000
300025b0:	e1a02806 	mov	r2, r6, lsl #16
300025b4:	e1a05001 	mov	r5, r1
300025b8:	e3a00003 	mov	r0, #3	; 0x3
300025bc:	e3a01001 	mov	r1, #1	; 0x1
300025c0:	e5842008 	str	r2, [r4, #8]
300025c4:	e584300c 	str	r3, [r4, #12]
300025c8:	ebffff88 	bl	300023f0 <SDI_Check_CMD_End>
300025cc:	e3500000 	cmp	r0, #0	; 0x0
300025d0:	08bd8070 	ldmeqia	sp!, {r4, r5, r6, pc}
300025d4:	e3a03c0a 	mov	r3, #2560	; 0xa00
300025d8:	e5843010 	str	r3, [r4, #16]
300025dc:	e3560000 	cmp	r6, #0	; 0x0
300025e0:	12433c0a 	subne	r3, r3, #2560	; 0xa00
300025e4:	13a02001 	movne	r2, #1	; 0x1
300025e8:	05943014 	ldreq	r3, [r4, #20]
300025ec:	01a03823 	moveq	r3, r3, lsr #16
300025f0:	01a02443 	moveq	r2, r3, asr #8
300025f4:	15c53001 	strneb	r3, [r5, #1]
300025f8:	05c53000 	streqb	r3, [r5]
300025fc:	e3a0345a 	mov	r3, #1509949440	; 0x5a000000
30002600:	15c52000 	strneb	r2, [r5]
30002604:	05c52001 	streqb	r2, [r5, #1]
30002608:	e5932014 	ldr	r2, [r3, #20]
3000260c:	e3120001 	tst	r2, #1	; 0x1
30002610:	13a00000 	movne	r0, #0	; 0x0
30002614:	03a00001 	moveq	r0, #1	; 0x1
30002618:	e8bd8070 	ldmia	sp!, {r4, r5, r6, pc}

3000261c <CMD2>:
3000261c:	e3a03d1d 	mov	r3, #1856	; 0x740
30002620:	e92d4030 	stmdb	sp!, {r4, r5, lr}
30002624:	e2833002 	add	r3, r3, #2	; 0x2
30002628:	e3a0545a 	mov	r5, #1509949440	; 0x5a000000
3000262c:	e3a02000 	mov	r2, #0	; 0x0
30002630:	e1a04000 	mov	r4, r0
30002634:	e3a01001 	mov	r1, #1	; 0x1
30002638:	e3a00002 	mov	r0, #2	; 0x2
3000263c:	e5852008 	str	r2, [r5, #8]
30002640:	e585300c 	str	r3, [r5, #12]
30002644:	ebffff69 	bl	300023f0 <SDI_Check_CMD_End>
30002648:	e3500000 	cmp	r0, #0	; 0x0
3000264c:	08bd8030 	ldmeqia	sp!, {r4, r5, pc}
30002650:	e5953014 	ldr	r3, [r5, #20]
30002654:	e1a03c23 	mov	r3, r3, lsr #24
30002658:	e5c43000 	strb	r3, [r4]
3000265c:	e3a00001 	mov	r0, #1	; 0x1
30002660:	e5953014 	ldr	r3, [r5, #20]
30002664:	e1a03823 	mov	r3, r3, lsr #16
30002668:	e5c43001 	strb	r3, [r4, #1]
3000266c:	e5952014 	ldr	r2, [r5, #20]
30002670:	e1a02422 	mov	r2, r2, lsr #8
30002674:	e5c42002 	strb	r2, [r4, #2]
30002678:	e5951014 	ldr	r1, [r5, #20]
3000267c:	e5c41003 	strb	r1, [r4, #3]
30002680:	e5953018 	ldr	r3, [r5, #24]
30002684:	e1a03c23 	mov	r3, r3, lsr #24
30002688:	e5c43004 	strb	r3, [r4, #4]
3000268c:	e5952018 	ldr	r2, [r5, #24]
30002690:	e1a02822 	mov	r2, r2, lsr #16
30002694:	e5c42005 	strb	r2, [r4, #5]
30002698:	e5953018 	ldr	r3, [r5, #24]
3000269c:	e1a03423 	mov	r3, r3, lsr #8
300026a0:	e5c43006 	strb	r3, [r4, #6]
300026a4:	e5952018 	ldr	r2, [r5, #24]
300026a8:	e5c42007 	strb	r2, [r4, #7]
300026ac:	e595301c 	ldr	r3, [r5, #28]
300026b0:	e1a03c23 	mov	r3, r3, lsr #24
300026b4:	e5c43008 	strb	r3, [r4, #8]
300026b8:	e595201c 	ldr	r2, [r5, #28]
300026bc:	e1a02822 	mov	r2, r2, lsr #16
300026c0:	e5c42009 	strb	r2, [r4, #9]
300026c4:	e595301c 	ldr	r3, [r5, #28]
300026c8:	e1a03423 	mov	r3, r3, lsr #8
300026cc:	e5c4300a 	strb	r3, [r4, #10]
300026d0:	e595201c 	ldr	r2, [r5, #28]
300026d4:	e5c4200b 	strb	r2, [r4, #11]
300026d8:	e5953020 	ldr	r3, [r5, #32]
300026dc:	e1a03c23 	mov	r3, r3, lsr #24
300026e0:	e5c4300c 	strb	r3, [r4, #12]
300026e4:	e5952020 	ldr	r2, [r5, #32]
300026e8:	e1a02822 	mov	r2, r2, lsr #16
300026ec:	e5c4200d 	strb	r2, [r4, #13]
300026f0:	e5953020 	ldr	r3, [r5, #32]
300026f4:	e1a03423 	mov	r3, r3, lsr #8
300026f8:	e5c4300e 	strb	r3, [r4, #14]
300026fc:	e3a03c0a 	mov	r3, #2560	; 0xa00
30002700:	e5952020 	ldr	r2, [r5, #32]
30002704:	e5c4200f 	strb	r2, [r4, #15]
30002708:	e5853010 	str	r3, [r5, #16]
3000270c:	e8bd8030 	ldmia	sp!, {r4, r5, pc}

30002710 <CMD0>:
30002710:	e92d4010 	stmdb	sp!, {r4, lr}
30002714:	e3a02000 	mov	r2, #0	; 0x0
30002718:	e3a0445a 	mov	r4, #1509949440	; 0x5a000000
3000271c:	e3a03d05 	mov	r3, #320	; 0x140
30002720:	e1a00002 	mov	r0, r2
30002724:	e1a01002 	mov	r1, r2
30002728:	e5842008 	str	r2, [r4, #8]
3000272c:	e584300c 	str	r3, [r4, #12]
30002730:	ebffff2e 	bl	300023f0 <SDI_Check_CMD_End>
30002734:	e3a03b02 	mov	r3, #2048	; 0x800
30002738:	e5843010 	str	r3, [r4, #16]
3000273c:	e8bd8010 	ldmia	sp!, {r4, pc}

30002740 <CMD1>:
30002740:	e3a00001 	mov	r0, #1	; 0x1
30002744:	e3a038ff 	mov	r3, #16711680	; 0xff0000
30002748:	e3a02d0d 	mov	r2, #832	; 0x340
3000274c:	e92d4010 	stmdb	sp!, {r4, lr}
30002750:	e0822000 	add	r2, r2, r0
30002754:	e2833902 	add	r3, r3, #32768	; 0x8000
30002758:	e3a0445a 	mov	r4, #1509949440	; 0x5a000000
3000275c:	e1a01000 	mov	r1, r0
30002760:	e5843008 	str	r3, [r4, #8]
30002764:	e584200c 	str	r2, [r4, #12]
30002768:	ebffff20 	bl	300023f0 <SDI_Check_CMD_End>
3000276c:	e3a02902 	mov	r2, #32768	; 0x8000
30002770:	e3500000 	cmp	r0, #0	; 0x0
30002774:	e28220ff 	add	r2, r2, #255	; 0xff
30002778:	08bd8010 	ldmeqia	sp!, {r4, pc}
3000277c:	e5943014 	ldr	r3, [r4, #20]
30002780:	e1520823 	cmp	r2, r3, lsr #16
30002784:	e3a00001 	mov	r0, #1	; 0x1
30002788:	03a03c0a 	moveq	r3, #2560	; 0xa00
3000278c:	13a00000 	movne	r0, #0	; 0x0
30002790:	05843010 	streq	r3, [r4, #16]
30002794:	e8bd8010 	ldmia	sp!, {r4, pc}

30002798 <SDI_MMC_OCR>:
30002798:	e92d4010 	stmdb	sp!, {r4, lr}
3000279c:	e3a04000 	mov	r4, #0	; 0x0
300027a0:	ebffffe6 	bl	30002740 <CMD1>
300027a4:	e21000ff 	ands	r0, r0, #255	; 0xff
300027a8:	e2844001 	add	r4, r4, #1	; 0x1
300027ac:	1a000002 	bne	300027bc <SDI_MMC_OCR+0x24>
300027b0:	e3540009 	cmp	r4, #9	; 0x9
300027b4:	dafffff9 	ble	300027a0 <SDI_MMC_OCR+0x8>
300027b8:	e8bd8010 	ldmia	sp!, {r4, pc}
300027bc:	e3a00001 	mov	r0, #1	; 0x1
300027c0:	e8bd8010 	ldmia	sp!, {r4, pc}

300027c4 <CMD7>:
300027c4:	e1a02000 	mov	r2, r0
300027c8:	e1a03801 	mov	r3, r1, lsl #16
300027cc:	e92d4030 	stmdb	sp!, {r4, r5, lr}
300027d0:	e3a0cf51 	mov	ip, #324	; 0x144
300027d4:	e3a0efd1 	mov	lr, #836	; 0x344
300027d8:	e3a0445a 	mov	r4, #1509949440	; 0x5a000000
300027dc:	e21220ff 	ands	r2, r2, #255	; 0xff
300027e0:	e1a03823 	mov	r3, r3, lsr #16
300027e4:	e28ee003 	add	lr, lr, #3	; 0x3
300027e8:	e28cc003 	add	ip, ip, #3	; 0x3
300027ec:	e1a05004 	mov	r5, r4
300027f0:	e3a00007 	mov	r0, #7	; 0x7
300027f4:	e1a01002 	mov	r1, r2
300027f8:	e1a03803 	mov	r3, r3, lsl #16
300027fc:	0a00000c 	beq	30002834 <CMD7+0x70>
30002800:	e5843008 	str	r3, [r4, #8]
30002804:	e3a01001 	mov	r1, #1	; 0x1
30002808:	e584e00c 	str	lr, [r4, #12]
3000280c:	ebfffef7 	bl	300023f0 <SDI_Check_CMD_End>
30002810:	e3500000 	cmp	r0, #0	; 0x0
30002814:	08bd8030 	ldmeqia	sp!, {r4, r5, pc}
30002818:	e3a03c0a 	mov	r3, #2560	; 0xa00
3000281c:	e5843010 	str	r3, [r4, #16]
30002820:	e5942014 	ldr	r2, [r4, #20]
30002824:	e3120001 	tst	r2, #1	; 0x1
30002828:	13a00000 	movne	r0, #0	; 0x0
3000282c:	03a00001 	moveq	r0, #1	; 0x1
30002830:	e8bd8030 	ldmia	sp!, {r4, r5, pc}
30002834:	e5842008 	str	r2, [r4, #8]
30002838:	e3a00007 	mov	r0, #7	; 0x7
3000283c:	e584c00c 	str	ip, [r4, #12]
30002840:	ebfffeea 	bl	300023f0 <SDI_Check_CMD_End>
30002844:	e3500000 	cmp	r0, #0	; 0x0
30002848:	13a03b02 	movne	r3, #2048	; 0x800
3000284c:	13a00001 	movne	r0, #1	; 0x1
30002850:	15843010 	strne	r3, [r4, #16]
30002854:	e8bd8030 	ldmia	sp!, {r4, r5, pc}

30002858 <select_or_deselect>:
30002858:	e1a01801 	mov	r1, r1, lsl #16
3000285c:	e52de004 	str	lr, [sp, #-4]!
30002860:	e1a01821 	mov	r1, r1, lsr #16
30002864:	e20000ff 	and	r0, r0, #255	; 0xff
30002868:	ebffffd5 	bl	300027c4 <CMD7>
3000286c:	e21000ff 	ands	r0, r0, #255	; 0xff
30002870:	13a00001 	movne	r0, #1	; 0x1
30002874:	e49df004 	ldr	pc, [sp], #4

30002878 <CMD12>:
30002878:	e92d4010 	stmdb	sp!, {r4, lr}
3000287c:	e3a03000 	mov	r3, #0	; 0x0
30002880:	e3a0445a 	mov	r4, #1509949440	; 0x5a000000
30002884:	e3a02fd3 	mov	r2, #844	; 0x34c
30002888:	e3a01001 	mov	r1, #1	; 0x1
3000288c:	e3a0000c 	mov	r0, #12	; 0xc
30002890:	e5843008 	str	r3, [r4, #8]
30002894:	e584200c 	str	r2, [r4, #12]
30002898:	ebfffed4 	bl	300023f0 <SDI_Check_CMD_End>
3000289c:	e3500000 	cmp	r0, #0	; 0x0
300028a0:	13a03c0a 	movne	r3, #2560	; 0xa00
300028a4:	13a00001 	movne	r0, #1	; 0x1
300028a8:	15843010 	strne	r3, [r4, #16]
300028ac:	e8bd8010 	ldmia	sp!, {r4, pc}

300028b0 <CMD17>:
300028b0:	e3a03e35 	mov	r3, #848	; 0x350
300028b4:	e1a0c000 	mov	ip, r0
300028b8:	e3a0245a 	mov	r2, #1509949440	; 0x5a000000
300028bc:	e2833001 	add	r3, r3, #1	; 0x1
300028c0:	e52de004 	str	lr, [sp, #-4]!
300028c4:	e3a01001 	mov	r1, #1	; 0x1
300028c8:	e3a00011 	mov	r0, #17	; 0x11
300028cc:	e582c008 	str	ip, [r2, #8]
300028d0:	e582300c 	str	r3, [r2, #12]
300028d4:	ebfffec5 	bl	300023f0 <SDI_Check_CMD_End>
300028d8:	e2500000 	subs	r0, r0, #0	; 0x0
300028dc:	13a00001 	movne	r0, #1	; 0x1
300028e0:	e49df004 	ldr	pc, [sp], #4

300028e4 <CMD18>:
300028e4:	e3a03e35 	mov	r3, #848	; 0x350
300028e8:	e1a0c000 	mov	ip, r0
300028ec:	e3a0245a 	mov	r2, #1509949440	; 0x5a000000
300028f0:	e2833002 	add	r3, r3, #2	; 0x2
300028f4:	e52de004 	str	lr, [sp, #-4]!
300028f8:	e3a01001 	mov	r1, #1	; 0x1
300028fc:	e3a00012 	mov	r0, #18	; 0x12
30002900:	e582c008 	str	ip, [r2, #8]
30002904:	e582300c 	str	r3, [r2, #12]
30002908:	ebfffeb8 	bl	300023f0 <SDI_Check_CMD_End>
3000290c:	e2500000 	subs	r0, r0, #0	; 0x0
30002910:	13a00001 	movne	r0, #1	; 0x1
30002914:	e49df004 	ldr	pc, [sp], #4

30002918 <sd_read_sector>:
30002918:	e3e034ff 	mvn	r3, #-16777216	; 0xff000000
3000291c:	e92d45f0 	stmdb	sp!, {r4, r5, r6, r7, r8, sl, lr}
30002920:	e2433502 	sub	r3, r3, #8388608	; 0x800000
30002924:	e3a0445a 	mov	r4, #1509949440	; 0x5a000000
30002928:	e59fc0f0 	ldr	ip, [pc, #240]	; 30002a20 <.text+0x2a20>
3000292c:	e1a06004 	mov	r6, r4
30002930:	e1a0a002 	mov	sl, r2
30002934:	e1a08000 	mov	r8, r0
30002938:	e1a05001 	mov	r5, r1
3000293c:	e3a07000 	mov	r7, #0	; 0x0
30002940:	e5843024 	str	r3, [r4, #36]
30002944:	e3a03c02 	mov	r3, #512	; 0x200
30002948:	e5dce000 	ldrb	lr, [ip]
3000294c:	e5843028 	str	r3, [r4, #40]
30002950:	e182e80e 	orr	lr, r2, lr, lsl #16
30002954:	e38ee88a 	orr	lr, lr, #9043968	; 0x8a0000
30002958:	e38eea06 	orr	lr, lr, #24576	; 0x6000
3000295c:	e5943038 	ldr	r3, [r4, #56]
30002960:	e3833801 	orr	r3, r3, #65536	; 0x10000
30002964:	e5843038 	str	r3, [r4, #56]
30002968:	e584e02c 	str	lr, [r4, #44]
3000296c:	e3a04c1e 	mov	r4, #7680	; 0x1e00
30002970:	ea000000 	b	30002978 <sd_read_sector+0x60>
30002974:	e5864010 	str	r4, [r6, #16]
30002978:	e1a00005 	mov	r0, r5
3000297c:	ebffffd8 	bl	300028e4 <CMD18>
30002980:	e20000ff 	and	r0, r0, #255	; 0xff
30002984:	e3500001 	cmp	r0, #1	; 0x1
30002988:	1afffff9 	bne	30002974 <sd_read_sector+0x5c>
3000298c:	e1a0238a 	mov	r2, sl, lsl #7
30002990:	e3520000 	cmp	r2, #0	; 0x0
30002994:	9a00000a 	bls	300029c4 <sd_read_sector+0xac>
30002998:	e3a0145a 	mov	r1, #1509949440	; 0x5a000000
3000299c:	e5913034 	ldr	r3, [r1, #52]
300029a0:	e3130060 	tst	r3, #96	; 0x60
300029a4:	1a000019 	bne	30002a10 <sd_read_sector+0xf8>
300029a8:	e5913038 	ldr	r3, [r1, #56]
300029ac:	e3130a01 	tst	r3, #4096	; 0x1000
300029b0:	15913040 	ldrne	r3, [r1, #64]
300029b4:	12877001 	addne	r7, r7, #1	; 0x1
300029b8:	14883004 	strne	r3, [r8], #4
300029bc:	e1520007 	cmp	r2, r7
300029c0:	8afffff5 	bhi	3000299c <sd_read_sector+0x84>
300029c4:	e3a0145a 	mov	r1, #1509949440	; 0x5a000000
300029c8:	e591302c 	ldr	r3, [r1, #44]
300029cc:	e3c33a07 	bic	r3, r3, #28672	; 0x7000
300029d0:	e581302c 	str	r3, [r1, #44]
300029d4:	e3a02010 	mov	r2, #16	; 0x10
300029d8:	e1a05001 	mov	r5, r1
300029dc:	e3a04c1e 	mov	r4, #7680	; 0x1e00
300029e0:	e5913038 	ldr	r3, [r1, #56]
300029e4:	e2033c02 	and	r3, r3, #512	; 0x200
300029e8:	e5813038 	str	r3, [r1, #56]
300029ec:	e5812034 	str	r2, [r1, #52]
300029f0:	ea000000 	b	300029f8 <sd_read_sector+0xe0>
300029f4:	e5854010 	str	r4, [r5, #16]
300029f8:	ebffff9e 	bl	30002878 <CMD12>
300029fc:	e20000ff 	and	r0, r0, #255	; 0xff
30002a00:	e3500001 	cmp	r0, #1	; 0x1
30002a04:	1afffffa 	bne	300029f4 <sd_read_sector+0xdc>
30002a08:	e2400001 	sub	r0, r0, #1	; 0x1
30002a0c:	e8bd85f0 	ldmia	sp!, {r4, r5, r6, r7, r8, sl, pc}
30002a10:	e3a03060 	mov	r3, #96	; 0x60
30002a14:	e3a000ff 	mov	r0, #255	; 0xff
30002a18:	e5813034 	str	r3, [r1, #52]
30002a1c:	e8bd85f0 	ldmia	sp!, {r4, r5, r6, r7, r8, sl, pc}
30002a20:	3000c464 	andcc	ip, r0, r4, ror #8

30002a24 <CMD24>:
30002a24:	e1a0c000 	mov	ip, r0
30002a28:	e3a0245a 	mov	r2, #1509949440	; 0x5a000000
30002a2c:	e3a03fd6 	mov	r3, #856	; 0x358
30002a30:	e52de004 	str	lr, [sp, #-4]!
30002a34:	e3a01001 	mov	r1, #1	; 0x1
30002a38:	e3a00018 	mov	r0, #24	; 0x18
30002a3c:	e582c008 	str	ip, [r2, #8]
30002a40:	e582300c 	str	r3, [r2, #12]
30002a44:	ebfffe69 	bl	300023f0 <SDI_Check_CMD_End>
30002a48:	e2500000 	subs	r0, r0, #0	; 0x0
30002a4c:	13a00001 	movne	r0, #1	; 0x1
30002a50:	e49df004 	ldr	pc, [sp], #4

30002a54 <CMD25>:
30002a54:	e3a03fd6 	mov	r3, #856	; 0x358
30002a58:	e1a0c000 	mov	ip, r0
30002a5c:	e3a0245a 	mov	r2, #1509949440	; 0x5a000000
30002a60:	e2833001 	add	r3, r3, #1	; 0x1
30002a64:	e52de004 	str	lr, [sp, #-4]!
30002a68:	e3a01001 	mov	r1, #1	; 0x1
30002a6c:	e3a00019 	mov	r0, #25	; 0x19
30002a70:	e582c008 	str	ip, [r2, #8]
30002a74:	e582300c 	str	r3, [r2, #12]
30002a78:	ebfffe5c 	bl	300023f0 <SDI_Check_CMD_End>
30002a7c:	e2500000 	subs	r0, r0, #0	; 0x0
30002a80:	13a00001 	movne	r0, #1	; 0x1
30002a84:	e49df004 	ldr	pc, [sp], #4

30002a88 <sd_write_sector>:
30002a88:	e92d45f0 	stmdb	sp!, {r4, r5, r6, r7, r8, sl, lr}
30002a8c:	e3e034ff 	mvn	r3, #-16777216	; 0xff000000
30002a90:	e3a0c45a 	mov	ip, #1509949440	; 0x5a000000
30002a94:	e2433502 	sub	r3, r3, #8388608	; 0x800000
30002a98:	e1a0a002 	mov	sl, r2
30002a9c:	e3822893 	orr	r2, r2, #9633792	; 0x930000
30002aa0:	e3822a07 	orr	r2, r2, #28672	; 0x7000
30002aa4:	e1a08000 	mov	r8, r0
30002aa8:	e1a04001 	mov	r4, r1
30002aac:	e1a0700c 	mov	r7, ip
30002ab0:	e3a05000 	mov	r5, #0	; 0x0
30002ab4:	e58c3024 	str	r3, [ip, #36]
30002ab8:	e3a03c02 	mov	r3, #512	; 0x200
30002abc:	e3a06c1e 	mov	r6, #7680	; 0x1e00
30002ac0:	e58c3028 	str	r3, [ip, #40]
30002ac4:	e59c3038 	ldr	r3, [ip, #56]
30002ac8:	e3833801 	orr	r3, r3, #65536	; 0x10000
30002acc:	e58c3038 	str	r3, [ip, #56]
30002ad0:	e58c202c 	str	r2, [ip, #44]
30002ad4:	ea000000 	b	30002adc <sd_write_sector+0x54>
30002ad8:	e5876010 	str	r6, [r7, #16]
30002adc:	e1a00004 	mov	r0, r4
30002ae0:	ebffffdb 	bl	30002a54 <CMD25>
30002ae4:	e20000ff 	and	r0, r0, #255	; 0xff
30002ae8:	e3500001 	cmp	r0, #1	; 0x1
30002aec:	1afffff9 	bne	30002ad8 <sd_write_sector+0x50>
30002af0:	e1a0238a 	mov	r2, sl, lsl #7
30002af4:	e1550002 	cmp	r5, r2
30002af8:	2a000009 	bcs	30002b24 <sd_write_sector+0x9c>
30002afc:	e3a0045a 	mov	r0, #1509949440	; 0x5a000000
30002b00:	e5901038 	ldr	r1, [r0, #56]
30002b04:	e2853001 	add	r3, r5, #1	; 0x1
30002b08:	e3110a02 	tst	r1, #8192	; 0x2000
30002b0c:	e1a01803 	mov	r1, r3, lsl #16
30002b10:	14983004 	ldrne	r3, [r8], #4
30002b14:	11a05821 	movne	r5, r1, lsr #16
30002b18:	15803040 	strne	r3, [r0, #64]
30002b1c:	e1550002 	cmp	r5, r2
30002b20:	3afffff6 	bcc	30002b00 <sd_write_sector+0x78>
30002b24:	e3a0245a 	mov	r2, #1509949440	; 0x5a000000
30002b28:	e592302c 	ldr	r3, [r2, #44]
30002b2c:	e3c33a07 	bic	r3, r3, #28672	; 0x7000
30002b30:	e582302c 	str	r3, [r2, #44]
30002b34:	e1a05002 	mov	r5, r2
30002b38:	e3a04c1e 	mov	r4, #7680	; 0x1e00
30002b3c:	ea000000 	b	30002b44 <sd_write_sector+0xbc>
30002b40:	e5854010 	str	r4, [r5, #16]
30002b44:	ebffff4b 	bl	30002878 <CMD12>
30002b48:	e20000ff 	and	r0, r0, #255	; 0xff
30002b4c:	e3500001 	cmp	r0, #1	; 0x1
30002b50:	1afffffa 	bne	30002b40 <sd_write_sector+0xb8>
30002b54:	e3a0245a 	mov	r2, #1509949440	; 0x5a000000
30002b58:	e5921034 	ldr	r1, [r2, #52]
30002b5c:	e2110002 	ands	r0, r1, #2	; 0x2
30002b60:	1afffffc 	bne	30002b58 <sd_write_sector+0xd0>
30002b64:	e3a030f4 	mov	r3, #244	; 0xf4
30002b68:	e5821034 	str	r1, [r2, #52]
30002b6c:	e5823034 	str	r3, [r2, #52]
30002b70:	e8bd85f0 	ldmia	sp!, {r4, r5, r6, r7, r8, sl, pc}

30002b74 <CMD55>:
30002b74:	e3a03fdd 	mov	r3, #884	; 0x374
30002b78:	e92d4010 	stmdb	sp!, {r4, lr}
30002b7c:	e2833003 	add	r3, r3, #3	; 0x3
30002b80:	e1a02800 	mov	r2, r0, lsl #16
30002b84:	e3a0445a 	mov	r4, #1509949440	; 0x5a000000
30002b88:	e3a01001 	mov	r1, #1	; 0x1
30002b8c:	e3a00037 	mov	r0, #55	; 0x37
30002b90:	e5842008 	str	r2, [r4, #8]
30002b94:	e584300c 	str	r3, [r4, #12]
30002b98:	ebfffe14 	bl	300023f0 <SDI_Check_CMD_End>
30002b9c:	e3500000 	cmp	r0, #0	; 0x0
30002ba0:	13a03c0a 	movne	r3, #2560	; 0xa00
30002ba4:	13a00001 	movne	r0, #1	; 0x1
30002ba8:	15843010 	strne	r3, [r4, #16]
30002bac:	e8bd8010 	ldmia	sp!, {r4, pc}

30002bb0 <ACMD6>:
30002bb0:	e1a01801 	mov	r1, r1, lsl #16
30002bb4:	e92d4030 	stmdb	sp!, {r4, r5, lr}
30002bb8:	e1a04000 	mov	r4, r0
30002bbc:	e1a00821 	mov	r0, r1, lsr #16
30002bc0:	ebffffeb 	bl	30002b74 <CMD55>
30002bc4:	e1a03000 	mov	r3, r0
30002bc8:	e20440ff 	and	r4, r4, #255	; 0xff
30002bcc:	e3a02fd1 	mov	r2, #836	; 0x344
30002bd0:	e21330ff 	ands	r3, r3, #255	; 0xff
30002bd4:	e2822002 	add	r2, r2, #2	; 0x2
30002bd8:	e1a04084 	mov	r4, r4, lsl #1
30002bdc:	e3a0545a 	mov	r5, #1509949440	; 0x5a000000
30002be0:	e3a01001 	mov	r1, #1	; 0x1
30002be4:	e3a00006 	mov	r0, #6	; 0x6
30002be8:	1a000001 	bne	30002bf4 <ACMD6+0x44>
30002bec:	e1a00003 	mov	r0, r3
30002bf0:	e8bd8030 	ldmia	sp!, {r4, r5, pc}
30002bf4:	e5854008 	str	r4, [r5, #8]
30002bf8:	e585200c 	str	r2, [r5, #12]
30002bfc:	ebfffdfb 	bl	300023f0 <SDI_Check_CMD_End>
30002c00:	e3500000 	cmp	r0, #0	; 0x0
30002c04:	e1a03000 	mov	r3, r0
30002c08:	13a03c0a 	movne	r3, #2560	; 0xa00
30002c0c:	15853010 	strne	r3, [r5, #16]
30002c10:	13a03001 	movne	r3, #1	; 0x1
30002c14:	e1a00003 	mov	r0, r3
30002c18:	e8bd8030 	ldmia	sp!, {r4, r5, pc}

30002c1c <Set_bus_Width>:
30002c1c:	e20000ff 	and	r0, r0, #255	; 0xff
30002c20:	e1a02802 	mov	r2, r2, lsl #16
30002c24:	e20110ff 	and	r1, r1, #255	; 0xff
30002c28:	e3500001 	cmp	r0, #1	; 0x1
30002c2c:	e1a02822 	mov	r2, r2, lsr #16
30002c30:	e1a00001 	mov	r0, r1
30002c34:	e52de004 	str	lr, [sp, #-4]!
30002c38:	e3a03000 	mov	r3, #0	; 0x0
30002c3c:	e1a01002 	mov	r1, r2
30002c40:	0a000001 	beq	30002c4c <Set_bus_Width+0x30>
30002c44:	ebffffd9 	bl	30002bb0 <ACMD6>
30002c48:	e20030ff 	and	r3, r0, #255	; 0xff
30002c4c:	e1a00003 	mov	r0, r3
30002c50:	e49df004 	ldr	pc, [sp], #4

30002c54 <ACMD41>:
30002c54:	e1a00800 	mov	r0, r0, lsl #16
30002c58:	e92d4010 	stmdb	sp!, {r4, lr}
30002c5c:	e1a00820 	mov	r0, r0, lsr #16
30002c60:	ebffffc3 	bl	30002b74 <CMD55>
30002c64:	e3a02101 	mov	r2, #1073741824	; 0x40000000
30002c68:	e1a03000 	mov	r3, r0
30002c6c:	e28228ff 	add	r2, r2, #16711680	; 0xff0000
30002c70:	e3a0cfda 	mov	ip, #872	; 0x368
30002c74:	e21330ff 	ands	r3, r3, #255	; 0xff
30002c78:	e2822902 	add	r2, r2, #32768	; 0x8000
30002c7c:	e28cc001 	add	ip, ip, #1	; 0x1
30002c80:	e3a0445a 	mov	r4, #1509949440	; 0x5a000000
30002c84:	e3a01001 	mov	r1, #1	; 0x1
30002c88:	e3a00029 	mov	r0, #41	; 0x29
30002c8c:	e1a0e003 	mov	lr, r3
30002c90:	1a000001 	bne	30002c9c <ACMD41+0x48>
30002c94:	e1a0000e 	mov	r0, lr
30002c98:	e8bd8010 	ldmia	sp!, {r4, pc}
30002c9c:	e5842008 	str	r2, [r4, #8]
30002ca0:	e584c00c 	str	ip, [r4, #12]
30002ca4:	ebfffdd1 	bl	300023f0 <SDI_Check_CMD_End>
30002ca8:	e3a02103 	mov	r2, #-1073741824	; 0xc0000000
30002cac:	e3500000 	cmp	r0, #0	; 0x0
30002cb0:	e28228ff 	add	r2, r2, #16711680	; 0xff0000
30002cb4:	03a03c0a 	moveq	r3, #2560	; 0xa00
30002cb8:	e2822902 	add	r2, r2, #32768	; 0x8000
30002cbc:	05843010 	streq	r3, [r4, #16]
30002cc0:	01a0e000 	moveq	lr, r0
30002cc4:	0afffff2 	beq	30002c94 <ACMD41+0x40>
30002cc8:	e5943014 	ldr	r3, [r4, #20]
30002ccc:	e3a01102 	mov	r1, #-2147483648	; 0x80000000
30002cd0:	e28118ff 	add	r1, r1, #16711680	; 0xff0000
30002cd4:	e1530002 	cmp	r3, r2
30002cd8:	e2811902 	add	r1, r1, #32768	; 0x8000
30002cdc:	e3a00002 	mov	r0, #2	; 0x2
30002ce0:	0a000003 	beq	30002cf4 <ACMD41+0xa0>
30002ce4:	e5943014 	ldr	r3, [r4, #20]
30002ce8:	e1530001 	cmp	r3, r1
30002cec:	13a00000 	movne	r0, #0	; 0x0
30002cf0:	03a00001 	moveq	r0, #1	; 0x1
30002cf4:	e1a0e000 	mov	lr, r0
30002cf8:	e3a02c0a 	mov	r2, #2560	; 0xa00
30002cfc:	e3a0345a 	mov	r3, #1509949440	; 0x5a000000
30002d00:	e1a0000e 	mov	r0, lr
30002d04:	e5832010 	str	r2, [r3, #16]
30002d08:	e8bd8010 	ldmia	sp!, {r4, pc}

30002d0c <file_delay>:
30002d0c:	e2500001 	subs	r0, r0, #1	; 0x1
30002d10:	2afffffd 	bcs	30002d0c <file_delay>
30002d14:	e1a0f00e 	mov	pc, lr

30002d18 <SDI_SD_OCR>:
30002d18:	e92d40f0 	stmdb	sp!, {r4, r5, r6, r7, lr}
30002d1c:	e59f6054 	ldr	r6, [pc, #84]	; 30002d78 <.text+0x2d78>
30002d20:	e3a03000 	mov	r3, #0	; 0x0
30002d24:	e1a04003 	mov	r4, r3
30002d28:	e2867002 	add	r7, r6, #2	; 0x2
30002d2c:	e5c63002 	strb	r3, [r6, #2]
30002d30:	e5c63003 	strb	r3, [r6, #3]
30002d34:	ea000002 	b	30002d44 <SDI_SD_OCR+0x2c>
30002d38:	ebfffff3 	bl	30002d0c <file_delay>
30002d3c:	e3540031 	cmp	r4, #49	; 0x31
30002d40:	ca00000a 	bgt	30002d70 <SDI_SD_OCR+0x58>
30002d44:	e5d73001 	ldrb	r3, [r7, #1]
30002d48:	e5d60002 	ldrb	r0, [r6, #2]
30002d4c:	e1800403 	orr	r0, r0, r3, lsl #8
30002d50:	ebffffbf 	bl	30002c54 <ACMD41>
30002d54:	e1a03000 	mov	r3, r0
30002d58:	e21350ff 	ands	r5, r3, #255	; 0xff
30002d5c:	e2844001 	add	r4, r4, #1	; 0x1
30002d60:	e3a00ffa 	mov	r0, #1000	; 0x3e8
30002d64:	0afffff3 	beq	30002d38 <SDI_SD_OCR+0x20>
30002d68:	e3a00001 	mov	r0, #1	; 0x1
30002d6c:	e8bd80f0 	ldmia	sp!, {r4, r5, r6, r7, pc}
30002d70:	e1a00005 	mov	r0, r5
30002d74:	e8bd80f0 	ldmia	sp!, {r4, r5, r6, r7, pc}
30002d78:	3000c464 	andcc	ip, r0, r4, ror #8

30002d7c <sdi_init>:
30002d7c:	e92d41f0 	stmdb	sp!, {r4, r5, r6, r7, r8, lr}
30002d80:	e59f0334 	ldr	r0, [pc, #820]	; 300030bc <.text+0x30bc>
30002d84:	eb000281 	bl	30003790 <printk>
30002d88:	e3a03caa 	mov	r3, #43520	; 0xaa00
30002d8c:	e28330aa 	add	r3, r3, #170	; 0xaa
30002d90:	e3a02b3e 	mov	r2, #63488	; 0xf800
30002d94:	e3a0c456 	mov	ip, #1442840576	; 0x56000000
30002d98:	e282203f 	add	r2, r2, #63	; 0x3f
30002d9c:	e1833803 	orr	r3, r3, r3, lsl #16
30002da0:	e3a00cff 	mov	r0, #65280	; 0xff00
30002da4:	e58c2048 	str	r2, [ip, #72]
30002da8:	e3a0145a 	mov	r1, #1509949440	; 0x5a000000
30002dac:	e28000ff 	add	r0, r0, #255	; 0xff
30002db0:	e3a02011 	mov	r2, #17	; 0x11
30002db4:	e3e0e4ff 	mvn	lr, #-16777216	; 0xff000000
30002db8:	e58c3040 	str	r3, [ip, #64]
30002dbc:	e3a0307c 	mov	r3, #124	; 0x7c
30002dc0:	e24ee502 	sub	lr, lr, #8388608	; 0x800000
30002dc4:	e3a04eff 	mov	r4, #4080	; 0xff0
30002dc8:	e284400f 	add	r4, r4, #15	; 0xf
30002dcc:	e5810010 	str	r0, [r1, #16]
30002dd0:	e28cc4aa 	add	ip, ip, #-1442840576	; 0xaa000000
30002dd4:	e5810034 	str	r0, [r1, #52]
30002dd8:	e5813004 	str	r3, [r1, #4]
30002ddc:	e5812000 	str	r2, [r1]
30002de0:	e3a02c02 	mov	r2, #512	; 0x200
30002de4:	e5913038 	ldr	r3, [r1, #56]
30002de8:	e3833801 	orr	r3, r3, #65536	; 0x10000
30002dec:	e5813038 	str	r3, [r1, #56]
30002df0:	e5812028 	str	r2, [r1, #40]
30002df4:	e581e024 	str	lr, [r1, #36]
30002df8:	e28cc001 	add	ip, ip, #1	; 0x1
30002dfc:	e15c0004 	cmp	ip, r4
30002e00:	dafffffc 	ble	30002df8 <sdi_init+0x7c>
30002e04:	ebfffe41 	bl	30002710 <CMD0>
30002e08:	ebfffe62 	bl	30002798 <SDI_MMC_OCR>
30002e0c:	e3500000 	cmp	r0, #0	; 0x0
30002e10:	159f72a8 	ldrne	r7, [pc, #680]	; 300030c0 <.text+0x30c0>
30002e14:	059f72a4 	ldreq	r7, [pc, #676]	; 300030c0 <.text+0x30c0>
30002e18:	13a03001 	movne	r3, #1	; 0x1
30002e1c:	15c73001 	strneb	r3, [r7, #1]
30002e20:	05c70001 	streqb	r0, [r7, #1]
30002e24:	ebffffbb 	bl	30002d18 <SDI_SD_OCR>
30002e28:	e2504000 	subs	r4, r0, #0	; 0x0
30002e2c:	059f0290 	ldreq	r0, [pc, #656]	; 300030c4 <.text+0x30c4>
30002e30:	0a000007 	beq	30002e54 <sdi_init+0xd8>
30002e34:	e59f628c 	ldr	r6, [pc, #652]	; 300030c8 <.text+0x30c8>
30002e38:	e59f028c 	ldr	r0, [pc, #652]	; 300030cc <.text+0x30cc>
30002e3c:	eb000253 	bl	30003790 <printk>
30002e40:	e1a00006 	mov	r0, r6
30002e44:	ebfffdf4 	bl	3000261c <CMD2>
30002e48:	e21040ff 	ands	r4, r0, #255	; 0xff
30002e4c:	1a000003 	bne	30002e60 <sdi_init+0xe4>
30002e50:	e59f0278 	ldr	r0, [pc, #632]	; 300030d0 <.text+0x30d0>
30002e54:	eb00024d 	bl	30003790 <printk>
30002e58:	e1a00004 	mov	r0, r4
30002e5c:	e8bd81f0 	ldmia	sp!, {r4, r5, r6, r7, r8, pc}
30002e60:	e59f026c 	ldr	r0, [pc, #620]	; 300030d4 <.text+0x30d4>
30002e64:	eb000249 	bl	30003790 <printk>
30002e68:	e5d71004 	ldrb	r1, [r7, #4]
30002e6c:	e59f0264 	ldr	r0, [pc, #612]	; 300030d8 <.text+0x30d8>
30002e70:	eb000246 	bl	30003790 <printk>
30002e74:	e5d73005 	ldrb	r3, [r7, #5]
30002e78:	e5d71006 	ldrb	r1, [r7, #6]
30002e7c:	e59f0258 	ldr	r0, [pc, #600]	; 300030dc <.text+0x30dc>
30002e80:	e0811403 	add	r1, r1, r3, lsl #8
30002e84:	eb000241 	bl	30003790 <printk>
30002e88:	e2861003 	add	r1, r6, #3	; 0x3
30002e8c:	e59f024c 	ldr	r0, [pc, #588]	; 300030e0 <.text+0x30e0>
30002e90:	eb00023e 	bl	30003790 <printk>
30002e94:	e5d72012 	ldrb	r2, [r7, #18]
30002e98:	e5d71011 	ldrb	r1, [r7, #17]
30002e9c:	e1a03222 	mov	r3, r2, lsr #4
30002ea0:	e201100f 	and	r1, r1, #15	; 0xf
30002ea4:	e0831201 	add	r1, r3, r1, lsl #4
30002ea8:	e202200f 	and	r2, r2, #15	; 0xf
30002eac:	e59f0230 	ldr	r0, [pc, #560]	; 300030e4 <.text+0x30e4>
30002eb0:	eb000236 	bl	30003790 <printk>
30002eb4:	e5d75001 	ldrb	r5, [r7, #1]
30002eb8:	e3550001 	cmp	r5, #1	; 0x1
30002ebc:	0a000024 	beq	30002f54 <sdi_init+0x1d8>
30002ec0:	e2468002 	sub	r8, r6, #2	; 0x2
30002ec4:	e3a00000 	mov	r0, #0	; 0x0
30002ec8:	e1a01008 	mov	r1, r8
30002ecc:	ebfffdb1 	bl	30002598 <CMD3>
30002ed0:	e21040ff 	ands	r4, r0, #255	; 0xff
30002ed4:	059f020c 	ldreq	r0, [pc, #524]	; 300030e8 <.text+0x30e8>
30002ed8:	0affffdd 	beq	30002e54 <sdi_init+0xd8>
30002edc:	e3a03001 	mov	r3, #1	; 0x1
30002ee0:	e3a0445a 	mov	r4, #1509949440	; 0x5a000000
30002ee4:	e5843004 	str	r3, [r4, #4]
30002ee8:	e59f01fc 	ldr	r0, [pc, #508]	; 300030ec <.text+0x30ec>
30002eec:	e5562002 	ldrb	r2, [r6, #-2]
30002ef0:	e5d81001 	ldrb	r1, [r8, #1]
30002ef4:	e1821401 	orr	r1, r2, r1, lsl #8
30002ef8:	eb000224 	bl	30003790 <printk>
30002efc:	e5941004 	ldr	r1, [r4, #4]
30002f00:	e3a007be 	mov	r0, #49807360	; 0x2f80000
30002f04:	e2800a2f 	add	r0, r0, #192512	; 0x2f000
30002f08:	e2811001 	add	r1, r1, #1	; 0x1
30002f0c:	e2800080 	add	r0, r0, #128	; 0x80
30002f10:	eb00011e 	bl	30003390 <__udivsi3>
30002f14:	e1a01000 	mov	r1, r0
30002f18:	e59f01d0 	ldr	r0, [pc, #464]	; 300030f0 <.text+0x30f0>
30002f1c:	eb00021b 	bl	30003790 <printk>
30002f20:	e59f4198 	ldr	r4, [pc, #408]	; 300030c0 <.text+0x30c0>
30002f24:	e5d73002 	ldrb	r3, [r7, #2]
30002f28:	e5d80001 	ldrb	r0, [r8, #1]
30002f2c:	e2841014 	add	r1, r4, #20	; 0x14
30002f30:	e1830400 	orr	r0, r3, r0, lsl #8
30002f34:	ebfffd80 	bl	3000253c <CMD9>
30002f38:	e21050ff 	ands	r5, r0, #255	; 0xff
30002f3c:	e2846002 	add	r6, r4, #2	; 0x2
30002f40:	1a00001e 	bne	30002fc0 <sdi_init+0x244>
30002f44:	e59f01a8 	ldr	r0, [pc, #424]	; 300030f4 <.text+0x30f4>
30002f48:	eb000210 	bl	30003790 <printk>
30002f4c:	e1a00005 	mov	r0, r5
30002f50:	e8bd81f0 	ldmia	sp!, {r4, r5, r6, r7, r8, pc}
30002f54:	e2468002 	sub	r8, r6, #2	; 0x2
30002f58:	e1a00005 	mov	r0, r5
30002f5c:	e1a01008 	mov	r1, r8
30002f60:	ebfffd8c 	bl	30002598 <CMD3>
30002f64:	e21040ff 	ands	r4, r0, #255	; 0xff
30002f68:	059f0188 	ldreq	r0, [pc, #392]	; 300030f8 <.text+0x30f8>
30002f6c:	0affffb8 	beq	30002e54 <sdi_init+0xd8>
30002f70:	e3a02002 	mov	r2, #2	; 0x2
30002f74:	e3a0445a 	mov	r4, #1509949440	; 0x5a000000
30002f78:	e3a03000 	mov	r3, #0	; 0x0
30002f7c:	e5842004 	str	r2, [r4, #4]
30002f80:	e59f0174 	ldr	r0, [pc, #372]	; 300030fc <.text+0x30fc>
30002f84:	e5c75002 	strb	r5, [r7, #2]
30002f88:	e5c73003 	strb	r3, [r7, #3]
30002f8c:	e5563002 	ldrb	r3, [r6, #-2]
30002f90:	e5d81001 	ldrb	r1, [r8, #1]
30002f94:	e1831401 	orr	r1, r3, r1, lsl #8
30002f98:	eb0001fc 	bl	30003790 <printk>
30002f9c:	e5941004 	ldr	r1, [r4, #4]
30002fa0:	e3a007be 	mov	r0, #49807360	; 0x2f80000
30002fa4:	e2800a2f 	add	r0, r0, #192512	; 0x2f000
30002fa8:	e2811001 	add	r1, r1, #1	; 0x1
30002fac:	e2800080 	add	r0, r0, #128	; 0x80
30002fb0:	eb0000f6 	bl	30003390 <__udivsi3>
30002fb4:	e1a01000 	mov	r1, r0
30002fb8:	e59f0140 	ldr	r0, [pc, #320]	; 30003100 <.text+0x3100>
30002fbc:	eaffffd6 	b	30002f1c <sdi_init+0x1a0>
30002fc0:	e594101c 	ldr	r1, [r4, #28]
30002fc4:	e5942018 	ldr	r2, [r4, #24]
30002fc8:	e1a03821 	mov	r3, r1, lsr #16
30002fcc:	e202203f 	and	r2, r2, #63	; 0x3f
30002fd0:	e0833802 	add	r3, r3, r2, lsl #16
30002fd4:	e1a01321 	mov	r1, r1, lsr #6
30002fd8:	e1a03483 	mov	r3, r3, lsl #9
30002fdc:	e201107f 	and	r1, r1, #127	; 0x7f
30002fe0:	e2833c02 	add	r3, r3, #512	; 0x200
30002fe4:	e2811001 	add	r1, r1, #1	; 0x1
30002fe8:	e5843028 	str	r3, [r4, #40]
30002fec:	e59f0110 	ldr	r0, [pc, #272]	; 30003104 <.text+0x3104>
30002ff0:	e5841024 	str	r1, [r4, #36]
30002ff4:	eb0001e5 	bl	30003790 <printk>
30002ff8:	e5941014 	ldr	r1, [r4, #20]
30002ffc:	e59f0104 	ldr	r0, [pc, #260]	; 30003108 <.text+0x3108>
30003000:	eb0001e2 	bl	30003790 <printk>
30003004:	e5941018 	ldr	r1, [r4, #24]
30003008:	e59f00f8 	ldr	r0, [pc, #248]	; 30003108 <.text+0x3108>
3000300c:	eb0001df 	bl	30003790 <printk>
30003010:	e594101c 	ldr	r1, [r4, #28]
30003014:	e59f00ec 	ldr	r0, [pc, #236]	; 30003108 <.text+0x3108>
30003018:	eb0001dc 	bl	30003790 <printk>
3000301c:	e5941020 	ldr	r1, [r4, #32]
30003020:	e59f00e0 	ldr	r0, [pc, #224]	; 30003108 <.text+0x3108>
30003024:	eb0001d9 	bl	30003790 <printk>
30003028:	e5941028 	ldr	r1, [r4, #40]
3000302c:	e59f00d8 	ldr	r0, [pc, #216]	; 3000310c <.text+0x310c>
30003030:	e1a02521 	mov	r2, r1, lsr #10
30003034:	eb0001d5 	bl	30003790 <printk>
30003038:	e5d43002 	ldrb	r3, [r4, #2]
3000303c:	e5d61001 	ldrb	r1, [r6, #1]
30003040:	e3a00001 	mov	r0, #1	; 0x1
30003044:	e1831401 	orr	r1, r3, r1, lsl #8
30003048:	ebfffe02 	bl	30002858 <select_or_deselect>
3000304c:	e21040ff 	ands	r4, r0, #255	; 0xff
30003050:	059f00b8 	ldreq	r0, [pc, #184]	; 30003110 <.text+0x3110>
30003054:	0affff7e 	beq	30002e54 <sdi_init+0xd8>
30003058:	e59f00b4 	ldr	r0, [pc, #180]	; 30003114 <.text+0x3114>
3000305c:	eb0001cb 	bl	30003790 <printk>
30003060:	e5d70002 	ldrb	r0, [r7, #2]
30003064:	e5d83001 	ldrb	r3, [r8, #1]
30003068:	e1800403 	orr	r0, r0, r3, lsl #8
3000306c:	ebfffd20 	bl	300024f4 <CMD13>
30003070:	e2000c1e 	and	r0, r0, #7680	; 0x1e00
30003074:	e3500b02 	cmp	r0, #2048	; 0x800
30003078:	1afffff8 	bne	30003060 <sdi_init+0x2e4>
3000307c:	e5d83001 	ldrb	r3, [r8, #1]
30003080:	e5d72002 	ldrb	r2, [r7, #2]
30003084:	e3a01001 	mov	r1, #1	; 0x1
30003088:	e1822403 	orr	r2, r2, r3, lsl #8
3000308c:	e5d70001 	ldrb	r0, [r7, #1]
30003090:	ebfffee1 	bl	30002c1c <Set_bus_Width>
30003094:	e21020ff 	ands	r2, r0, #255	; 0xff
30003098:	059f3020 	ldreq	r3, [pc, #32]	; 300030c0 <.text+0x30c0>
3000309c:	13a03001 	movne	r3, #1	; 0x1
300030a0:	15c73000 	strneb	r3, [r7]
300030a4:	159f006c 	ldrne	r0, [pc, #108]	; 30003118 <.text+0x3118>
300030a8:	059f006c 	ldreq	r0, [pc, #108]	; 3000311c <.text+0x311c>
300030ac:	05c32000 	streqb	r2, [r3]
300030b0:	eb0001b6 	bl	30003790 <printk>
300030b4:	e3a00001 	mov	r0, #1	; 0x1
300030b8:	e8bd81f0 	ldmia	sp!, {r4, r5, r6, r7, r8, pc}
300030bc:	30005b3c 	andcc	r5, r0, ip, lsr fp
300030c0:	3000c464 	andcc	ip, r0, r4, ror #8
300030c4:	30005b50 	andcc	r5, r0, r0, asr fp
300030c8:	3000c468 	andcc	ip, r0, r8, ror #8
300030cc:	30005b78 	andcc	r5, r0, r8, ror fp
300030d0:	30005b88 	andcc	r5, r0, r8, lsl #23
300030d4:	30005ba4 	andcc	r5, r0, r4, lsr #23
300030d8:	30005bac 	andcc	r5, r0, ip, lsr #23
300030dc:	30005bb8 	strcch	r5, [r0], -r8
300030e0:	30005bc4 	andcc	r5, r0, r4, asr #23
300030e4:	30005bd4 	ldrccd	r5, [r0], -r4
300030e8:	30005be8 	andcc	r5, r0, r8, ror #23
300030ec:	30005c00 	andcc	r5, r0, r0, lsl #24
300030f0:	30005c18 	andcc	r5, r0, r8, lsl ip
300030f4:	30005c30 	andcc	r5, r0, r0, lsr ip
300030f8:	30005c48 	andcc	r5, r0, r8, asr #24
300030fc:	30005c60 	andcc	r5, r0, r0, ror #24
30003100:	30005c78 	andcc	r5, r0, r8, ror ip
30003104:	30005c90 	mulcc	r0, r0, ip
30003108:	30005ca4 	andcc	r5, r0, r4, lsr #25
3000310c:	30005cb0 	strcch	r5, [r0], -r0
30003110:	30005cc8 	andcc	r5, r0, r8, asr #25
30003114:	30005ce0 	andcc	r5, r0, r0, ror #25
30003118:	30005cf8 	strccd	r5, [r0], -r8
3000311c:	30005d0c 	andcc	r5, r0, ip, lsl #26

30003120 <sdi_test>:
30003120:	e92d4070 	stmdb	sp!, {r4, r5, r6, lr}
30003124:	ebffff14 	bl	30002d7c <sdi_init>
30003128:	e31000ff 	tst	r0, #255	; 0xff
3000312c:	0a000038 	beq	30003214 <sdi_test+0xf4>
30003130:	e59f00fc 	ldr	r0, [pc, #252]	; 30003234 <.text+0x3234>
30003134:	eb000195 	bl	30003790 <printk>
30003138:	e59f00f8 	ldr	r0, [pc, #248]	; 30003238 <.text+0x3238>
3000313c:	e3a04000 	mov	r4, #0	; 0x0
30003140:	ea000004 	b	30003158 <sdi_test+0x38>
30003144:	e59f30f0 	ldr	r3, [pc, #240]	; 3000323c <.text+0x323c>
30003148:	e3a02000 	mov	r2, #0	; 0x0
3000314c:	e7c32004 	strb	r2, [r3, r4]
30003150:	e7c01004 	strb	r1, [r0, r4]
30003154:	e1a04001 	mov	r4, r1
30003158:	e3540c02 	cmp	r4, #512	; 0x200
3000315c:	e2841001 	add	r1, r4, #1	; 0x1
30003160:	3afffff7 	bcc	30003144 <sdi_test+0x24>
30003164:	e59f00cc 	ldr	r0, [pc, #204]	; 30003238 <.text+0x3238>
30003168:	e3a01000 	mov	r1, #0	; 0x0
3000316c:	e3a02001 	mov	r2, #1	; 0x1
30003170:	ebfffe44 	bl	30002a88 <sd_write_sector>
30003174:	e31000ff 	tst	r0, #255	; 0xff
30003178:	0a000029 	beq	30003224 <sdi_test+0x104>
3000317c:	e59f60b8 	ldr	r6, [pc, #184]	; 3000323c <.text+0x323c>
30003180:	e59f00b8 	ldr	r0, [pc, #184]	; 30003240 <.text+0x3240>
30003184:	eb000181 	bl	30003790 <printk>
30003188:	e1a00006 	mov	r0, r6
3000318c:	e3a01000 	mov	r1, #0	; 0x0
30003190:	e3a02001 	mov	r2, #1	; 0x1
30003194:	ebfffddf 	bl	30002918 <sd_read_sector>
30003198:	e31000ff 	tst	r0, #255	; 0xff
3000319c:	0a000022 	beq	3000322c <sdi_test+0x10c>
300031a0:	e59f009c 	ldr	r0, [pc, #156]	; 30003244 <.text+0x3244>
300031a4:	eb000179 	bl	30003790 <printk>
300031a8:	e59f0098 	ldr	r0, [pc, #152]	; 30003248 <.text+0x3248>
300031ac:	eb000177 	bl	30003790 <printk>
300031b0:	e3a04000 	mov	r4, #0	; 0x0
300031b4:	ea00000e 	b	300031f4 <sdi_test+0xd4>
300031b8:	e7d61004 	ldrb	r1, [r6, r4]
300031bc:	e59f0088 	ldr	r0, [pc, #136]	; 3000324c <.text+0x324c>
300031c0:	eb000172 	bl	30003790 <printk>
300031c4:	e5d51001 	ldrb	r1, [r5, #1]
300031c8:	e59f007c 	ldr	r0, [pc, #124]	; 3000324c <.text+0x324c>
300031cc:	eb00016f 	bl	30003790 <printk>
300031d0:	e5d51002 	ldrb	r1, [r5, #2]
300031d4:	e59f0070 	ldr	r0, [pc, #112]	; 3000324c <.text+0x324c>
300031d8:	eb00016c 	bl	30003790 <printk>
300031dc:	e2844004 	add	r4, r4, #4	; 0x4
300031e0:	e5d51003 	ldrb	r1, [r5, #3]
300031e4:	e59f0060 	ldr	r0, [pc, #96]	; 3000324c <.text+0x324c>
300031e8:	eb000168 	bl	30003790 <printk>
300031ec:	e3540c02 	cmp	r4, #512	; 0x200
300031f0:	2a000005 	bcs	3000320c <sdi_test+0xec>
300031f4:	e314001f 	tst	r4, #31	; 0x1f
300031f8:	e0845006 	add	r5, r4, r6
300031fc:	e59f004c 	ldr	r0, [pc, #76]	; 30003250 <.text+0x3250>
30003200:	0affffec 	beq	300031b8 <sdi_test+0x98>
30003204:	eb000161 	bl	30003790 <printk>
30003208:	eaffffea 	b	300031b8 <sdi_test+0x98>
3000320c:	e3a00000 	mov	r0, #0	; 0x0
30003210:	e8bd8070 	ldmia	sp!, {r4, r5, r6, pc}
30003214:	e59f0038 	ldr	r0, [pc, #56]	; 30003254 <.text+0x3254>
30003218:	eb00015c 	bl	30003790 <printk>
3000321c:	e3e00000 	mvn	r0, #0	; 0x0
30003220:	e8bd8070 	ldmia	sp!, {r4, r5, r6, pc}
30003224:	e59f002c 	ldr	r0, [pc, #44]	; 30003258 <.text+0x3258>
30003228:	eafffffa 	b	30003218 <sdi_test+0xf8>
3000322c:	e59f0028 	ldr	r0, [pc, #40]	; 3000325c <.text+0x325c>
30003230:	eafffff8 	b	30003218 <sdi_test+0xf8>
30003234:	30005d20 	andcc	r5, r0, r0, lsr #26
30003238:	3000c264 	andcc	ip, r0, r4, ror #4
3000323c:	3000c064 	andcc	ip, r0, r4, rrx
30003240:	30005d34 	andcc	r5, r0, r4, lsr sp
30003244:	30005d50 	andcc	r5, r0, r0, asr sp
30003248:	30005d6c 	andcc	r5, r0, ip, ror #26
3000324c:	30005d7c 	andcc	r5, r0, ip, ror sp
30003250:	30005cdc 	ldrccd	r5, [r0], -ip
30003254:	30005d80 	andcc	r5, r0, r0, lsl #27
30003258:	30005d98 	mulcc	r0, r8, sp
3000325c:	30005db8 	strcch	r5, [r0], -r8

30003260 <__do_div64>:
30003260:	e254c001 	subs	ip, r4, #1	; 0x1
30003264:	9a00003f 	bls	30003368 <__do_div64+0x108>
30003268:	e11c0004 	tst	ip, r4
3000326c:	0a000028 	beq	30003314 <__do_div64+0xb4>
30003270:	e1510004 	cmp	r1, r4
30003274:	e3a03000 	mov	r3, #0	; 0x0
30003278:	3a00000c 	bcc	300032b0 <__do_div64+0x50>
3000327c:	e1a02004 	mov	r2, r4
30003280:	e3a0c001 	mov	ip, #1	; 0x1
30003284:	e3520102 	cmp	r2, #-2147483648	; 0x80000000
30003288:	31520001 	cmpcc	r2, r1
3000328c:	31a02082 	movcc	r2, r2, lsl #1
30003290:	31a0c08c 	movcc	ip, ip, lsl #1
30003294:	3afffffa 	bcc	30003284 <__do_div64+0x24>
30003298:	e1510002 	cmp	r1, r2
3000329c:	2183300c 	orrcs	r3, r3, ip
300032a0:	20511002 	subcss	r1, r1, r2
300032a4:	11b0c0ac 	movnes	ip, ip, lsr #1
300032a8:	e1a020a2 	mov	r2, r2, lsr #1
300032ac:	1afffff9 	bne	30003298 <__do_div64+0x38>
300032b0:	e3510000 	cmp	r1, #0	; 0x0
300032b4:	e3a02000 	mov	r2, #0	; 0x0
300032b8:	01500004 	cmpeq	r0, r4
300032bc:	31a01000 	movcc	r1, r0
300032c0:	31a0f00e 	movcc	pc, lr
300032c4:	e3a0c102 	mov	ip, #-2147483648	; 0x80000000
300032c8:	e1b00080 	movs	r0, r0, lsl #1
300032cc:	e0b11001 	adcs	r1, r1, r1
300032d0:	0a000005 	beq	300032ec <__do_div64+0x8c>
300032d4:	31510004 	cmpcc	r1, r4
300032d8:	2182200c 	orrcs	r2, r2, ip
300032dc:	20411004 	subcs	r1, r1, r4
300032e0:	e1b0c0ac 	movs	ip, ip, lsr #1
300032e4:	1afffff7 	bne	300032c8 <__do_div64+0x68>
300032e8:	e1a0f00e 	mov	pc, lr
300032ec:	2afffff9 	bcs	300032d8 <__do_div64+0x78>
300032f0:	e3500000 	cmp	r0, #0	; 0x0
300032f4:	01a0f00e 	moveq	pc, lr
300032f8:	e1b00080 	movs	r0, r0, lsl #1
300032fc:	e1a0c0ac 	mov	ip, ip, lsr #1
30003300:	3afffffc 	bcc	300032f8 <__do_div64+0x98>
30003304:	e1b0c0ac 	movs	ip, ip, lsr #1
30003308:	e3a01001 	mov	r1, #1	; 0x1
3000330c:	1affffed 	bne	300032c8 <__do_div64+0x68>
30003310:	e1a0f00e 	mov	pc, lr
30003314:	e1a02004 	mov	r2, r4
30003318:	e3540801 	cmp	r4, #65536	; 0x10000
3000331c:	e3a0c000 	mov	ip, #0	; 0x0
30003320:	21a02822 	movcs	r2, r2, lsr #16
30003324:	23a0c010 	movcs	ip, #16	; 0x10
30003328:	e3520c01 	cmp	r2, #256	; 0x100
3000332c:	21a02422 	movcs	r2, r2, lsr #8
30003330:	228cc008 	addcs	ip, ip, #8	; 0x8
30003334:	e3520010 	cmp	r2, #16	; 0x10
30003338:	21a02222 	movcs	r2, r2, lsr #4
3000333c:	228cc004 	addcs	ip, ip, #4	; 0x4
30003340:	e3520004 	cmp	r2, #4	; 0x4
30003344:	828cc003 	addhi	ip, ip, #3	; 0x3
30003348:	908cc0a2 	addls	ip, ip, r2, lsr #1
3000334c:	e1a03c31 	mov	r3, r1, lsr ip
30003350:	e1a02c30 	mov	r2, r0, lsr ip
30003354:	e26cc020 	rsb	ip, ip, #32	; 0x20
30003358:	e1822c11 	orr	r2, r2, r1, lsl ip
3000335c:	e1a01c10 	mov	r1, r0, lsl ip
30003360:	e1a01c31 	mov	r1, r1, lsr ip
30003364:	e1a0f00e 	mov	pc, lr
30003368:	01a02000 	moveq	r2, r0
3000336c:	01a03001 	moveq	r3, r1
30003370:	03a01000 	moveq	r1, #0	; 0x0
30003374:	01a0f00e 	moveq	pc, lr
30003378:	e52de004 	str	lr, [sp, #-4]!
3000337c:	e3a02000 	mov	r2, #0	; 0x0
30003380:	e3a03000 	mov	r3, #0	; 0x0
30003384:	e3a01000 	mov	r1, #0	; 0x0
30003388:	e49df004 	ldr	pc, [sp], #4
3000338c:	e1a00000 	nop			(mov r0,r0)

30003390 <__udivsi3>:
30003390:	e2512001 	subs	r2, r1, #1	; 0x1
30003394:	01a0f00e 	moveq	pc, lr
30003398:	3a0000e5 	bcc	30003734 <Ldiv0>
3000339c:	e1500001 	cmp	r0, r1
300033a0:	9a000022 	bls	30003430 <__udivsi3+0xa0>
300033a4:	e1110002 	tst	r1, r2
300033a8:	0a000023 	beq	3000343c <__udivsi3+0xac>
300033ac:	e311020e 	tst	r1, #-536870912	; 0xe0000000
300033b0:	01a01181 	moveq	r1, r1, lsl #3
300033b4:	03a03008 	moveq	r3, #8	; 0x8
300033b8:	13a03001 	movne	r3, #1	; 0x1
300033bc:	e3510201 	cmp	r1, #268435456	; 0x10000000
300033c0:	31510000 	cmpcc	r1, r0
300033c4:	31a01201 	movcc	r1, r1, lsl #4
300033c8:	31a03203 	movcc	r3, r3, lsl #4
300033cc:	3afffffa 	bcc	300033bc <__udivsi3+0x2c>
300033d0:	e3510102 	cmp	r1, #-2147483648	; 0x80000000
300033d4:	31510000 	cmpcc	r1, r0
300033d8:	31a01081 	movcc	r1, r1, lsl #1
300033dc:	31a03083 	movcc	r3, r3, lsl #1
300033e0:	3afffffa 	bcc	300033d0 <__udivsi3+0x40>
300033e4:	e3a02000 	mov	r2, #0	; 0x0
300033e8:	e1500001 	cmp	r0, r1
300033ec:	20400001 	subcs	r0, r0, r1
300033f0:	21822003 	orrcs	r2, r2, r3
300033f4:	e15000a1 	cmp	r0, r1, lsr #1
300033f8:	204000a1 	subcs	r0, r0, r1, lsr #1
300033fc:	218220a3 	orrcs	r2, r2, r3, lsr #1
30003400:	e1500121 	cmp	r0, r1, lsr #2
30003404:	20400121 	subcs	r0, r0, r1, lsr #2
30003408:	21822123 	orrcs	r2, r2, r3, lsr #2
3000340c:	e15001a1 	cmp	r0, r1, lsr #3
30003410:	204001a1 	subcs	r0, r0, r1, lsr #3
30003414:	218221a3 	orrcs	r2, r2, r3, lsr #3
30003418:	e3500000 	cmp	r0, #0	; 0x0
3000341c:	11b03223 	movnes	r3, r3, lsr #4
30003420:	11a01221 	movne	r1, r1, lsr #4
30003424:	1affffef 	bne	300033e8 <__udivsi3+0x58>
30003428:	e1a00002 	mov	r0, r2
3000342c:	e1a0f00e 	mov	pc, lr
30003430:	03a00001 	moveq	r0, #1	; 0x1
30003434:	13a00000 	movne	r0, #0	; 0x0
30003438:	e1a0f00e 	mov	pc, lr
3000343c:	e3510801 	cmp	r1, #65536	; 0x10000
30003440:	21a01821 	movcs	r1, r1, lsr #16
30003444:	23a02010 	movcs	r2, #16	; 0x10
30003448:	33a02000 	movcc	r2, #0	; 0x0
3000344c:	e3510c01 	cmp	r1, #256	; 0x100
30003450:	21a01421 	movcs	r1, r1, lsr #8
30003454:	22822008 	addcs	r2, r2, #8	; 0x8
30003458:	e3510010 	cmp	r1, #16	; 0x10
3000345c:	21a01221 	movcs	r1, r1, lsr #4
30003460:	22822004 	addcs	r2, r2, #4	; 0x4
30003464:	e3510004 	cmp	r1, #4	; 0x4
30003468:	82822003 	addhi	r2, r2, #3	; 0x3
3000346c:	908220a1 	addls	r2, r2, r1, lsr #1
30003470:	e1a00230 	mov	r0, r0, lsr r2
30003474:	e1a0f00e 	mov	pc, lr
30003478:	90909090 	umulllss	r9, r0, r0, r0
3000347c:	90909090 	umulllss	r9, r0, r0, r0

30003480 <__umodsi3>:
30003480:	e2512001 	subs	r2, r1, #1	; 0x1
30003484:	3a0000aa 	bcc	30003734 <Ldiv0>
30003488:	11500001 	cmpne	r0, r1
3000348c:	03a00000 	moveq	r0, #0	; 0x0
30003490:	81110002 	tsthi	r1, r2
30003494:	00000002 	andeq	r0, r0, r2
30003498:	91a0f00e 	movls	pc, lr
3000349c:	e3a02000 	mov	r2, #0	; 0x0
300034a0:	e3510201 	cmp	r1, #268435456	; 0x10000000
300034a4:	31510000 	cmpcc	r1, r0
300034a8:	31a01201 	movcc	r1, r1, lsl #4
300034ac:	32822004 	addcc	r2, r2, #4	; 0x4
300034b0:	3afffffa 	bcc	300034a0 <__umodsi3+0x20>
300034b4:	e3510102 	cmp	r1, #-2147483648	; 0x80000000
300034b8:	31510000 	cmpcc	r1, r0
300034bc:	31a01081 	movcc	r1, r1, lsl #1
300034c0:	32822001 	addcc	r2, r2, #1	; 0x1
300034c4:	3afffffa 	bcc	300034b4 <__umodsi3+0x34>
300034c8:	e2522003 	subs	r2, r2, #3	; 0x3
300034cc:	ba00000e 	blt	3000350c <__umodsi3+0x8c>
300034d0:	e1500001 	cmp	r0, r1
300034d4:	20400001 	subcs	r0, r0, r1
300034d8:	e15000a1 	cmp	r0, r1, lsr #1
300034dc:	204000a1 	subcs	r0, r0, r1, lsr #1
300034e0:	e1500121 	cmp	r0, r1, lsr #2
300034e4:	20400121 	subcs	r0, r0, r1, lsr #2
300034e8:	e15001a1 	cmp	r0, r1, lsr #3
300034ec:	204001a1 	subcs	r0, r0, r1, lsr #3
300034f0:	e3500001 	cmp	r0, #1	; 0x1
300034f4:	e1a01221 	mov	r1, r1, lsr #4
300034f8:	a2522004 	subges	r2, r2, #4	; 0x4
300034fc:	aafffff3 	bge	300034d0 <__umodsi3+0x50>
30003500:	e3120003 	tst	r2, #3	; 0x3
30003504:	13300000 	teqne	r0, #0	; 0x0
30003508:	0a00000a 	beq	30003538 <__umodsi3+0xb8>
3000350c:	e3720002 	cmn	r2, #2	; 0x2
30003510:	ba000006 	blt	30003530 <__umodsi3+0xb0>
30003514:	0a000002 	beq	30003524 <__umodsi3+0xa4>
30003518:	e1500001 	cmp	r0, r1
3000351c:	20400001 	subcs	r0, r0, r1
30003520:	e1a010a1 	mov	r1, r1, lsr #1
30003524:	e1500001 	cmp	r0, r1
30003528:	20400001 	subcs	r0, r0, r1
3000352c:	e1a010a1 	mov	r1, r1, lsr #1
30003530:	e1500001 	cmp	r0, r1
30003534:	20400001 	subcs	r0, r0, r1
30003538:	e1a0f00e 	mov	pc, lr
3000353c:	90909090 	umulllss	r9, r0, r0, r0

30003540 <__divsi3>:
30003540:	e3510000 	cmp	r1, #0	; 0x0
30003544:	e020c001 	eor	ip, r0, r1
30003548:	0a000079 	beq	30003734 <Ldiv0>
3000354c:	42611000 	rsbmi	r1, r1, #0	; 0x0
30003550:	e2512001 	subs	r2, r1, #1	; 0x1
30003554:	0a000027 	beq	300035f8 <__divsi3+0xb8>
30003558:	e1b03000 	movs	r3, r0
3000355c:	42603000 	rsbmi	r3, r0, #0	; 0x0
30003560:	e1530001 	cmp	r3, r1
30003564:	9a000026 	bls	30003604 <__divsi3+0xc4>
30003568:	e1110002 	tst	r1, r2
3000356c:	0a000028 	beq	30003614 <__divsi3+0xd4>
30003570:	e311020e 	tst	r1, #-536870912	; 0xe0000000
30003574:	01a01181 	moveq	r1, r1, lsl #3
30003578:	03a02008 	moveq	r2, #8	; 0x8
3000357c:	13a02001 	movne	r2, #1	; 0x1
30003580:	e3510201 	cmp	r1, #268435456	; 0x10000000
30003584:	31510003 	cmpcc	r1, r3
30003588:	31a01201 	movcc	r1, r1, lsl #4
3000358c:	31a02202 	movcc	r2, r2, lsl #4
30003590:	3afffffa 	bcc	30003580 <__divsi3+0x40>
30003594:	e3510102 	cmp	r1, #-2147483648	; 0x80000000
30003598:	31510003 	cmpcc	r1, r3
3000359c:	31a01081 	movcc	r1, r1, lsl #1
300035a0:	31a02082 	movcc	r2, r2, lsl #1
300035a4:	3afffffa 	bcc	30003594 <__divsi3+0x54>
300035a8:	e3a00000 	mov	r0, #0	; 0x0
300035ac:	e1530001 	cmp	r3, r1
300035b0:	20433001 	subcs	r3, r3, r1
300035b4:	21800002 	orrcs	r0, r0, r2
300035b8:	e15300a1 	cmp	r3, r1, lsr #1
300035bc:	204330a1 	subcs	r3, r3, r1, lsr #1
300035c0:	218000a2 	orrcs	r0, r0, r2, lsr #1
300035c4:	e1530121 	cmp	r3, r1, lsr #2
300035c8:	20433121 	subcs	r3, r3, r1, lsr #2
300035cc:	21800122 	orrcs	r0, r0, r2, lsr #2
300035d0:	e15301a1 	cmp	r3, r1, lsr #3
300035d4:	204331a1 	subcs	r3, r3, r1, lsr #3
300035d8:	218001a2 	orrcs	r0, r0, r2, lsr #3
300035dc:	e3530000 	cmp	r3, #0	; 0x0
300035e0:	11b02222 	movnes	r2, r2, lsr #4
300035e4:	11a01221 	movne	r1, r1, lsr #4
300035e8:	1affffef 	bne	300035ac <__divsi3+0x6c>
300035ec:	e35c0000 	cmp	ip, #0	; 0x0
300035f0:	42600000 	rsbmi	r0, r0, #0	; 0x0
300035f4:	e1a0f00e 	mov	pc, lr
300035f8:	e13c0000 	teq	ip, r0
300035fc:	42600000 	rsbmi	r0, r0, #0	; 0x0
30003600:	e1a0f00e 	mov	pc, lr
30003604:	33a00000 	movcc	r0, #0	; 0x0
30003608:	01a00fcc 	moveq	r0, ip, asr #31
3000360c:	03800001 	orreq	r0, r0, #1	; 0x1
30003610:	e1a0f00e 	mov	pc, lr
30003614:	e3510801 	cmp	r1, #65536	; 0x10000
30003618:	21a01821 	movcs	r1, r1, lsr #16
3000361c:	23a02010 	movcs	r2, #16	; 0x10
30003620:	33a02000 	movcc	r2, #0	; 0x0
30003624:	e3510c01 	cmp	r1, #256	; 0x100
30003628:	21a01421 	movcs	r1, r1, lsr #8
3000362c:	22822008 	addcs	r2, r2, #8	; 0x8
30003630:	e3510010 	cmp	r1, #16	; 0x10
30003634:	21a01221 	movcs	r1, r1, lsr #4
30003638:	22822004 	addcs	r2, r2, #4	; 0x4
3000363c:	e3510004 	cmp	r1, #4	; 0x4
30003640:	82822003 	addhi	r2, r2, #3	; 0x3
30003644:	908220a1 	addls	r2, r2, r1, lsr #1
30003648:	e35c0000 	cmp	ip, #0	; 0x0
3000364c:	e1a00233 	mov	r0, r3, lsr r2
30003650:	42600000 	rsbmi	r0, r0, #0	; 0x0
30003654:	e1a0f00e 	mov	pc, lr
30003658:	90909090 	umulllss	r9, r0, r0, r0
3000365c:	90909090 	umulllss	r9, r0, r0, r0

30003660 <__modsi3>:
30003660:	e3510000 	cmp	r1, #0	; 0x0
30003664:	0a000032 	beq	30003734 <Ldiv0>
30003668:	42611000 	rsbmi	r1, r1, #0	; 0x0
3000366c:	e1b0c000 	movs	ip, r0
30003670:	42600000 	rsbmi	r0, r0, #0	; 0x0
30003674:	e2512001 	subs	r2, r1, #1	; 0x1
30003678:	11500001 	cmpne	r0, r1
3000367c:	03a00000 	moveq	r0, #0	; 0x0
30003680:	81110002 	tsthi	r1, r2
30003684:	00000002 	andeq	r0, r0, r2
30003688:	9a000026 	bls	30003728 <__modsi3+0xc8>
3000368c:	e3a02000 	mov	r2, #0	; 0x0
30003690:	e3510201 	cmp	r1, #268435456	; 0x10000000
30003694:	31510000 	cmpcc	r1, r0
30003698:	31a01201 	movcc	r1, r1, lsl #4
3000369c:	32822004 	addcc	r2, r2, #4	; 0x4
300036a0:	3afffffa 	bcc	30003690 <__modsi3+0x30>
300036a4:	e3510102 	cmp	r1, #-2147483648	; 0x80000000
300036a8:	31510000 	cmpcc	r1, r0
300036ac:	31a01081 	movcc	r1, r1, lsl #1
300036b0:	32822001 	addcc	r2, r2, #1	; 0x1
300036b4:	3afffffa 	bcc	300036a4 <__modsi3+0x44>
300036b8:	e2522003 	subs	r2, r2, #3	; 0x3
300036bc:	ba00000e 	blt	300036fc <__modsi3+0x9c>
300036c0:	e1500001 	cmp	r0, r1
300036c4:	20400001 	subcs	r0, r0, r1
300036c8:	e15000a1 	cmp	r0, r1, lsr #1
300036cc:	204000a1 	subcs	r0, r0, r1, lsr #1
300036d0:	e1500121 	cmp	r0, r1, lsr #2
300036d4:	20400121 	subcs	r0, r0, r1, lsr #2
300036d8:	e15001a1 	cmp	r0, r1, lsr #3
300036dc:	204001a1 	subcs	r0, r0, r1, lsr #3
300036e0:	e3500001 	cmp	r0, #1	; 0x1
300036e4:	e1a01221 	mov	r1, r1, lsr #4
300036e8:	a2522004 	subges	r2, r2, #4	; 0x4
300036ec:	aafffff3 	bge	300036c0 <__modsi3+0x60>
300036f0:	e3120003 	tst	r2, #3	; 0x3
300036f4:	13300000 	teqne	r0, #0	; 0x0
300036f8:	0a00000a 	beq	30003728 <__modsi3+0xc8>
300036fc:	e3720002 	cmn	r2, #2	; 0x2
30003700:	ba000006 	blt	30003720 <__modsi3+0xc0>
30003704:	0a000002 	beq	30003714 <__modsi3+0xb4>
30003708:	e1500001 	cmp	r0, r1
3000370c:	20400001 	subcs	r0, r0, r1
30003710:	e1a010a1 	mov	r1, r1, lsr #1
30003714:	e1500001 	cmp	r0, r1
30003718:	20400001 	subcs	r0, r0, r1
3000371c:	e1a010a1 	mov	r1, r1, lsr #1
30003720:	e1500001 	cmp	r0, r1
30003724:	20400001 	subcs	r0, r0, r1
30003728:	e35c0000 	cmp	ip, #0	; 0x0
3000372c:	42600000 	rsbmi	r0, r0, #0	; 0x0
30003730:	e1a0f00e 	mov	pc, lr

30003734 <Ldiv0>:
30003734:	e52de004 	str	lr, [sp, #-4]!
30003738:	e3a00000 	mov	r0, #0	; 0x0
3000373c:	e49df004 	ldr	pc, [sp], #4

30003740 <__muldi3>:
30003740:	e00c0192 	mul	ip, r2, r1
30003744:	e92d41f0 	stmdb	sp!, {r4, r5, r6, r7, r8, lr}
30003748:	e02ec093 	mla	lr, r3, r0, ip
3000374c:	e1a08820 	mov	r8, r0, lsr #16
30003750:	e1a05822 	mov	r5, r2, lsr #16
30003754:	e1c07808 	bic	r7, r0, r8, lsl #16
30003758:	e1c26805 	bic	r6, r2, r5, lsl #16
3000375c:	e00c0697 	mul	ip, r7, r6
30003760:	e0060698 	mul	r6, r8, r6
30003764:	e0070795 	mul	r7, r5, r7
30003768:	e0050598 	mul	r5, r8, r5
3000376c:	e0967007 	adds	r7, r6, r7
30003770:	22855801 	addcs	r5, r5, #65536	; 0x10000
30003774:	e09cc807 	adds	ip, ip, r7, lsl #16
30003778:	e0a55827 	adc	r5, r5, r7, lsr #16
3000377c:	e1a0400c 	mov	r4, ip
30003780:	e1a01005 	mov	r1, r5
30003784:	e1a00004 	mov	r0, r4
30003788:	e08e1005 	add	r1, lr, r5
3000378c:	e8bd81f0 	ldmia	sp!, {r4, r5, r6, r7, r8, pc}

30003790 <printk>:
30003790:	e92d000f 	stmdb	sp!, {r0, r1, r2, r3}
30003794:	e59f0048 	ldr	r0, [pc, #72]	; 300037e4 <.text+0x37e4>
30003798:	e92d4070 	stmdb	sp!, {r4, r5, r6, lr}
3000379c:	e59d1010 	ldr	r1, [sp, #16]
300037a0:	e3a04000 	mov	r4, #0	; 0x0
300037a4:	e59f5038 	ldr	r5, [pc, #56]	; 300037e4 <.text+0x37e4>
300037a8:	e28d2014 	add	r2, sp, #20	; 0x14
300037ac:	eb0004ac 	bl	30004a64 <vsprintf>
300037b0:	e1a06000 	mov	r6, r0
300037b4:	ea000002 	b	300037c4 <printk+0x34>
300037b8:	e7d50004 	ldrb	r0, [r5, r4]
300037bc:	ebfff64b 	bl	300010f0 <putc>
300037c0:	e2844001 	add	r4, r4, #1	; 0x1
300037c4:	e59f0018 	ldr	r0, [pc, #24]	; 300037e4 <.text+0x37e4>
300037c8:	eb000097 	bl	30003a2c <strlen>
300037cc:	e1540000 	cmp	r4, r0
300037d0:	3afffff8 	bcc	300037b8 <printk+0x28>
300037d4:	e1a00006 	mov	r0, r6
300037d8:	e8bd4070 	ldmia	sp!, {r4, r5, r6, lr}
300037dc:	e28dd010 	add	sp, sp, #16	; 0x10
300037e0:	e1a0f00e 	mov	pc, lr
300037e4:	3000a6f4 	strccd	sl, [r0], -r4

300037e8 <scanf>:
300037e8:	e92d000f 	stmdb	sp!, {r0, r1, r2, r3}
300037ec:	e92d4030 	stmdb	sp!, {r4, r5, lr}
300037f0:	e59f5044 	ldr	r5, [pc, #68]	; 3000383c <.text+0x383c>
300037f4:	e3a04000 	mov	r4, #0	; 0x0
300037f8:	ea000001 	b	30003804 <scanf+0x1c>
300037fc:	e7c40005 	strb	r0, [r4, r5]
30003800:	e2844001 	add	r4, r4, #1	; 0x1
30003804:	ebfff640 	bl	3000110c <getc>
30003808:	e20000ff 	and	r0, r0, #255	; 0xff
3000380c:	e350000a 	cmp	r0, #10	; 0xa
30003810:	1350000d 	cmpne	r0, #13	; 0xd
30003814:	1afffff8 	bne	300037fc <scanf+0x14>
30003818:	e3a03000 	mov	r3, #0	; 0x0
3000381c:	e59d100c 	ldr	r1, [sp, #12]
30003820:	e28d2010 	add	r2, sp, #16	; 0x10
30003824:	e59f0010 	ldr	r0, [pc, #16]	; 3000383c <.text+0x383c>
30003828:	e7c53004 	strb	r3, [r5, r4]
3000382c:	eb000498 	bl	30004a94 <vsscanf>
30003830:	e8bd4030 	ldmia	sp!, {r4, r5, lr}
30003834:	e28dd010 	add	sp, sp, #16	; 0x10
30003838:	e1a0f00e 	mov	pc, lr
3000383c:	3000aaf4 	strccd	sl, [r0], -r4

30003840 <strnicmp>:
30003840:	e92d41f0 	stmdb	sp!, {r4, r5, r6, r7, r8, lr}
30003844:	e3520000 	cmp	r2, #0	; 0x0
30003848:	e3a0e000 	mov	lr, #0	; 0x0
3000384c:	e1a07000 	mov	r7, r0
30003850:	e1a06001 	mov	r6, r1
30003854:	e1a0c00e 	mov	ip, lr
30003858:	0a000018 	beq	300038c0 <strnicmp+0x80>
3000385c:	e4d7e001 	ldrb	lr, [r7], #1
30003860:	e35e0000 	cmp	lr, #0	; 0x0
30003864:	e59f805c 	ldr	r8, [pc, #92]	; 300038c8 <.text+0x38c8>
30003868:	e4d6c001 	ldrb	ip, [r6], #1
3000386c:	0a000013 	beq	300038c0 <strnicmp+0x80>
30003870:	e35c0000 	cmp	ip, #0	; 0x0
30003874:	e1a0100e 	mov	r1, lr
30003878:	e1a0400c 	mov	r4, ip
3000387c:	0a00000f 	beq	300038c0 <strnicmp+0x80>
30003880:	e15e000c 	cmp	lr, ip
30003884:	0a00000b 	beq	300038b8 <strnicmp+0x78>
30003888:	e7d8300e 	ldrb	r3, [r8, lr]
3000388c:	e3130001 	tst	r3, #1	; 0x1
30003890:	e7d8300c 	ldrb	r3, [r8, ip]
30003894:	e28e0020 	add	r0, lr, #32	; 0x20
30003898:	e28c5020 	add	r5, ip, #32	; 0x20
3000389c:	120010ff 	andne	r1, r0, #255	; 0xff
300038a0:	e3130001 	tst	r3, #1	; 0x1
300038a4:	120540ff 	andne	r4, r5, #255	; 0xff
300038a8:	e201e0ff 	and	lr, r1, #255	; 0xff
300038ac:	e204c0ff 	and	ip, r4, #255	; 0xff
300038b0:	e15e000c 	cmp	lr, ip
300038b4:	1a000001 	bne	300038c0 <strnicmp+0x80>
300038b8:	e2522001 	subs	r2, r2, #1	; 0x1
300038bc:	1affffe6 	bne	3000385c <strnicmp+0x1c>
300038c0:	e06c000e 	rsb	r0, ip, lr
300038c4:	e8bd81f0 	ldmia	sp!, {r4, r5, r6, r7, r8, pc}
300038c8:	30005df0 	strccd	r5, [r0], -r0

300038cc <strcpy>:
300038cc:	e1a02000 	mov	r2, r0
300038d0:	e4d13001 	ldrb	r3, [r1], #1
300038d4:	e3530000 	cmp	r3, #0	; 0x0
300038d8:	e4c03001 	strb	r3, [r0], #1
300038dc:	1afffffb 	bne	300038d0 <strcpy+0x4>
300038e0:	e1a00002 	mov	r0, r2
300038e4:	e1a0f00e 	mov	pc, lr

300038e8 <strncpy>:
300038e8:	e1a0c000 	mov	ip, r0
300038ec:	e2522001 	subs	r2, r2, #1	; 0x1
300038f0:	3a000003 	bcc	30003904 <strncpy+0x1c>
300038f4:	e4d13001 	ldrb	r3, [r1], #1
300038f8:	e3530000 	cmp	r3, #0	; 0x0
300038fc:	e4c03001 	strb	r3, [r0], #1
30003900:	1afffff9 	bne	300038ec <strncpy+0x4>
30003904:	e1a0000c 	mov	r0, ip
30003908:	e1a0f00e 	mov	pc, lr

3000390c <strcat>:
3000390c:	e5d03000 	ldrb	r3, [r0]
30003910:	e1a02000 	mov	r2, r0
30003914:	ea000000 	b	3000391c <strcat+0x10>
30003918:	e5f03001 	ldrb	r3, [r0, #1]!
3000391c:	e3530000 	cmp	r3, #0	; 0x0
30003920:	1afffffc 	bne	30003918 <strcat+0xc>
30003924:	e4d13001 	ldrb	r3, [r1], #1
30003928:	e3530000 	cmp	r3, #0	; 0x0
3000392c:	e4c03001 	strb	r3, [r0], #1
30003930:	1afffffb 	bne	30003924 <strcat+0x18>
30003934:	e1a00002 	mov	r0, r2
30003938:	e1a0f00e 	mov	pc, lr

3000393c <strncat>:
3000393c:	e3520000 	cmp	r2, #0	; 0x0
30003940:	e1a0c000 	mov	ip, r0
30003944:	0a00000b 	beq	30003978 <strncat+0x3c>
30003948:	e5d03000 	ldrb	r3, [r0]
3000394c:	ea000000 	b	30003954 <strncat+0x18>
30003950:	e5f03001 	ldrb	r3, [r0, #1]!
30003954:	e3530000 	cmp	r3, #0	; 0x0
30003958:	1afffffc 	bne	30003950 <strncat+0x14>
3000395c:	e4d13001 	ldrb	r3, [r1], #1
30003960:	e3530000 	cmp	r3, #0	; 0x0
30003964:	e4c03001 	strb	r3, [r0], #1
30003968:	0a000002 	beq	30003978 <strncat+0x3c>
3000396c:	e2522001 	subs	r2, r2, #1	; 0x1
30003970:	1afffff9 	bne	3000395c <strncat+0x20>
30003974:	e5c02000 	strb	r2, [r0]
30003978:	e1a0000c 	mov	r0, ip
3000397c:	e1a0f00e 	mov	pc, lr

30003980 <strcmp>:
30003980:	e5d02000 	ldrb	r2, [r0]
30003984:	e4d13001 	ldrb	r3, [r1], #1
30003988:	e0633002 	rsb	r3, r3, r2
3000398c:	e1b0cc03 	movs	ip, r3, lsl #24
30003990:	e2800001 	add	r0, r0, #1	; 0x1
30003994:	e20330ff 	and	r3, r3, #255	; 0xff
30003998:	1a000001 	bne	300039a4 <strcmp+0x24>
3000399c:	e3520000 	cmp	r2, #0	; 0x0
300039a0:	1afffff6 	bne	30003980 <strcmp>
300039a4:	e1a00c03 	mov	r0, r3, lsl #24
300039a8:	e1a00c40 	mov	r0, r0, asr #24
300039ac:	e1a0f00e 	mov	pc, lr

300039b0 <strncmp>:
300039b0:	e3520000 	cmp	r2, #0	; 0x0
300039b4:	e52de004 	str	lr, [sp, #-4]!
300039b8:	e3a03000 	mov	r3, #0	; 0x0
300039bc:	0a00000a 	beq	300039ec <strncmp+0x3c>
300039c0:	e5d0c000 	ldrb	ip, [r0]
300039c4:	e4d13001 	ldrb	r3, [r1], #1
300039c8:	e063300c 	rsb	r3, r3, ip
300039cc:	e1b0ec03 	movs	lr, r3, lsl #24
300039d0:	e2800001 	add	r0, r0, #1	; 0x1
300039d4:	e20330ff 	and	r3, r3, #255	; 0xff
300039d8:	1a000003 	bne	300039ec <strncmp+0x3c>
300039dc:	e35c0000 	cmp	ip, #0	; 0x0
300039e0:	0a000001 	beq	300039ec <strncmp+0x3c>
300039e4:	e2522001 	subs	r2, r2, #1	; 0x1
300039e8:	1afffff4 	bne	300039c0 <strncmp+0x10>
300039ec:	e1a00c03 	mov	r0, r3, lsl #24
300039f0:	e1a00c40 	mov	r0, r0, asr #24
300039f4:	e49df004 	ldr	pc, [sp], #4

300039f8 <strchr>:
300039f8:	e5d02000 	ldrb	r2, [r0]
300039fc:	e20110ff 	and	r1, r1, #255	; 0xff
30003a00:	e1520001 	cmp	r2, r1
30003a04:	e1a03000 	mov	r3, r0
30003a08:	0a000005 	beq	30003a24 <strchr+0x2c>
30003a0c:	e1a00002 	mov	r0, r2
30003a10:	e3500000 	cmp	r0, #0	; 0x0
30003a14:	01a0f00e 	moveq	pc, lr
30003a18:	e5f30001 	ldrb	r0, [r3, #1]!
30003a1c:	e1500001 	cmp	r0, r1
30003a20:	1afffffa 	bne	30003a10 <strchr+0x18>
30003a24:	e1a00003 	mov	r0, r3
30003a28:	e1a0f00e 	mov	pc, lr

30003a2c <strlen>:
30003a2c:	e5d03000 	ldrb	r3, [r0]
30003a30:	e3530000 	cmp	r3, #0	; 0x0
30003a34:	e1a02000 	mov	r2, r0
30003a38:	0a000002 	beq	30003a48 <strlen+0x1c>
30003a3c:	e5f03001 	ldrb	r3, [r0, #1]!
30003a40:	e3530000 	cmp	r3, #0	; 0x0
30003a44:	1afffffc 	bne	30003a3c <strlen+0x10>
30003a48:	e0620000 	rsb	r0, r2, r0
30003a4c:	e1a0f00e 	mov	pc, lr

30003a50 <strrchr>:
30003a50:	e92d4030 	stmdb	sp!, {r4, r5, lr}
30003a54:	e1a04001 	mov	r4, r1
30003a58:	e1a05000 	mov	r5, r0
30003a5c:	ebfffff2 	bl	30003a2c <strlen>
30003a60:	e20440ff 	and	r4, r4, #255	; 0xff
30003a64:	e0800005 	add	r0, r0, r5
30003a68:	e5d03000 	ldrb	r3, [r0]
30003a6c:	e1530004 	cmp	r3, r4
30003a70:	08bd8030 	ldmeqia	sp!, {r4, r5, pc}
30003a74:	e2400001 	sub	r0, r0, #1	; 0x1
30003a78:	e1500005 	cmp	r0, r5
30003a7c:	2afffff9 	bcs	30003a68 <strrchr+0x18>
30003a80:	e3a00000 	mov	r0, #0	; 0x0
30003a84:	e8bd8030 	ldmia	sp!, {r4, r5, pc}

30003a88 <strnlen>:
30003a88:	e2411001 	sub	r1, r1, #1	; 0x1
30003a8c:	e3710001 	cmn	r1, #1	; 0x1
30003a90:	e1a02000 	mov	r2, r0
30003a94:	0a000009 	beq	30003ac0 <strnlen+0x38>
30003a98:	e5d23000 	ldrb	r3, [r2]
30003a9c:	e3530000 	cmp	r3, #0	; 0x0
30003aa0:	0a000006 	beq	30003ac0 <strnlen+0x38>
30003aa4:	e2411001 	sub	r1, r1, #1	; 0x1
30003aa8:	e3710001 	cmn	r1, #1	; 0x1
30003aac:	e2800001 	add	r0, r0, #1	; 0x1
30003ab0:	0a000002 	beq	30003ac0 <strnlen+0x38>
30003ab4:	e5d03000 	ldrb	r3, [r0]
30003ab8:	e3530000 	cmp	r3, #0	; 0x0
30003abc:	1afffff8 	bne	30003aa4 <strnlen+0x1c>
30003ac0:	e0620000 	rsb	r0, r2, r0
30003ac4:	e1a0f00e 	mov	pc, lr

30003ac8 <strspn>:
30003ac8:	e92d4010 	stmdb	sp!, {r4, lr}
30003acc:	e3a0e000 	mov	lr, #0	; 0x0
30003ad0:	e5d03000 	ldrb	r3, [r0]
30003ad4:	e3530000 	cmp	r3, #0	; 0x0
30003ad8:	0a00000a 	beq	30003b08 <strspn+0x40>
30003adc:	e5d14000 	ldrb	r4, [r1]
30003ae0:	e3540000 	cmp	r4, #0	; 0x0
30003ae4:	e1a02001 	mov	r2, r1
30003ae8:	0a000008 	beq	30003b10 <strspn+0x48>
30003aec:	e5d0c000 	ldrb	ip, [r0]
30003af0:	e1a03004 	mov	r3, r4
30003af4:	e15c0003 	cmp	ip, r3
30003af8:	0a00000d 	beq	30003b34 <strspn+0x6c>
30003afc:	e5f23001 	ldrb	r3, [r2, #1]!
30003b00:	e3530000 	cmp	r3, #0	; 0x0
30003b04:	1afffffa 	bne	30003af4 <strspn+0x2c>
30003b08:	e1a0000e 	mov	r0, lr
30003b0c:	e8bd8010 	ldmia	sp!, {r4, pc}
30003b10:	e5d13000 	ldrb	r3, [r1]
30003b14:	e3530000 	cmp	r3, #0	; 0x0
30003b18:	0afffffa 	beq	30003b08 <strspn+0x40>
30003b1c:	e5f03001 	ldrb	r3, [r0, #1]!
30003b20:	e3530000 	cmp	r3, #0	; 0x0
30003b24:	e28ee001 	add	lr, lr, #1	; 0x1
30003b28:	1affffec 	bne	30003ae0 <strspn+0x18>
30003b2c:	e1a0000e 	mov	r0, lr
30003b30:	e8bd8010 	ldmia	sp!, {r4, pc}
30003b34:	e5d23000 	ldrb	r3, [r2]
30003b38:	eafffff5 	b	30003b14 <strspn+0x4c>

30003b3c <strpbrk>:
30003b3c:	e52de004 	str	lr, [sp, #-4]!
30003b40:	e5d03000 	ldrb	r3, [r0]
30003b44:	e3530000 	cmp	r3, #0	; 0x0
30003b48:	0a00000c 	beq	30003b80 <strpbrk+0x44>
30003b4c:	e5d1e000 	ldrb	lr, [r1]
30003b50:	e25e3000 	subs	r3, lr, #0	; 0x0
30003b54:	e1a02001 	mov	r2, r1
30003b58:	0a000005 	beq	30003b74 <strpbrk+0x38>
30003b5c:	e5d0c000 	ldrb	ip, [r0]
30003b60:	e15c0003 	cmp	ip, r3
30003b64:	049df004 	ldreq	pc, [sp], #4
30003b68:	e5f23001 	ldrb	r3, [r2, #1]!
30003b6c:	e3530000 	cmp	r3, #0	; 0x0
30003b70:	1afffffa 	bne	30003b60 <strpbrk+0x24>
30003b74:	e5f03001 	ldrb	r3, [r0, #1]!
30003b78:	e3530000 	cmp	r3, #0	; 0x0
30003b7c:	1afffff3 	bne	30003b50 <strpbrk+0x14>
30003b80:	e3a00000 	mov	r0, #0	; 0x0
30003b84:	e49df004 	ldr	pc, [sp], #4

30003b88 <strtok>:
30003b88:	e92d4070 	stmdb	sp!, {r4, r5, r6, lr}
30003b8c:	e2504000 	subs	r4, r0, #0	; 0x0
30003b90:	e1a05001 	mov	r5, r1
30003b94:	159f606c 	ldrne	r6, [pc, #108]	; 30003c08 <.text+0x3c08>
30003b98:	0a000014 	beq	30003bf0 <strtok+0x68>
30003b9c:	e1a00004 	mov	r0, r4
30003ba0:	e1a01005 	mov	r1, r5
30003ba4:	ebffffc7 	bl	30003ac8 <strspn>
30003ba8:	e7f43000 	ldrb	r3, [r4, r0]!
30003bac:	e20330ff 	and	r3, r3, #255	; 0xff
30003bb0:	e3530000 	cmp	r3, #0	; 0x0
30003bb4:	01a00003 	moveq	r0, r3
30003bb8:	05863000 	streq	r3, [r6]
30003bbc:	08bd8070 	ldmeqia	sp!, {r4, r5, r6, pc}
30003bc0:	e1a01005 	mov	r1, r5
30003bc4:	e1a00004 	mov	r0, r4
30003bc8:	ebffffdb 	bl	30003b3c <strpbrk>
30003bcc:	e3500000 	cmp	r0, #0	; 0x0
30003bd0:	0a000003 	beq	30003be4 <strtok+0x5c>
30003bd4:	e5d03000 	ldrb	r3, [r0]
30003bd8:	e3530000 	cmp	r3, #0	; 0x0
30003bdc:	13a03000 	movne	r3, #0	; 0x0
30003be0:	14c03001 	strneb	r3, [r0], #1
30003be4:	e5860000 	str	r0, [r6]
30003be8:	e1a00004 	mov	r0, r4
30003bec:	e8bd8070 	ldmia	sp!, {r4, r5, r6, pc}
30003bf0:	e59f6010 	ldr	r6, [pc, #16]	; 30003c08 <.text+0x3c08>
30003bf4:	e5964000 	ldr	r4, [r6]
30003bf8:	e3540000 	cmp	r4, #0	; 0x0
30003bfc:	01a00004 	moveq	r0, r4
30003c00:	1affffe5 	bne	30003b9c <strtok+0x14>
30003c04:	e8bd8070 	ldmia	sp!, {r4, r5, r6, pc}
30003c08:	3000c490 	mulcc	r0, r0, r4

30003c0c <strsep>:
30003c0c:	e92d4030 	stmdb	sp!, {r4, r5, lr}
30003c10:	e1a05000 	mov	r5, r0
30003c14:	e5904000 	ldr	r4, [r0]
30003c18:	e2540000 	subs	r0, r4, #0	; 0x0
30003c1c:	e1a03004 	mov	r3, r4
30003c20:	0a000005 	beq	30003c3c <strsep+0x30>
30003c24:	ebffffc4 	bl	30003b3c <strpbrk>
30003c28:	e3500000 	cmp	r0, #0	; 0x0
30003c2c:	13a03000 	movne	r3, #0	; 0x0
30003c30:	14c03001 	strneb	r3, [r0], #1
30003c34:	e1a03004 	mov	r3, r4
30003c38:	e5850000 	str	r0, [r5]
30003c3c:	e1a00003 	mov	r0, r3
30003c40:	e8bd8030 	ldmia	sp!, {r4, r5, pc}

30003c44 <memset>:
30003c44:	e2422001 	sub	r2, r2, #1	; 0x1
30003c48:	e3720001 	cmn	r2, #1	; 0x1
30003c4c:	e1a03000 	mov	r3, r0
30003c50:	01a0f00e 	moveq	pc, lr
30003c54:	e2422001 	sub	r2, r2, #1	; 0x1
30003c58:	e3720001 	cmn	r2, #1	; 0x1
30003c5c:	e4c31001 	strb	r1, [r3], #1
30003c60:	1afffffb 	bne	30003c54 <memset+0x10>
30003c64:	e1a0f00e 	mov	pc, lr

30003c68 <bcopy>:
30003c68:	e2522001 	subs	r2, r2, #1	; 0x1
30003c6c:	31a0f00e 	movcc	pc, lr
30003c70:	e2422001 	sub	r2, r2, #1	; 0x1
30003c74:	e4d03001 	ldrb	r3, [r0], #1
30003c78:	e3720001 	cmn	r2, #1	; 0x1
30003c7c:	e4c13001 	strb	r3, [r1], #1
30003c80:	1afffffa 	bne	30003c70 <bcopy+0x8>
30003c84:	e1a0f00e 	mov	pc, lr

30003c88 <memcpy>:
30003c88:	e2422001 	sub	r2, r2, #1	; 0x1
30003c8c:	e3720001 	cmn	r2, #1	; 0x1
30003c90:	e1a0c000 	mov	ip, r0
30003c94:	01a0f00e 	moveq	pc, lr
30003c98:	e2422001 	sub	r2, r2, #1	; 0x1
30003c9c:	e4d13001 	ldrb	r3, [r1], #1
30003ca0:	e3720001 	cmn	r2, #1	; 0x1
30003ca4:	e4cc3001 	strb	r3, [ip], #1
30003ca8:	1afffffa 	bne	30003c98 <memcpy+0x10>
30003cac:	e1a0f00e 	mov	pc, lr

30003cb0 <memmove>:
30003cb0:	e1500001 	cmp	r0, r1
30003cb4:	8a000009 	bhi	30003ce0 <memmove+0x30>
30003cb8:	e2422001 	sub	r2, r2, #1	; 0x1
30003cbc:	e3720001 	cmn	r2, #1	; 0x1
30003cc0:	e1a0c000 	mov	ip, r0
30003cc4:	01a0f00e 	moveq	pc, lr
30003cc8:	e2422001 	sub	r2, r2, #1	; 0x1
30003ccc:	e4d13001 	ldrb	r3, [r1], #1
30003cd0:	e3720001 	cmn	r2, #1	; 0x1
30003cd4:	e4cc3001 	strb	r3, [ip], #1
30003cd8:	1afffffa 	bne	30003cc8 <memmove+0x18>
30003cdc:	e1a0f00e 	mov	pc, lr
30003ce0:	e0811002 	add	r1, r1, r2
30003ce4:	e080c002 	add	ip, r0, r2
30003ce8:	e2522001 	subs	r2, r2, #1	; 0x1
30003cec:	31a0f00e 	movcc	pc, lr
30003cf0:	e2422001 	sub	r2, r2, #1	; 0x1
30003cf4:	e5713001 	ldrb	r3, [r1, #-1]!
30003cf8:	e3720001 	cmn	r2, #1	; 0x1
30003cfc:	e56c3001 	strb	r3, [ip, #-1]!
30003d00:	1afffffa 	bne	30003cf0 <memmove+0x40>
30003d04:	e1a0f00e 	mov	pc, lr

30003d08 <memcmp>:
30003d08:	e252c000 	subs	ip, r2, #0	; 0x0
30003d0c:	e3a02000 	mov	r2, #0	; 0x0
30003d10:	0a000007 	beq	30003d34 <memcmp+0x2c>
30003d14:	e5d02000 	ldrb	r2, [r0]
30003d18:	e5d13000 	ldrb	r3, [r1]
30003d1c:	e0522003 	subs	r2, r2, r3
30003d20:	e2800001 	add	r0, r0, #1	; 0x1
30003d24:	e2811001 	add	r1, r1, #1	; 0x1
30003d28:	1a000001 	bne	30003d34 <memcmp+0x2c>
30003d2c:	e25cc001 	subs	ip, ip, #1	; 0x1
30003d30:	1afffff7 	bne	30003d14 <memcmp+0xc>
30003d34:	e1a00002 	mov	r0, r2
30003d38:	e1a0f00e 	mov	pc, lr

30003d3c <memscan>:
30003d3c:	e3520000 	cmp	r2, #0	; 0x0
30003d40:	01a0f00e 	moveq	pc, lr
30003d44:	e5d03000 	ldrb	r3, [r0]
30003d48:	e1530001 	cmp	r3, r1
30003d4c:	01a0f00e 	moveq	pc, lr
30003d50:	e2522001 	subs	r2, r2, #1	; 0x1
30003d54:	e2800001 	add	r0, r0, #1	; 0x1
30003d58:	1afffff9 	bne	30003d44 <memscan+0x8>
30003d5c:	e1a0f00e 	mov	pc, lr

30003d60 <strstr>:
30003d60:	e92d40f0 	stmdb	sp!, {r4, r5, r6, r7, lr}
30003d64:	e1a05000 	mov	r5, r0
30003d68:	e1a00001 	mov	r0, r1
30003d6c:	e1a07001 	mov	r7, r1
30003d70:	ebffff2d 	bl	30003a2c <strlen>
30003d74:	e2506000 	subs	r6, r0, #0	; 0x0
30003d78:	1a000001 	bne	30003d84 <strstr+0x24>
30003d7c:	e1a00005 	mov	r0, r5
30003d80:	e8bd80f0 	ldmia	sp!, {r4, r5, r6, r7, pc}
30003d84:	e1a00005 	mov	r0, r5
30003d88:	ebffff27 	bl	30003a2c <strlen>
30003d8c:	e1500006 	cmp	r0, r6
30003d90:	e1a04000 	mov	r4, r0
30003d94:	ba000009 	blt	30003dc0 <strstr+0x60>
30003d98:	e1a00005 	mov	r0, r5
30003d9c:	e1a01007 	mov	r1, r7
30003da0:	e1a02006 	mov	r2, r6
30003da4:	ebffffd7 	bl	30003d08 <memcmp>
30003da8:	e3500000 	cmp	r0, #0	; 0x0
30003dac:	e2444001 	sub	r4, r4, #1	; 0x1
30003db0:	0afffff1 	beq	30003d7c <strstr+0x1c>
30003db4:	e1540006 	cmp	r4, r6
30003db8:	e2855001 	add	r5, r5, #1	; 0x1
30003dbc:	aafffff5 	bge	30003d98 <strstr+0x38>
30003dc0:	e3a00000 	mov	r0, #0	; 0x0
30003dc4:	e8bd80f0 	ldmia	sp!, {r4, r5, r6, r7, pc}

30003dc8 <memchr>:
30003dc8:	e2522001 	subs	r2, r2, #1	; 0x1
30003dcc:	3a000007 	bcc	30003df0 <memchr+0x28>
30003dd0:	e20110ff 	and	r1, r1, #255	; 0xff
30003dd4:	e2400001 	sub	r0, r0, #1	; 0x1
30003dd8:	e5f03001 	ldrb	r3, [r0, #1]!
30003ddc:	e1530001 	cmp	r3, r1
30003de0:	e2422001 	sub	r2, r2, #1	; 0x1
30003de4:	01a0f00e 	moveq	pc, lr
30003de8:	e3720001 	cmn	r2, #1	; 0x1
30003dec:	1afffff9 	bne	30003dd8 <memchr+0x10>
30003df0:	e3a00000 	mov	r0, #0	; 0x0
30003df4:	e1a0f00e 	mov	pc, lr

30003df8 <simple_strtoul>:
30003df8:	e92d4030 	stmdb	sp!, {r4, r5, lr}
30003dfc:	e252e000 	subs	lr, r2, #0	; 0x0
30003e00:	e1a04001 	mov	r4, r1
30003e04:	e3a01000 	mov	r1, #0	; 0x0
30003e08:	1a000018 	bne	30003e70 <simple_strtoul+0x78>
30003e0c:	e5d0c000 	ldrb	ip, [r0]
30003e10:	e35c0030 	cmp	ip, #48	; 0x30
30003e14:	e3a0e00a 	mov	lr, #10	; 0xa
30003e18:	0a000023 	beq	30003eac <simple_strtoul+0xb4>
30003e1c:	e59f50c8 	ldr	r5, [pc, #200]	; 30003eec <.text+0x3eec>
30003e20:	ea000009 	b	30003e4c <simple_strtoul+0x54>
30003e24:	e3120004 	tst	r2, #4	; 0x4
30003e28:	1a000003 	bne	30003e3c <simple_strtoul+0x44>
30003e2c:	e3120002 	tst	r2, #2	; 0x2
30003e30:	e2432020 	sub	r2, r3, #32	; 0x20
30003e34:	120230ff 	andne	r3, r2, #255	; 0xff
30003e38:	e243c037 	sub	ip, r3, #55	; 0x37
30003e3c:	e15c000e 	cmp	ip, lr
30003e40:	2a000006 	bcs	30003e60 <simple_strtoul+0x68>
30003e44:	e021c19e 	mla	r1, lr, r1, ip
30003e48:	e5f0c001 	ldrb	ip, [r0, #1]!
30003e4c:	e20c30ff 	and	r3, ip, #255	; 0xff
30003e50:	e7d52003 	ldrb	r2, [r5, r3]
30003e54:	e3120044 	tst	r2, #68	; 0x44
30003e58:	e243c030 	sub	ip, r3, #48	; 0x30
30003e5c:	1afffff0 	bne	30003e24 <simple_strtoul+0x2c>
30003e60:	e3540000 	cmp	r4, #0	; 0x0
30003e64:	15840000 	strne	r0, [r4]
30003e68:	e1a00001 	mov	r0, r1
30003e6c:	e8bd8030 	ldmia	sp!, {r4, r5, pc}
30003e70:	e35e0010 	cmp	lr, #16	; 0x10
30003e74:	15d0c000 	ldrneb	ip, [r0]
30003e78:	1affffe7 	bne	30003e1c <simple_strtoul+0x24>
30003e7c:	e5d0c000 	ldrb	ip, [r0]
30003e80:	e35c0030 	cmp	ip, #48	; 0x30
30003e84:	1affffe4 	bne	30003e1c <simple_strtoul+0x24>
30003e88:	e5d02001 	ldrb	r2, [r0, #1]
30003e8c:	e59f5058 	ldr	r5, [pc, #88]	; 30003eec <.text+0x3eec>
30003e90:	e7d53002 	ldrb	r3, [r5, r2]
30003e94:	e3130002 	tst	r3, #2	; 0x2
30003e98:	12423020 	subne	r3, r2, #32	; 0x20
30003e9c:	120320ff 	andne	r2, r3, #255	; 0xff
30003ea0:	e3520058 	cmp	r2, #88	; 0x58
30003ea4:	05f0c002 	ldreqb	ip, [r0, #2]!
30003ea8:	eaffffe7 	b	30003e4c <simple_strtoul+0x54>
30003eac:	e5f0c001 	ldrb	ip, [r0, #1]!
30003eb0:	e59f5034 	ldr	r5, [pc, #52]	; 30003eec <.text+0x3eec>
30003eb4:	e20c20ff 	and	r2, ip, #255	; 0xff
30003eb8:	e7d53002 	ldrb	r3, [r5, r2]
30003ebc:	e3130002 	tst	r3, #2	; 0x2
30003ec0:	12423020 	subne	r3, r2, #32	; 0x20
30003ec4:	120320ff 	andne	r2, r3, #255	; 0xff
30003ec8:	e3520058 	cmp	r2, #88	; 0x58
30003ecc:	e24ee002 	sub	lr, lr, #2	; 0x2
30003ed0:	1affffdd 	bne	30003e4c <simple_strtoul+0x54>
30003ed4:	e5d03001 	ldrb	r3, [r0, #1]
30003ed8:	e7d52003 	ldrb	r2, [r5, r3]
30003edc:	e3120044 	tst	r2, #68	; 0x44
30003ee0:	15f0c001 	ldrneb	ip, [r0, #1]!
30003ee4:	13a0e010 	movne	lr, #16	; 0x10
30003ee8:	eaffffd7 	b	30003e4c <simple_strtoul+0x54>
30003eec:	30005df0 	strccd	r5, [r0], -r0

30003ef0 <simple_strtol>:
30003ef0:	e52de004 	str	lr, [sp, #-4]!
30003ef4:	e5d03000 	ldrb	r3, [r0]
30003ef8:	e353002d 	cmp	r3, #45	; 0x2d
30003efc:	0a000001 	beq	30003f08 <simple_strtol+0x18>
30003f00:	e49de004 	ldr	lr, [sp], #4
30003f04:	eaffffbb 	b	30003df8 <simple_strtoul>
30003f08:	e2800001 	add	r0, r0, #1	; 0x1
30003f0c:	ebffffb9 	bl	30003df8 <simple_strtoul>
30003f10:	e2600000 	rsb	r0, r0, #0	; 0x0
30003f14:	e49df004 	ldr	pc, [sp], #4

30003f18 <simple_strtoull>:
30003f18:	e92d4ff0 	stmdb	sp!, {r4, r5, r6, r7, r8, r9, sl, fp, lr}
30003f1c:	e252e000 	subs	lr, r2, #0	; 0x0
30003f20:	e1a08000 	mov	r8, r0
30003f24:	e1a09001 	mov	r9, r1
30003f28:	e3a0b000 	mov	fp, #0	; 0x0
30003f2c:	e3a0a000 	mov	sl, #0	; 0x0
30003f30:	1a000029 	bne	30003fdc <simple_strtoull+0xc4>
30003f34:	e5d0c000 	ldrb	ip, [r0]
30003f38:	e35c0030 	cmp	ip, #48	; 0x30
30003f3c:	e3a0e00a 	mov	lr, #10	; 0xa
30003f40:	0a000034 	beq	30004018 <simple_strtoull+0x100>
30003f44:	e1a0600e 	mov	r6, lr
30003f48:	e3a07000 	mov	r7, #0	; 0x0
30003f4c:	ea000017 	b	30003fb0 <simple_strtoull+0x98>
30003f50:	e3120004 	tst	r2, #4	; 0x4
30003f54:	1a000004 	bne	30003f6c <simple_strtoull+0x54>
30003f58:	e2413020 	sub	r3, r1, #32	; 0x20
30003f5c:	e20330ff 	and	r3, r3, #255	; 0xff
30003f60:	e3120002 	tst	r2, #2	; 0x2
30003f64:	e243c037 	sub	ip, r3, #55	; 0x37
30003f68:	0241c037 	subeq	ip, r1, #55	; 0x37
30003f6c:	e1a0400c 	mov	r4, ip
30003f70:	e1a05fc4 	mov	r5, r4, asr #31
30003f74:	e1570005 	cmp	r7, r5
30003f78:	e1a0300b 	mov	r3, fp
30003f7c:	e1a0200a 	mov	r2, sl
30003f80:	e1a01007 	mov	r1, r7
30003f84:	e1a00006 	mov	r0, r6
30003f88:	8a000002 	bhi	30003f98 <simple_strtoull+0x80>
30003f8c:	1a00000d 	bne	30003fc8 <simple_strtoull+0xb0>
30003f90:	e1560004 	cmp	r6, r4
30003f94:	9a00000b 	bls	30003fc8 <simple_strtoull+0xb0>
30003f98:	ebfffde8 	bl	30003740 <__muldi3>
30003f9c:	e5f8c001 	ldrb	ip, [r8, #1]!
30003fa0:	e1a0b001 	mov	fp, r1
30003fa4:	e1a0a000 	mov	sl, r0
30003fa8:	e090a004 	adds	sl, r0, r4
30003fac:	e0abb005 	adc	fp, fp, r5
30003fb0:	e59f30a4 	ldr	r3, [pc, #164]	; 3000405c <.text+0x405c>
30003fb4:	e20c10ff 	and	r1, ip, #255	; 0xff
30003fb8:	e7d32001 	ldrb	r2, [r3, r1]
30003fbc:	e3120044 	tst	r2, #68	; 0x44
30003fc0:	e241c030 	sub	ip, r1, #48	; 0x30
30003fc4:	1affffe1 	bne	30003f50 <simple_strtoull+0x38>
30003fc8:	e3590000 	cmp	r9, #0	; 0x0
30003fcc:	e1a0100b 	mov	r1, fp
30003fd0:	e1a0000a 	mov	r0, sl
30003fd4:	15898000 	strne	r8, [r9]
30003fd8:	e8bd8ff0 	ldmia	sp!, {r4, r5, r6, r7, r8, r9, sl, fp, pc}
30003fdc:	e35e0010 	cmp	lr, #16	; 0x10
30003fe0:	15d0c000 	ldrneb	ip, [r0]
30003fe4:	1affffd6 	bne	30003f44 <simple_strtoull+0x2c>
30003fe8:	e5d0c000 	ldrb	ip, [r0]
30003fec:	e35c0030 	cmp	ip, #48	; 0x30
30003ff0:	1affffd3 	bne	30003f44 <simple_strtoull+0x2c>
30003ff4:	e5d02001 	ldrb	r2, [r0, #1]
30003ff8:	e59f105c 	ldr	r1, [pc, #92]	; 3000405c <.text+0x405c>
30003ffc:	e7d13002 	ldrb	r3, [r1, r2]
30004000:	e3130002 	tst	r3, #2	; 0x2
30004004:	12423020 	subne	r3, r2, #32	; 0x20
30004008:	120320ff 	andne	r2, r3, #255	; 0xff
3000400c:	e3520058 	cmp	r2, #88	; 0x58
30004010:	05f8c002 	ldreqb	ip, [r8, #2]!
30004014:	eaffffca 	b	30003f44 <simple_strtoull+0x2c>
30004018:	e5f8c001 	ldrb	ip, [r8, #1]!
3000401c:	e59f1038 	ldr	r1, [pc, #56]	; 3000405c <.text+0x405c>
30004020:	e20c20ff 	and	r2, ip, #255	; 0xff
30004024:	e7d13002 	ldrb	r3, [r1, r2]
30004028:	e3130002 	tst	r3, #2	; 0x2
3000402c:	12423020 	subne	r3, r2, #32	; 0x20
30004030:	120320ff 	andne	r2, r3, #255	; 0xff
30004034:	e3520058 	cmp	r2, #88	; 0x58
30004038:	e24ee002 	sub	lr, lr, #2	; 0x2
3000403c:	1affffc0 	bne	30003f44 <simple_strtoull+0x2c>
30004040:	e5d83001 	ldrb	r3, [r8, #1]
30004044:	e59f1010 	ldr	r1, [pc, #16]	; 3000405c <.text+0x405c>
30004048:	e7d12003 	ldrb	r2, [r1, r3]
3000404c:	e3120044 	tst	r2, #68	; 0x44
30004050:	15f8c001 	ldrneb	ip, [r8, #1]!
30004054:	13a0e010 	movne	lr, #16	; 0x10
30004058:	eaffffb9 	b	30003f44 <simple_strtoull+0x2c>
3000405c:	30005df0 	strccd	r5, [r0], -r0

30004060 <simple_strtoll>:
30004060:	e52de004 	str	lr, [sp, #-4]!
30004064:	e5d03000 	ldrb	r3, [r0]
30004068:	e353002d 	cmp	r3, #45	; 0x2d
3000406c:	0a000001 	beq	30004078 <simple_strtoll+0x18>
30004070:	e49de004 	ldr	lr, [sp], #4
30004074:	eaffffa7 	b	30003f18 <simple_strtoull>
30004078:	e2800001 	add	r0, r0, #1	; 0x1
3000407c:	ebffffa5 	bl	30003f18 <simple_strtoull>
30004080:	e2700000 	rsbs	r0, r0, #0	; 0x0
30004084:	e2e11000 	rsc	r1, r1, #0	; 0x0
30004088:	e49df004 	ldr	pc, [sp], #4

3000408c <skip_atoi>:
3000408c:	e92d4010 	stmdb	sp!, {r4, lr}
30004090:	e59f4040 	ldr	r4, [pc, #64]	; 300040d8 <.text+0x40d8>
30004094:	e1a0e000 	mov	lr, r0
30004098:	e590c000 	ldr	ip, [r0]
3000409c:	e5dc3000 	ldrb	r3, [ip]
300040a0:	e7d42003 	ldrb	r2, [r4, r3]
300040a4:	e3120004 	tst	r2, #4	; 0x4
300040a8:	e3a00000 	mov	r0, #0	; 0x0
300040ac:	08bd8010 	ldmeqia	sp!, {r4, pc}
300040b0:	e4dc1001 	ldrb	r1, [ip], #1
300040b4:	e58ec000 	str	ip, [lr]
300040b8:	e0803100 	add	r3, r0, r0, lsl #2
300040bc:	e0811083 	add	r1, r1, r3, lsl #1
300040c0:	e2410030 	sub	r0, r1, #48	; 0x30
300040c4:	e5dc3000 	ldrb	r3, [ip]
300040c8:	e7d42003 	ldrb	r2, [r4, r3]
300040cc:	e3120004 	tst	r2, #4	; 0x4
300040d0:	1afffff6 	bne	300040b0 <skip_atoi+0x24>
300040d4:	e8bd8010 	ldmia	sp!, {r4, pc}
300040d8:	30005df0 	strccd	r5, [r0], -r0

300040dc <number>:
300040dc:	e92d4ff0 	stmdb	sp!, {r4, r5, r6, r7, r8, r9, sl, fp, lr}
300040e0:	e59fe2d4 	ldr	lr, [pc, #724]	; 300043bc <.text+0x43bc>
300040e4:	e1a09001 	mov	r9, r1
300040e8:	e1a07003 	mov	r7, r3
300040ec:	e1a06002 	mov	r6, r2
300040f0:	e1a05000 	mov	r5, r0
300040f4:	e24dd054 	sub	sp, sp, #84	; 0x54
300040f8:	e59dc084 	ldr	ip, [sp, #132]
300040fc:	e31c0040 	tst	ip, #64	; 0x40
30004100:	e59fc2b8 	ldr	ip, [pc, #696]	; 300043c0 <.text+0x43c0>
30004104:	11a0e00c 	movne	lr, ip
30004108:	e59dc084 	ldr	ip, [sp, #132]
3000410c:	e59d1078 	ldr	r1, [sp, #120]
30004110:	e31c0010 	tst	ip, #16	; 0x10
30004114:	13ccc001 	bicne	ip, ip, #1	; 0x1
30004118:	e2413002 	sub	r3, r1, #2	; 0x2
3000411c:	158dc084 	strne	ip, [sp, #132]
30004120:	e3530022 	cmp	r3, #34	; 0x22
30004124:	e28d807c 	add	r8, sp, #124	; 0x7c
30004128:	e8980900 	ldmia	r8, {r8, fp}
3000412c:	e58de004 	str	lr, [sp, #4]
30004130:	83a00000 	movhi	r0, #0	; 0x0
30004134:	8a00007b 	bhi	30004328 <number+0x24c>
30004138:	e59d2084 	ldr	r2, [sp, #132]
3000413c:	e3120001 	tst	r2, #1	; 0x1
30004140:	03a03020 	moveq	r3, #32	; 0x20
30004144:	13a03030 	movne	r3, #48	; 0x30
30004148:	e3a0c000 	mov	ip, #0	; 0x0
3000414c:	e3120002 	tst	r2, #2	; 0x2
30004150:	e58d300c 	str	r3, [sp, #12]
30004154:	e58dc008 	str	ip, [sp, #8]
30004158:	1a000074 	bne	30004330 <number+0x254>
3000415c:	e59d2084 	ldr	r2, [sp, #132]
30004160:	e2122020 	ands	r2, r2, #32	; 0x20
30004164:	e58d2000 	str	r2, [sp]
30004168:	0a000006 	beq	30004188 <number+0xac>
3000416c:	e59d3078 	ldr	r3, [sp, #120]
30004170:	e3530010 	cmp	r3, #16	; 0x10
30004174:	02488002 	subeq	r8, r8, #2	; 0x2
30004178:	0a000002 	beq	30004188 <number+0xac>
3000417c:	e59dc078 	ldr	ip, [sp, #120]
30004180:	e35c0008 	cmp	ip, #8	; 0x8
30004184:	02488001 	subeq	r8, r8, #1	; 0x1
30004188:	e1961007 	orrs	r1, r6, r7
3000418c:	e3a0a000 	mov	sl, #0	; 0x0
30004190:	03a03030 	moveq	r3, #48	; 0x30
30004194:	028aa001 	addeq	sl, sl, #1	; 0x1
30004198:	05cd3010 	streqb	r3, [sp, #16]
3000419c:	0a00000d 	beq	300041d8 <number+0xfc>
300041a0:	e59d4078 	ldr	r4, [sp, #120]
300041a4:	e1a01007 	mov	r1, r7
300041a8:	e1a00006 	mov	r0, r6
300041ac:	ebfffc2b 	bl	30003260 <__do_div64>
300041b0:	e1a07003 	mov	r7, r3
300041b4:	e1a06002 	mov	r6, r2
300041b8:	e59d3004 	ldr	r3, [sp, #4]
300041bc:	e7d12003 	ldrb	r2, [r1, r3]
300041c0:	e28d1054 	add	r1, sp, #84	; 0x54
300041c4:	e08a3001 	add	r3, sl, r1
300041c8:	e196c007 	orrs	ip, r6, r7
300041cc:	e5432044 	strb	r2, [r3, #-68]
300041d0:	e28aa001 	add	sl, sl, #1	; 0x1
300041d4:	1afffff2 	bne	300041a4 <number+0xc8>
300041d8:	e59d2084 	ldr	r2, [sp, #132]
300041dc:	e15b000a 	cmp	fp, sl
300041e0:	b1a0b00a 	movlt	fp, sl
300041e4:	e3120011 	tst	r2, #17	; 0x11
300041e8:	e06b8008 	rsb	r8, fp, r8
300041ec:	1a00000a 	bne	3000421c <number+0x140>
300041f0:	e3580000 	cmp	r8, #0	; 0x0
300041f4:	e2488001 	sub	r8, r8, #1	; 0x1
300041f8:	da000007 	ble	3000421c <number+0x140>
300041fc:	e3a02020 	mov	r2, #32	; 0x20
30004200:	e1550009 	cmp	r5, r9
30004204:	e1a03008 	mov	r3, r8
30004208:	95c52000 	strlsb	r2, [r5]
3000420c:	e3530000 	cmp	r3, #0	; 0x0
30004210:	e2488001 	sub	r8, r8, #1	; 0x1
30004214:	e2855001 	add	r5, r5, #1	; 0x1
30004218:	cafffff8 	bgt	30004200 <number+0x124>
3000421c:	e59d3008 	ldr	r3, [sp, #8]
30004220:	e3530000 	cmp	r3, #0	; 0x0
30004224:	0a000002 	beq	30004234 <number+0x158>
30004228:	e1550009 	cmp	r5, r9
3000422c:	95c53000 	strlsb	r3, [r5]
30004230:	e2855001 	add	r5, r5, #1	; 0x1
30004234:	e59dc000 	ldr	ip, [sp]
30004238:	e35c0000 	cmp	ip, #0	; 0x0
3000423c:	0a000005 	beq	30004258 <number+0x17c>
30004240:	e59d1078 	ldr	r1, [sp, #120]
30004244:	e3510008 	cmp	r1, #8	; 0x8
30004248:	0a000046 	beq	30004368 <number+0x28c>
3000424c:	e59d2078 	ldr	r2, [sp, #120]
30004250:	e3520010 	cmp	r2, #16	; 0x10
30004254:	0a000048 	beq	3000437c <number+0x2a0>
30004258:	e59d1084 	ldr	r1, [sp, #132]
3000425c:	e3110010 	tst	r1, #16	; 0x10
30004260:	1a00000a 	bne	30004290 <number+0x1b4>
30004264:	e3580000 	cmp	r8, #0	; 0x0
30004268:	e2488001 	sub	r8, r8, #1	; 0x1
3000426c:	da000007 	ble	30004290 <number+0x1b4>
30004270:	e1550009 	cmp	r5, r9
30004274:	959d200c 	ldrls	r2, [sp, #12]
30004278:	e1a03008 	mov	r3, r8
3000427c:	95c52000 	strlsb	r2, [r5]
30004280:	e2488001 	sub	r8, r8, #1	; 0x1
30004284:	e3530000 	cmp	r3, #0	; 0x0
30004288:	e2855001 	add	r5, r5, #1	; 0x1
3000428c:	cafffff7 	bgt	30004270 <number+0x194>
30004290:	e15b000a 	cmp	fp, sl
30004294:	e24bb001 	sub	fp, fp, #1	; 0x1
30004298:	da000007 	ble	300042bc <number+0x1e0>
3000429c:	e3a02030 	mov	r2, #48	; 0x30
300042a0:	e1550009 	cmp	r5, r9
300042a4:	e1a0300b 	mov	r3, fp
300042a8:	95c52000 	strlsb	r2, [r5]
300042ac:	e153000a 	cmp	r3, sl
300042b0:	e24bb001 	sub	fp, fp, #1	; 0x1
300042b4:	e2855001 	add	r5, r5, #1	; 0x1
300042b8:	cafffff8 	bgt	300042a0 <number+0x1c4>
300042bc:	e35a0000 	cmp	sl, #0	; 0x0
300042c0:	e24aa001 	sub	sl, sl, #1	; 0x1
300042c4:	da00000b 	ble	300042f8 <number+0x21c>
300042c8:	e28dc054 	add	ip, sp, #84	; 0x54
300042cc:	e08a300c 	add	r3, sl, ip
300042d0:	e2432044 	sub	r2, r3, #68	; 0x44
300042d4:	e1550009 	cmp	r5, r9
300042d8:	95d23000 	ldrlsb	r3, [r2]
300042dc:	e1a0100a 	mov	r1, sl
300042e0:	95c53000 	strlsb	r3, [r5]
300042e4:	e3510000 	cmp	r1, #0	; 0x0
300042e8:	e24aa001 	sub	sl, sl, #1	; 0x1
300042ec:	e2855001 	add	r5, r5, #1	; 0x1
300042f0:	e2422001 	sub	r2, r2, #1	; 0x1
300042f4:	cafffff6 	bgt	300042d4 <number+0x1f8>
300042f8:	e3580000 	cmp	r8, #0	; 0x0
300042fc:	e2488001 	sub	r8, r8, #1	; 0x1
30004300:	da000007 	ble	30004324 <number+0x248>
30004304:	e3a02020 	mov	r2, #32	; 0x20
30004308:	e1550009 	cmp	r5, r9
3000430c:	e1a03008 	mov	r3, r8
30004310:	95c52000 	strlsb	r2, [r5]
30004314:	e3530000 	cmp	r3, #0	; 0x0
30004318:	e2488001 	sub	r8, r8, #1	; 0x1
3000431c:	e2855001 	add	r5, r5, #1	; 0x1
30004320:	cafffff8 	bgt	30004308 <number+0x22c>
30004324:	e1a00005 	mov	r0, r5
30004328:	e28dd054 	add	sp, sp, #84	; 0x54
3000432c:	e8bd8ff0 	ldmia	sp!, {r4, r5, r6, r7, r8, r9, sl, fp, pc}
30004330:	e157000c 	cmp	r7, ip
30004334:	ba00001a 	blt	300043a4 <number+0x2c8>
30004338:	e59d2084 	ldr	r2, [sp, #132]
3000433c:	e3120004 	tst	r2, #4	; 0x4
30004340:	13a0302b 	movne	r3, #43	; 0x2b
30004344:	12488001 	subne	r8, r8, #1	; 0x1
30004348:	158d3008 	strne	r3, [sp, #8]
3000434c:	1affff82 	bne	3000415c <number+0x80>
30004350:	e59dc084 	ldr	ip, [sp, #132]
30004354:	e31c0008 	tst	ip, #8	; 0x8
30004358:	13a01020 	movne	r1, #32	; 0x20
3000435c:	12488001 	subne	r8, r8, #1	; 0x1
30004360:	158d1008 	strne	r1, [sp, #8]
30004364:	eaffff7c 	b	3000415c <number+0x80>
30004368:	e1550009 	cmp	r5, r9
3000436c:	93a03030 	movls	r3, #48	; 0x30
30004370:	9a000009 	bls	3000439c <number+0x2c0>
30004374:	e2855001 	add	r5, r5, #1	; 0x1
30004378:	eaffffb6 	b	30004258 <number+0x17c>
3000437c:	e1550009 	cmp	r5, r9
30004380:	93a03030 	movls	r3, #48	; 0x30
30004384:	95c53000 	strlsb	r3, [r5]
30004388:	e2855001 	add	r5, r5, #1	; 0x1
3000438c:	e1550009 	cmp	r5, r9
30004390:	8afffff7 	bhi	30004374 <number+0x298>
30004394:	e59dc004 	ldr	ip, [sp, #4]
30004398:	e5dc3021 	ldrb	r3, [ip, #33]
3000439c:	e4c53001 	strb	r3, [r5], #1
300043a0:	eaffffac 	b	30004258 <number+0x17c>
300043a4:	e3a0102d 	mov	r1, #45	; 0x2d
300043a8:	e2766000 	rsbs	r6, r6, #0	; 0x0
300043ac:	e2e77000 	rsc	r7, r7, #0	; 0x0
300043b0:	e2488001 	sub	r8, r8, #1	; 0x1
300043b4:	e58d1008 	str	r1, [sp, #8]
300043b8:	eaffff67 	b	3000415c <number+0x80>
300043bc:	300051b8 	strcch	r5, [r0], -r8
300043c0:	300051e0 	andcc	r5, r0, r0, ror #3

300043c4 <vsnprintf>:
300043c4:	e92d4ff0 	stmdb	sp!, {r4, r5, r6, r7, r8, r9, sl, fp, lr}
300043c8:	e3510000 	cmp	r1, #0	; 0x0
300043cc:	e1a09003 	mov	r9, r3
300043d0:	b59f360c 	ldrlt	r3, [pc, #1548]	; 300049e4 <.text+0x49e4>
300043d4:	e1a0c002 	mov	ip, r2
300043d8:	e1a0a000 	mov	sl, r0
300043dc:	e24dd018 	sub	sp, sp, #24	; 0x18
300043e0:	e58d2014 	str	r2, [sp, #20]
300043e4:	b3a02000 	movlt	r2, #0	; 0x0
300043e8:	b1a00002 	movlt	r0, r2
300043ec:	e58d1010 	str	r1, [sp, #16]
300043f0:	b5832000 	strlt	r2, [r3]
300043f4:	ba000024 	blt	3000448c <vsnprintf+0xc8>
300043f8:	e59d2010 	ldr	r2, [sp, #16]
300043fc:	e08a3002 	add	r3, sl, r2
30004400:	e2437001 	sub	r7, r3, #1	; 0x1
30004404:	e24a2001 	sub	r2, sl, #1	; 0x1
30004408:	e1520007 	cmp	r2, r7
3000440c:	826a3000 	rsbhi	r3, sl, #0	; 0x0
30004410:	858d3010 	strhi	r3, [sp, #16]
30004414:	e1a0300c 	mov	r3, ip
30004418:	e1a0c003 	mov	ip, r3
3000441c:	83e07000 	mvnhi	r7, #0	; 0x0
30004420:	e1a0400a 	mov	r4, sl
30004424:	e5d33000 	ldrb	r3, [r3]
30004428:	e3530000 	cmp	r3, #0	; 0x0
3000442c:	0a00000d 	beq	30004468 <vsnprintf+0xa4>
30004430:	e3530025 	cmp	r3, #37	; 0x25
30004434:	03a05000 	moveq	r5, #0	; 0x0
30004438:	0a000016 	beq	30004498 <vsnprintf+0xd4>
3000443c:	e1540007 	cmp	r4, r7
30004440:	8a000001 	bhi	3000444c <vsnprintf+0x88>
30004444:	e5c43000 	strb	r3, [r4]
30004448:	e59dc014 	ldr	ip, [sp, #20]
3000444c:	e2844001 	add	r4, r4, #1	; 0x1
30004450:	e28c3001 	add	r3, ip, #1	; 0x1
30004454:	e58d3014 	str	r3, [sp, #20]
30004458:	e1a0c003 	mov	ip, r3
3000445c:	e5d33000 	ldrb	r3, [r3]
30004460:	e3530000 	cmp	r3, #0	; 0x0
30004464:	1afffff1 	bne	30004430 <vsnprintf+0x6c>
30004468:	e1540007 	cmp	r4, r7
3000446c:	93a03000 	movls	r3, #0	; 0x0
30004470:	95c43000 	strlsb	r3, [r4]
30004474:	9a000003 	bls	30004488 <vsnprintf+0xc4>
30004478:	e59d2010 	ldr	r2, [sp, #16]
3000447c:	e3520000 	cmp	r2, #0	; 0x0
30004480:	13a03000 	movne	r3, #0	; 0x0
30004484:	15c73000 	strneb	r3, [r7]
30004488:	e06a0004 	rsb	r0, sl, r4
3000448c:	e28dd018 	add	sp, sp, #24	; 0x18
30004490:	e8bd8ff0 	ldmia	sp!, {r4, r5, r6, r7, r8, r9, sl, fp, pc}
30004494:	e3855001 	orr	r5, r5, #1	; 0x1
30004498:	e28cc001 	add	ip, ip, #1	; 0x1
3000449c:	e58dc014 	str	ip, [sp, #20]
300044a0:	e5dc3000 	ldrb	r3, [ip]
300044a4:	e2433020 	sub	r3, r3, #32	; 0x20
300044a8:	e3530010 	cmp	r3, #16	; 0x10
300044ac:	979ff103 	ldrls	pc, [pc, r3, lsl #2]
300044b0:	ea000010 	b	300044f8 <.text+0x44f8>
300044b4:	300046d4 	ldrccd	r4, [r0], -r4
300044b8:	300044f8 	strccd	r4, [r0], -r8
300044bc:	300044f8 	strccd	r4, [r0], -r8
300044c0:	300046cc 	andcc	r4, r0, ip, asr #13
300044c4:	300044f8 	strccd	r4, [r0], -r8
300044c8:	300044f8 	strccd	r4, [r0], -r8
300044cc:	300044f8 	strccd	r4, [r0], -r8
300044d0:	300044f8 	strccd	r4, [r0], -r8
300044d4:	300044f8 	strccd	r4, [r0], -r8
300044d8:	300044f8 	strccd	r4, [r0], -r8
300044dc:	300044f8 	strccd	r4, [r0], -r8
300044e0:	300046c4 	andcc	r4, r0, r4, asr #13
300044e4:	300044f8 	strccd	r4, [r0], -r8
300044e8:	300046bc 	strcch	r4, [r0], -ip
300044ec:	300044f8 	strccd	r4, [r0], -r8
300044f0:	300044f8 	strccd	r4, [r0], -r8
300044f4:	30004494 	mulcc	r0, r4, r4
300044f8:	e59f64e8 	ldr	r6, [pc, #1256]	; 300049e8 <.text+0x49e8>
300044fc:	e5dc2000 	ldrb	r2, [ip]
30004500:	e7d63002 	ldrb	r3, [r6, r2]
30004504:	e3130004 	tst	r3, #4	; 0x4
30004508:	e3e08000 	mvn	r8, #0	; 0x0
3000450c:	1a00007c 	bne	30004704 <.text+0x4704>
30004510:	e352002a 	cmp	r2, #42	; 0x2a
30004514:	0a000091 	beq	30004760 <.text+0x4760>
30004518:	e5dc3000 	ldrb	r3, [ip]
3000451c:	e353002e 	cmp	r3, #46	; 0x2e
30004520:	e3e0b000 	mvn	fp, #0	; 0x0
30004524:	0a00007e 	beq	30004724 <.text+0x4724>
30004528:	e5dc3000 	ldrb	r3, [ip]
3000452c:	e353006c 	cmp	r3, #108	; 0x6c
30004530:	13530068 	cmpne	r3, #104	; 0x68
30004534:	e3e02000 	mvn	r2, #0	; 0x0
30004538:	0a000067 	beq	300046dc <.text+0x46dc>
3000453c:	e353004c 	cmp	r3, #76	; 0x4c
30004540:	0a000065 	beq	300046dc <.text+0x46dc>
30004544:	e353005a 	cmp	r3, #90	; 0x5a
30004548:	0a000063 	beq	300046dc <.text+0x46dc>
3000454c:	e353007a 	cmp	r3, #122	; 0x7a
30004550:	0a000061 	beq	300046dc <.text+0x46dc>
30004554:	e5dc3000 	ldrb	r3, [ip]
30004558:	e2433025 	sub	r3, r3, #37	; 0x25
3000455c:	e3a0e00a 	mov	lr, #10	; 0xa
30004560:	e3530053 	cmp	r3, #83	; 0x53
30004564:	979ff103 	ldrls	pc, [pc, r3, lsl #2]
30004568:	ea0000ac 	b	30004820 <.text+0x4820>
3000456c:	30004848 	andcc	r4, r0, r8, asr #16
30004570:	30004820 	andcc	r4, r0, r0, lsr #16
30004574:	30004820 	andcc	r4, r0, r0, lsr #16
30004578:	30004820 	andcc	r4, r0, r0, lsr #16
3000457c:	30004820 	andcc	r4, r0, r0, lsr #16
30004580:	30004820 	andcc	r4, r0, r0, lsr #16
30004584:	30004820 	andcc	r4, r0, r0, lsr #16
30004588:	30004820 	andcc	r4, r0, r0, lsr #16
3000458c:	30004820 	andcc	r4, r0, r0, lsr #16
30004590:	30004820 	andcc	r4, r0, r0, lsr #16
30004594:	30004820 	andcc	r4, r0, r0, lsr #16
30004598:	30004820 	andcc	r4, r0, r0, lsr #16
3000459c:	30004820 	andcc	r4, r0, r0, lsr #16
300045a0:	30004820 	andcc	r4, r0, r0, lsr #16
300045a4:	30004820 	andcc	r4, r0, r0, lsr #16
300045a8:	30004820 	andcc	r4, r0, r0, lsr #16
300045ac:	30004820 	andcc	r4, r0, r0, lsr #16
300045b0:	30004820 	andcc	r4, r0, r0, lsr #16
300045b4:	30004820 	andcc	r4, r0, r0, lsr #16
300045b8:	30004820 	andcc	r4, r0, r0, lsr #16
300045bc:	30004820 	andcc	r4, r0, r0, lsr #16
300045c0:	30004820 	andcc	r4, r0, r0, lsr #16
300045c4:	30004820 	andcc	r4, r0, r0, lsr #16
300045c8:	30004820 	andcc	r4, r0, r0, lsr #16
300045cc:	30004820 	andcc	r4, r0, r0, lsr #16
300045d0:	30004820 	andcc	r4, r0, r0, lsr #16
300045d4:	30004820 	andcc	r4, r0, r0, lsr #16
300045d8:	30004820 	andcc	r4, r0, r0, lsr #16
300045dc:	30004820 	andcc	r4, r0, r0, lsr #16
300045e0:	30004820 	andcc	r4, r0, r0, lsr #16
300045e4:	30004820 	andcc	r4, r0, r0, lsr #16
300045e8:	30004820 	andcc	r4, r0, r0, lsr #16
300045ec:	30004820 	andcc	r4, r0, r0, lsr #16
300045f0:	30004820 	andcc	r4, r0, r0, lsr #16
300045f4:	30004820 	andcc	r4, r0, r0, lsr #16
300045f8:	30004820 	andcc	r4, r0, r0, lsr #16
300045fc:	30004820 	andcc	r4, r0, r0, lsr #16
30004600:	30004820 	andcc	r4, r0, r0, lsr #16
30004604:	30004820 	andcc	r4, r0, r0, lsr #16
30004608:	30004820 	andcc	r4, r0, r0, lsr #16
3000460c:	30004820 	andcc	r4, r0, r0, lsr #16
30004610:	30004820 	andcc	r4, r0, r0, lsr #16
30004614:	30004820 	andcc	r4, r0, r0, lsr #16
30004618:	30004820 	andcc	r4, r0, r0, lsr #16
3000461c:	30004820 	andcc	r4, r0, r0, lsr #16
30004620:	30004820 	andcc	r4, r0, r0, lsr #16
30004624:	30004820 	andcc	r4, r0, r0, lsr #16
30004628:	30004820 	andcc	r4, r0, r0, lsr #16
3000462c:	30004820 	andcc	r4, r0, r0, lsr #16
30004630:	30004820 	andcc	r4, r0, r0, lsr #16
30004634:	30004820 	andcc	r4, r0, r0, lsr #16
30004638:	30004808 	andcc	r4, r0, r8, lsl #16
3000463c:	30004820 	andcc	r4, r0, r0, lsr #16
30004640:	30004820 	andcc	r4, r0, r0, lsr #16
30004644:	30004820 	andcc	r4, r0, r0, lsr #16
30004648:	30004820 	andcc	r4, r0, r0, lsr #16
3000464c:	30004820 	andcc	r4, r0, r0, lsr #16
30004650:	30004820 	andcc	r4, r0, r0, lsr #16
30004654:	30004820 	andcc	r4, r0, r0, lsr #16
30004658:	30004820 	andcc	r4, r0, r0, lsr #16
3000465c:	30004820 	andcc	r4, r0, r0, lsr #16
30004660:	30004820 	andcc	r4, r0, r0, lsr #16
30004664:	30004948 	andcc	r4, r0, r8, asr #18
30004668:	30004790 	mulcc	r0, r0, r7
3000466c:	30004820 	andcc	r4, r0, r0, lsr #16
30004670:	30004820 	andcc	r4, r0, r0, lsr #16
30004674:	30004820 	andcc	r4, r0, r0, lsr #16
30004678:	30004820 	andcc	r4, r0, r0, lsr #16
3000467c:	30004790 	mulcc	r0, r0, r7
30004680:	30004820 	andcc	r4, r0, r0, lsr #16
30004684:	30004820 	andcc	r4, r0, r0, lsr #16
30004688:	30004820 	andcc	r4, r0, r0, lsr #16
3000468c:	30004820 	andcc	r4, r0, r0, lsr #16
30004690:	30004938 	andcc	r4, r0, r8, lsr r9
30004694:	30004930 	andcc	r4, r0, r0, lsr r9
30004698:	30004908 	andcc	r4, r0, r8, lsl #18
3000469c:	30004820 	andcc	r4, r0, r0, lsr #16
300046a0:	30004820 	andcc	r4, r0, r0, lsr #16
300046a4:	30004858 	andcc	r4, r0, r8, asr r8
300046a8:	30004820 	andcc	r4, r0, r0, lsr #16
300046ac:	30004794 	mulcc	r0, r4, r7
300046b0:	30004820 	andcc	r4, r0, r0, lsr #16
300046b4:	30004820 	andcc	r4, r0, r0, lsr #16
300046b8:	3000480c 	andcc	r4, r0, ip, lsl #16
300046bc:	e3855010 	orr	r5, r5, #16	; 0x10
300046c0:	eaffff74 	b	30004498 <vsnprintf+0xd4>
300046c4:	e3855004 	orr	r5, r5, #4	; 0x4
300046c8:	eaffff72 	b	30004498 <vsnprintf+0xd4>
300046cc:	e3855020 	orr	r5, r5, #32	; 0x20
300046d0:	eaffff70 	b	30004498 <vsnprintf+0xd4>
300046d4:	e3855008 	orr	r5, r5, #8	; 0x8
300046d8:	eaffff6e 	b	30004498 <vsnprintf+0xd4>
300046dc:	e4dc2001 	ldrb	r2, [ip], #1
300046e0:	e352006c 	cmp	r2, #108	; 0x6c
300046e4:	e58dc014 	str	ip, [sp, #20]
300046e8:	1affff99 	bne	30004554 <.text+0x4554>
300046ec:	e5dc3000 	ldrb	r3, [ip]
300046f0:	e353006c 	cmp	r3, #108	; 0x6c
300046f4:	028cc001 	addeq	ip, ip, #1	; 0x1
300046f8:	02422020 	subeq	r2, r2, #32	; 0x20
300046fc:	058dc014 	streq	ip, [sp, #20]
30004700:	eaffff93 	b	30004554 <.text+0x4554>
30004704:	e28d0014 	add	r0, sp, #20	; 0x14
30004708:	ebfffe5f 	bl	3000408c <skip_atoi>
3000470c:	e59dc014 	ldr	ip, [sp, #20]
30004710:	e5dc3000 	ldrb	r3, [ip]
30004714:	e353002e 	cmp	r3, #46	; 0x2e
30004718:	e1a08000 	mov	r8, r0
3000471c:	e3e0b000 	mvn	fp, #0	; 0x0
30004720:	1affff80 	bne	30004528 <.text+0x4528>
30004724:	e28cc001 	add	ip, ip, #1	; 0x1
30004728:	e58dc014 	str	ip, [sp, #20]
3000472c:	e5dc2000 	ldrb	r2, [ip]
30004730:	e7d63002 	ldrb	r3, [r6, r2]
30004734:	e3130004 	tst	r3, #4	; 0x4
30004738:	1a00000f 	bne	3000477c <.text+0x477c>
3000473c:	e352002a 	cmp	r2, #42	; 0x2a
30004740:	13a0b000 	movne	fp, #0	; 0x0
30004744:	1affff77 	bne	30004528 <.text+0x4528>
30004748:	e28cc001 	add	ip, ip, #1	; 0x1
3000474c:	e58dc014 	str	ip, [sp, #20]
30004750:	e499b004 	ldr	fp, [r9], #4
30004754:	e35b0000 	cmp	fp, #0	; 0x0
30004758:	b3a0b000 	movlt	fp, #0	; 0x0
3000475c:	eaffff71 	b	30004528 <.text+0x4528>
30004760:	e4998004 	ldr	r8, [r9], #4
30004764:	e3580000 	cmp	r8, #0	; 0x0
30004768:	e28cc001 	add	ip, ip, #1	; 0x1
3000476c:	b2688000 	rsblt	r8, r8, #0	; 0x0
30004770:	b3855010 	orrlt	r5, r5, #16	; 0x10
30004774:	e58dc014 	str	ip, [sp, #20]
30004778:	eaffff66 	b	30004518 <.text+0x4518>
3000477c:	e28d0014 	add	r0, sp, #20	; 0x14
30004780:	ebfffe41 	bl	3000408c <skip_atoi>
30004784:	e59dc014 	ldr	ip, [sp, #20]
30004788:	e1a0b000 	mov	fp, r0
3000478c:	eafffff0 	b	30004754 <.text+0x4754>
30004790:	e3855002 	orr	r5, r5, #2	; 0x2
30004794:	e352004c 	cmp	r2, #76	; 0x4c
30004798:	0a00001e 	beq	30004818 <.text+0x4818>
3000479c:	e352006c 	cmp	r2, #108	; 0x6c
300047a0:	0a000007 	beq	300047c4 <.text+0x47c4>
300047a4:	e352007a 	cmp	r2, #122	; 0x7a
300047a8:	1352005a 	cmpne	r2, #90	; 0x5a
300047ac:	04993004 	ldreq	r3, [r9], #4
300047b0:	01a01003 	moveq	r1, r3
300047b4:	03a02000 	moveq	r2, #0	; 0x0
300047b8:	0a000007 	beq	300047dc <.text+0x47dc>
300047bc:	e3520068 	cmp	r2, #104	; 0x68
300047c0:	0a00007d 	beq	300049bc <.text+0x49bc>
300047c4:	e4993004 	ldr	r3, [r9], #4
300047c8:	e3150002 	tst	r5, #2	; 0x2
300047cc:	e1a01003 	mov	r1, r3
300047d0:	e3a02000 	mov	r2, #0	; 0x0
300047d4:	0a000000 	beq	300047dc <.text+0x47dc>
300047d8:	e1a02fc1 	mov	r2, r1, asr #31
300047dc:	e58de000 	str	lr, [sp]
300047e0:	e1a03002 	mov	r3, r2
300047e4:	e1a02001 	mov	r2, r1
300047e8:	e1a00004 	mov	r0, r4
300047ec:	e1a01007 	mov	r1, r7
300047f0:	e98d0900 	stmib	sp, {r8, fp}
300047f4:	e58d500c 	str	r5, [sp, #12]
300047f8:	ebfffe37 	bl	300040dc <number>
300047fc:	e1a04000 	mov	r4, r0
30004800:	e59dc014 	ldr	ip, [sp, #20]
30004804:	eaffff11 	b	30004450 <vsnprintf+0x8c>
30004808:	e3855040 	orr	r5, r5, #64	; 0x40
3000480c:	e352004c 	cmp	r2, #76	; 0x4c
30004810:	e3a0e010 	mov	lr, #16	; 0x10
30004814:	1affffe0 	bne	3000479c <.text+0x479c>
30004818:	e8b90006 	ldmia	r9!, {r1, r2}
3000481c:	eaffffee 	b	300047dc <.text+0x47dc>
30004820:	e1540007 	cmp	r4, r7
30004824:	93a03025 	movls	r3, #37	; 0x25
30004828:	95c43000 	strlsb	r3, [r4]
3000482c:	e2844001 	add	r4, r4, #1	; 0x1
30004830:	959dc014 	ldrls	ip, [sp, #20]
30004834:	e5dc3000 	ldrb	r3, [ip]
30004838:	e3530000 	cmp	r3, #0	; 0x0
3000483c:	024cc001 	subeq	ip, ip, #1	; 0x1
30004840:	0affff02 	beq	30004450 <vsnprintf+0x8c>
30004844:	eafffefc 	b	3000443c <vsnprintf+0x78>
30004848:	e1540007 	cmp	r4, r7
3000484c:	93a03025 	movls	r3, #37	; 0x25
30004850:	9afffefb 	bls	30004444 <vsnprintf+0x80>
30004854:	eafffefc 	b	3000444c <vsnprintf+0x88>
30004858:	e4996004 	ldr	r6, [r9], #4
3000485c:	e59f3188 	ldr	r3, [pc, #392]	; 300049ec <.text+0x49ec>
30004860:	e3560b01 	cmp	r6, #1024	; 0x400
30004864:	31a06003 	movcc	r6, r3
30004868:	e1a0100b 	mov	r1, fp
3000486c:	e1a00006 	mov	r0, r6
30004870:	ebfffc84 	bl	30003a88 <strnlen>
30004874:	e3150010 	tst	r5, #16	; 0x10
30004878:	1a00000a 	bne	300048a8 <.text+0x48a8>
3000487c:	e1580000 	cmp	r8, r0
30004880:	e2488001 	sub	r8, r8, #1	; 0x1
30004884:	da000007 	ble	300048a8 <.text+0x48a8>
30004888:	e3a02020 	mov	r2, #32	; 0x20
3000488c:	e1540007 	cmp	r4, r7
30004890:	e1a03008 	mov	r3, r8
30004894:	95c42000 	strlsb	r2, [r4]
30004898:	e1530000 	cmp	r3, r0
3000489c:	e2488001 	sub	r8, r8, #1	; 0x1
300048a0:	e2844001 	add	r4, r4, #1	; 0x1
300048a4:	cafffff8 	bgt	3000488c <.text+0x488c>
300048a8:	e3a02000 	mov	r2, #0	; 0x0
300048ac:	e1520000 	cmp	r2, r0
300048b0:	aa000007 	bge	300048d4 <.text+0x48d4>
300048b4:	e1540007 	cmp	r4, r7
300048b8:	95d63000 	ldrlsb	r3, [r6]
300048bc:	e2822001 	add	r2, r2, #1	; 0x1
300048c0:	95c43000 	strlsb	r3, [r4]
300048c4:	e2866001 	add	r6, r6, #1	; 0x1
300048c8:	e1520000 	cmp	r2, r0
300048cc:	e2844001 	add	r4, r4, #1	; 0x1
300048d0:	bafffff7 	blt	300048b4 <.text+0x48b4>
300048d4:	e1580000 	cmp	r8, r0
300048d8:	e2488001 	sub	r8, r8, #1	; 0x1
300048dc:	daffffc7 	ble	30004800 <.text+0x4800>
300048e0:	e3a02020 	mov	r2, #32	; 0x20
300048e4:	e1540007 	cmp	r4, r7
300048e8:	e1a03008 	mov	r3, r8
300048ec:	95c42000 	strlsb	r2, [r4]
300048f0:	e1530000 	cmp	r3, r0
300048f4:	e2488001 	sub	r8, r8, #1	; 0x1
300048f8:	e2844001 	add	r4, r4, #1	; 0x1
300048fc:	cafffff8 	bgt	300048e4 <.text+0x48e4>
30004900:	e59dc014 	ldr	ip, [sp, #20]
30004904:	eafffed1 	b	30004450 <vsnprintf+0x8c>
30004908:	e4992004 	ldr	r2, [r9], #4
3000490c:	e3780001 	cmn	r8, #1	; 0x1
30004910:	e3a0c010 	mov	ip, #16	; 0x10
30004914:	03855001 	orreq	r5, r5, #1	; 0x1
30004918:	02888009 	addeq	r8, r8, #9	; 0x9
3000491c:	e1a00004 	mov	r0, r4
30004920:	e3a03000 	mov	r3, #0	; 0x0
30004924:	e1a01007 	mov	r1, r7
30004928:	e58dc000 	str	ip, [sp]
3000492c:	eaffffaf 	b	300047f0 <.text+0x47f0>
30004930:	e3a0e008 	mov	lr, #8	; 0x8
30004934:	eaffff96 	b	30004794 <.text+0x4794>
30004938:	e4992004 	ldr	r2, [r9], #4
3000493c:	e06a3004 	rsb	r3, sl, r4
30004940:	e5823000 	str	r3, [r2]
30004944:	eafffec1 	b	30004450 <vsnprintf+0x8c>
30004948:	e3150010 	tst	r5, #16	; 0x10
3000494c:	1a000009 	bne	30004978 <.text+0x4978>
30004950:	e2488001 	sub	r8, r8, #1	; 0x1
30004954:	e3580000 	cmp	r8, #0	; 0x0
30004958:	da000006 	ble	30004978 <.text+0x4978>
3000495c:	e3a03020 	mov	r3, #32	; 0x20
30004960:	e1540007 	cmp	r4, r7
30004964:	e2488001 	sub	r8, r8, #1	; 0x1
30004968:	95c43000 	strlsb	r3, [r4]
3000496c:	e3580000 	cmp	r8, #0	; 0x0
30004970:	e2844001 	add	r4, r4, #1	; 0x1
30004974:	cafffff9 	bgt	30004960 <.text+0x4960>
30004978:	e4993004 	ldr	r3, [r9], #4
3000497c:	e1540007 	cmp	r4, r7
30004980:	e20330ff 	and	r3, r3, #255	; 0xff
30004984:	e2488001 	sub	r8, r8, #1	; 0x1
30004988:	95c43000 	strlsb	r3, [r4]
3000498c:	e3580000 	cmp	r8, #0	; 0x0
30004990:	e2844001 	add	r4, r4, #1	; 0x1
30004994:	daffff99 	ble	30004800 <.text+0x4800>
30004998:	e3a03020 	mov	r3, #32	; 0x20
3000499c:	e1540007 	cmp	r4, r7
300049a0:	e2488001 	sub	r8, r8, #1	; 0x1
300049a4:	95c43000 	strlsb	r3, [r4]
300049a8:	e3580000 	cmp	r8, #0	; 0x0
300049ac:	e2844001 	add	r4, r4, #1	; 0x1
300049b0:	cafffff9 	bgt	3000499c <.text+0x499c>
300049b4:	e59dc014 	ldr	ip, [sp, #20]
300049b8:	eafffea4 	b	30004450 <vsnprintf+0x8c>
300049bc:	e4993004 	ldr	r3, [r9], #4
300049c0:	e1a03803 	mov	r3, r3, lsl #16
300049c4:	e1a01823 	mov	r1, r3, lsr #16
300049c8:	e3150002 	tst	r5, #2	; 0x2
300049cc:	e3a02000 	mov	r2, #0	; 0x0
300049d0:	11a03001 	movne	r3, r1
300049d4:	11a03803 	movne	r3, r3, lsl #16
300049d8:	11a01843 	movne	r1, r3, asr #16
300049dc:	1affff7d 	bne	300047d8 <.text+0x47d8>
300049e0:	eaffff7d 	b	300047dc <.text+0x47dc>
300049e4:	30005ef0 	strccd	r5, [r0], -r0
300049e8:	30005df0 	strccd	r5, [r0], -r0
300049ec:	30005dd8 	ldrccd	r5, [r0], -r8

300049f0 <vscnprintf>:
300049f0:	e92d4010 	stmdb	sp!, {r4, lr}
300049f4:	e1a04001 	mov	r4, r1
300049f8:	ebfffe71 	bl	300043c4 <vsnprintf>
300049fc:	e1500004 	cmp	r0, r4
30004a00:	e2444001 	sub	r4, r4, #1	; 0x1
30004a04:	31a04000 	movcc	r4, r0
30004a08:	e1a00004 	mov	r0, r4
30004a0c:	e8bd8010 	ldmia	sp!, {r4, pc}

30004a10 <snprintf>:
30004a10:	e92d000c 	stmdb	sp!, {r2, r3}
30004a14:	e52de004 	str	lr, [sp, #-4]!
30004a18:	e59d2004 	ldr	r2, [sp, #4]
30004a1c:	e28d3008 	add	r3, sp, #8	; 0x8
30004a20:	ebfffe67 	bl	300043c4 <vsnprintf>
30004a24:	e49de004 	ldr	lr, [sp], #4
30004a28:	e28dd008 	add	sp, sp, #8	; 0x8
30004a2c:	e1a0f00e 	mov	pc, lr

30004a30 <scnprintf>:
30004a30:	e92d000c 	stmdb	sp!, {r2, r3}
30004a34:	e92d4010 	stmdb	sp!, {r4, lr}
30004a38:	e59d2008 	ldr	r2, [sp, #8]
30004a3c:	e1a04001 	mov	r4, r1
30004a40:	e28d300c 	add	r3, sp, #12	; 0xc
30004a44:	ebfffe5e 	bl	300043c4 <vsnprintf>
30004a48:	e1500004 	cmp	r0, r4
30004a4c:	e2444001 	sub	r4, r4, #1	; 0x1
30004a50:	31a04000 	movcc	r4, r0
30004a54:	e1a00004 	mov	r0, r4
30004a58:	e8bd4010 	ldmia	sp!, {r4, lr}
30004a5c:	e28dd008 	add	sp, sp, #8	; 0x8
30004a60:	e1a0f00e 	mov	pc, lr

30004a64 <vsprintf>:
30004a64:	e1a03002 	mov	r3, r2
30004a68:	e1a02001 	mov	r2, r1
30004a6c:	e3e01102 	mvn	r1, #-2147483648	; 0x80000000
30004a70:	eafffe53 	b	300043c4 <vsnprintf>

30004a74 <sprintf>:
30004a74:	e92d000e 	stmdb	sp!, {r1, r2, r3}
30004a78:	e52de004 	str	lr, [sp, #-4]!
30004a7c:	e59d1004 	ldr	r1, [sp, #4]
30004a80:	e28d2008 	add	r2, sp, #8	; 0x8
30004a84:	ebfffff6 	bl	30004a64 <vsprintf>
30004a88:	e49de004 	ldr	lr, [sp], #4
30004a8c:	e28dd00c 	add	sp, sp, #12	; 0xc
30004a90:	e1a0f00e 	mov	pc, lr

30004a94 <vsscanf>:
30004a94:	e92d45f0 	stmdb	sp!, {r4, r5, r6, r7, r8, sl, lr}
30004a98:	e1a05002 	mov	r5, r2
30004a9c:	e3a07000 	mov	r7, #0	; 0x0
30004aa0:	e1a08000 	mov	r8, r0
30004aa4:	e1a04000 	mov	r4, r0
30004aa8:	e24dd008 	sub	sp, sp, #8	; 0x8
30004aac:	e58d1004 	str	r1, [sp, #4]
30004ab0:	e5d12000 	ldrb	r2, [r1]
30004ab4:	e1520007 	cmp	r2, r7
30004ab8:	0a000022 	beq	30004b48 <vsscanf+0xb4>
30004abc:	e5d03000 	ldrb	r3, [r0]
30004ac0:	e1530007 	cmp	r3, r7
30004ac4:	0a00001f 	beq	30004b48 <vsscanf+0xb4>
30004ac8:	e59fa6c4 	ldr	sl, [pc, #1732]	; 30005194 <.text+0x5194>
30004acc:	e7da3002 	ldrb	r3, [sl, r2]
30004ad0:	e3130020 	tst	r3, #32	; 0x20
30004ad4:	e1a0c00a 	mov	ip, sl
30004ad8:	0a000011 	beq	30004b24 <vsscanf+0x90>
30004adc:	e2810001 	add	r0, r1, #1	; 0x1
30004ae0:	e58d0004 	str	r0, [sp, #4]
30004ae4:	e1a01000 	mov	r1, r0
30004ae8:	e2800001 	add	r0, r0, #1	; 0x1
30004aec:	e5503001 	ldrb	r3, [r0, #-1]
30004af0:	e7dc2003 	ldrb	r2, [ip, r3]
30004af4:	e3120020 	tst	r2, #32	; 0x20
30004af8:	1afffff8 	bne	30004ae0 <vsscanf+0x4c>
30004afc:	e59fa690 	ldr	sl, [pc, #1680]	; 30005194 <.text+0x5194>
30004b00:	e5d43000 	ldrb	r3, [r4]
30004b04:	e7da2003 	ldrb	r2, [sl, r3]
30004b08:	e3120020 	tst	r2, #32	; 0x20
30004b0c:	e1a0000a 	mov	r0, sl
30004b10:	0a000003 	beq	30004b24 <vsscanf+0x90>
30004b14:	e5f43001 	ldrb	r3, [r4, #1]!
30004b18:	e7d02003 	ldrb	r2, [r0, r3]
30004b1c:	e3120020 	tst	r2, #32	; 0x20
30004b20:	1afffffb 	bne	30004b14 <vsscanf+0x80>
30004b24:	e5d12000 	ldrb	r2, [r1]
30004b28:	e3520025 	cmp	r2, #37	; 0x25
30004b2c:	13520000 	cmpne	r2, #0	; 0x0
30004b30:	0a000007 	beq	30004b54 <vsscanf+0xc0>
30004b34:	e2811001 	add	r1, r1, #1	; 0x1
30004b38:	e4d43001 	ldrb	r3, [r4], #1
30004b3c:	e58d1004 	str	r1, [sp, #4]
30004b40:	e1520003 	cmp	r2, r3
30004b44:	0a00008d 	beq	30004d80 <.text+0x4d80>
30004b48:	e1a00007 	mov	r0, r7
30004b4c:	e28dd008 	add	sp, sp, #8	; 0x8
30004b50:	e8bd85f0 	ldmia	sp!, {r4, r5, r6, r7, r8, sl, pc}
30004b54:	e3520000 	cmp	r2, #0	; 0x0
30004b58:	0afffffa 	beq	30004b48 <vsscanf+0xb4>
30004b5c:	e2811001 	add	r1, r1, #1	; 0x1
30004b60:	e58d1004 	str	r1, [sp, #4]
30004b64:	e5d13000 	ldrb	r3, [r1]
30004b68:	e353002a 	cmp	r3, #42	; 0x2a
30004b6c:	0a000089 	beq	30004d98 <.text+0x4d98>
30004b70:	e7da3003 	ldrb	r3, [sl, r3]
30004b74:	e3130004 	tst	r3, #4	; 0x4
30004b78:	e3e00000 	mvn	r0, #0	; 0x0
30004b7c:	1a0000a1 	bne	30004e08 <.text+0x4e08>
30004b80:	e5d13000 	ldrb	r3, [r1]
30004b84:	e353006c 	cmp	r3, #108	; 0x6c
30004b88:	13530068 	cmpne	r3, #104	; 0x68
30004b8c:	e3e0e000 	mvn	lr, #0	; 0x0
30004b90:	1a000066 	bne	30004d30 <.text+0x4d30>
30004b94:	e4d1e001 	ldrb	lr, [r1], #1
30004b98:	e58d1004 	str	r1, [sp, #4]
30004b9c:	e5d13000 	ldrb	r3, [r1]
30004ba0:	e153000e 	cmp	r3, lr
30004ba4:	0a000170 	beq	3000516c <.text+0x516c>
30004ba8:	e5d1c000 	ldrb	ip, [r1]
30004bac:	e35c0000 	cmp	ip, #0	; 0x0
30004bb0:	e3a0200a 	mov	r2, #10	; 0xa
30004bb4:	e3a06000 	mov	r6, #0	; 0x0
30004bb8:	0affffe2 	beq	30004b48 <vsscanf+0xb4>
30004bbc:	e5d43000 	ldrb	r3, [r4]
30004bc0:	e1530006 	cmp	r3, r6
30004bc4:	0affffdf 	beq	30004b48 <vsscanf+0xb4>
30004bc8:	e2811001 	add	r1, r1, #1	; 0x1
30004bcc:	e24c3025 	sub	r3, ip, #37	; 0x25
30004bd0:	e58d1004 	str	r1, [sp, #4]
30004bd4:	e3530053 	cmp	r3, #83	; 0x53
30004bd8:	979ff103 	ldrls	pc, [pc, r3, lsl #2]
30004bdc:	eaffffd9 	b	30004b48 <vsscanf+0xb4>
30004be0:	30004ff0 	strccd	r4, [r0], -r0
30004be4:	30004b48 	andcc	r4, r0, r8, asr #22
30004be8:	30004b48 	andcc	r4, r0, r8, asr #22
30004bec:	30004b48 	andcc	r4, r0, r8, asr #22
30004bf0:	30004b48 	andcc	r4, r0, r8, asr #22
30004bf4:	30004b48 	andcc	r4, r0, r8, asr #22
30004bf8:	30004b48 	andcc	r4, r0, r8, asr #22
30004bfc:	30004b48 	andcc	r4, r0, r8, asr #22
30004c00:	30004b48 	andcc	r4, r0, r8, asr #22
30004c04:	30004b48 	andcc	r4, r0, r8, asr #22
30004c08:	30004b48 	andcc	r4, r0, r8, asr #22
30004c0c:	30004b48 	andcc	r4, r0, r8, asr #22
30004c10:	30004b48 	andcc	r4, r0, r8, asr #22
30004c14:	30004b48 	andcc	r4, r0, r8, asr #22
30004c18:	30004b48 	andcc	r4, r0, r8, asr #22
30004c1c:	30004b48 	andcc	r4, r0, r8, asr #22
30004c20:	30004b48 	andcc	r4, r0, r8, asr #22
30004c24:	30004b48 	andcc	r4, r0, r8, asr #22
30004c28:	30004b48 	andcc	r4, r0, r8, asr #22
30004c2c:	30004b48 	andcc	r4, r0, r8, asr #22
30004c30:	30004b48 	andcc	r4, r0, r8, asr #22
30004c34:	30004b48 	andcc	r4, r0, r8, asr #22
30004c38:	30004b48 	andcc	r4, r0, r8, asr #22
30004c3c:	30004b48 	andcc	r4, r0, r8, asr #22
30004c40:	30004b48 	andcc	r4, r0, r8, asr #22
30004c44:	30004b48 	andcc	r4, r0, r8, asr #22
30004c48:	30004b48 	andcc	r4, r0, r8, asr #22
30004c4c:	30004b48 	andcc	r4, r0, r8, asr #22
30004c50:	30004b48 	andcc	r4, r0, r8, asr #22
30004c54:	30004b48 	andcc	r4, r0, r8, asr #22
30004c58:	30004b48 	andcc	r4, r0, r8, asr #22
30004c5c:	30004b48 	andcc	r4, r0, r8, asr #22
30004c60:	30004b48 	andcc	r4, r0, r8, asr #22
30004c64:	30004b48 	andcc	r4, r0, r8, asr #22
30004c68:	30004b48 	andcc	r4, r0, r8, asr #22
30004c6c:	30004b48 	andcc	r4, r0, r8, asr #22
30004c70:	30004b48 	andcc	r4, r0, r8, asr #22
30004c74:	30004b48 	andcc	r4, r0, r8, asr #22
30004c78:	30004b48 	andcc	r4, r0, r8, asr #22
30004c7c:	30004b48 	andcc	r4, r0, r8, asr #22
30004c80:	30004b48 	andcc	r4, r0, r8, asr #22
30004c84:	30004b48 	andcc	r4, r0, r8, asr #22
30004c88:	30004b48 	andcc	r4, r0, r8, asr #22
30004c8c:	30004b48 	andcc	r4, r0, r8, asr #22
30004c90:	30004b48 	andcc	r4, r0, r8, asr #22
30004c94:	30004b48 	andcc	r4, r0, r8, asr #22
30004c98:	30004b48 	andcc	r4, r0, r8, asr #22
30004c9c:	30004b48 	andcc	r4, r0, r8, asr #22
30004ca0:	30004b48 	andcc	r4, r0, r8, asr #22
30004ca4:	30004b48 	andcc	r4, r0, r8, asr #22
30004ca8:	30004b48 	andcc	r4, r0, r8, asr #22
30004cac:	30004fe8 	andcc	r4, r0, r8, ror #31
30004cb0:	30004b48 	andcc	r4, r0, r8, asr #22
30004cb4:	30004b48 	andcc	r4, r0, r8, asr #22
30004cb8:	30004b48 	andcc	r4, r0, r8, asr #22
30004cbc:	30004b48 	andcc	r4, r0, r8, asr #22
30004cc0:	30004b48 	andcc	r4, r0, r8, asr #22
30004cc4:	30004b48 	andcc	r4, r0, r8, asr #22
30004cc8:	30004b48 	andcc	r4, r0, r8, asr #22
30004ccc:	30004b48 	andcc	r4, r0, r8, asr #22
30004cd0:	30004b48 	andcc	r4, r0, r8, asr #22
30004cd4:	30004b48 	andcc	r4, r0, r8, asr #22
30004cd8:	30004fa4 	andcc	r4, r0, r4, lsr #31
30004cdc:	30004e1c 	andcc	r4, r0, ip, lsl lr
30004ce0:	30004b48 	andcc	r4, r0, r8, asr #22
30004ce4:	30004b48 	andcc	r4, r0, r8, asr #22
30004ce8:	30004b48 	andcc	r4, r0, r8, asr #22
30004cec:	30004b48 	andcc	r4, r0, r8, asr #22
30004cf0:	30004e18 	andcc	r4, r0, r8, lsl lr
30004cf4:	30004b48 	andcc	r4, r0, r8, asr #22
30004cf8:	30004b48 	andcc	r4, r0, r8, asr #22
30004cfc:	30004b48 	andcc	r4, r0, r8, asr #22
30004d00:	30004b48 	andcc	r4, r0, r8, asr #22
30004d04:	30004ffc 	strccd	r4, [r0], -ip
30004d08:	30004fe0 	andcc	r4, r0, r0, ror #31
30004d0c:	30004b48 	andcc	r4, r0, r8, asr #22
30004d10:	30004b48 	andcc	r4, r0, r8, asr #22
30004d14:	30004b48 	andcc	r4, r0, r8, asr #22
30004d18:	30004f70 	andcc	r4, r0, r0, ror pc
30004d1c:	30004b48 	andcc	r4, r0, r8, asr #22
30004d20:	30004e20 	andcc	r4, r0, r0, lsr #28
30004d24:	30004b48 	andcc	r4, r0, r8, asr #22
30004d28:	30004b48 	andcc	r4, r0, r8, asr #22
30004d2c:	30004fe8 	andcc	r4, r0, r8, ror #31
30004d30:	e353004c 	cmp	r3, #76	; 0x4c
30004d34:	0affff96 	beq	30004b94 <vsscanf+0x100>
30004d38:	e353005a 	cmp	r3, #90	; 0x5a
30004d3c:	0affff94 	beq	30004b94 <vsscanf+0x100>
30004d40:	e353007a 	cmp	r3, #122	; 0x7a
30004d44:	1affff97 	bne	30004ba8 <vsscanf+0x114>
30004d48:	eaffff91 	b	30004b94 <vsscanf+0x100>
30004d4c:	e3560000 	cmp	r6, #0	; 0x0
30004d50:	0a0000ad 	beq	3000500c <.text+0x500c>
30004d54:	e1a00004 	mov	r0, r4
30004d58:	e1a0100d 	mov	r1, sp
30004d5c:	e4954004 	ldr	r4, [r5], #4
30004d60:	ebfffc62 	bl	30003ef0 <simple_strtol>
30004d64:	e5840000 	str	r0, [r4]
30004d68:	e59d0000 	ldr	r0, [sp]
30004d6c:	e3500000 	cmp	r0, #0	; 0x0
30004d70:	e2877001 	add	r7, r7, #1	; 0x1
30004d74:	0affff73 	beq	30004b48 <vsscanf+0xb4>
30004d78:	e59d1004 	ldr	r1, [sp, #4]
30004d7c:	e1a04000 	mov	r4, r0
30004d80:	e5d12000 	ldrb	r2, [r1]
30004d84:	e3520000 	cmp	r2, #0	; 0x0
30004d88:	0affff6e 	beq	30004b48 <vsscanf+0xb4>
30004d8c:	e5d43000 	ldrb	r3, [r4]
30004d90:	e3530000 	cmp	r3, #0	; 0x0
30004d94:	eaffff4a 	b	30004ac4 <vsscanf+0x30>
30004d98:	e59fa3f4 	ldr	sl, [pc, #1012]	; 30005194 <.text+0x5194>
30004d9c:	e7da3003 	ldrb	r3, [sl, r3]
30004da0:	e3130020 	tst	r3, #32	; 0x20
30004da4:	e1a0c00a 	mov	ip, sl
30004da8:	1a000009 	bne	30004dd4 <.text+0x4dd4>
30004dac:	e2812001 	add	r2, r1, #1	; 0x1
30004db0:	e58d2004 	str	r2, [sp, #4]
30004db4:	e1a01002 	mov	r1, r2
30004db8:	e2822001 	add	r2, r2, #1	; 0x1
30004dbc:	e5520001 	ldrb	r0, [r2, #-1]
30004dc0:	e7dc3000 	ldrb	r3, [ip, r0]
30004dc4:	e3130020 	tst	r3, #32	; 0x20
30004dc8:	1a000001 	bne	30004dd4 <.text+0x4dd4>
30004dcc:	e3500000 	cmp	r0, #0	; 0x0
30004dd0:	1afffff6 	bne	30004db0 <.text+0x4db0>
30004dd4:	e59fa3b8 	ldr	sl, [pc, #952]	; 30005194 <.text+0x5194>
30004dd8:	e5d42000 	ldrb	r2, [r4]
30004ddc:	e1a0000a 	mov	r0, sl
30004de0:	e7d03002 	ldrb	r3, [r0, r2]
30004de4:	e3130020 	tst	r3, #32	; 0x20
30004de8:	1affffe4 	bne	30004d80 <.text+0x4d80>
30004dec:	e3520000 	cmp	r2, #0	; 0x0
30004df0:	0affffe2 	beq	30004d80 <.text+0x4d80>
30004df4:	e5f42001 	ldrb	r2, [r4, #1]!
30004df8:	e7d03002 	ldrb	r3, [r0, r2]
30004dfc:	e3130020 	tst	r3, #32	; 0x20
30004e00:	0afffff9 	beq	30004dec <.text+0x4dec>
30004e04:	eaffffdd 	b	30004d80 <.text+0x4d80>
30004e08:	e28d0004 	add	r0, sp, #4	; 0x4
30004e0c:	ebfffc9e 	bl	3000408c <skip_atoi>
30004e10:	e59d1004 	ldr	r1, [sp, #4]
30004e14:	eaffff59 	b	30004b80 <vsscanf+0xec>
30004e18:	e3a02000 	mov	r2, #0	; 0x0
30004e1c:	e3a06001 	mov	r6, #1	; 0x1
30004e20:	e59fa36c 	ldr	sl, [pc, #876]	; 30005194 <.text+0x5194>
30004e24:	e5d41000 	ldrb	r1, [r4]
30004e28:	e7da3001 	ldrb	r3, [sl, r1]
30004e2c:	e3130020 	tst	r3, #32	; 0x20
30004e30:	e1a0000a 	mov	r0, sl
30004e34:	0a000003 	beq	30004e48 <.text+0x4e48>
30004e38:	e5f41001 	ldrb	r1, [r4, #1]!
30004e3c:	e7d03001 	ldrb	r3, [r0, r1]
30004e40:	e3130020 	tst	r3, #32	; 0x20
30004e44:	1afffffb 	bne	30004e38 <.text+0x4e38>
30004e48:	e20110ff 	and	r1, r1, #255	; 0xff
30004e4c:	e351002d 	cmp	r1, #45	; 0x2d
30004e50:	13a03000 	movne	r3, #0	; 0x0
30004e54:	02063001 	andeq	r3, r6, #1	; 0x1
30004e58:	e3530000 	cmp	r3, #0	; 0x0
30004e5c:	15d41001 	ldrneb	r1, [r4, #1]
30004e60:	e3510000 	cmp	r1, #0	; 0x0
30004e64:	0affff37 	beq	30004b48 <vsscanf+0xb4>
30004e68:	e3520010 	cmp	r2, #16	; 0x10
30004e6c:	0a000085 	beq	30005088 <.text+0x5088>
30004e70:	e352000a 	cmp	r2, #10	; 0xa
30004e74:	0a00008f 	beq	300050b8 <.text+0x50b8>
30004e78:	e3520008 	cmp	r2, #8	; 0x8
30004e7c:	0a000085 	beq	30005098 <.text+0x5098>
30004e80:	e3520000 	cmp	r2, #0	; 0x0
30004e84:	1a000002 	bne	30004e94 <.text+0x4e94>
30004e88:	e7da3001 	ldrb	r3, [sl, r1]
30004e8c:	e3130004 	tst	r3, #4	; 0x4
30004e90:	0affff2c 	beq	30004b48 <vsscanf+0xb4>
30004e94:	e24e3048 	sub	r3, lr, #72	; 0x48
30004e98:	e3530032 	cmp	r3, #50	; 0x32
30004e9c:	979ff103 	ldrls	pc, [pc, r3, lsl #2]
30004ea0:	eaffffa9 	b	30004d4c <.text+0x4d4c>
30004ea4:	30005068 	andcc	r5, r0, r8, rrx
30004ea8:	30004d4c 	andcc	r4, r0, ip, asr #26
30004eac:	30004d4c 	andcc	r4, r0, ip, asr #26
30004eb0:	30004d4c 	andcc	r4, r0, ip, asr #26
30004eb4:	30005048 	andcc	r5, r0, r8, asr #32
30004eb8:	30004d4c 	andcc	r4, r0, ip, asr #26
30004ebc:	30004d4c 	andcc	r4, r0, ip, asr #26
30004ec0:	30004d4c 	andcc	r4, r0, ip, asr #26
30004ec4:	30004d4c 	andcc	r4, r0, ip, asr #26
30004ec8:	30004d4c 	andcc	r4, r0, ip, asr #26
30004ecc:	30004d4c 	andcc	r4, r0, ip, asr #26
30004ed0:	30004d4c 	andcc	r4, r0, ip, asr #26
30004ed4:	30004d4c 	andcc	r4, r0, ip, asr #26
30004ed8:	30004d4c 	andcc	r4, r0, ip, asr #26
30004edc:	30004d4c 	andcc	r4, r0, ip, asr #26
30004ee0:	30004d4c 	andcc	r4, r0, ip, asr #26
30004ee4:	30004d4c 	andcc	r4, r0, ip, asr #26
30004ee8:	30004d4c 	andcc	r4, r0, ip, asr #26
30004eec:	3000500c 	andcc	r5, r0, ip
30004ef0:	30004d4c 	andcc	r4, r0, ip, asr #26
30004ef4:	30004d4c 	andcc	r4, r0, ip, asr #26
30004ef8:	30004d4c 	andcc	r4, r0, ip, asr #26
30004efc:	30004d4c 	andcc	r4, r0, ip, asr #26
30004f00:	30004d4c 	andcc	r4, r0, ip, asr #26
30004f04:	30004d4c 	andcc	r4, r0, ip, asr #26
30004f08:	30004d4c 	andcc	r4, r0, ip, asr #26
30004f0c:	30004d4c 	andcc	r4, r0, ip, asr #26
30004f10:	30004d4c 	andcc	r4, r0, ip, asr #26
30004f14:	30004d4c 	andcc	r4, r0, ip, asr #26
30004f18:	30004d4c 	andcc	r4, r0, ip, asr #26
30004f1c:	30004d4c 	andcc	r4, r0, ip, asr #26
30004f20:	30004d4c 	andcc	r4, r0, ip, asr #26
30004f24:	30005020 	andcc	r5, r0, r0, lsr #32
30004f28:	30004d4c 	andcc	r4, r0, ip, asr #26
30004f2c:	30004d4c 	andcc	r4, r0, ip, asr #26
30004f30:	30004d4c 	andcc	r4, r0, ip, asr #26
30004f34:	30004d4c 	andcc	r4, r0, ip, asr #26
30004f38:	30004d4c 	andcc	r4, r0, ip, asr #26
30004f3c:	30004d4c 	andcc	r4, r0, ip, asr #26
30004f40:	30004d4c 	andcc	r4, r0, ip, asr #26
30004f44:	30004d4c 	andcc	r4, r0, ip, asr #26
30004f48:	30004d4c 	andcc	r4, r0, ip, asr #26
30004f4c:	30004d4c 	andcc	r4, r0, ip, asr #26
30004f50:	30004d4c 	andcc	r4, r0, ip, asr #26
30004f54:	30004d4c 	andcc	r4, r0, ip, asr #26
30004f58:	30004d4c 	andcc	r4, r0, ip, asr #26
30004f5c:	30004d4c 	andcc	r4, r0, ip, asr #26
30004f60:	30004d4c 	andcc	r4, r0, ip, asr #26
30004f64:	30004d4c 	andcc	r4, r0, ip, asr #26
30004f68:	30004d4c 	andcc	r4, r0, ip, asr #26
30004f6c:	3000500c 	andcc	r5, r0, ip
30004f70:	e59fa21c 	ldr	sl, [pc, #540]	; 30005194 <.text+0x5194>
30004f74:	e5d41000 	ldrb	r1, [r4]
30004f78:	e7da3001 	ldrb	r3, [sl, r1]
30004f7c:	e3700001 	cmn	r0, #1	; 0x1
30004f80:	e495c004 	ldr	ip, [r5], #4
30004f84:	03e00102 	mvneq	r0, #-2147483648	; 0x80000000
30004f88:	e1a0200a 	mov	r2, sl
30004f8c:	e3130020 	tst	r3, #32	; 0x20
30004f90:	0a00004c 	beq	300050c8 <.text+0x50c8>
30004f94:	e5f41001 	ldrb	r1, [r4, #1]!
30004f98:	e7d23001 	ldrb	r3, [r2, r1]
30004f9c:	e3130020 	tst	r3, #32	; 0x20
30004fa0:	eafffffa 	b	30004f90 <.text+0x4f90>
30004fa4:	e3700001 	cmn	r0, #1	; 0x1
30004fa8:	e4953004 	ldr	r3, [r5], #4
30004fac:	e5d41000 	ldrb	r1, [r4]
30004fb0:	03a00001 	moveq	r0, #1	; 0x1
30004fb4:	e2400001 	sub	r0, r0, #1	; 0x1
30004fb8:	e3500000 	cmp	r0, #0	; 0x0
30004fbc:	e4c31001 	strb	r1, [r3], #1
30004fc0:	e2844001 	add	r4, r4, #1	; 0x1
30004fc4:	da000002 	ble	30004fd4 <.text+0x4fd4>
30004fc8:	e5d41000 	ldrb	r1, [r4]
30004fcc:	e3510000 	cmp	r1, #0	; 0x0
30004fd0:	1afffff7 	bne	30004fb4 <.text+0x4fb4>
30004fd4:	e59d1004 	ldr	r1, [sp, #4]
30004fd8:	e2877001 	add	r7, r7, #1	; 0x1
30004fdc:	eaffff67 	b	30004d80 <.text+0x4d80>
30004fe0:	e3a02008 	mov	r2, #8	; 0x8
30004fe4:	eaffff8d 	b	30004e20 <.text+0x4e20>
30004fe8:	e3a02010 	mov	r2, #16	; 0x10
30004fec:	eaffff8b 	b	30004e20 <.text+0x4e20>
30004ff0:	e4d43001 	ldrb	r3, [r4], #1
30004ff4:	e3530025 	cmp	r3, #37	; 0x25
30004ff8:	eafffed1 	b	30004b44 <vsscanf+0xb0>
30004ffc:	e4952004 	ldr	r2, [r5], #4
30005000:	e0683004 	rsb	r3, r8, r4
30005004:	e5823000 	str	r3, [r2]
30005008:	eaffff5c 	b	30004d80 <.text+0x4d80>
3000500c:	e1a00004 	mov	r0, r4
30005010:	e1a0100d 	mov	r1, sp
30005014:	e4954004 	ldr	r4, [r5], #4
30005018:	ebfffb76 	bl	30003df8 <simple_strtoul>
3000501c:	eaffff50 	b	30004d64 <.text+0x4d64>
30005020:	e3560000 	cmp	r6, #0	; 0x0
30005024:	0a00004b 	beq	30005158 <.text+0x5158>
30005028:	e1a00004 	mov	r0, r4
3000502c:	e1a0100d 	mov	r1, sp
30005030:	e4954004 	ldr	r4, [r5], #4
30005034:	ebfffbad 	bl	30003ef0 <simple_strtol>
30005038:	e1a03440 	mov	r3, r0, asr #8
3000503c:	e5c43001 	strb	r3, [r4, #1]
30005040:	e5c40000 	strb	r0, [r4]
30005044:	eaffff47 	b	30004d68 <.text+0x4d68>
30005048:	e3560000 	cmp	r6, #0	; 0x0
3000504c:	0a00003c 	beq	30005144 <.text+0x5144>
30005050:	e1a00004 	mov	r0, r4
30005054:	e1a0100d 	mov	r1, sp
30005058:	e4954004 	ldr	r4, [r5], #4
3000505c:	ebfffbff 	bl	30004060 <simple_strtoll>
30005060:	e8840003 	stmia	r4, {r0, r1}
30005064:	eaffff3f 	b	30004d68 <.text+0x4d68>
30005068:	e3560000 	cmp	r6, #0	; 0x0
3000506c:	0a00002e 	beq	3000512c <.text+0x512c>
30005070:	e1a00004 	mov	r0, r4
30005074:	e1a0100d 	mov	r1, sp
30005078:	e4954004 	ldr	r4, [r5], #4
3000507c:	ebfffb9b 	bl	30003ef0 <simple_strtol>
30005080:	e5c40000 	strb	r0, [r4]
30005084:	eaffff37 	b	30004d68 <.text+0x4d68>
30005088:	e7da3001 	ldrb	r3, [sl, r1]
3000508c:	e3130044 	tst	r3, #68	; 0x44
30005090:	1affff78 	bne	30004e78 <.text+0x4e78>
30005094:	eafffeab 	b	30004b48 <vsscanf+0xb4>
30005098:	e7da3001 	ldrb	r3, [sl, r1]
3000509c:	e1a03123 	mov	r3, r3, lsr #2
300050a0:	e2233001 	eor	r3, r3, #1	; 0x1
300050a4:	e3510037 	cmp	r1, #55	; 0x37
300050a8:	83833001 	orrhi	r3, r3, #1	; 0x1
300050ac:	e3130001 	tst	r3, #1	; 0x1
300050b0:	0affff77 	beq	30004e94 <.text+0x4e94>
300050b4:	eafffea3 	b	30004b48 <vsscanf+0xb4>
300050b8:	e7da3001 	ldrb	r3, [sl, r1]
300050bc:	e3130004 	tst	r3, #4	; 0x4
300050c0:	1affff6e 	bne	30004e80 <.text+0x4e80>
300050c4:	eafffe9f 	b	30004b48 <vsscanf+0xb4>
300050c8:	e20130ff 	and	r3, r1, #255	; 0xff
300050cc:	e3530000 	cmp	r3, #0	; 0x0
300050d0:	e1a02001 	mov	r2, r1
300050d4:	0a000011 	beq	30005120 <.text+0x5120>
300050d8:	e59fa0b4 	ldr	sl, [pc, #180]	; 30005194 <.text+0x5194>
300050dc:	e7da3003 	ldrb	r3, [sl, r3]
300050e0:	e3130020 	tst	r3, #32	; 0x20
300050e4:	e1a0100a 	mov	r1, sl
300050e8:	1a00000c 	bne	30005120 <.text+0x5120>
300050ec:	e2400001 	sub	r0, r0, #1	; 0x1
300050f0:	ea000008 	b	30005118 <.text+0x5118>
300050f4:	e4cc2001 	strb	r2, [ip], #1
300050f8:	e2400001 	sub	r0, r0, #1	; 0x1
300050fc:	e5f42001 	ldrb	r2, [r4, #1]!
30005100:	e20230ff 	and	r3, r2, #255	; 0xff
30005104:	e3530000 	cmp	r3, #0	; 0x0
30005108:	0a000004 	beq	30005120 <.text+0x5120>
3000510c:	e7d13003 	ldrb	r3, [r1, r3]
30005110:	e3130020 	tst	r3, #32	; 0x20
30005114:	1a000001 	bne	30005120 <.text+0x5120>
30005118:	e3700001 	cmn	r0, #1	; 0x1
3000511c:	1afffff4 	bne	300050f4 <.text+0x50f4>
30005120:	e3a03000 	mov	r3, #0	; 0x0
30005124:	e5cc3000 	strb	r3, [ip]
30005128:	eaffffa9 	b	30004fd4 <.text+0x4fd4>
3000512c:	e1a00004 	mov	r0, r4
30005130:	e1a0100d 	mov	r1, sp
30005134:	e4954004 	ldr	r4, [r5], #4
30005138:	ebfffb2e 	bl	30003df8 <simple_strtoul>
3000513c:	e5c40000 	strb	r0, [r4]
30005140:	eaffff08 	b	30004d68 <.text+0x4d68>
30005144:	e1a00004 	mov	r0, r4
30005148:	e1a0100d 	mov	r1, sp
3000514c:	e4954004 	ldr	r4, [r5], #4
30005150:	ebfffb70 	bl	30003f18 <simple_strtoull>
30005154:	eaffffc1 	b	30005060 <.text+0x5060>
30005158:	e1a00004 	mov	r0, r4
3000515c:	e1a0100d 	mov	r1, sp
30005160:	e4954004 	ldr	r4, [r5], #4
30005164:	ebfffb23 	bl	30003df8 <simple_strtoul>
30005168:	eaffffb2 	b	30005038 <.text+0x5038>
3000516c:	e35e0068 	cmp	lr, #104	; 0x68
30005170:	02811001 	addeq	r1, r1, #1	; 0x1
30005174:	024ee020 	subeq	lr, lr, #32	; 0x20
30005178:	058d1004 	streq	r1, [sp, #4]
3000517c:	0afffe89 	beq	30004ba8 <vsscanf+0x114>
30005180:	e35e006c 	cmp	lr, #108	; 0x6c
30005184:	02811001 	addeq	r1, r1, #1	; 0x1
30005188:	024ee020 	subeq	lr, lr, #32	; 0x20
3000518c:	058d1004 	streq	r1, [sp, #4]
30005190:	eafffe84 	b	30004ba8 <vsscanf+0x114>
30005194:	30005df0 	strccd	r5, [r0], -r0

30005198 <sscanf>:
30005198:	e92d000e 	stmdb	sp!, {r1, r2, r3}
3000519c:	e52de004 	str	lr, [sp, #-4]!
300051a0:	e59d1004 	ldr	r1, [sp, #4]
300051a4:	e28d2008 	add	r2, sp, #8	; 0x8
300051a8:	ebfffe39 	bl	30004a94 <vsscanf>
300051ac:	e49de004 	ldr	lr, [sp], #4
300051b0:	e28dd00c 	add	sp, sp, #12	; 0xc
300051b4:	e1a0f00e 	mov	pc, lr
Disassembly of section .rodata:

300051b8 <small_digits.1>:
300051b8:	33323130 	teqcc	r2, #12	; 0xc
300051bc:	37363534 	undefined
300051c0:	62613938 	rsbvs	r3, r1, #917504	; 0xe0000
300051c4:	66656463 	strvsbt	r6, [r5], -r3, ror #8
300051c8:	6a696867 	bvs	31a5f36c <__bss_end+0x1a52ed8>
300051cc:	6e6d6c6b 	cdpvs	12, 6, cr6, cr13, cr11, {3}
300051d0:	7271706f 	rsbvcs	r7, r1, #111	; 0x6f
300051d4:	76757473 	undefined
300051d8:	7a797877 	bvc	31e633bc <__bss_end+0x1e56f28>
300051dc:	00000000 	andeq	r0, r0, r0

300051e0 <large_digits.2>:
300051e0:	33323130 	teqcc	r2, #12	; 0xc
300051e4:	37363534 	undefined
300051e8:	42413938 	submi	r3, r1, #917504	; 0xe0000
300051ec:	46454443 	strmib	r4, [r5], -r3, asr #8
300051f0:	4a494847 	bmi	31257314 <__bss_end+0x124ae80>
300051f4:	4e4d4c4b 	cdpmi	12, 4, cr4, cr13, cr11, {2}
300051f8:	5251504f 	subpls	r5, r1, #79	; 0x4f
300051fc:	56555453 	undefined
30005200:	5a595857 	bpl	3165b364 <__bss_end+0x164eed0>
30005204:	00000000 	andeq	r0, r0, r0
Disassembly of section .rodata.str1.4:

30005208 <.rodata.str1.4>:
30005208:	20202020 	eorcs	r2, r0, r0, lsr #32
3000520c:	20747542 	rsbcss	r7, r4, r2, asr #10
30005210:	616d2061 	cmnvs	sp, r1, rrx
30005214:	7369206e 	cmnvc	r9, #110	; 0x6e
30005218:	746f6e20 	strvcbt	r6, [pc], #3616	; 30005220 <large_digits.2+0x40>
3000521c:	64616d20 	strvsbt	r6, [r1], #-3360
30005220:	6f662065 	swivs	0x00662065
30005224:	65642072 	strvsb	r2, [r4, #-114]!
30005228:	74616566 	strvcbt	r6, [r1], #-1382
3000522c:	2041202e 	subcs	r2, r1, lr, lsr #32
30005230:	206e616d 	rsbcs	r6, lr, sp, ror #2
30005234:	206e6163 	rsbcs	r6, lr, r3, ror #2
30005238:	64206562 	strvst	r6, [r0], #-1378
3000523c:	72747365 	rsbvcs	r7, r4, #-1811939327	; 0x94000001
30005240:	6465796f 	strvsbt	r7, [r5], #-2415
30005244:	74756220 	ldrvcbt	r6, [r5], #-544
30005248:	746f6e20 	strvcbt	r6, [pc], #3616	; 30005250 <large_digits.2+0x70>
3000524c:	66656420 	strvsbt	r6, [r5], -r0, lsr #8
30005250:	65746165 	ldrvsb	r6, [r4, #-357]!
30005254:	00002e64 	andeq	r2, r0, r4, ror #28
30005258:	64616572 	strvsbt	r6, [r1], #-1394
3000525c:	20676e69 	rsbcs	r6, r7, r9, ror #28
30005260:	61746164 	cmnvs	r4, r4, ror #2
30005264:	2e2e2e2e 	cdpcs	14, 2, cr2, cr14, cr14, {1}
30005268:	00000a72 	andeq	r0, r0, r2, ror sl
3000526c:	7269662f 	rsbvc	r6, r9, #49283072	; 0x2f00000
30005270:	00007473 	andeq	r7, r0, r3, ror r4
30005274:	e48796e6 	str	r9, [r7], #1766
30005278:	88e5b6bb 	stmhiia	r5!, {r0, r1, r3, r4, r5, r7, r9, sl, ip, sp, pc}^
3000527c:	babbe59b 	blt	2eefe8f0 <DISABLE_IRQ+0x2eefe870>
30005280:	e59088e6 	ldr	r8, [r0, #2278]
30005284:	bcef9f8a 	stcltl	15, cr9, [pc], #552
30005288:	94bfe88c 	ldrlst	lr, [pc], #2188	; 30005290 <large_digits.2+0xb0>
3000528c:	e79e9be5 	ldr	r9, [lr, r5, ror #23]
30005290:	6466849a 	strvsbt	r8, [r6], #-1178
30005294:	6425203a 	strvst	r2, [r5], #-58
30005298:	00000a0d 	andeq	r0, r0, sp, lsl #20
3000529c:	e59986e5 	ldr	r8, [r9, #1765]
300052a0:	9ae7a585 	bls	2f9ee8bc <DISABLE_IRQ+0x2f9ee83c>
300052a4:	8796e684 	ldrhi	lr, [r6, r4, lsl #13]
300052a8:	e9b6bbe4 	ldmib	r6!, {r2, r5, r6, r7, r8, r9, fp, ip, sp, pc}
300052ac:	bae5bf95 	blt	2f975108 <DISABLE_IRQ+0x2f975088>
300052b0:	25203aa6 	strcs	r3, [r0, #-2726]!
300052b4:	000a0d64 	andeq	r0, sl, r4, ror #26
300052b8:	e48796e6 	str	r9, [r7], #1766
300052bc:	89e6b6bb 	stmhiib	r6!, {r0, r1, r3, r4, r5, r7, r9, sl, ip, sp, pc}^
300052c0:	80bce593 	umlalhis	lr, ip, r3, r5
300052c4:	e59088e6 	ldr	r8, [r0, #2278]
300052c8:	bcef9f8a 	stcltl	15, cr9, [pc], #552
300052cc:	94bfe88c 	ldrlst	lr, [pc], #2188	; 300052d4 <large_digits.2+0xf4>
300052d0:	e79e9be5 	ldr	r9, [lr, r5, ror #23]
300052d4:	6466849a 	strvsbt	r8, [r6], #-1178
300052d8:	6425203a 	strvst	r2, [r5], #-58
300052dc:	00000a0d 	andeq	r0, r0, sp, lsl #20
300052e0:	e5bbafe8 	ldr	sl, [fp, #4072]!
300052e4:	9ae7ba87 	bls	2f9f3d08 <DISABLE_IRQ+0x2f9f3c88>
300052e8:	8796e684 	ldrhi	lr, [r6, r4, lsl #13]
300052ec:	e9b6bbe4 	ldmib	r6!, {r2, r5, r6, r7, r8, r9, fp, ip, sp, pc}
300052f0:	bae5bf95 	blt	2f97514c <DISABLE_IRQ+0x2f9750cc>
300052f4:	25203aa6 	strcs	r3, [r0, #-2726]!
300052f8:	e6202c64 	strt	r2, [r0], -r4, ror #24
300052fc:	bbe48796 	bllt	2f92715c <DISABLE_IRQ+0x2f9270dc>
30005300:	8586e5b6 	strhi	lr, [r6, #1462]
30005304:	e4b9aee5 	ldrt	sl, [r9], #3813
30005308:	203abab8 	ldrcsh	fp, [sl], -r8
3000530c:	0a0d7325 	beq	30361fa8 <__bss_end+0x355b14>
30005310:	00000000 	andeq	r0, r0, r0
30005314:	e594bfe8 	ldr	fp, [r4, #4072]
30005318:	9ae79e9b 	bls	2f9ecd8c <DISABLE_IRQ+0x2f9ecd0c>
3000531c:	3a646684 	bcc	3191ed34 <__bss_end+0x19128a0>
30005320:	0d642520 	cfstr64eq	mvdx2, [r4, #-128]!
30005324:	0000000a 	andeq	r0, r0, sl
30005328:	6f63203a 	swivs	0x0063203a
3000532c:	6e616d6d 	cdpvs	13, 6, cr6, cr1, cr13, {3}
30005330:	6f6e2064 	swivs	0x006e2064
30005334:	6f662074 	swivs	0x00662074
30005338:	00646e75 	rsbeq	r6, r4, r5, ror lr
3000533c:	6c6c6568 	cfstr64vs	mvdx6, [ip], #-416
30005340:	8cbcef6f 	ldchi	15, cr14, [ip], #444
30005344:	6220796d 	eorvs	r7, r0, #1785856	; 0x1b4000
30005348:	0021796f 	eoreq	r7, r1, pc, ror #18
3000534c:	2064636c 	rsbcs	r6, r4, ip, ror #6
30005350:	74736574 	ldrvcbt	r6, [r3], #-1396
30005354:	63757320 	cmnvs	r5, #-2147483648	; 0x80000000
30005358:	73736563 	cmnvc	r3, #415236096	; 0x18c00000
3000535c:	00000000 	andeq	r0, r0, r0
30005360:	625f796d 	subvss	r7, pc, #1785856	; 0x1b4000
30005364:	6c746f6f 	ldcvsl	15, cr6, [r4], #-444
30005368:	6564616f 	strvsb	r6, [r4, #-367]!
3000536c:	00202372 	eoreq	r2, r0, r2, ror r3
30005370:	69727473 	ldmvsdb	r2!, {r0, r1, r4, r5, r6, sl, ip, sp, lr}^
30005374:	0000676e 	andeq	r6, r0, lr, ror #14
30005378:	6761687a 	undefined
3000537c:	2075786e 	rsbcss	r7, r5, lr, ror #16
30005380:	2f206425 	swics	0x00206425
30005384:	206e2f72 	rsbcs	r2, lr, r2, ror pc
30005388:	722f7325 	eorvc	r7, pc, #-1811939328	; 0x94000000
3000538c:	00006e2f 	andeq	r6, r0, pc, lsr #28
30005390:	776f6873 	undefined
30005394:	7269645f 	rsbvc	r6, r9, #1593835520	; 0x5f000000
30005398:	746e655f 	strvcbt	r6, [lr], #-1375
3000539c:	afba7972 	swige	0x00ba7972
300053a0:	203afdca 	eorcss	pc, sl, sl, asr #27
300053a4:	bcc2bfc4 	stcltl	15, cr11, [r2], {196}
300053a8:	ddbefdca 	ldcle	13, cr15, [lr, #808]!
300053ac:	ebc8c1b6 	bl	2f235a8c <DISABLE_IRQ+0x2f235a0c>
300053b0:	a6b9c9b3 	undefined
300053b4:	0a0da1a3 	beq	3036da48 <__bss_end+0x3615b4>
300053b8:	00000000 	andeq	r0, r0, r0
300053bc:	776f6873 	undefined
300053c0:	7269645f 	rsbvc	r6, r9, #1593835520	; 0x5f000000
300053c4:	746e655f 	strvcbt	r6, [lr], #-1375
300053c8:	afba7972 	swige	0x00ba7972
300053cc:	203afdca 	eorcss	pc, sl, sl, asr #27
300053d0:	bcc2bfc4 	stcltl	15, cr11, [r2], {196}
300053d4:	ddbefdca 	ldcle	13, cr15, [lr, #808]!
300053d8:	ebc8c1b6 	bl	2f235ab8 <DISABLE_IRQ+0x2f235a38>
300053dc:	dcb0a7ca 	ldcle	7, cr10, [r0], #808
300053e0:	0a0da1a3 	beq	3036da74 <__bss_end+0x3615e0>
300053e4:	00000000 	andeq	r0, r0, r0
300053e8:	febcc4ce 	cdp2	4, 11, cr12, cr12, cr14, {6}
300053ec:	baa3fbc3 	blt	2e904300 <DISABLE_IRQ+0x2e904280>
300053f0:	0d732520 	cfldr64eq	mvdx2, [r3, #-128]!
300053f4:	0000000a 	andeq	r0, r0, sl
300053f8:	74697277 	strvcbt	r7, [r9], #-631
300053fc:	75732065 	ldrvcb	r2, [r3, #-101]!
30005400:	5f726570 	swipl	0x00726570
30005404:	636f6c62 	cmnvs	pc, #25088	; 0x6200
30005408:	6164206b 	cmnvs	r4, fp, rrx
3000540c:	73206174 	teqvc	r0, #29	; 0x1d
30005410:	65636375 	strvsb	r6, [r3, #-885]!
30005414:	a1a37373 	movge	r7, r3, ror r3
30005418:	00000a0d 	andeq	r0, r0, sp, lsl #20
3000541c:	74697277 	strvcbt	r7, [r9], #-631
30005420:	75732065 	ldrvcb	r2, [r3, #-101]!
30005424:	5f726570 	swipl	0x00726570
30005428:	636f6c62 	cmnvs	pc, #25088	; 0x6200
3000542c:	6164206b 	cmnvs	r4, fp, rrx
30005430:	66206174 	undefined
30005434:	656c6961 	strvsb	r6, [ip, #-2401]!
30005438:	0da1a364 	stceq	3, cr10, [r1, #400]!
3000543c:	0000000a 	andeq	r0, r0, sl
30005440:	646f6e69 	strvsbt	r6, [pc], #3689	; 30005448 <large_digits.2+0x268>
30005444:	d2f7cb65 	rscles	ip, r7, #103424	; 0x19400
30005448:	cdbbcefd 	ldcgt	14, cr12, [fp, #1012]!
3000544c:	befdcabc 	mrclt	10, 7, ip, cr13, cr12, {5}
30005450:	c8b4d0dd 	ldmgtia	r4!, {r0, r2, r3, r4, r6, r7, ip, lr, pc}
30005454:	b9c9b3eb 	stmltib	r9, {r0, r1, r3, r5, r6, r7, r8, r9, ip, sp, pc}^
30005458:	0da1a3a6 	stceq	3, cr10, [r1, #664]!
3000545c:	0000000a 	andeq	r0, r0, sl
30005460:	646f6e69 	strvsbt	r6, [pc], #3689	; 30005468 <large_digits.2+0x288>
30005464:	d2f7cb65 	rscles	ip, r7, #103424	; 0x19400
30005468:	cdbbcefd 	ldcgt	14, cr12, [fp, #1012]!
3000546c:	befdcabc 	mrclt	10, 7, ip, cr13, cr12, {5}
30005470:	c8b4d0dd 	ldmgtia	r4!, {r0, r2, r3, r4, r6, r7, ip, lr, pc}
30005474:	b0a7caeb 	adclt	ip, r7, fp, ror #21
30005478:	0da1a3dc 	stceq	3, cr10, [r1, #880]!
3000547c:	0000000a 	andeq	r0, r0, sl
30005480:	f8c7c8c9 	stmnvia	r7, {r0, r3, r6, r7, fp, lr, pc}^
30005484:	fdd2f7cb 	ldc2l	7, cr15, [r2, #812]
30005488:	bccdbbce 	stcltl	11, cr11, [sp], {206}
3000548c:	bbd2dab5 	bllt	2f4bbf68 <DISABLE_IRQ+0x2f4bbee8>
30005490:	c8c9f6b8 	stmgtia	r9, {r3, r4, r5, r7, r9, sl, ip, sp, lr, pc}^
30005494:	fdcaf8c7 	stc2l	8, cr15, [sl, #796]
30005498:	b4d0ddbe 	ldrltb	sp, [r0], #3518
3000549c:	c9b3ebc8 	ldmgtib	r3!, {r3, r6, r7, r8, r9, fp, sp, lr, pc}
300054a0:	a1a3a6b9 	strgeh	sl, [r3, r9]!
300054a4:	00000a0d 	andeq	r0, r0, sp, lsl #20
300054a8:	f8c7c8c9 	stmnvia	r7, {r0, r3, r6, r7, fp, lr, pc}^
300054ac:	fdd2f7cb 	ldc2l	7, cr15, [r2, #812]
300054b0:	bccdbbce 	stcltl	11, cr11, [sp], {206}
300054b4:	bbd2dab5 	bllt	2f4bbf90 <DISABLE_IRQ+0x2f4bbf10>
300054b8:	c8c9f6b8 	stmgtia	r9, {r3, r4, r5, r7, r9, sl, ip, sp, lr, pc}^
300054bc:	fdcaf8c7 	stc2l	8, cr15, [sl, #796]
300054c0:	b4d0ddbe 	ldrltb	sp, [r0], #3518
300054c4:	a7caebc8 	strgeb	lr, [sl, r8, asr #23]
300054c8:	a1a3dcb0 	strgeh	sp, [r3, r0]!
300054cc:	00000a0d 	andeq	r0, r0, sp, lsl #20
300054d0:	646f6e69 	strvsbt	r6, [pc], #3689	; 300054d8 <large_digits.2+0x2f8>
300054d4:	befdca65 	ftosislt	s25, s11
300054d8:	c8b4d0dd 	ldmgtia	r4!, {r0, r2, r3, r4, r6, r7, ip, lr, pc}
300054dc:	b9c9b3eb 	stmltib	r9, {r0, r1, r3, r5, r6, r7, r8, r9, ip, sp, pc}^
300054e0:	0da1a3a6 	stceq	3, cr10, [r1, #664]!
300054e4:	0000000a 	andeq	r0, r0, sl
300054e8:	646f6e69 	strvsbt	r6, [pc], #3689	; 300054f0 <large_digits.2+0x310>
300054ec:	befdca65 	ftosislt	s25, s11
300054f0:	c8b4d0dd 	ldmgtia	r4!, {r0, r2, r3, r4, r6, r7, ip, lr, pc}
300054f4:	b0a7caeb 	adclt	ip, r7, fp, ror #21
300054f8:	0da1a3dc 	stceq	3, cr10, [r1, #880]!
300054fc:	0000000a 	andeq	r0, r0, sl
30005500:	0000002e 	andeq	r0, r0, lr, lsr #32
30005504:	5f766564 	swipl	0x00766564
30005508:	31797474 	cmncc	r9, r4, ror r4
3000550c:	00000000 	andeq	r0, r0, r0
30005510:	5f766564 	swipl	0x00766564
30005514:	30797474 	rsbccs	r7, r9, r4, ror r4
30005518:	00000000 	andeq	r0, r0, r0
3000551c:	bfc4f9b8 	swilt	0x00c4f9b8
30005520:	ca2fbcc2 	bgt	30bf4830 <__bss_end+0xbe839c>
30005524:	d0ddbefd 	ldrlesh	fp, [sp], #237
30005528:	b3ebc8b4 	mvnlt	ip, #11796480	; 0xb40000
3000552c:	a3a6b9c9 	movge	fp, #3293184	; 0x324000
30005530:	000a0da1 	andeq	r0, sl, r1, lsr #27
30005534:	bfc4f9b8 	swilt	0x00c4f9b8
30005538:	ca2fbcc2 	bgt	30bf4848 <__bss_end+0xbe83b4>
3000553c:	d0ddbefd 	ldrlesh	fp, [sp], #237
30005540:	caebc8b4 	bgt	2faf7818 <DISABLE_IRQ+0x2faf7798>
30005544:	a3dcb0a7 	bicges	fp, ip, #167	; 0xa7
30005548:	000a0da1 	andeq	r0, sl, r1, lsr #27
3000554c:	5f766564 	swipl	0x00766564
30005550:	32797474 	rsbccs	r7, r9, #1946157056	; 0x74000000
30005554:	00000000 	andeq	r0, r0, r0
30005558:	b6bcacb3 	undefined
3000555c:	fdcaecbf 	stc2l	12, cr14, [sl, #764]
30005560:	c1b6ddbe 	ldrgth	sp, [r6, lr]!
30005564:	c9b3ebc8 	ldmgtib	r3!, {r3, r6, r7, r8, r9, fp, sp, lr, pc}
30005568:	a1a3a6b9 	strgeh	sl, [r3, r9]!
3000556c:	00000a0d 	andeq	r0, r0, sp, lsl #20
30005570:	b6bcacb3 	undefined
30005574:	fdcaecbf 	stc2l	12, cr14, [sl, #764]
30005578:	c1b6ddbe 	ldrgth	sp, [r6, lr]!
3000557c:	a7caebc8 	strgeb	lr, [sl, r8, asr #23]
30005580:	a1a3dcb0 	strgeh	sp, [r3, r0]!
30005584:	00000a0d 	andeq	r0, r0, sp, lsl #20
30005588:	65707573 	ldrvsb	r7, [r0, #-1395]!
3000558c:	6c625f72 	stcvsl	15, cr5, [r2], #-456
30005590:	206b636f 	rsbcs	r6, fp, pc, ror #6
30005594:	746f6c73 	strvcbt	r6, [pc], #3187	; 3000559c <large_digits.2+0x3bc>
30005598:	73752073 	cmnvc	r5, #115	; 0x73
3000559c:	75206465 	strvc	r6, [r0, #-1125]!
300055a0:	000a0d70 	andeq	r0, sl, r0, ror sp
300055a4:	65707573 	ldrvsb	r7, [r0, #-1395]!
300055a8:	6c622072 	stcvsl	0, cr2, [r2], #-456
300055ac:	206b636f 	rsbcs	r6, fp, pc, ror #6
300055b0:	6420666f 	strvst	r6, [r0], #-1647
300055b4:	65697665 	strvsb	r7, [r9, #-1637]!
300055b8:	20642520 	rsbcs	r2, r4, r0, lsr #10
300055bc:	20746f6e 	rsbcss	r6, r4, lr, ror #30
300055c0:	6e756f66 	cdpvs	15, 7, cr6, cr5, cr6, {3}
300055c4:	000a2e64 	andeq	r2, sl, r4, ror #28
300055c8:	5f6b6c62 	swipl	0x006b6c62
300055cc:	3d20726e 	sfmcc	f7, 4, [r0, #-440]!
300055d0:	0d642520 	cfstr64eq	mvdx2, [r4, #-128]!
300055d4:	0000000a 	andeq	r0, r0, sl
300055d8:	bfc4f9b8 	swilt	0x00c4f9b8
300055dc:	c4cebcc2 	strgtb	fp, [lr], #3266
300055e0:	c4b5febc 	ldrgtt	pc, [r5], #3772
300055e4:	646f6e69 	strvsbt	r6, [pc], #3689	; 300055ec <large_digits.2+0x40c>
300055e8:	befdca65 	ftosislt	s25, s11
300055ec:	c8c1b6dd 	stmgtia	r1, {r0, r2, r3, r4, r6, r7, r9, sl, ip, sp, pc}^
300055f0:	b9c9b3eb 	stmltib	r9, {r0, r1, r3, r5, r6, r7, r8, r9, ip, sp, pc}^
300055f4:	0da1a3a6 	stceq	3, cr10, [r1, #664]!
300055f8:	0000000a 	andeq	r0, r0, sl
300055fc:	bfc4f9b8 	swilt	0x00c4f9b8
30005600:	c4cebcc2 	strgtb	fp, [lr], #3266
30005604:	c4b5febc 	ldrgtt	pc, [r5], #3772
30005608:	646f6e69 	strvsbt	r6, [pc], #3689	; 30005610 <large_digits.2+0x430>
3000560c:	befdca65 	ftosislt	s25, s11
30005610:	c8c1b6dd 	stmgtia	r1, {r0, r2, r3, r4, r6, r7, r9, sl, ip, sp, pc}^
30005614:	b0a7caeb 	adclt	ip, r7, fp, ror #21
30005618:	0da1a3dc 	stceq	3, cr10, [r1, #880]!
3000561c:	0000000a 	andeq	r0, r0, sl
30005620:	756e2828 	strvcb	r2, [lr, #-2088]!
30005624:	202d206d 	eorcs	r2, sp, sp, rrx
30005628:	20292031 	eorcs	r2, r9, r1, lsr r0
3000562c:	53282025 	teqpl	r8, #37	; 0x25
30005630:	4f544345 	swimi	0x00544345
30005634:	49535f52 	ldmmidb	r3, {r1, r4, r6, r8, r9, sl, fp, ip, lr}^
30005638:	2f20455a 	swics	0x0020455a
3000563c:	4f4e4920 	swimi	0x004e4920
30005640:	535f4544 	cmppl	pc, #285212672	; 0x11000000
30005644:	29455a49 	stmcsdb	r5, {r0, r3, r6, r9, fp, ip, lr}^
30005648:	203d2029 	eorcss	r2, sp, r9, lsr #32
3000564c:	0a0d6425 	beq	3035e6e8 <__bss_end+0x352254>
30005650:	00000000 	andeq	r0, r0, r0
30005654:	20656874 	rsbcs	r6, r5, r4, ror r8
30005658:	646f6e69 	strvsbt	r6, [pc], #3689	; 30005660 <large_digits.2+0x480>
3000565c:	61742065 	cmnvs	r4, r5, rrx
30005660:	20656c62 	rsbcs	r6, r5, r2, ror #24
30005664:	66207369 	strvst	r7, [r0], -r9, ror #6
30005668:	0d6c6c75 	stceql	12, cr6, [ip, #-468]!
3000566c:	0000000a 	andeq	r0, r0, sl
30005670:	646f6e69 	strvsbt	r6, [pc], #3689	; 30005678 <large_digits.2+0x498>
30005674:	befdca65 	ftosislt	s25, s11
30005678:	d0d8bbdd 	ldrlesb	fp, [r8], #189
3000567c:	b9c9b3b4 	stmltib	r9, {r2, r4, r5, r7, r8, r9, ip, sp, pc}^
30005680:	0da1a3a6 	stceq	3, cr10, [r1, #664]!
30005684:	0000000a 	andeq	r0, r0, sl
30005688:	646f6e69 	strvsbt	r6, [pc], #3689	; 30005690 <large_digits.2+0x4b0>
3000568c:	befdca65 	ftosislt	s25, s11
30005690:	d0d8bbdd 	ldrlesb	fp, [r8], #189
30005694:	b0a7cab4 	strlth	ip, [r7], r4
30005698:	0da1a3dc 	stceq	3, cr10, [r1, #880]!
3000569c:	0000000a 	andeq	r0, r0, sl
300056a0:	646f6e69 	strvsbt	r6, [pc], #3689	; 300056a8 <large_digits.2+0x4c8>
300056a4:	d2f7cb65 	rscles	ip, r7, #103424	; 0x19400
300056a8:	cdbbcefd 	ldcgt	14, cr12, [fp, #1012]!
300056ac:	befdcabc 	mrclt	10, 7, ip, cr13, cr12, {5}
300056b0:	c8c1b6dd 	stmgtia	r1, {r0, r2, r3, r4, r6, r7, r9, sl, ip, sp, pc}^
300056b4:	b9c9b3eb 	stmltib	r9, {r0, r1, r3, r5, r6, r7, r8, r9, ip, sp, pc}^
300056b8:	0da1a3a6 	stceq	3, cr10, [r1, #664]!
300056bc:	0000000a 	andeq	r0, r0, sl
300056c0:	646f6e69 	strvsbt	r6, [pc], #3689	; 300056c8 <large_digits.2+0x4e8>
300056c4:	d2f7cb65 	rscles	ip, r7, #103424	; 0x19400
300056c8:	cdbbcefd 	ldcgt	14, cr12, [fp, #1012]!
300056cc:	befdcabc 	mrclt	10, 7, ip, cr13, cr12, {5}
300056d0:	bcf6d4dd 	cfldrdlt	mvd13, [r6], #884
300056d4:	b9c9b3d3 	stmltib	r9, {r0, r1, r4, r6, r7, r8, r9, ip, sp, pc}^
300056d8:	0da1a3a6 	stceq	3, cr10, [r1, #664]!
300056dc:	0000000a 	andeq	r0, r0, sl
300056e0:	646f6e69 	strvsbt	r6, [pc], #3689	; 300056e8 <large_digits.2+0x508>
300056e4:	d2f7cb65 	rscles	ip, r7, #103424	; 0x19400
300056e8:	cdbbcefd 	ldcgt	14, cr12, [fp, #1012]!
300056ec:	befdcabc 	mrclt	10, 7, ip, cr13, cr12, {5}
300056f0:	bcf6d4dd 	cfldrdlt	mvd13, [r6], #884
300056f4:	b0a7cad3 	ldrltd	ip, [r7], r3
300056f8:	0da1a3dc 	stceq	3, cr10, [r1, #880]!
300056fc:	0000000a 	andeq	r0, r0, sl
30005700:	646f6e69 	strvsbt	r6, [pc], #3689	; 30005708 <large_digits.2+0x528>
30005704:	d2f7cb65 	rscles	ip, r7, #103424	; 0x19400
30005708:	cdbbcefd 	ldcgt	14, cr12, [fp, #1012]!
3000570c:	befdcabc 	mrclt	10, 7, ip, cr13, cr12, {5}
30005710:	c8c1b6dd 	stmgtia	r1, {r0, r2, r3, r4, r6, r7, r9, sl, ip, sp, pc}^
30005714:	b0a7caeb 	adclt	ip, r7, fp, ror #21
30005718:	0da1a3dc 	stceq	3, cr10, [r1, #880]!
3000571c:	0000000a 	andeq	r0, r0, sl
30005720:	646f6e69 	strvsbt	r6, [pc], #3689	; 30005728 <large_digits.2+0x548>
30005724:	616d2d65 	cmnvs	sp, r5, ror #26
30005728:	73692070 	cmnvc	r9, #112	; 0x70
3000572c:	6f727020 	swivs	0x00727020
30005730:	6c626162 	stfvse	f6, [r2], #-392
30005734:	75662079 	strvcb	r2, [r6, #-121]!
30005738:	0d216c6c 	stceq	12, cr6, [r1, #-432]!
3000573c:	0000000a 	andeq	r0, r0, sl
30005740:	f8c7c8c9 	stmnvia	r7, {r0, r3, r6, r7, fp, lr, pc}^
30005744:	fdd2f7cb 	ldc2l	7, cr15, [r2, #812]
30005748:	bccdbbce 	stcltl	11, cr11, [sp], {206}
3000574c:	ddbefdca 	ldcle	13, cr15, [lr, #808]!
30005750:	ebc8c1b6 	bl	2f235e30 <DISABLE_IRQ+0x2f235db0>
30005754:	a6b9c9b3 	undefined
30005758:	0a0da1a3 	beq	3036ddec <__bss_end+0x361958>
3000575c:	00000000 	andeq	r0, r0, r0
30005760:	f8c7c8c9 	stmnvia	r7, {r0, r3, r6, r7, fp, lr, pc}^
30005764:	fdd2f7cb 	ldc2l	7, cr15, [r2, #812]
30005768:	bccdbbce 	stcltl	11, cr11, [sp], {206}
3000576c:	ddbefdca 	ldcle	13, cr15, [lr, #808]!
30005770:	ebc8c1b6 	bl	2f235e50 <DISABLE_IRQ+0x2f235dd0>
30005774:	dcb0a7ca 	ldcle	7, cr10, [r0], #808
30005778:	0a0da1a3 	beq	3036de0c <__bss_end+0x361978>
3000577c:	00000000 	andeq	r0, r0, r0
30005780:	f8c7c8c9 	stmnvia	r7, {r0, r3, r6, r7, fp, lr, pc}^
30005784:	fdd2f7cb 	ldc2l	7, cr15, [r2, #812]
30005788:	bccdbbce 	stcltl	11, cr11, [sp], {206}
3000578c:	ddbefdca 	ldcle	13, cr15, [lr, #808]!
30005790:	d3bcf6d4 	movles	pc, #222298112	; 0xd400000
30005794:	a6b9c9b3 	undefined
30005798:	0a0da1a3 	beq	3036de2c <__bss_end+0x361998>
3000579c:	00000000 	andeq	r0, r0, r0
300057a0:	f8c7c8c9 	stmnvia	r7, {r0, r3, r6, r7, fp, lr, pc}^
300057a4:	fdd2f7cb 	ldc2l	7, cr15, [r2, #812]
300057a8:	bccdbbce 	stcltl	11, cr11, [sp], {206}
300057ac:	ddbefdca 	ldcle	13, cr15, [lr, #808]!
300057b0:	d3bcf6d4 	movles	pc, #222298112	; 0xd400000
300057b4:	dcb0a7ca 	ldcle	7, cr10, [r0], #808
300057b8:	0a0da1a3 	beq	3036de4c <__bss_end+0x3619b8>
300057bc:	00000000 	andeq	r0, r0, r0
300057c0:	bcc2bfc4 	stcltl	15, cr11, [r2], {196}
300057c4:	ddbefdca 	ldcle	13, cr15, [lr, #808]!
300057c8:	d3bcf6d4 	movles	pc, #222298112	; 0xd400000
300057cc:	a6b9c9b3 	undefined
300057d0:	0a0da1a3 	beq	3036de64 <__bss_end+0x3619d0>
300057d4:	00000000 	andeq	r0, r0, r0
300057d8:	bcc2bfc4 	stcltl	15, cr11, [r2], {196}
300057dc:	ddbefdca 	ldcle	13, cr15, [lr, #808]!
300057e0:	d3bcf6d4 	movles	pc, #222298112	; 0xd400000
300057e4:	dcb0a7ca 	ldcle	7, cr10, [r0], #808
300057e8:	0a0da1a3 	beq	3036de7c <__bss_end+0x3619e8>
300057ec:	00000000 	andeq	r0, r0, r0
300057f0:	72616573 	rsbvc	r6, r1, #482344960	; 0x1cc00000
300057f4:	afba6863 	swige	0x00ba6863
300057f8:	203afdca 	eorcss	pc, sl, sl, asr #27
300057fc:	bcc2bfc4 	stcltl	15, cr11, [r2], {196}
30005800:	ddbefdca 	ldcle	13, cr15, [lr, #808]!
30005804:	ebc8c1b6 	bl	2f235ee4 <DISABLE_IRQ+0x2f235e64>
30005808:	a6b9c9b3 	undefined
3000580c:	0a0da1a3 	beq	3036dea0 <__bss_end+0x361a0c>
30005810:	00000000 	andeq	r0, r0, r0
30005814:	72616573 	rsbvc	r6, r1, #482344960	; 0x1cc00000
30005818:	afba6863 	swige	0x00ba6863
3000581c:	203afdca 	eorcss	pc, sl, sl, asr #27
30005820:	bcc2bfc4 	stcltl	15, cr11, [r2], {196}
30005824:	ddbefdca 	ldcle	13, cr15, [lr, #808]!
30005828:	ebc8c1b6 	bl	2f235f08 <DISABLE_IRQ+0x2f235e88>
3000582c:	dcb0a7ca 	ldcle	7, cr10, [r0], #808
30005830:	0a0da1a3 	beq	3036dec4 <__bss_end+0x361a30>
30005834:	00000000 	andeq	r0, r0, r0
30005838:	5f726964 	swipl	0x00726964
3000583c:	646f6e69 	strvsbt	r6, [pc], #3689	; 30005844 <large_digits.2+0x664>
30005840:	693e2d65 	ldmvsdb	lr!, {r0, r2, r5, r6, r8, sl, fp, sp}
30005844:	646f6d5f 	strvsbt	r6, [pc], #3423	; 3000584c <large_digits.2+0x66c>
30005848:	25203a65 	strcs	r3, [r0, #-2661]!
3000584c:	000a0d64 	andeq	r0, sl, r4, ror #26
30005850:	5f726964 	swipl	0x00726964
30005854:	646f6e69 	strvsbt	r6, [pc], #3689	; 3000585c <large_digits.2+0x67c>
30005858:	693e2d65 	ldmvsdb	lr!, {r0, r2, r5, r6, r8, sl, fp, sp}
3000585c:	7a69735f 	bvc	31a625e0 <__bss_end+0x1a5614c>
30005860:	25203a65 	strcs	r3, [r0, #-2661]!
30005864:	000a0d64 	andeq	r0, sl, r4, ror #26
30005868:	5f726964 	swipl	0x00726964
3000586c:	646f6e69 	strvsbt	r6, [pc], #3689	; 30005874 <large_digits.2+0x694>
30005870:	693e2d65 	ldmvsdb	lr!, {r0, r2, r5, r6, r8, sl, fp, sp}
30005874:	6174735f 	cmnvs	r4, pc, asr r3
30005878:	735f7472 	cmpvc	pc, #1912602624	; 0x72000000
3000587c:	3a746365 	bcc	31d1e618 <__bss_end+0x1d12184>
30005880:	0d642520 	cfstr64eq	mvdx2, [r4, #-128]!
30005884:	0000000a 	andeq	r0, r0, sl
30005888:	5f726964 	swipl	0x00726964
3000588c:	646f6e69 	strvsbt	r6, [pc], #3689	; 30005894 <large_digits.2+0x6b4>
30005890:	693e2d65 	ldmvsdb	lr!, {r0, r2, r5, r6, r8, sl, fp, sp}
30005894:	746f745f 	strvcbt	r7, [pc], #1119	; 3000589c <large_digits.2+0x6bc>
30005898:	735f6c61 	cmpvc	pc, #24832	; 0x6100
3000589c:	73746365 	cmnvc	r4, #-1811939327	; 0x94000001
300058a0:	6425203a 	strvst	r2, [r5], #-58
300058a4:	00000a0d 	andeq	r0, r0, sp, lsl #20
300058a8:	5f726964 	swipl	0x00726964
300058ac:	646f6e69 	strvsbt	r6, [pc], #3689	; 300058b4 <large_digits.2+0x6d4>
300058b0:	693e2d65 	ldmvsdb	lr!, {r0, r2, r5, r6, r8, sl, fp, sp}
300058b4:	7665645f 	undefined
300058b8:	6425203a 	strvst	r2, [r5], #-58
300058bc:	00000a0d 	andeq	r0, r0, sp, lsl #20
300058c0:	646f6e69 	strvsbt	r6, [pc], #3689	; 300058c8 <large_digits.2+0x6e8>
300058c4:	756e5f65 	strvcb	r5, [lr, #-3941]!
300058c8:	25203a6d 	strcs	r3, [r0, #-2669]!
300058cc:	000a0d64 	andeq	r0, sl, r4, ror #26
300058d0:	65657266 	strvsb	r7, [r5, #-614]!
300058d4:	6365735f 	cmnvs	r5, #2080374785	; 0x7c000001
300058d8:	756e5f74 	strvcb	r5, [lr, #-3956]!
300058dc:	25203a6d 	strcs	r3, [r0, #-2669]!
300058e0:	000a0d64 	andeq	r0, sl, r4, ror #26
300058e4:	d1d20a0d 	bicles	r0, r2, sp, lsl #20
300058e8:	fdb9acb3 	ldc2	12, cr10, [r9, #716]!
300058ec:	f8bdcbb4 	ldmnvia	sp!, {r2, r4, r5, r7, r8, r9, fp, lr, pc}
300058f0:	dcc4ccb3 	stclel	12, cr12, [r4], {179}
300058f4:	aabff2b4 	bge	2f0023cc <DISABLE_IRQ+0x2f00234c>
300058f8:	c4cec4b5 	strgtb	ip, [lr], #1205
300058fc:	eed7febc 	mrc	14, 6, pc, cr7, cr12, {5}
30005900:	b5d6f3b4 	ldrltb	pc, [r6, #948]
30005904:	0a0da1a3 	beq	3036df98 <__bss_end+0x361b04>
30005908:	00000000 	andeq	r0, r0, r0
3000590c:	c4ce0a0d 	strgtb	r0, [lr], #2573
30005910:	e8c3febc 	stmia	r3, {r2, r3, r4, r5, r7, r9, sl, fp, ip, sp, lr, pc}^
30005914:	fbb7f6ca 	blx	2ee03446 <DISABLE_IRQ+0x2ee033c6>
30005918:	c3d3d1d2 	bicgts	sp, r3, #-2147483596	; 0x80000034
3000591c:	a1a3a1be 	strgeh	sl, [r3, lr]!
30005920:	00000a0d 	andeq	r0, r0, sp, lsl #20
30005924:	febcc4ce 	cdp2	4, 11, cr12, cr12, cr14, {6}
30005928:	e6b4d1d2 	ssat	sp, #21, r2, ASR #3
3000592c:	a1a3dad4 	ldrged	sp, [r3, r4]!
30005930:	00000a0d 	andeq	r0, r0, sp, lsl #20
30005934:	febcc4ce 	cdp2	4, 11, cr12, cr12, cr14, {6}
30005938:	fdcaa7c4 	stc2l	7, cr10, [sl, #784]
3000593c:	6425203a 	strvst	r2, [r5], #-58
30005940:	00000a0d 	andeq	r0, r0, sp, lsl #20
30005944:	3e2d6273 	mcrcc	2, 1, r6, cr13, cr3, {3}
30005948:	61746f74 	cmnvs	r4, r4, ror pc
3000594c:	6e695f6c 	cdpvs	15, 6, cr5, cr9, cr12, {3}
30005950:	7365646f 	cmnvc	r5, #1862270976	; 0x6f000000
30005954:	25203d20 	strcs	r3, [r0, #-3360]!
30005958:	000a0d64 	andeq	r0, sl, r4, ror #26
3000595c:	3e2d6273 	mcrcc	2, 1, r6, cr13, cr3, {3}
30005960:	61746f74 	cmnvs	r4, r4, ror pc
30005964:	65735f6c 	ldrvsb	r5, [r3, #-3948]!
30005968:	20737463 	rsbcss	r7, r3, r3, ror #8
3000596c:	6425203d 	strvst	r2, [r5], #-61
30005970:	00000a0d 	andeq	r0, r0, sp, lsl #20
30005974:	3e2d6273 	mcrcc	2, 1, r6, cr13, cr3, {3}
30005978:	657a6973 	ldrvsb	r6, [sl, #-2419]!
3000597c:	6f6e695f 	swivs	0x006e695f
30005980:	735f6564 	cmpvc	pc, #419430400	; 0x19000000
30005984:	73746365 	cmnvc	r4, #-1811939327	; 0x94000001
30005988:	25203d20 	strcs	r3, [r0, #-3360]!
3000598c:	000a0d64 	andeq	r0, sl, r4, ror #26
30005990:	3e2d6273 	mcrcc	2, 1, r6, cr13, cr3, {3}
30005994:	657a6973 	ldrvsb	r6, [sl, #-2419]!
30005998:	616d695f 	cmnvs	sp, pc, asr r9
3000599c:	65735f70 	ldrvsb	r5, [r3, #-3952]!
300059a0:	20737463 	rsbcss	r7, r3, r3, ror #8
300059a4:	6425203d 	strvst	r2, [r5], #-61
300059a8:	00000a0d 	andeq	r0, r0, sp, lsl #20
300059ac:	3e2d6273 	mcrcc	2, 1, r6, cr13, cr3, {3}
300059b0:	657a6973 	ldrvsb	r6, [sl, #-2419]!
300059b4:	616d735f 	cmnvs	sp, pc, asr r3
300059b8:	65735f70 	ldrvsb	r5, [r3, #-3952]!
300059bc:	20737463 	rsbcss	r7, r3, r3, ror #8
300059c0:	6425203d 	strvst	r2, [r5], #-61
300059c4:	00000a0d 	andeq	r0, r0, sp, lsl #20
300059c8:	3e2d6273 	mcrcc	2, 1, r6, cr13, cr3, {3}
300059cc:	5f6d756e 	swipl	0x006d756e
300059d0:	5f747331 	swipl	0x00747331
300059d4:	74636573 	strvcbt	r6, [r3], #-1395
300059d8:	25203d20 	strcs	r3, [r0, #-3360]!
300059dc:	000a0d64 	andeq	r0, sl, r4, ror #26
300059e0:	3e2d6273 	mcrcc	2, 1, r6, cr13, cr3, {3}
300059e4:	646f6e69 	strvsbt	r6, [pc], #3689	; 300059ec <large_digits.2+0x80c>
300059e8:	69735f65 	ldmvsdb	r3!, {r0, r2, r5, r6, r8, r9, sl, fp, ip, lr}^
300059ec:	3d20657a 	cfstr32cc	mvfx6, [r0, #-488]!
300059f0:	0d642520 	cfstr64eq	mvdx2, [r4, #-128]!
300059f4:	0000000a 	andeq	r0, r0, sl
300059f8:	3e2d6273 	mcrcc	2, 1, r6, cr13, cr3, {3}
300059fc:	5f726964 	swipl	0x00726964
30005a00:	72746e65 	rsbvcs	r6, r4, #1616	; 0x650
30005a04:	69735f79 	ldmvsdb	r3!, {r0, r3, r4, r5, r6, r8, r9, sl, fp, ip, lr}^
30005a08:	3d20657a 	cfstr32cc	mvfx6, [r0, #-488]!
30005a0c:	0d642520 	cfstr64eq	mvdx2, [r4, #-128]!
30005a10:	0000000a 	andeq	r0, r0, sl
30005a14:	3e2d6273 	mcrcc	2, 1, r6, cr13, cr3, {3}
30005a18:	5f6d756e 	swipl	0x006d756e
30005a1c:	746f6f72 	strvcbt	r6, [pc], #3954	; 30005a24 <large_digits.2+0x844>
30005a20:	6f6e695f 	swivs	0x006e695f
30005a24:	3d206564 	cfstr32cc	mvfx6, [r0, #-400]!
30005a28:	0d642520 	cfstr64eq	mvdx2, [r4, #-128]!
30005a2c:	0000000a 	andeq	r0, r0, sl
30005a30:	746f6f72 	strvcbt	r6, [pc], #3954	; 30005a38 <large_digits.2+0x858>
30005a34:	6f6e695f 	swivs	0x006e695f
30005a38:	3e2d6564 	cfsh64cc	mvdx6, mvdx13, #52
30005a3c:	6f6d5f69 	swivs	0x006d5f69
30005a40:	203a6564 	eorcss	r6, sl, r4, ror #10
30005a44:	0a0d6425 	beq	3035eae0 <__bss_end+0x35264c>
30005a48:	00000000 	andeq	r0, r0, r0
30005a4c:	746f6f72 	strvcbt	r6, [pc], #3954	; 30005a54 <large_digits.2+0x874>
30005a50:	6f6e695f 	swivs	0x006e695f
30005a54:	3e2d6564 	cfsh64cc	mvdx6, mvdx13, #52
30005a58:	69735f69 	ldmvsdb	r3!, {r0, r3, r5, r6, r8, r9, sl, fp, ip, lr}^
30005a5c:	203a657a 	eorcss	r6, sl, sl, ror r5
30005a60:	0a0d6425 	beq	3035eafc <__bss_end+0x352668>
30005a64:	00000000 	andeq	r0, r0, r0
30005a68:	746f6f72 	strvcbt	r6, [pc], #3954	; 30005a70 <large_digits.2+0x890>
30005a6c:	6f6e695f 	swivs	0x006e695f
30005a70:	3e2d6564 	cfsh64cc	mvdx6, mvdx13, #52
30005a74:	74735f69 	ldrvcbt	r5, [r3], #-3945
30005a78:	5f747261 	swipl	0x00747261
30005a7c:	74636573 	strvcbt	r6, [r3], #-1395
30005a80:	6425203a 	strvst	r2, [r5], #-58
30005a84:	00000a0d 	andeq	r0, r0, sp, lsl #20
30005a88:	746f6f72 	strvcbt	r6, [pc], #3954	; 30005a90 <large_digits.2+0x8b0>
30005a8c:	6f6e695f 	swivs	0x006e695f
30005a90:	3e2d6564 	cfsh64cc	mvdx6, mvdx13, #52
30005a94:	6f745f69 	swivs	0x00745f69
30005a98:	5f6c6174 	swipl	0x006c6174
30005a9c:	74636573 	strvcbt	r6, [r3], #-1395
30005aa0:	25203a73 	strcs	r3, [r0, #-2675]!
30005aa4:	000a0d64 	andeq	r0, sl, r4, ror #26
30005aa8:	febcc4ce 	cdp2	4, 11, cr12, cr12, cr14, {6}
30005aac:	c1b6fdb4 	ldrgth	pc, [r6, r4]!
30005ab0:	ddbefdca 	ldcle	13, cr15, [lr, #808]!
30005ab4:	ebc8c1b6 	bl	2f236194 <DISABLE_IRQ+0x2f236114>
30005ab8:	a6b9c9b3 	undefined
30005abc:	0a0da1a3 	beq	3036e150 <__bss_end+0x361cbc>
30005ac0:	00000000 	andeq	r0, r0, r0
30005ac4:	febcc4ce 	cdp2	4, 11, cr12, cr12, cr14, {6}
30005ac8:	c1b6fdb4 	ldrgth	pc, [r6, r4]!
30005acc:	ddbefdca 	ldcle	13, cr15, [lr, #808]!
30005ad0:	ebc8c1b6 	bl	2f2361b0 <DISABLE_IRQ+0x2f236130>
30005ad4:	dcb0a7ca 	ldcle	7, cr10, [r0], #808
30005ad8:	0a0da1a3 	beq	3036e16c <__bss_end+0x361cd8>
30005adc:	00000000 	andeq	r0, r0, r0
30005ae0:	725f6f64 	subvcs	r6, pc, #400	; 0x190
30005ae4:	ba747764 	blt	31d2387c <__bss_end+0x1d173e8>
30005ae8:	3afdcaaf 	bcc	2ff785ac <DISABLE_IRQ+0x2ff7852c>
30005aec:	bcc4ce20 	stcltl	14, cr12, [r4], {32}
30005af0:	befdcafe 	mrclt	10, 7, ip, cr13, cr14, {7}
30005af4:	c8c1b6dd 	stmgtia	r1, {r0, r2, r3, r4, r6, r7, r9, sl, ip, sp, pc}^
30005af8:	b9c9b3eb 	stmltib	r9, {r0, r1, r3, r5, r6, r7, r8, r9, ip, sp, pc}^
30005afc:	0da1a3a6 	stceq	3, cr10, [r1, #664]!
30005b00:	0000000a 	andeq	r0, r0, sl
30005b04:	725f6f64 	subvcs	r6, pc, #400	; 0x190
30005b08:	ba747764 	blt	31d238a0 <__bss_end+0x1d1740c>
30005b0c:	3afdcaaf 	bcc	2ff785d0 <DISABLE_IRQ+0x2ff78550>
30005b10:	bcc4ce20 	stcltl	14, cr12, [r4], {32}
30005b14:	befdcafe 	mrclt	10, 7, ip, cr13, cr14, {7}
30005b18:	c8c1b6dd 	stmgtia	r1, {r0, r2, r3, r4, r6, r7, r9, sl, ip, sp, pc}^
30005b1c:	b0a7caeb 	adclt	ip, r7, fp, ror #21
30005b20:	0da1a3dc 	stceq	3, cr10, [r1, #880]!
30005b24:	0000000a 	andeq	r0, r0, sl
30005b28:	25444d43 	strcsb	r4, [r4, #-3395]
30005b2c:	69542064 	ldmvsdb	r4, {r2, r5, r6, sp}^
30005b30:	6f20656d 	swivs	0x0020656d
30005b34:	0d217475 	cfstrseq	mvf7, [r1, #-468]!
30005b38:	0000000a 	andeq	r0, r0, sl
30005b3c:	44530a0d 	ldrmib	r0, [r3], #-2573
30005b40:	caf5b349 	bgt	2fd7286c <DISABLE_IRQ+0x2fd727ec>
30005b44:	bfafbbbc 	swilt	0x00afbbbc
30005b48:	a3bccaaa 	movges	ip, #696320	; 0xaa000
30005b4c:	000000a1 	andeq	r0, r0, r1, lsr #1
30005b50:	74696e49 	strvcbt	r6, [r9], #-3657
30005b54:	696c6169 	stmvsdb	ip!, {r0, r3, r5, r6, r8, sp, lr}^
30005b58:	6620657a 	undefined
30005b5c:	0d6c6961 	stceql	9, cr6, [ip, #-388]!
30005b60:	206f4e0a 	rsbcs	r4, pc, sl, lsl #28
30005b64:	64726143 	ldrvsbt	r6, [r2], #-323
30005b68:	73736120 	cmnvc	r3, #8	; 0x8
30005b6c:	69747265 	ldmvsdb	r4!, {r0, r2, r5, r6, r9, ip, sp, lr}^
30005b70:	0a0d6e6f 	beq	30361534 <__bss_end+0x3550a0>
30005b74:	00000000 	andeq	r0, r0, r0
30005b78:	69204453 	stmvsdb	r0!, {r0, r1, r4, r6, sl, lr}
30005b7c:	65722073 	ldrvsb	r2, [r2, #-115]!
30005b80:	0d796461 	cfldrdeq	mvd6, [r9, #-388]!
30005b84:	0000000a 	andeq	r0, r0, sl
30005b88:	64616552 	strvsbt	r6, [r1], #-1362
30005b8c:	72614320 	rsbvc	r4, r1, #-2147483648	; 0x80000000
30005b90:	49432064 	stmmidb	r3, {r2, r5, r6, sp}^
30005b94:	73692044 	cmnvc	r9, #68	; 0x44
30005b98:	69616620 	stmvsdb	r1!, {r5, r9, sl, sp, lr}^
30005b9c:	0a0d216c 	beq	3034e154 <__bss_end+0x341cc0>
30005ba0:	00000000 	andeq	r0, r0, r0
30005ba4:	0d444943 	stceql	9, cr4, [r4, #-268]
30005ba8:	0000000a 	andeq	r0, r0, sl
30005bac:	2044494d 	subcs	r4, r4, sp, asr #18
30005bb0:	6425203d 	strvst	r2, [r5], #-61
30005bb4:	00000a0d 	andeq	r0, r0, sp, lsl #20
30005bb8:	20444c4f 	subcs	r4, r4, pc, asr #24
30005bbc:	6425203d 	strvst	r2, [r5], #-61
30005bc0:	00000a0d 	andeq	r0, r0, sp, lsl #20
30005bc4:	fab2fac9 	blx	2ecc46f0 <DISABLE_IRQ+0x2ecc4670>
30005bc8:	d2bca7b3 	adcles	sl, ip, #46923776	; 0x2cc0000
30005bcc:	0d73253a 	cfldr64eq	mvdx2, [r3, #-232]!
30005bd0:	0000000a 	andeq	r0, r0, sl
30005bd4:	fab2fac9 	blx	2ecc4700 <DISABLE_IRQ+0x2ecc4680>
30005bd8:	dac6d5c8 	ble	2f1bb300 <DISABLE_IRQ+0x2f1bb280>
30005bdc:	2530323a 	ldrcs	r3, [r0, #-570]!
30005be0:	64252c64 	strvst	r2, [r5], #-3172
30005be4:	00000a0d 	andeq	r0, r0, sp, lsl #20
30005be8:	64616552 	strvsbt	r6, [r1], #-1362
30005bec:	20445320 	subcs	r5, r4, r0, lsr #6
30005bf0:	20414352 	subcs	r4, r1, r2, asr r3
30005bf4:	66207369 	strvst	r7, [r0], -r9, ror #6
30005bf8:	216c6961 	cmncs	ip, r1, ror #18
30005bfc:	00000a0d 	andeq	r0, r0, sp, lsl #20
30005c00:	43204453 	teqmi	r0, #1392508928	; 0x53000000
30005c04:	20647261 	rsbcs	r7, r4, r1, ror #4
30005c08:	20414352 	subcs	r4, r1, r2, asr r3
30005c0c:	7830203d 	ldmvcda	r0!, {r0, r2, r3, r4, r5, sp}
30005c10:	0a0d7825 	beq	30363cac <__bss_end+0x357818>
30005c14:	00000000 	andeq	r0, r0, r0
30005c18:	46204453 	undefined
30005c1c:	75716572 	ldrvcb	r6, [r1, #-1394]!
30005c20:	79636e65 	stmvcdb	r3!, {r0, r2, r5, r6, r9, sl, fp, sp, lr}^
30005c24:	20736920 	rsbcss	r6, r3, r0, lsr #18
30005c28:	7a486425 	bvc	3121ecc4 <__bss_end+0x1212830>
30005c2c:	00000a0d 	andeq	r0, r0, sp, lsl #20
30005c30:	64616552 	strvsbt	r6, [r1], #-1362
30005c34:	72614320 	rsbvc	r4, r1, #-2147483648	; 0x80000000
30005c38:	53432064 	cmppl	r3, #100	; 0x64
30005c3c:	61462044 	cmpvs	r6, r4, asr #32
30005c40:	0d216c69 	stceq	12, cr6, [r1, #-420]!
30005c44:	0000000a 	andeq	r0, r0, sl
30005c48:	64616552 	strvsbt	r6, [r1], #-1362
30005c4c:	434d4d20 	cmpmi	sp, #2048	; 0x800
30005c50:	41435220 	cmpmi	r3, r0, lsr #4
30005c54:	20736920 	rsbcss	r6, r3, r0, lsr #18
30005c58:	6c696166 	stfvse	f6, [r9], #-408
30005c5c:	000a0d21 	andeq	r0, sl, r1, lsr #26
30005c60:	20434d4d 	subcs	r4, r3, sp, asr #26
30005c64:	64726143 	ldrvsbt	r6, [r2], #-323
30005c68:	41435220 	cmpmi	r3, r0, lsr #4
30005c6c:	30203d20 	eorcc	r3, r0, r0, lsr #26
30005c70:	0d782578 	cfldr64eq	mvdx2, [r8, #-480]!
30005c74:	0000000a 	andeq	r0, r0, sl
30005c78:	20434d4d 	subcs	r4, r3, sp, asr #26
30005c7c:	71657246 	cmnvc	r5, r6, asr #4
30005c80:	636e6575 	cmnvs	lr, #490733568	; 0x1d400000
30005c84:	73692079 	cmnvc	r9, #121	; 0x79
30005c88:	48642520 	stmmida	r4!, {r5, r8, sl, sp}^
30005c8c:	000a0d7a 	andeq	r0, sl, sl, ror sp
30005c90:	64616552 	strvsbt	r6, [r1], #-1362
30005c94:	72614320 	rsbvc	r4, r1, #-2147483648	; 0x80000000
30005c98:	53432064 	cmppl	r3, #100	; 0x64
30005c9c:	4b4f2044 	blmi	313cddb4 <__bss_end+0x13c1920>
30005ca0:	000a0d21 	andeq	r0, sl, r1, lsr #26
30005ca4:	30257830 	eorcc	r7, r5, r0, lsr r8
30005ca8:	0a0d7838 	beq	30363d90 <__bss_end+0x3578fc>
30005cac:	00000000 	andeq	r0, r0, r0
30005cb0:	ddc8a8bf 	stclel	8, cr10, [r8, #764]
30005cb4:	aacebfc1 	bge	2f3b5bc0 <DISABLE_IRQ+0x2f3b5b40>
30005cb8:	4b64253a 	blmi	3190f1a8 <__bss_end+0x1902d14>
30005cbc:	64252c42 	strvst	r2, [r5], #-3138
30005cc0:	0a0d424d 	beq	303565fc <__bss_end+0x34a168>
30005cc4:	00000000 	andeq	r0, r0, r0
30005cc8:	64726143 	ldrvsbt	r6, [r2], #-323
30005ccc:	6c657320 	stcvsl	3, cr7, [r5], #-128
30005cd0:	73656420 	cmnvc	r5, #536870912	; 0x20000000
30005cd4:	66206c65 	strvst	r6, [r0], -r5, ror #24
30005cd8:	216c6961 	cmncs	ip, r1, ror #18
30005cdc:	00000a0d 	andeq	r0, r0, sp, lsl #20
30005ce0:	64726143 	ldrvsbt	r6, [r2], #-323
30005ce4:	6c657320 	stcvsl	3, cr7, [r5], #-128
30005ce8:	73656420 	cmnvc	r5, #536870912	; 0x20000000
30005cec:	4f206c65 	swimi	0x00206c65
30005cf0:	0a0d214b 	beq	3034e224 <__bss_end+0x341d90>
30005cf4:	00000000 	andeq	r0, r0, r0
30005cf8:	20737542 	rsbcss	r7, r3, r2, asr #10
30005cfc:	74646957 	strvcbt	r6, [r4], #-2391
30005d00:	73692068 	cmnvc	r9, #104	; 0x68
30005d04:	69623420 	stmvsdb	r2!, {r5, sl, ip, sp}^
30005d08:	000a0d74 	andeq	r0, sl, r4, ror sp
30005d0c:	20737542 	rsbcss	r7, r3, r2, asr #10
30005d10:	74646957 	strvcbt	r6, [r4], #-2391
30005d14:	73692068 	cmnvc	r9, #104	; 0x68
30005d18:	69623120 	stmvsdb	r2!, {r5, r8, ip, sp}^
30005d1c:	000a0d74 	andeq	r0, sl, r4, ror sp
30005d20:	b3494453 	cmplt	r9, #1392508928	; 0x53000000
30005d24:	bbbccaf5 	bllt	2ef38900 <DISABLE_IRQ+0x2ef38880>
30005d28:	cae1bdaf 	bgt	2f8753ec <DISABLE_IRQ+0x2f87536c>
30005d2c:	0da1a3f8 	stceq	3, cr10, [r1, #992]!
30005d30:	0000000a 	andeq	r0, r0, sl
30005d34:	b4d00a0d 	ldrltb	r0, [r0], #2573
30005d38:	4453ebc8 	ldrmib	lr, [r3], #-3016
30005d3c:	b530a8bf 	ldrlt	sl, [r0, #-2239]!
30005d40:	cab7d6d8 	bgt	2edfb8a8 <DISABLE_IRQ+0x2edfb828>
30005d44:	b3ddbefd 	biclts	fp, sp, #4048	; 0xfd0
30005d48:	a3a6b9c9 	movge	fp, #3293184	; 0x324000
30005d4c:	000000a1 	andeq	r0, r0, r1, lsr #1
30005d50:	c1b60a0d 	movgts	r0, sp, lsl #20
30005d54:	4453f6b3 	ldrmib	pc, [r3], #-1715
30005d58:	b530a8bf 	ldrlt	sl, [r0, #-2239]!
30005d5c:	cab7d6d8 	bgt	2edfb8c4 <DISABLE_IRQ+0x2edfb844>
30005d60:	b3ddbefd 	biclts	fp, sp, #4048	; 0xfd0
30005d64:	a3a6b9c9 	movge	fp, #3293184	; 0x324000
30005d68:	000000a1 	andeq	r0, r0, r1, lsr #1
30005d6c:	c1b60a0d 	movgts	r0, sp, lsl #20
30005d70:	c4b5f6b3 	ldrgtt	pc, [r5], #1715
30005d74:	ddbefdca 	ldcle	13, cr15, [lr, #808]!
30005d78:	000a0d3a 	andeq	r0, sl, sl, lsr sp
30005d7c:	00206425 	eoreq	r6, r0, r5, lsr #8
30005d80:	b3494453 	cmplt	r9, #1392508928	; 0x53000000
30005d84:	bbbccaf5 	bllt	2ef38960 <DISABLE_IRQ+0x2ef388e0>
30005d88:	b4f6b3af 	ldrltbt	fp, [r6], #943
30005d8c:	d6aca3ed 	strlet	sl, [ip], sp, ror #7
30005d90:	a3b9d6d5 	movges	sp, #223346688	; 0xd500000
30005d94:	000a0da1 	andeq	r0, sl, r1, lsr #27
30005d98:	b4d00a0d 	ldrltb	r0, [r0], #2573
30005d9c:	4453ebc8 	ldrmib	lr, [r3], #-3016
30005da0:	b530a8bf 	ldrlt	sl, [r0, #-2239]!
30005da4:	cab7d6d8 	bgt	2edfb90c <DISABLE_IRQ+0x2edfb88c>
30005da8:	b3ddbefd 	biclts	fp, sp, #4048	; 0xfd0
30005dac:	a3edb4f6 	mvnge	fp, #-167772160	; 0xf6000000
30005db0:	d6d5d6ac 	ldrleb	sp, [r5], ip, lsr #13
30005db4:	00a1a3b9 	streqh	sl, [r1], r9
30005db8:	c1b60a0d 	movgts	r0, sp, lsl #20
30005dbc:	4453f6b3 	ldrmib	pc, [r3], #-1715
30005dc0:	b530a8bf 	ldrlt	sl, [r0, #-2239]!
30005dc4:	cab7d6d8 	bgt	2edfb92c <DISABLE_IRQ+0x2edfb8ac>
30005dc8:	b3ddbefd 	biclts	fp, sp, #4048	; 0xfd0
30005dcc:	a3edb4f6 	mvnge	fp, #-167772160	; 0xf6000000
30005dd0:	d6d5d6ac 	ldrleb	sp, [r5], ip, lsr #13
30005dd4:	00a1a3b9 	streqh	sl, [r1], r9
30005dd8:	4c554e3c 	mrrcmi	14, 3, r4, r5, cr12
30005ddc:	Address 0x30005ddc is out of bounds.

Disassembly of section .data:

30005de0 <task_stack_addr_base.0>:
30005de0:	30300000 	eorccs	r0, r0, r0

30005de4 <ysize>:
30005de4:	00000110 	andeq	r0, r0, r0, lsl r1

30005de8 <xsize>:
30005de8:	000001e0 	andeq	r0, r0, r0, ror #3

30005dec <fb_base_addr>:
30005dec:	30400000 	subcc	r0, r0, r0

30005df0 <_ctype>:
30005df0:	08080808 	stmeqda	r8, {r3, fp}
30005df4:	08080808 	stmeqda	r8, {r3, fp}
30005df8:	28282808 	stmcsda	r8!, {r3, fp, sp}
30005dfc:	08082828 	stmeqda	r8, {r3, r5, fp, sp}
30005e00:	08080808 	stmeqda	r8, {r3, fp}
30005e04:	08080808 	stmeqda	r8, {r3, fp}
30005e08:	08080808 	stmeqda	r8, {r3, fp}
30005e0c:	08080808 	stmeqda	r8, {r3, fp}
30005e10:	101010a0 	andnes	r1, r0, r0, lsr #1
30005e14:	10101010 	andnes	r1, r0, r0, lsl r0
30005e18:	10101010 	andnes	r1, r0, r0, lsl r0
30005e1c:	10101010 	andnes	r1, r0, r0, lsl r0
30005e20:	04040404 	streq	r0, [r4], #-1028
30005e24:	04040404 	streq	r0, [r4], #-1028
30005e28:	10100404 	andnes	r0, r0, r4, lsl #8
30005e2c:	10101010 	andnes	r1, r0, r0, lsl r0
30005e30:	41414110 	cmpmi	r1, r0, lsl r1
30005e34:	01414141 	cmpeq	r1, r1, asr #2
30005e38:	01010101 	tsteq	r1, r1, lsl #2
30005e3c:	01010101 	tsteq	r1, r1, lsl #2
30005e40:	01010101 	tsteq	r1, r1, lsl #2
30005e44:	01010101 	tsteq	r1, r1, lsl #2
30005e48:	10010101 	andne	r0, r1, r1, lsl #2
30005e4c:	10101010 	andnes	r1, r0, r0, lsl r0
30005e50:	42424210 	submi	r4, r2, #1	; 0x1
30005e54:	02424242 	subeq	r4, r2, #536870916	; 0x20000004
30005e58:	02020202 	andeq	r0, r2, #536870912	; 0x20000000
30005e5c:	02020202 	andeq	r0, r2, #536870912	; 0x20000000
30005e60:	02020202 	andeq	r0, r2, #536870912	; 0x20000000
30005e64:	02020202 	andeq	r0, r2, #536870912	; 0x20000000
30005e68:	10020202 	andne	r0, r2, r2, lsl #4
30005e6c:	08101010 	ldmeqda	r0, {r4, ip}
	...
30005e90:	101010a0 	andnes	r1, r0, r0, lsr #1
30005e94:	10101010 	andnes	r1, r0, r0, lsl r0
30005e98:	10101010 	andnes	r1, r0, r0, lsl r0
30005e9c:	10101010 	andnes	r1, r0, r0, lsl r0
30005ea0:	10101010 	andnes	r1, r0, r0, lsl r0
30005ea4:	10101010 	andnes	r1, r0, r0, lsl r0
30005ea8:	10101010 	andnes	r1, r0, r0, lsl r0
30005eac:	10101010 	andnes	r1, r0, r0, lsl r0
30005eb0:	01010101 	tsteq	r1, r1, lsl #2
30005eb4:	01010101 	tsteq	r1, r1, lsl #2
30005eb8:	01010101 	tsteq	r1, r1, lsl #2
30005ebc:	01010101 	tsteq	r1, r1, lsl #2
30005ec0:	01010101 	tsteq	r1, r1, lsl #2
30005ec4:	10010101 	andne	r0, r1, r1, lsl #2
30005ec8:	01010101 	tsteq	r1, r1, lsl #2
30005ecc:	02010101 	andeq	r0, r1, #1073741824	; 0x40000000
30005ed0:	02020202 	andeq	r0, r2, #536870912	; 0x20000000
30005ed4:	02020202 	andeq	r0, r2, #536870912	; 0x20000000
30005ed8:	02020202 	andeq	r0, r2, #536870912	; 0x20000000
30005edc:	02020202 	andeq	r0, r2, #536870912	; 0x20000000
30005ee0:	02020202 	andeq	r0, r2, #536870912	; 0x20000000
30005ee4:	10020202 	andne	r0, r2, r2, lsl #4
30005ee8:	02020202 	andeq	r0, r2, #536870912	; 0x20000000
30005eec:	02020202 	andeq	r0, r2, #536870912	; 0x20000000

30005ef0 <warn.0>:
30005ef0:	00000001 	andeq	r0, r0, r1
Disassembly of section .bss:

30005ef4 <mem_map>:
	...

30009ef4 <g_pcOutBuf>:
	...

3000a2f4 <g_pcInBuf>:
	...

3000a6f4 <g_pcOutBuf>:
	...

3000aaf4 <g_pcInBuf>:
	...

3000aef4 <wait_queue_head>:
	...

3000aefc <tmp>:
3000aefc:	00000000 	andeq	r0, r0, r0

3000af00 <super_block>:
	...

3000b060 <root_inode>:
3000b060:	00000000 	andeq	r0, r0, r0

3000b064 <inode_table>:
	...

3000bb64 <fd_table>:
	...

3000be64 <buf>:
	...

3000c064 <recv_buf>:
	...

3000c264 <send_buf>:
	...

3000c464 <SDCard>:
	...

3000c490 <___strtok>:
3000c490:	00000000 	andeq	r0, r0, r0
Disassembly of section .debug_line:

00000000 <.debug_line>:
       0:	0000009a 	muleq	r0, sl, r0
       4:	001a0002 	andeqs	r0, sl, r2
       8:	01020000 	tsteq	r2, r0
       c:	000a0efb 	streqd	r0, [sl], -fp
      10:	01010101 	tsteq	r1, r1, lsl #2
      14:	01000000 	tsteq	r0, r0
      18:	61656800 	cmnvs	r5, r0, lsl #16
      1c:	00532e64 	subeqs	r2, r3, r4, ror #28
      20:	00000000 	andeq	r0, r0, r0
      24:	00020500 	andeq	r0, r2, r0, lsl #10
      28:	03300000 	teqeq	r0, #0	; 0x0
      2c:	2f2f0131 	swics	0x002f0131
      30:	2e2f2f2f 	cdpcs	15, 2, cr2, cr15, cr15, {1}
      34:	2c2d312f 	stfcss	f3, [sp], #-188
      38:	2c2e2d2c 	stccs	13, cr2, [lr], #-176
      3c:	2e2f2c2c 	cdpcs	12, 2, cr2, cr15, cr12, {1}
      40:	2d2c2d2c 	stccs	13, cr2, [ip, #-176]!
      44:	312e2c2d 	teqcc	lr, sp, lsr #24
      48:	2c2c2d2c 	stccs	13, cr2, [ip], #-176
      4c:	2c2d2c2c 	stccs	12, cr2, [sp], #-176
      50:	2c2c2c2d 	stccs	12, cr2, [ip], #-180
      54:	2c2c2c2c 	stccs	12, cr2, [ip], #-176
      58:	2d2e2d2c 	stccs	13, cr2, [lr, #-176]!
      5c:	2c2c2c2e 	stccs	12, cr2, [ip], #-184
      60:	2c2c2c2c 	stccs	12, cr2, [ip], #-176
      64:	2c2c2d2c 	stccs	13, cr2, [ip], #-176
      68:	2c2c2c2c 	stccs	12, cr2, [ip], #-176
      6c:	2c2e2c2c 	stccs	12, cr2, [lr], #-176
      70:	2c2c2d2c 	stccs	13, cr2, [ip], #-176
      74:	2c2e2c2c 	stccs	12, cr2, [lr], #-176
      78:	2f2c2c2c 	swics	0x002c2c2c
      7c:	2e2c2c2c 	cdpcs	12, 2, cr2, cr12, cr12, {1}
      80:	2c2d2c2c 	stccs	12, cr2, [sp], #-176
      84:	2c2c2d2c 	stccs	13, cr2, [ip], #-176
      88:	482c2e2c 	stmmida	ip!, {r2, r3, r5, r9, sl, fp, sp}
      8c:	2c2c2c2d 	stccs	12, cr2, [ip], #-180
      90:	2c2c2e2c 	stccs	14, cr2, [ip], #-176
      94:	2c2c2c2d 	stccs	12, cr2, [ip], #-180
      98:	0036022c 	eoreqs	r0, r6, ip, lsr #4
      9c:	00530101 	subeqs	r0, r3, r1, lsl #2
      a0:	00020000 	andeq	r0, r2, r0
      a4:	0000001a 	andeq	r0, r0, sl, lsl r0
      a8:	0efb0102 	cdpeq	1, 15, cr0, cr11, cr2, {0}
      ac:	0101000a 	tsteq	r1, sl
      b0:	00000101 	andeq	r0, r0, r1, lsl #2
      b4:	69000100 	stmvsdb	r0, {r8}
      b8:	2e74696e 	cdpcs	9, 7, cr6, cr4, cr14, {3}
      bc:	00000063 	andeq	r0, r0, r3, rrx
      c0:	05000000 	streq	r0, [r0]
      c4:	00022002 	andeq	r2, r2, r2
      c8:	66801330 	undefined
      cc:	304b6529 	subcc	r6, fp, r9, lsr #10
      d0:	380864b7 	stmccda	r8, {r0, r1, r2, r4, r5, r7, sl, sp, lr}
      d4:	39080d03 	stmccdb	r8, {r0, r1, r8, sl, fp}
      d8:	2a2d2949 	bcs	b4a604 <DISABLE_IRQ+0xb4a584>
      dc:	2b7a0331 	blcs	1e80da8 <DISABLE_IRQ+0x1e80d28>
      e0:	642a2d2c 	strvst	r2, [sl], #-3372
      e4:	0a03852e 	beq	e15a4 <DISABLE_IRQ+0xe1524>
      e8:	2b77037f 	blcs	1dc0eec <DISABLE_IRQ+0x1dc0e6c>
      ec:	67630903 	strvsb	r0, [r3, -r3, lsl #18]!
      f0:	01000802 	tsteq	r0, r2, lsl #16
      f4:	00010001 	andeq	r0, r1, r1
      f8:	43000200 	tstmi	r0, #0	; 0x0
      fc:	02000000 	andeq	r0, r0, #0	; 0x0
     100:	0a0efb01 	beq	3bed0c <DISABLE_IRQ+0x3bec8c>
     104:	01010100 	tsteq	r1, r0, lsl #2
     108:	00000001 	andeq	r0, r0, r1
     10c:	6e6d2f01 	cdpvs	15, 6, cr2, cr13, cr1, {0}
     110:	67682f74 	undefined
     114:	412f7366 	teqmi	pc, r6, ror #6
     118:	706d7973 	rsbvc	r7, sp, r3, ror r9
     11c:	65746f74 	ldrvsb	r6, [r4, #-3956]!
     120:	616d0000 	cmnvs	sp, r0
     124:	632e6e69 	teqvs	lr, #1680	; 0x690
     128:	00000000 	andeq	r0, r0, r0
     12c:	7473696c 	ldrvcbt	r6, [r3], #-2412
     130:	0100682e 	tsteq	r0, lr, lsr #16
     134:	74630000 	strvcbt	r0, [r3]
     138:	2e657079 	mcrcs	0, 3, r7, cr5, cr9, {3}
     13c:	00010068 	andeq	r0, r1, r8, rrx
     140:	05000000 	streq	r0, [r0]
     144:	00035002 	andeq	r5, r3, r2
     148:	010e0330 	tsteq	lr, r0, lsr r3
     14c:	62302731 	eorvss	r2, r0, #12845056	; 0xc40000
     150:	302d295f 	eorcc	r2, sp, pc, asr r9
     154:	2df02c2e 	ldccsl	12, cr2, [r0, #184]!
     158:	039c85d4 	orreqs	r8, ip, #889192448	; 0x35000000
     15c:	4668631a 	undefined
     160:	462e9c48 	strmit	r9, [lr], -r8, asr #24
     164:	2e4e9c48 	cdpcs	12, 4, cr9, cr14, cr8, {2}
     168:	322e4629 	eorcc	r4, lr, #42991616	; 0x2900000
     16c:	2c462c46 	mcrrcs	12, 4, r2, r6, cr6
     170:	2c462e64 	mcrrcs	14, 6, r2, r6, cr4
     174:	2d802c2a 	stccs	12, cr2, [r0, #168]
     178:	2c2c2a2c 	stccs	10, cr2, [ip], #-176
     17c:	2a442f69 	bcs	110bf28 <DISABLE_IRQ+0x110bea8>
     180:	2d29662f 	stccs	6, cr6, [r9, #-188]!
     184:	442e802d 	strmit	r8, [lr], #-45
     188:	2ab82d2e 	bcs	fee0b648 <CLKDIVN+0xb2e0b634>
     18c:	804a492c 	subhi	r4, sl, ip, lsr #18
     190:	28292d2e 	stmcsda	r9!, {r1, r2, r3, r5, r8, sl, fp, sp}
     194:	2ab82d2e 	bcs	fee0b654 <CLKDIVN+0xb2e0b640>
     198:	2d2c622d 	sfmcs	f6, 4, [ip, #-180]!
     19c:	476a0349 	strmib	r0, [sl, -r9, asr #6]!
     1a0:	03630c03 	cmneq	r3, #768	; 0x300
     1a4:	55087fab 	strpl	r7, [r8, #-4011]
     1a8:	2f2c462c 	swics	0x002c462c
     1ac:	2d2c4d4a 	stccs	13, cr4, [ip, #-296]!
     1b0:	2b720345 	blcs	1c80ecc <DISABLE_IRQ+0x1c80e4c>
     1b4:	0e034864 	cdpeq	8, 0, cr4, cr3, cr4, {3}
     1b8:	47730347 	ldrmib	r0, [r3, -r7, asr #6]!
     1bc:	489eb82c 	ldmmiia	lr, {r2, r3, r5, fp, ip, sp, pc}
     1c0:	5b086645 	blpl	219adc <DISABLE_IRQ+0x219a5c>
     1c4:	64477703 	strvsb	r7, [r7], #-1795
     1c8:	0800d903 	stmeqda	r0, {r0, r1, r8, fp, ip, lr, pc}
     1cc:	3026301d 	eorcc	r3, r6, sp, lsl r0
     1d0:	4c66482c 	stcmil	8, cr4, [r6], #-176
     1d4:	2c487c2c 	mcrrcs	12, 2, r7, r8, cr12
     1d8:	4881312a 	stmmiia	r1, {r1, r3, r5, r8, ip, sp}
     1dc:	48484948 	stmmida	r8, {r3, r6, r8, fp, lr}^
     1e0:	2c2c8084 	stccs	0, cr8, [ip], #-528
     1e4:	2c2c2c2c 	stccs	12, cr2, [ip], #-176
     1e8:	2d81652f 	cfstr32cs	mvfx6, [r1, #188]
     1ec:	80484631 	subhi	r4, r8, r1, lsr r6
     1f0:	482c9a2e 	stmmida	ip!, {r1, r2, r3, r5, r9, fp, ip, pc}
     1f4:	01000a02 	tsteq	r0, r2, lsl #20
     1f8:	00009601 	andeq	r9, r0, r1, lsl #12
     1fc:	59000200 	stmpldb	r0, {r9}
     200:	02000000 	andeq	r0, r0, #0	; 0x0
     204:	0a0efb01 	beq	3bee10 <DISABLE_IRQ+0x3bed90>
     208:	01010100 	tsteq	r1, r0, lsl #2
     20c:	00000001 	andeq	r0, r0, r1
     210:	6e6d2f01 	cdpvs	15, 6, cr2, cr13, cr1, {0}
     214:	67682f74 	undefined
     218:	412f7366 	teqmi	pc, r6, ror #6
     21c:	706d7973 	rsbvc	r7, sp, r3, ror r9
     220:	65746f74 	ldrvsb	r6, [r4, #-3956]!
     224:	63730000 	cmnvs	r3, #0	; 0x0
     228:	2e646568 	cdpcs	5, 6, cr6, cr4, cr8, {3}
     22c:	00000063 	andeq	r0, r0, r3, rrx
     230:	68637300 	stmvsda	r3!, {r8, r9, ip, sp, lr}^
     234:	682e6465 	stmvsda	lr!, {r0, r2, r5, r6, sl, sp, lr}
     238:	00000100 	andeq	r0, r0, r0, lsl #2
     23c:	656c6966 	strvsb	r6, [ip, #-2406]!
     240:	0100682e 	tsteq	r0, lr, lsr #16
     244:	696c0000 	stmvsdb	ip!, {}^
     248:	682e7473 	stmvsda	lr!, {r0, r1, r4, r5, r6, sl, ip, sp, lr}
     24c:	00000100 	andeq	r0, r0, r0, lsl #2
     250:	70797463 	rsbvcs	r7, r9, r3, ror #8
     254:	00682e65 	rsbeq	r2, r8, r5, ror #28
     258:	00000001 	andeq	r0, r0, r1
     25c:	50020500 	andpl	r0, r2, r0, lsl #10
     260:	03300008 	teqeq	r0, #8	; 0x8
     264:	2e47010c 	dvfcss	f0, f7, #4.0
     268:	032c832c 	teqeq	ip, #-1342177280	; 0xb0000000
     26c:	032c9b09 	teqeq	ip, #9216	; 0x2400
     270:	662c9b0b 	strvst	r9, [ip], -fp, lsl #22
     274:	2d292d29 	stccs	13, cr2, [r9, #-164]!
     278:	30304a2c 	eorccs	r4, r0, ip, lsr #20
     27c:	642c2c2b 	strvst	r2, [ip], #-3115
     280:	2c2b4c80 	stccs	12, cr4, [fp], #-512
     284:	292d292d 	stmcsdb	sp!, {r0, r2, r3, r5, r8, fp, sp}
     288:	2c2f2630 	stccs	6, cr2, [pc], #-192
     28c:	06026448 	streq	r6, [r2], -r8, asr #8
     290:	8d010100 	stfhis	f0, [r1]
     294:	02000000 	andeq	r0, r0, #0	; 0x0
     298:	00005800 	andeq	r5, r0, r0, lsl #16
     29c:	fb010200 	blx	40aa6 <DISABLE_IRQ+0x40a26>
     2a0:	01000a0e 	tsteq	r0, lr, lsl #20
     2a4:	00010101 	andeq	r0, r1, r1, lsl #2
     2a8:	2f010000 	swics	0x00010000
     2ac:	2f746e6d 	swics	0x00746e6d
     2b0:	73666768 	cmnvc	r6, #27262976	; 0x1a00000
     2b4:	7973412f 	ldmvcdb	r3!, {r0, r1, r2, r3, r5, r8, lr}^
     2b8:	6f74706d 	swivs	0x0074706d
     2bc:	00006574 	andeq	r6, r0, r4, ror r5
     2c0:	6b726f66 	blvs	1c9c060 <DISABLE_IRQ+0x1c9bfe0>
     2c4:	0000632e 	andeq	r6, r0, lr, lsr #6
     2c8:	63730000 	cmnvs	r3, #0	; 0x0
     2cc:	2e646568 	cdpcs	5, 6, cr6, cr4, cr8, {3}
     2d0:	00010068 	andeq	r0, r1, r8, rrx
     2d4:	6c696600 	stcvsl	6, cr6, [r9]
     2d8:	00682e65 	rsbeq	r2, r8, r5, ror #28
     2dc:	6c000001 	stcvs	0, cr0, [r0], {1}
     2e0:	2e747369 	cdpcs	3, 7, cr7, cr4, cr9, {3}
     2e4:	00010068 	andeq	r0, r1, r8, rrx
     2e8:	79746300 	ldmvcdb	r4!, {r8, r9, sp, lr}^
     2ec:	682e6570 	stmvsda	lr!, {r4, r5, r6, r8, sl, sp, lr}
     2f0:	00000100 	andeq	r0, r0, r0, lsl #2
     2f4:	02050000 	andeq	r0, r5, #0	; 0x0
     2f8:	3000094c 	andcc	r0, r0, ip, asr #18
     2fc:	48010b03 	stmmida	r1, {r0, r1, r8, r9, fp}
     300:	14032e2b 	strne	r2, [r3], #-3627
     304:	2b2e3247 	blcs	b8cc28 <DISABLE_IRQ+0xb8cba8>
     308:	7803334b 	stmvcda	r3, {r0, r1, r3, r6, r8, r9, ip, sp}
     30c:	2a452e2b 	bcs	114bbc0 <DISABLE_IRQ+0x114bb40>
     310:	e308302e 	tst	r8, #46	; 0x2e
     314:	802c492c 	eorhi	r4, ip, ip, lsr #18
     318:	2b4a2c2d 	blcs	128b3d4 <DISABLE_IRQ+0x128b354>
     31c:	0282492c 	addeq	r4, r2, #720896	; 0xb0000
     320:	01010004 	tsteq	r1, r4
     324:	0000003f 	andeq	r0, r0, pc, lsr r0
     328:	00190002 	andeqs	r0, r9, r2
     32c:	01020000 	tsteq	r2, r0
     330:	000a0efb 	streqd	r0, [sl], -fp
     334:	01010101 	tsteq	r1, r1, lsl #2
     338:	01000000 	tsteq	r0, r0
     33c:	6d656d00 	stcvsl	13, cr6, [r5]
     340:	0000632e 	andeq	r6, r0, lr, lsr #6
     344:	00000000 	andeq	r0, r0, r0
     348:	0a300205 	beq	c00b64 <DISABLE_IRQ+0xc00ae4>
     34c:	1f033000 	swine	0x00033000
     350:	2e446601 	cdpcs	6, 4, cr6, cr4, cr1, {0}
     354:	2f486480 	swics	0x00486480
     358:	470f032c 	strmi	r0, [pc, -ip, lsr #6]
     35c:	4849292d 	stmmida	r9, {r0, r2, r3, r5, r8, fp, sp}^
     360:	04022b4d 	streq	r2, [r2], #-2893
     364:	a4010100 	strge	r0, [r1], #-256
     368:	02000000 	andeq	r0, r0, #0	; 0x0
     36c:	00001a00 	andeq	r1, r0, r0, lsl #20
     370:	fb010200 	blx	40b7a <DISABLE_IRQ+0x40afa>
     374:	01000a0e 	tsteq	r0, lr, lsl #20
     378:	00010101 	andeq	r0, r1, r1, lsl #2
     37c:	00010000 	andeq	r0, r1, r0
     380:	646e616e 	strvsbt	r6, [lr], #-366
     384:	0000632e 	andeq	r6, r0, lr, lsr #6
     388:	00000000 	andeq	r0, r0, r0
     38c:	0aa80205 	beq	fea00ba8 <CLKDIVN+0xb2a00b94>
     390:	13033000 	tstne	r3, #0	; 0x0
     394:	2c2e2701 	stccs	7, cr2, [lr], #-4
     398:	09032730 	stmeqdb	r3, {r4, r5, r8, r9, sl, sp}
     39c:	2b7a0347 	blcs	1e810c0 <DISABLE_IRQ+0x1e81040>
     3a0:	47190333 	undefined
     3a4:	2a48472d 	bcs	1212060 <DISABLE_IRQ+0x1211fe0>
     3a8:	499b0a03 	ldmmiib	fp, {r0, r1, r9, fp}
     3ac:	634c2d29 	cmpvs	ip, #2624	; 0xa40
     3b0:	2d4b634c 	stccsl	3, cr6, [fp, #-304]
     3b4:	2c2a2e29 	stccs	14, cr2, [sl], #-164
     3b8:	272f7608 	strcs	r7, [pc, -r8, lsl #12]!
     3bc:	2f2d262f 	swics	0x002d262f
     3c0:	312b7a03 	teqcc	fp, r3, lsl #20
     3c4:	2c2a48b8 	stccs	8, cr4, [sl], #-736
     3c8:	2a2c3b08 	bcs	b0eff0 <DISABLE_IRQ+0xb0ef70>
     3cc:	483a082c 	ldmmida	sl!, {r2, r3, r5, fp}
     3d0:	3a082c2a 	bcc	20b480 <DISABLE_IRQ+0x20b400>
     3d4:	082c2a48 	stmeqda	ip!, {r3, r6, r9, fp, sp}
     3d8:	48842c75 	stmmiia	r4, {r0, r2, r4, r5, r6, sl, fp, sp}
     3dc:	29492b2e 	stmcsdb	r9, {r1, r2, r3, r5, r8, r9, fp, sp}^
     3e0:	18032f2c 	stmneda	r3, {r2, r3, r5, r8, r9, sl, fp, sp}
     3e4:	2b64032b 	blcs	1901098 <DISABLE_IRQ+0x1901018>
     3e8:	032b1c03 	teqeq	fp, #768	; 0x300
     3ec:	4a4a2b6d 	bmi	128b1a8 <DISABLE_IRQ+0x128b128>
     3f0:	3b082e4a 	blcc	20bd20 <DISABLE_IRQ+0x20bca0>
     3f4:	282c2d29 	stmcsda	ip!, {r0, r3, r5, r8, sl, fp, sp}
     3f8:	673227bb 	undefined
     3fc:	477f8903 	ldrmib	r8, [pc, -r3, lsl #18]!
     400:	2e44672b 	cdpcs	7, 4, cr6, cr4, cr11, {1}
     404:	85484630 	strhib	r4, [r8, #-1584]
     408:	02022965 	andeq	r2, r2, #1654784	; 0x194000
     40c:	a3010100 	tstge	r1, #0	; 0x0
     410:	02000000 	andeq	r0, r0, #0	; 0x0
     414:	00001900 	andeq	r1, r0, r0, lsl #18
     418:	fb010200 	blx	40c22 <DISABLE_IRQ+0x40ba2>
     41c:	01000a0e 	tsteq	r0, lr, lsl #20
     420:	00010101 	andeq	r0, r1, r1, lsl #2
     424:	00010000 	andeq	r0, r1, r0
     428:	2e64636c 	cdpcs	3, 6, cr6, cr4, cr12, {3}
     42c:	00000063 	andeq	r0, r0, r3, rrx
     430:	05000000 	streq	r0, [r0]
     434:	000dc402 	andeq	ip, sp, r2, lsl #8
     438:	00c60330 	sbceq	r0, r6, r0, lsr r3
     43c:	2a2c4601 	bcs	b11c48 <DISABLE_IRQ+0xb11bc8>
     440:	2d2c2c48 	stccs	12, cr2, [ip, #-288]!
     444:	03836464 	orreq	r6, r3, #1677721600	; 0x64000000
     448:	2a2c2b18 	bcs	b0b0b0 <DISABLE_IRQ+0xb0b030>
     44c:	292c482a 	stmcsdb	ip!, {r1, r3, r5, fp, lr}
     450:	03272d2d 	teqeq	r7, #2880	; 0xb40
     454:	032c2b15 	teqeq	ip, #21504	; 0x5400
     458:	11032b6e 	tstne	r3, lr, ror #22
     45c:	2b6c032b 	blcs	1b01110 <DISABLE_IRQ+0x1b01090>
     460:	2b13032d 	blcs	4c111c <DISABLE_IRQ+0x4c109c>
     464:	032b6c03 	teqeq	fp, #768	; 0x300
     468:	69032b18 	stmvsdb	r3, {r3, r4, r8, r9, fp, sp}
     46c:	2b14032b 	blcs	501120 <DISABLE_IRQ+0x5010a0>
     470:	032b6d03 	teqeq	fp, #192	; 0xc0
     474:	2c2c2b11 	stccs	11, cr2, [ip], #-68
     478:	29824c2e 	stmcsib	r2, {r1, r2, r3, r5, sl, fp, lr}
     47c:	80846465 	addhi	r6, r4, r5, ror #8
     480:	2b9c842b 	blcs	fe721534 <CLKDIVN+0xb2721520>
     484:	2e7f1003 	cdpcs	0, 7, cr1, cr15, cr3, {0}
     488:	2a2f2665 	bcs	bc9e24 <DISABLE_IRQ+0xbc9da4>
     48c:	2a2f432f 	bcs	bd1150 <DISABLE_IRQ+0xbd10d0>
     490:	2630272c 	ldrcst	r2, [r0], -ip, lsr #14
     494:	9b0b0330 	blls	2c115c <DISABLE_IRQ+0x2c10dc>
     498:	482e7c2e 	stmmida	lr!, {r1, r2, r3, r5, sl, fp, ip, sp, lr}
     49c:	da7e7e80 	ble	1f9fea4 <DISABLE_IRQ+0x1f9fe24>
     4a0:	282e282e 	stmcsda	lr!, {r1, r2, r3, r5, fp, sp}
     4a4:	62642c66 	rsbvs	r2, r4, #26112	; 0x6600
     4a8:	85462a2c 	strhib	r2, [r6, #-2604]
     4ac:	2d2c2c2c 	stccs	12, cr2, [ip, #-176]!
     4b0:	00040248 	andeq	r0, r4, r8, asr #4
     4b4:	006b0101 	rsbeq	r0, fp, r1, lsl #2
     4b8:	00020000 	andeq	r0, r2, r0
     4bc:	00000043 	andeq	r0, r0, r3, asr #32
     4c0:	0efb0102 	cdpeq	1, 15, cr0, cr11, cr2, {0}
     4c4:	0101000a 	tsteq	r1, sl
     4c8:	00000101 	andeq	r0, r0, r1, lsl #2
     4cc:	6d2f0100 	stfvss	f0, [pc]
     4d0:	682f746e 	stmvsda	pc!, {r1, r2, r3, r5, r6, sl, ip, sp, lr}
     4d4:	2f736667 	swics	0x00736667
     4d8:	6d797341 	ldcvsl	3, cr7, [r9, #-260]!
     4dc:	746f7470 	strvcbt	r7, [pc], #1136	; 4e4 <DISABLE_IRQ+0x464>
     4e0:	6c000065 	stcvs	0, cr0, [r0], {101}
     4e4:	2e747369 	cdpcs	3, 7, cr7, cr4, cr9, {3}
     4e8:	00000063 	andeq	r0, r0, r3, rrx
     4ec:	73696c00 	cmnvc	r9, #0	; 0x0
     4f0:	00682e74 	rsbeq	r2, r8, r4, ror lr
     4f4:	63000001 	tstvs	r0, #1	; 0x1
     4f8:	65707974 	ldrvsb	r7, [r0, #-2420]!
     4fc:	0100682e 	tsteq	r0, lr, lsr #16
     500:	00000000 	andeq	r0, r0, r0
     504:	10480205 	subne	r0, r8, r5, lsl #4
     508:	2a143000 	bcs	50c510 <DISABLE_IRQ+0x50c490>
     50c:	2b1f032c 	blcs	7c11c4 <DISABLE_IRQ+0x7c1144>
     510:	2b302c2a 	blcs	c0b5c0 <DISABLE_IRQ+0xc0b540>
     514:	32632c32 	rsbcc	r2, r3, #12800	; 0x3200
     518:	2c2a2e2a 	stccs	14, cr2, [sl], #-168
     51c:	47302b30 	undefined
     520:	01000202 	tsteq	r0, r2, lsl #4
     524:	00004a01 	andeq	r4, r0, r1, lsl #20
     528:	1a000200 	bne	d30 <DISABLE_IRQ+0xcb0>
     52c:	02000000 	andeq	r0, r0, #0	; 0x0
     530:	0a0efb01 	beq	3bf13c <DISABLE_IRQ+0x3bf0bc>
     534:	01010100 	tsteq	r1, r0, lsl #2
     538:	00000001 	andeq	r0, r0, r1
     53c:	61750001 	cmnvs	r5, r1
     540:	632e7472 	teqvs	lr, #1912602624	; 0x72000000
     544:	00000000 	andeq	r0, r0, r0
     548:	02050000 	andeq	r0, r5, #0	; 0x0
     54c:	300010a4 	andcc	r1, r0, r4, lsr #1
     550:	82010f03 	andhi	r0, r1, #12	; 0xc
     554:	272d2d29 	strcs	r2, [sp, -r9, lsr #26]!
     558:	2c2a2a2f 	stccs	10, cr2, [sl], #-188
     55c:	2c2a2d48 	stccs	13, cr2, [sl], #-288
     560:	4b65484b 	blmi	1952694 <DISABLE_IRQ+0x1952614>
     564:	2e2c652c 	cfsh64cs	mvdx6, mvdx12, #28
     568:	2bf32d2b 	blcs	ffccba1c <CLKDIVN+0xb3ccba08>
     56c:	0402d62d 	streq	sp, [r2], #-1581
     570:	54010100 	strpl	r0, [r1], #-256
     574:	02000003 	andeq	r0, r0, #3	; 0x3
     578:	00004300 	andeq	r4, r0, r0, lsl #6
     57c:	fb010200 	blx	40d86 <DISABLE_IRQ+0x40d06>
     580:	01000a0e 	tsteq	r0, lr, lsl #20
     584:	00010101 	andeq	r0, r1, r1, lsl #2
     588:	2f010000 	swics	0x00010000
     58c:	2f746e6d 	swics	0x00746e6d
     590:	73666768 	cmnvc	r6, #27262976	; 0x1a00000
     594:	7973412f 	ldmvcdb	r3!, {r0, r1, r2, r3, r5, r8, lr}^
     598:	6f74706d 	swivs	0x0074706d
     59c:	00006574 	andeq	r6, r0, r4, ror r5
     5a0:	656c6966 	strvsb	r6, [ip, #-2406]!
     5a4:	0000632e 	andeq	r6, r0, lr, lsr #6
     5a8:	69660000 	stmvsdb	r6!, {}^
     5ac:	682e656c 	stmvsda	lr!, {r2, r3, r5, r6, r8, sl, sp, lr}
     5b0:	00000100 	andeq	r0, r0, r0, lsl #2
     5b4:	70797463 	rsbvcs	r7, r9, r3, ror #8
     5b8:	00682e65 	rsbeq	r2, r8, r5, ror #28
     5bc:	00000001 	andeq	r0, r0, r1
     5c0:	78020500 	stmvcda	r2, {r8, sl}
     5c4:	03300011 	teqeq	r0, #17	; 0x11
     5c8:	49470126 	stmmidb	r7, {r1, r2, r5, r8}^
     5cc:	7f120329 	swivc	0x00120329
     5d0:	4718032f 	ldrmi	r0, [r8, -pc, lsr #6]
     5d4:	032b1903 	teqeq	fp, #49152	; 0xc000
     5d8:	032f2b4b 	teqeq	pc, #76800	; 0x12c00
     5dc:	2e66470a 	cdpcs	7, 6, cr4, cr6, cr10, {0}
     5e0:	032b0e03 	teqeq	fp, #48	; 0x30
     5e4:	0333476f 	teqeq	r3, #29097984	; 0x1bc0000
     5e8:	67032b14 	smladvs	r3, r4, fp, r2
     5ec:	2b0b0363 	blcs	2c1380 <DISABLE_IRQ+0x2c1300>
     5f0:	032b6503 	teqeq	fp, #12582912	; 0xc00000
     5f4:	0c032b15 	stceq	11, cr2, [r3], {21}
     5f8:	2b7a032b 	blcs	1e812ac <DISABLE_IRQ+0x1e8122c>
     5fc:	032b0c03 	teqeq	fp, #768	; 0x300
     600:	09032b77 	stmeqdb	r3, {r0, r1, r2, r4, r5, r6, r8, r9, fp, sp}
     604:	2b7a032b 	blcs	1e812b8 <DISABLE_IRQ+0x1e81238>
     608:	032b7703 	teqeq	fp, #786432	; 0xc0000
     60c:	48302b0c 	ldmmida	r0!, {r2, r3, r8, r9, fp, sp}
     610:	49484c2d 	stmmidb	r8, {r0, r2, r3, r5, sl, fp, lr}^
     614:	4a4c2d9c 	bmi	130bc8c <DISABLE_IRQ+0x130bc0c>
     618:	65672a64 	strvsb	r2, [r7, #-2660]!
     61c:	03471303 	cmpeq	r7, #201326592	; 0xc000000
     620:	2d802b6d 	fstdcs	d2, [r0, #436]
     624:	48471003 	stmmida	r7, {r0, r1, ip}^
     628:	266a2c2d 	strcsbt	r2, [sl], -sp, lsr #24
     62c:	2a2c4944 	bcs	b12b44 <DISABLE_IRQ+0xb12ac4>
     630:	49274a32 	stmmidb	r7!, {r1, r4, r5, r9, fp, lr}
     634:	0328292e 	teqeq	r8, #753664	; 0xb8000
     638:	2df02b0a 	ldccsl	11, cr2, [r0, #40]!
     63c:	2e2a2c4e 	cdpcs	12, 2, cr2, cr10, cr14, {2}
     640:	2c2e4a64 	stccs	10, cr4, [lr], #-400
     644:	2b790331 	blcs	1e41310 <DISABLE_IRQ+0x1e41290>
     648:	2744662c 	strcsb	r6, [r4, -ip, lsr #12]
     64c:	9c631103 	stflse	f1, [r3], #-12
     650:	6f03482d 	swivs	0x0003482d
     654:	2b090347 	blcs	241378 <DISABLE_IRQ+0x2412f8>
     658:	03477703 	cmpeq	r7, #786432	; 0xc0000
     65c:	2e442b09 	cdpcs	11, 4, cr2, cr4, cr9, {0}
     660:	fd081403 	stc2	4, cr1, [r8, #-12]
     664:	7e483047 	cdpvc	0, 4, cr3, cr8, cr7, {2}
     668:	2db84a83 	ldccs	10, cr4, [r8, #524]!
     66c:	0356084b 	cmpeq	r6, #4915200	; 0x4b0000
     670:	17034776 	smlsdxne	r3, r6, r7, r4
     674:	482c2cef 	stmmida	ip!, {r0, r1, r2, r3, r5, r6, r7, sl, fp, sp}
     678:	2c646762 	stccsl	7, cr6, [r4], #-392
     67c:	7f140327 	swivc	0x00140327
     680:	33292632 	teqcc	r9, #52428800	; 0x3200000
     684:	609e2f2a 	addvss	r2, lr, sl, lsr #30
     688:	76036b65 	strvc	r6, [r3], -r5, ror #22
     68c:	630e0347 	tstvs	lr, #469762049	; 0x1c000001
     690:	2e2f294c 	cdpcs	9, 2, cr2, cr15, cr12, {2}
     694:	2b750331 	blcs	1d41360 <DISABLE_IRQ+0x1d412e0>
     698:	d72e2e2a 	strle	r2, [lr, -sl, lsr #28]!
     69c:	4a2d9c65 	bmi	b67838 <DISABLE_IRQ+0xb677b8>
     6a0:	292e49b9 	stmcsdb	lr!, {r0, r3, r4, r5, r7, r8, fp, lr}
     6a4:	2730292c 	ldrcs	r2, [r0, -ip, lsr #18]!
     6a8:	032e2c2c 	teqeq	lr, #11264	; 0x2c00
     6ac:	2c644755 	stccsl	7, cr4, [r4], #-340
     6b0:	470b032a 	strmi	r0, [fp, -sl, lsr #6]
     6b4:	39082a03 	stmccdb	r8, {r0, r1, r9, fp, sp}
     6b8:	470b0347 	strmi	r0, [fp, -r7, asr #6]
     6bc:	4828302b 	stmmida	r8!, {r0, r1, r3, r5, ip, sp}
     6c0:	2d9c1f08 	ldccs	15, cr1, [ip, #32]
     6c4:	2d26bc49 	stccs	12, cr11, [r6, #-292]!
     6c8:	4532282c 	ldrmi	r2, [r2, #-2092]!
     6cc:	302a272d 	eorcc	r2, sl, sp, lsr #14
     6d0:	2a2c2d48 	bcs	b0bbf8 <DISABLE_IRQ+0xb0bb78>
     6d4:	27b71303 	ldrcs	r1, [r7, r3, lsl #6]!
     6d8:	2e2f292d 	cdpcs	9, 2, cr2, cr15, cr13, {1}
     6dc:	2b0b0348 	blcs	2c1404 <DISABLE_IRQ+0x2c1384>
     6e0:	4a7f7903 	bmi	1fdeaf4 <DISABLE_IRQ+0x1fdea74>
     6e4:	2d49674a 	stccsl	7, cr6, [r9, #-296]
     6e8:	72034a29 	andvc	r4, r3, #167936	; 0x29000
     6ec:	6319032b 	tstvs	r9, #-1409286144	; 0xac000000
     6f0:	7a032d30 	bvc	cbbb8 <DISABLE_IRQ+0xcbb38>
     6f4:	9c2c3147 	stflss	f3, [ip], #-284
     6f8:	2d492e2a 	stccsl	14, cr2, [r9, #-168]
     6fc:	282ef383 	stmcsda	lr!, {r0, r1, r7, r8, r9, ip, sp, lr, pc}
     700:	2f2a442e 	swics	0x002a442e
     704:	034c2d48 	cmpeq	ip, #4608	; 0x1200
     708:	03494769 	cmpeq	r9, #27525120	; 0x1a40000
     70c:	2c497f19 	mcrrcs	15, 1, r7, r9, cr9
     710:	2bd30d03 	blcs	ff4c3b24 <CLKDIVN+0xb34c3b10>
     714:	2d453032 	stccsl	0, cr3, [r5, #-200]
     718:	662e2d26 	strvst	r2, [lr], -r6, lsr #26
     71c:	664a2db8 	undefined
     720:	9d2e2c2a 	stcls	12, cr2, [lr, #-168]!
     724:	2e2882d4 	mcrcs	2, 1, r8, cr8, cr4, {6}
     728:	452a2c49 	strmi	r2, [sl, #-3145]!
     72c:	7403282e 	strvc	r2, [r3], #-2094
     730:	ef150347 	swi	0x00150347
     734:	475b034e 	ldrmib	r0, [fp, -lr, asr #6]
     738:	037f2a03 	cmneq	pc, #12288	; 0x3000
     73c:	2d9c4776 	ldccs	7, cr4, [ip, #472]
     740:	2bef1503 	blcs	ffbc5b54 <CLKDIVN+0xb3bc5b40>
     744:	294a2d64 	stmcsdb	sl, {r2, r5, r6, r8, sl, fp, sp}^
     748:	262e3028 	strcst	r3, [lr], -r8, lsr #32
     74c:	2e2c2c2f 	cdpcs	12, 2, cr2, cr12, cr15, {1}
     750:	470c032e 	strmi	r0, [ip, -lr, lsr #6]
     754:	2d470b03 	stccsl	11, cr0, [r7, #-12]
     758:	2b74032d 	blcs	1d01414 <DISABLE_IRQ+0x1d01394>
     75c:	0f03299a 	swieq	0x0003299a
     760:	2b71032b 	blcs	1c41414 <DISABLE_IRQ+0x1c41394>
     764:	0f03432f 	swieq	0x0003432f
     768:	2b1a032b 	blcs	68141c <DISABLE_IRQ+0x68139c>
     76c:	66482f62 	strvsb	r2, [r8], -r2, ror #30
     770:	034a2d9c 	cmpeq	sl, #9984	; 0x2700
     774:	2db87f5a 	ldccs	15, cr7, [r8, #360]!
     778:	5e4c2d49 	cdppl	13, 4, cr2, cr12, cr9, {2}
     77c:	032c4664 	teqeq	ip, #104857600	; 0x6400000
     780:	6e032b09 	fmacdvs	d2, d3, d9
     784:	7f180363 	swivc	0x00180363
     788:	03637603 	cmneq	r3, #3145728	; 0x300000
     78c:	0333d323 	teqeq	r3, #-1946157056	; 0x8c000000
     790:	10036378 	andne	r6, r3, r8, ror r3
     794:	48d64a63 	ldmmiia	r6, {r0, r1, r5, r6, r9, fp, lr}^
     798:	bf2d3246 	swilt	0x002d3246
     79c:	27477a03 	strcsb	r7, [r7, -r3, lsl #20]
     7a0:	032b0a03 	teqeq	fp, #12288	; 0x3000
     7a4:	032c2b15 	teqeq	ip, #21504	; 0x5400
     7a8:	2d9c476c 	ldccs	7, cr4, [ip, #432]
     7ac:	274b2d49 	strcsb	r2, [fp, -r9, asr #26]
     7b0:	9949272f 	stmlsdb	r9, {r0, r1, r2, r3, r5, r8, r9, sl, sp}^
     7b4:	032c292f 	teqeq	ip, #770048	; 0xbc000
     7b8:	23034774 	tstcs	r3, #30408704	; 0x1d00000
     7bc:	78034fd3 	stmvcda	r3, {r0, r1, r4, r6, r7, r8, r9, sl, fp, lr}
     7c0:	289e322b 	ldmcsia	lr, {r0, r1, r3, r5, r9, ip, sp}
     7c4:	8080642e 	addhi	r6, r0, lr, lsr #8
     7c8:	2a648280 	bcs	19211d0 <DISABLE_IRQ+0x1921150>
     7cc:	669c4a2c 	ldrvs	r4, [ip], ip, lsr #20
     7d0:	0a0382ba 	beq	e12c0 <DISABLE_IRQ+0xe1240>
     7d4:	03643908 	cmneq	r4, #131072	; 0x20000
     7d8:	75032b0a 	strvc	r2, [r3, #-2826]
     7dc:	470b032b 	strmi	r0, [fp, -fp, lsr #6]
     7e0:	9b090365 	blls	24157c <DISABLE_IRQ+0x2414fc>
     7e4:	322b7903 	eorcc	r7, fp, #49152	; 0xc000
     7e8:	66b8662c 	ldrvst	r6, [r8], ip, lsr #12
     7ec:	264c4a48 	strcsb	r4, [ip], -r8, asr #20
     7f0:	034e2d30 	cmpeq	lr, #3072	; 0xc00
     7f4:	2e28630a 	cdpcs	3, 2, cr6, cr8, cr10, {0}
     7f8:	032da02e 	teqeq	sp, #46	; 0x2e
     7fc:	61032b1f 	tstvs	r3, pc, lsl fp
     800:	2b79032b 	blcs	1e414b4 <DISABLE_IRQ+0x1e41434>
     804:	2b24032e 	blcs	9014c4 <DISABLE_IRQ+0x901444>
     808:	b9635103 	stmltdb	r3!, {r0, r1, r8, ip, lr}^
     80c:	039b7403 	orreqs	r7, fp, #50331648	; 0x3000000
     810:	2ebe4735 	mrccs	7, 5, r4, cr14, cr5, {1}
     814:	80642d29 	rsbhi	r2, r4, r9, lsr #26
     818:	672a8082 	strvs	r8, [sl, -r2, lsl #1]!
     81c:	65664a2e 	strvsb	r4, [r6, #-2606]!
     820:	64646464 	strvsbt	r6, [r4], #-1124
     824:	64646464 	strvsbt	r6, [r4], #-1124
     828:	2e289e66 	cdpcs	14, 2, cr9, cr8, cr6, {3}
     82c:	02808048 	addeq	r8, r0, #72	; 0x48
     830:	2c2b132e 	stccs	3, cr1, [fp], #-184
     834:	284a9cb8 	stmcsda	sl, {r3, r4, r5, r7, sl, fp, ip, pc}^
     838:	2d47322e 	sfmcs	f3, 2, [r7, #-184]
     83c:	7f090345 	swivc	0x00090345
     840:	03652e47 	cmneq	r5, #1136	; 0x470
     844:	032a2b10 	teqeq	sl, #16384	; 0x4000
     848:	492b2b6f 	stmmidb	fp!, {r0, r1, r2, r3, r5, r6, r8, r9, fp, sp}
     84c:	0344669e 	cmpeq	r4, #165675008	; 0x9e00000
     850:	6c034714 	stcvs	7, cr4, [r3], {20}
     854:	2b14032b 	blcs	501508 <DISABLE_IRQ+0x501488>
     858:	4c2b1403 	cfstrsmi	mvf1, [fp], #-12
     85c:	44692e44 	strmibt	r2, [r9], #-3652
     860:	2b7a0331 	blcs	1e8152c <DISABLE_IRQ+0x1e814ac>
     864:	0903282e 	stmeqdb	r3, {r1, r2, r3, r5, fp, sp}
     868:	2b77032b 	blcs	1dc151c <DISABLE_IRQ+0x1dc149c>
     86c:	032b0903 	teqeq	fp, #49152	; 0xc000
     870:	09034777 	stmeqdb	r3, {r0, r1, r2, r4, r5, r6, r8, r9, sl, lr}
     874:	2d292d2b 	stccs	13, cr2, [r9, #-172]!
     878:	039b1303 	orreqs	r1, fp, #201326592	; 0xc000000
     87c:	59037f14 	stmpldb	r3, {r2, r4, r8, r9, sl, fp, ip, sp, lr}
     880:	2b27037f 	blcs	9c1684 <DISABLE_IRQ+0x9c1604>
     884:	032b5903 	teqeq	fp, #49152	; 0xc000
     888:	2a292b28 	bcs	a4b530 <DISABLE_IRQ+0xa4b4b0>
     88c:	2b59032d 	blcs	1641548 <DISABLE_IRQ+0x16414c8>
     890:	2d45812e 	stfcsp	f0, [r5, #-184]
     894:	0f032d64 	swieq	0x00032d64
     898:	477a0347 	ldrmib	r0, [sl, -r7, asr #6]!
     89c:	2b7a0331 	blcs	1e81568 <DISABLE_IRQ+0x1e814e8>
     8a0:	477a0331 	undefined
     8a4:	2d9c2d31 	ldccs	13, cr2, [ip, #196]
     8a8:	f7630f03 	strnvb	r0, [r3, -r3, lsl #30]!
     8ac:	4779032d 	ldrmib	r0, [r9, -sp, lsr #6]!
     8b0:	ef0903b9 	swi	0x000903b9
     8b4:	2f2b302b 	swics	0x002b302b
     8b8:	9c424c2f 	mcrrls	12, 2, r4, r2, cr15
     8bc:	4709032d 	strmi	r0, [r9, -sp, lsr #6]
     8c0:	4a0c4a02 	bmi	3130d0 <DISABLE_IRQ+0x313050>
     8c4:	0e024a44 	fnmacseq	s8, s4, s8
     8c8:	df010100 	swile	0x00010100
     8cc:	02000002 	andeq	r0, r0, #2	; 0x2
     8d0:	00003400 	andeq	r3, r0, r0, lsl #8
     8d4:	fb010200 	blx	410de <DISABLE_IRQ+0x4105e>
     8d8:	01000a0e 	tsteq	r0, lr, lsl #20
     8dc:	00010101 	andeq	r0, r1, r1, lsl #2
     8e0:	2f010000 	swics	0x00010000
     8e4:	2f746e6d 	swics	0x00746e6d
     8e8:	73666768 	cmnvc	r6, #27262976	; 0x1a00000
     8ec:	7973412f 	ldmvcdb	r3!, {r0, r1, r2, r3, r5, r8, lr}^
     8f0:	6f74706d 	swivs	0x0074706d
     8f4:	00006574 	andeq	r6, r0, r4, ror r5
     8f8:	632e6473 	teqvs	lr, #1929379840	; 0x73000000
     8fc:	00000000 	andeq	r0, r0, r0
     900:	682e6473 	stmvsda	lr!, {r0, r1, r4, r5, r6, sl, sp, lr}
     904:	00000100 	andeq	r0, r0, r0, lsl #2
     908:	02050000 	andeq	r0, r5, #0	; 0x0
     90c:	300023f0 	strccd	r2, [r0], -r0
     910:	0101f303 	tsteqp	r1, r3, lsl #6
     914:	4a2c2f27 	bmi	b0c5b8 <DISABLE_IRQ+0xb0c538>
     918:	2d452d49 	stccsl	13, cr2, [r5, #-292]
     91c:	084a4b2c 	stmeqda	sl, {r2, r3, r5, r8, r9, fp, lr}^
     920:	641f083e 	ldrvs	r0, [pc], #2110	; 928 <DISABLE_IRQ+0x8a8>
     924:	2c2d292d 	stccs	9, cr2, [sp], #-180
     928:	470a0364 	strmi	r0, [sl, -r4, ror #6]
     92c:	2d292d64 	stccs	13, cr2, [r9, #-400]!
     930:	32282e30 	eorcc	r2, r8, #768	; 0x300
     934:	642b7503 	strvst	r7, [fp], #-1283
     938:	7f019a03 	swivc	0x00019a03
     93c:	2a2c2c29 	bcs	b0b9e8 <DISABLE_IRQ+0xb0b968>
     940:	2d2c442e 	cfstrscs	mvf4, [ip, #-184]!
     944:	03644866 	cmneq	r4, #6684672	; 0x660000
     948:	2c292b5c 	stccs	11, cr2, [r9], #-368
     94c:	2f2a2a2c 	swics	0x002a2a2c
     950:	662d2c44 	strvst	r2, [sp], -r4, asr #24
     954:	4848284b 	stmmida	r8, {r0, r1, r3, r6, fp, sp}^
     958:	2b400349 	blcs	1001684 <DISABLE_IRQ+0x1001604>
     95c:	2a2d2949 	bcs	b4ae88 <DISABLE_IRQ+0xb4ae08>
     960:	2c442f46 	mcrrcs	15, 4, r2, r4, cr6
     964:	2d49652d 	cfstr64cs	mvdx6, [r9, #-180]
     968:	2d2f5f4b 	stccs	15, cr5, [pc, #-300]!
     96c:	2f2b7a03 	swics	0x002b7a03
     970:	034a482d 	cmpeq	sl, #2949120	; 0x2d0000
     974:	2d292b52 	fstmdbdcs	r9!, {d2-d42}
     978:	442f462a 	strmit	r4, [pc], #1578	; 980 <DISABLE_IRQ+0x900>
     97c:	03652d2c 	cmneq	r5, #2816	; 0xb00
     980:	70036311 	andvc	r6, r3, r1, lsl r3
     984:	4864642b 	stmmida	r4!, {r0, r1, r3, r5, sl, sp, lr}^
     988:	48646464 	stmmida	r4!, {r2, r5, r6, sl, sp, lr}^
     98c:	48646464 	stmmida	r4!, {r2, r5, r6, sl, sp, lr}^
     990:	2a656464 	bcs	1959b28 <DISABLE_IRQ+0x1959aa8>
     994:	4b032d48 	blmi	cbebc <DISABLE_IRQ+0xcbe3c>
     998:	2d482c2b 	stccsl	12, cr2, [r8, #-172]
     99c:	2c2d2c44 	stccs	12, cr2, [sp], #-272
     9a0:	28630903 	stmcsda	r3!, {r0, r1, r8, fp}^
     9a4:	2a2d292c 	bcs	b4ae5c <DISABLE_IRQ+0xb4addc>
     9a8:	2d2c284a 	stccs	8, cr2, [ip, #-296]!
     9ac:	292d292d 	stmcsdb	sp!, {r0, r2, r3, r5, r8, fp, sp}
     9b0:	2f2a4a2d 	swics	0x002a4a2d
     9b4:	e5033227 	str	r3, [r3, #-551]
     9b8:	2d2e2b01 	fstmdbxcs	lr!, {d2-d1}
     9bc:	4d292d45 	stcmi	13, cr2, [r9, #-276]!
     9c0:	7ecd0328 	cdpvc	3, 12, cr0, cr13, cr8, {1}
     9c4:	63110347 	tstvs	r1, #469762049	; 0x1c000001
     9c8:	2a2b7303 	bcs	add5dc <DISABLE_IRQ+0xadd55c>
     9cc:	032f2a29 	teqeq	pc, #167936	; 0x29000
     9d0:	032a2b0d 	teqeq	sl, #13312	; 0x3400
     9d4:	0e032b75 	mcreq	11, 0, r2, cr3, cr5, {3}
     9d8:	2b70032b 	blcs	1c0168c <DISABLE_IRQ+0x1c0160c>
     9dc:	2a2d2d29 	bcs	b4be88 <DISABLE_IRQ+0xb4be08>
     9e0:	4849652c 	stmmida	r9, {r2, r3, r5, r8, sl, sp, lr}^
     9e4:	292e2f49 	stmcsdb	lr!, {r0, r3, r6, r8, r9, sl, fp, sp}
     9e8:	2a2c492d 	bcs	b12ea4 <DISABLE_IRQ+0xb12e24>
     9ec:	01b1032e 	moveqs	r0, lr, lsr #6
     9f0:	2c2a482b 	stccs	8, cr4, [sl], #-172
     9f4:	7ede034b 	cdpvc	3, 13, cr0, cr14, cr11, {2}
     9f8:	2d482c47 	stccsl	12, cr2, [r8, #-284]
     9fc:	4a2d2c44 	bmi	b4bb14 <DISABLE_IRQ+0xb4ba94>
     a00:	032d2a2c 	teqeq	sp, #180224	; 0x2c000
     a04:	2d282b14 	fstmdbdcs	r8!, {d2-d11}
     a08:	4430282c 	ldrmit	r2, [r0], #-2092
     a0c:	6a2f2d2c 	bvs	bcbec4 <DISABLE_IRQ+0xbcbe44>
     a10:	282c2d28 	stmcsda	ip!, {r3, r5, r8, sl, fp, sp}
     a14:	2d2c4430 	cfstrscs	mvf4, [ip, #-192]!
     a18:	018e032f 	orreq	r0, lr, pc, lsr #6
     a1c:	4a2f2763 	bmi	bca7b0 <DISABLE_IRQ+0xbca730>
     a20:	64477903 	strvsb	r7, [r7], #-2307
     a24:	292d2c2e 	stmcsdb	sp!, {r1, r2, r3, r5, sl, fp, sp}
     a28:	6764622d 	strvsb	r6, [r4, -sp, lsr #4]!
     a2c:	03b71003 	moveqs	r1, #3	; 0x3
     a30:	2d697f75 	stccsl	15, cr7, [r9, #-468]!
     a34:	2d292d2c 	stccs	13, cr2, [r9, #-176]!
     a38:	6462814b 	strvsbt	r8, [r2], #-331
     a3c:	032c9d4b 	teqeq	ip, #4800	; 0x12c0
     a40:	2a2c2b6a 	bcs	b0b7f0 <DISABLE_IRQ+0xb0b770>
     a44:	7ee7032c 	cdpvc	3, 14, cr0, cr7, cr12, {1}
     a48:	282c2d47 	stmcsda	ip!, {r0, r1, r2, r6, r8, sl, fp, sp}
     a4c:	2d2c4430 	cfstrscs	mvf4, [ip, #-192]!
     a50:	2d286a2f 	fstmdbscs	r8!, {s12-s58}
     a54:	4430282c 	ldrmit	r2, [r0], #-2092
     a58:	032f2d2c 	teqeq	pc, #2816	; 0xb00
     a5c:	2f6301a8 	swics	0x006301a8
     a60:	7903325f 	stmvcdb	r3, {r0, r1, r2, r3, r4, r6, r9, ip, sp}
     a64:	2c2d6547 	cfstr32cs	mvfx6, [sp], #-284
     a68:	034b6464 	cmpeq	fp, #1677721600	; 0x64000000
     a6c:	7a03b70a 	bvc	ee69c <DISABLE_IRQ+0xee61c>
     a70:	2e28317f 	mcrcs	1, 1, r3, cr8, cr15, {3}
     a74:	2d292d29 	stccs	13, cr2, [r9, #-164]!
     a78:	2cbbd74b 	ldccs	7, cr13, [fp], #300
     a7c:	2e2c2a4a 	fnmulscs	s4, s24, s20
     a80:	2b7eb603 	blcs	1fae294 <DISABLE_IRQ+0x1fae214>
     a84:	4a2a2d29 	bmi	a8bf30 <DISABLE_IRQ+0xa8beb0>
     a88:	492d2c44 	stmmidb	sp!, {r2, r6, sl, fp, sp}
     a8c:	2f2d2a2c 	swics	0x002d2a2c
     a90:	30622c47 	rsbcc	r2, r2, r7, asr #24
     a94:	4a2a2f27 	bmi	a8c738 <DISABLE_IRQ+0xa8c6b8>
     a98:	03477a03 	cmpeq	r7, #12288	; 0x3000
     a9c:	79032b0a 	stmvcdb	r3, {r1, r3, r8, r9, fp, sp}
     aa0:	482d2c47 	stmmida	sp!, {r0, r1, r2, r6, sl, fp, sp}
     aa4:	032c482c 	teqeq	ip, #2883584	; 0x2c0000
     aa8:	644700c1 	strvsb	r0, [r7], #-193
     aac:	2d282e2a 	stccs	14, cr2, [r8, #-168]!
     ab0:	482d292c 	stmmida	sp!, {r2, r3, r5, r8, fp, sp}
     ab4:	477fbf03 	ldrmib	fp, [pc, -r3, lsl #30]!
     ab8:	2d294949 	stccs	9, cr4, [r9, #-292]!
     abc:	2c2d282c 	stccs	8, cr2, [sp], #-176
     ac0:	2a432e2a 	bcs	10cc370 <DISABLE_IRQ+0x10cc2f0>
     ac4:	032b1203 	teqeq	fp, #805306368	; 0x30000000
     ac8:	2d2c4770 	stccs	7, cr4, [ip, #-448]!
     acc:	032d292d 	teqeq	sp, #737280	; 0xb4000
     ad0:	77032b09 	strvc	r2, [r3, -r9, lsl #22]
     ad4:	2b09032b 	blcs	241788 <DISABLE_IRQ+0x241708>
     ad8:	2b74032c 	blcs	1d01790 <DISABLE_IRQ+0x1d01710>
     adc:	2d452d2d 	stccsl	13, cr2, [r5, #-180]
     ae0:	2c2d2a2a 	stccs	10, cr2, [sp], #-168
     ae4:	264c2a67 	strcsb	r2, [ip], -r7, ror #20
     ae8:	01a10330 	moveq	r0, r0, lsr r3
     aec:	7ef0032b 	cdpvc	3, 15, cr0, cr0, cr11, {1}
     af0:	46482e63 	strmib	r2, [r8], -r3, ror #28
     af4:	b5492768 	strltb	r2, [r9, #-1896]
     af8:	4a2c292f 	bmi	b0afbc <DISABLE_IRQ+0xb0af3c>
     afc:	7cbc032c 	ldcvc	3, cr0, [ip], #176
     b00:	464a2e47 	strmib	r2, [sl], -r7, asr #28
     b04:	2d292c64 	stccs	12, cr2, [r9, #-400]!
     b08:	78032e4b 	stmvcda	r3, {r0, r1, r3, r6, r9, sl, fp, sp}
     b0c:	2e2f2f2b 	cdpcs	15, 2, cr2, cr15, cr11, {1}
     b10:	03477603 	cmpeq	r7, #3145728	; 0x300000
     b14:	77032b0a 	strvc	r2, [r3, -sl, lsl #22]
     b18:	2d2c2d2b 	stccs	13, cr2, [ip, #-172]!
     b1c:	2e2c642a 	cdpcs	4, 2, cr6, cr12, cr10, {1}
     b20:	2d482e66 	stccsl	14, cr2, [r8, #-408]
     b24:	4a2e4929 	bmi	b92fd0 <DISABLE_IRQ+0xb92f50>
     b28:	79033328 	stmvcdb	r3, {r3, r5, r8, r9, ip, sp}
     b2c:	48864e2b 	stmmiia	r6, {r0, r1, r3, r5, r9, sl, fp, lr}
     b30:	48477903 	stmmida	r7, {r0, r1, r8, fp, ip, sp, lr}^
     b34:	f7649c64 	strnvb	r9, [r4, -r4, ror #24]!
     b38:	a0630c03 	rsbge	r0, r3, r3, lsl #24
     b3c:	9c642c26 	stclsl	12, cr2, [r4], #-152
     b40:	0a032508 	beq	c9f68 <DISABLE_IRQ+0xc9ee8>
     b44:	03481d08 	cmpeq	r8, #512	; 0x200
     b48:	03a1475f 	moveq	r4, #24903680	; 0x17c0000
     b4c:	462d2b7a 	undefined
     b50:	49292c2c 	stmmidb	r9!, {r2, r3, r5, sl, fp, sp}
     b54:	08130380 	ldmeqda	r3, {r7, r8, r9}
     b58:	2c2a9c1d 	stccs	12, cr9, [sl], #-116
     b5c:	2d2a2c2a 	stccs	12, cr2, [sl, #-168]!
     b60:	642c2c2a 	strvst	r2, [ip], #-3114
     b64:	87646464 	strhib	r6, [r4, -r4, ror #8]!
     b68:	4e2c28ba 	mcrmi	8, 1, r2, cr12, cr10, {5}
     b6c:	4828d7d6 	stmmida	r8!, {r1, r2, r4, r6, r7, r8, r9, sl, ip, lr, pc}
     b70:	2e2c2a2e 	fmulscs	s4, s24, s29
     b74:	7ed8032c 	cdpvc	3, 13, cr0, cr8, cr12, {1}
     b78:	2f013402 	swics	0x00013402
     b7c:	62496a64 	subvs	r6, r9, #409600	; 0x64000
     b80:	312a482a 	teqcc	sl, sl, lsr #16
     b84:	2b7903bf 	blcs	1e41a88 <DISABLE_IRQ+0x1e41a08>
     b88:	4948b84e 	stmmidb	r8, {r1, r2, r3, r6, fp, ip, sp, pc}^
     b8c:	0364644b 	cmneq	r4, #1258291200	; 0x4b000000
     b90:	0332637a 	teqeq	r2, #-402653183	; 0xe8000001
     b94:	2f486379 	swics	0x00486379
     b98:	032c2a28 	teqeq	ip, #163840	; 0x28000
     b9c:	57036310 	smladpl	r3, r0, r3, r6
     ba0:	2b0e032b 	blcs	381854 <DISABLE_IRQ+0x3817d4>
     ba4:	1303462c 	tstne	r3, #46137344	; 0x2c00000
     ba8:	001a0247 	andeqs	r0, sl, r7, asr #4
     bac:	00800101 	addeq	r0, r0, r1, lsl #2
     bb0:	00020000 	andeq	r0, r2, r0
     bb4:	0000001b 	andeq	r0, r0, fp, lsl r0
     bb8:	0efb0102 	cdpeq	1, 15, cr0, cr11, cr2, {0}
     bbc:	0101000a 	tsteq	r1, sl
     bc0:	00000101 	andeq	r0, r0, r1, lsl #2
     bc4:	64000100 	strvs	r0, [r0], #-256
     bc8:	34367669 	ldrcct	r7, [r6], #-1641
     bcc:	0000532e 	andeq	r5, r0, lr, lsr #6
     bd0:	00000000 	andeq	r0, r0, r0
     bd4:	32600205 	rsbcc	r0, r0, #1342177280	; 0x50000000
     bd8:	39033000 	stmccdb	r3, {ip, sp}
     bdc:	2c2c2c01 	stccs	12, cr2, [ip], #-4
     be0:	032c2c2e 	teqeq	ip, #11776	; 0x2e00
     be4:	2c2c2b11 	stccs	11, cr2, [ip], #-68
     be8:	2c2c2c2c 	stccs	12, cr2, [ip], #-176
     bec:	2c2c2c31 	stccs	12, cr2, [ip], #-196
     bf0:	2c2e2c2c 	stccs	12, cr2, [lr], #-176
     bf4:	302c2c2c 	eorcc	r2, ip, ip, lsr #24
     bf8:	2c2c2c2c 	stccs	12, cr2, [ip], #-176
     bfc:	2c2c2c2c 	stccs	12, cr2, [ip], #-176
     c00:	2c2c302c 	stccs	0, cr3, [ip], #-176
     c04:	2c2b0d03 	stccs	13, cr0, [fp], #-12
     c08:	2c2c332c 	stccs	3, cr3, [ip], #-176
     c0c:	2b0c032c 	blcs	3018c4 <DISABLE_IRQ+0x301844>
     c10:	2c2c2c2c 	stccs	12, cr2, [ip], #-176
     c14:	2d2c2c2d 	stccs	12, cr2, [ip, #-180]!
     c18:	2c2d2c2c 	stccs	12, cr2, [sp], #-176
     c1c:	2c2c2f2c 	stccs	15, cr2, [ip], #-176
     c20:	2c2c2c2c 	stccs	12, cr2, [ip], #-176
     c24:	2c2c2c2e 	stccs	12, cr2, [ip], #-184
     c28:	2c2c2f2e 	stccs	15, cr2, [ip], #-184
     c2c:	0002022c 	andeq	r0, r2, ip, lsr #4
     c30:	00a90101 	adceq	r0, r9, r1, lsl #2
     c34:	00020000 	andeq	r0, r2, r0
     c38:	0000001f 	andeq	r0, r0, pc, lsl r0
     c3c:	0efb0102 	cdpeq	1, 15, cr0, cr11, cr2, {0}
     c40:	0101000a 	tsteq	r1, sl
     c44:	00000101 	andeq	r0, r0, r1, lsl #2
     c48:	6c000100 	stfvss	f0, [r0], {0}
     c4c:	66316269 	ldrvst	r6, [r1], -r9, ror #4
     c50:	73636e75 	cmnvc	r3, #1872	; 0x750
     c54:	0000532e 	andeq	r5, r0, lr, lsr #6
     c58:	00000000 	andeq	r0, r0, r0
     c5c:	33900205 	orrccs	r0, r0, #1342177280	; 0x50000000
     c60:	c0033000 	andgt	r3, r3, r0
     c64:	2c2c0101 	stfcss	f0, [ip], #-4
     c68:	2c2c2c2c 	stccs	12, cr2, [ip], #-176
     c6c:	2b7ef503 	blcs	1fbe080 <DISABLE_IRQ+0x1fbe000>
     c70:	02018f03 	andeq	r8, r1, #12	; 0xc
     c74:	2d2c013e 	stfcss	f0, [ip, #-248]!
     c78:	a9032c2c 	stmgedb	r3, {r2, r3, r5, sl, fp, sp}
     c7c:	db032b7f 	blle	cba80 <DISABLE_IRQ+0xcba00>
     c80:	2c8d0800 	stccs	8, cr0, [sp], {0}
     c84:	2c2c2c68 	stccs	12, cr2, [ip], #-416
     c88:	032c2c2c 	teqeq	ip, #11264	; 0x2c00
     c8c:	032b7fba 	teqeq	fp, #744	; 0x2e8
     c90:	4e0200ca 	cdpmi	0, 0, cr0, cr2, cr10, {6}
     c94:	2c2c4c01 	stccs	12, cr4, [ip], #-4
     c98:	2c2c2c2c 	stccs	12, cr2, [ip], #-176
     c9c:	2c2c2c2c 	stccs	12, cr2, [ip], #-176
     ca0:	7ec8032c 	cdpvc	3, 12, cr0, cr8, cr12, {1}
     ca4:	01bc032b 	moveqs	r0, fp, lsr #6
     ca8:	2c013e02 	stccs	14, cr3, [r1], {2}
     cac:	2c2c2d2c 	stccs	13, cr2, [ip], #-176
     cb0:	2c2c2c2d 	stccs	12, cr2, [ip], #-180
     cb4:	2b7ef603 	blcs	1fbe4c8 <DISABLE_IRQ+0x1fbe448>
     cb8:	08018e03 	stmeqda	r1, {r0, r1, r9, sl, fp, pc}
     cbc:	2c2c2c8d 	stccs	12, cr2, [ip], #-564
     cc0:	2c2c2c68 	stccs	12, cr2, [ip], #-416
     cc4:	2c2c2c2c 	stccs	12, cr2, [ip], #-176
     cc8:	032c2c2c 	teqeq	ip, #11264	; 0x2c00
     ccc:	032b7f81 	teqeq	fp, #516	; 0x204
     cd0:	4e020183 	adfmid	f0, f2, f3
     cd4:	302c2c01 	eorcc	r2, ip, r1, lsl #24
     cd8:	02022c2d 	andeq	r2, r2, #11520	; 0x2d00
     cdc:	21010100 	tstcs	r1, r0, lsl #2
     ce0:	02000000 	andeq	r0, r0, #0	; 0x0
     ce4:	00001b00 	andeq	r1, r0, r0, lsl #22
     ce8:	fb010200 	blx	414f2 <DISABLE_IRQ+0x41472>
     cec:	01000a0e 	tsteq	r0, lr, lsl #20
     cf0:	00010101 	andeq	r0, r1, r1, lsl #2
     cf4:	00010000 	andeq	r0, r1, r0
     cf8:	70797463 	rsbvcs	r7, r9, r3, ror #8
     cfc:	00632e65 	rsbeq	r2, r3, r5, ror #28
     d00:	00000000 	andeq	r0, r0, r0
     d04:	00000069 	andeq	r0, r0, r9, rrx
     d08:	004b0002 	subeq	r0, fp, r2
     d0c:	01020000 	tsteq	r2, r0
     d10:	000a0efb 	streqd	r0, [sl], -fp
     d14:	01010101 	tsteq	r1, r1, lsl #2
     d18:	01000000 	tsteq	r0, r0
     d1c:	746e6d2f 	strvcbt	r6, [lr], #-3375
     d20:	6667682f 	strvsbt	r6, [r7], -pc, lsr #16
     d24:	73412f73 	cmpvc	r1, #460	; 0x1cc
     d28:	74706d79 	ldrvcbt	r6, [r0], #-3449
     d2c:	2f65746f 	swics	0x0065746f
     d30:	2f62696c 	swics	0x0062696c
     d34:	692f2e2e 	stmvsdb	pc!, {r1, r2, r3, r5, r9, sl, fp, sp}
     d38:	756c636e 	strvcb	r6, [ip, #-878]!
     d3c:	00006564 	andeq	r6, r0, r4, ror #10
     d40:	646c756d 	strvsbt	r7, [ip], #-1389
     d44:	632e3369 	teqvs	lr, #-1543503871	; 0xa4000001
     d48:	00000000 	andeq	r0, r0, r0
     d4c:	6c636367 	stcvsl	3, cr6, [r3], #-412
     d50:	682e6269 	stmvsda	lr!, {r0, r3, r5, r6, r9, sp, lr}
     d54:	00000100 	andeq	r0, r0, r0, lsl #2
     d58:	02050000 	andeq	r0, r5, #0	; 0x0
     d5c:	30003740 	andcc	r3, r0, r0, asr #14
     d60:	0100c703 	tsteq	r0, r3, lsl #14
     d64:	332b7803 	teqcc	fp, #196608	; 0x30000
     d68:	2fc6082a 	swics	0x00c6082a
     d6c:	01000202 	tsteq	r0, r2, lsl #4
     d70:	00005d01 	andeq	r5, r0, r1, lsl #26
     d74:	2a000200 	bcs	157c <DISABLE_IRQ+0x14fc>
     d78:	02000000 	andeq	r0, r0, #0	; 0x0
     d7c:	0a0efb01 	beq	3bf988 <DISABLE_IRQ+0x3bf908>
     d80:	01010100 	tsteq	r1, r0, lsl #2
     d84:	00000001 	andeq	r0, r0, r1
     d88:	72700001 	rsbvcs	r0, r0, #1	; 0x1
     d8c:	66746e69 	ldrvsbt	r6, [r4], -r9, ror #28
     d90:	0000632e 	andeq	r6, r0, lr, lsr #6
     d94:	73760000 	cmnvc	r6, #0	; 0x0
     d98:	6e697270 	mcrvs	2, 3, r7, cr9, cr0, {3}
     d9c:	682e6674 	stmvsda	lr!, {r2, r4, r5, r6, r9, sl, sp, lr}
     da0:	00000000 	andeq	r0, r0, r0
     da4:	02050000 	andeq	r0, r5, #0	; 0x0
     da8:	30003790 	mulcc	r0, r0, r7
     dac:	31011003 	tstcc	r1, r3
     db0:	312b7a03 	teqcc	fp, r3, lsl #20
     db4:	4583452d 	strmi	r4, [r3, #1325]
     db8:	0364a0a0 	cmneq	r4, #160	; 0xa0
     dbc:	7803470e 	stmvcda	r3, {r1, r2, r3, r8, r9, sl, lr}
     dc0:	03654847 	cmneq	r5, #4653056	; 0x470000
     dc4:	76032b0a 	strvc	r2, [r3], -sl, lsl #22
     dc8:	2b0a0363 	blcs	281b5c <DISABLE_IRQ+0x281adc>
     dcc:	0008022f 	andeq	r0, r8, pc, lsr #4
     dd0:	01700101 	cmneq	r0, r1, lsl #2
     dd4:	00020000 	andeq	r0, r2, r0
     dd8:	00000055 	andeq	r0, r0, r5, asr r0
     ddc:	0efb0102 	cdpeq	1, 15, cr0, cr11, cr2, {0}
     de0:	0101000a 	tsteq	r1, sl
     de4:	00000101 	andeq	r0, r0, r1, lsl #2
     de8:	6d2f0100 	stfvss	f0, [pc]
     dec:	682f746e 	stmvsda	pc!, {r1, r2, r3, r5, r6, sl, ip, sp, lr}
     df0:	2f736667 	swics	0x00736667
     df4:	6d797341 	ldcvsl	3, cr7, [r9, #-260]!
     df8:	746f7470 	strvcbt	r7, [pc], #1136	; e00 <DISABLE_IRQ+0xd80>
     dfc:	696c2f65 	stmvsdb	ip!, {r0, r2, r5, r6, r8, r9, sl, fp, sp}^
     e00:	2e2e2f62 	cdpcs	15, 2, cr2, cr14, cr2, {3}
     e04:	636e692f 	cmnvs	lr, #770048	; 0xbc000
     e08:	6564756c 	strvsb	r7, [r4, #-1388]!
     e0c:	74730000 	ldrvcbt	r0, [r3]
     e10:	676e6972 	undefined
     e14:	0000632e 	andeq	r6, r0, lr, lsr #6
     e18:	74630000 	strvcbt	r0, [r3]
     e1c:	2e657079 	mcrcs	0, 3, r7, cr5, cr9, {3}
     e20:	00010068 	andeq	r0, r1, r8, rrx
     e24:	70797400 	rsbvcs	r7, r9, r0, lsl #8
     e28:	682e7365 	stmvsda	lr!, {r0, r2, r5, r6, r8, r9, ip, sp, lr}
     e2c:	00000100 	andeq	r0, r0, r0, lsl #2
     e30:	02050000 	andeq	r0, r5, #0	; 0x0
     e34:	30003840 	andcc	r3, r0, r0, asr #16
     e38:	30011e03 	andcc	r1, r1, r3, lsl #28
     e3c:	2c4b272a 	mcrrcs	7, 2, r2, fp, cr10
     e40:	02042d2d 	andeq	r2, r4, #2880	; 0xb40
     e44:	2d010427 	cfstrscs	mvf0, [r1, #-156]
     e48:	02042d2d 	andeq	r2, r4, #2880	; 0xb40
     e4c:	042b7903 	streqt	r7, [fp], #-2307
     e50:	042d4e01 	streqt	r4, [sp], #-3585
     e54:	47780302 	ldrmib	r0, [r8, -r2, lsl #6]!
     e58:	292c6264 	stmcsdb	ip!, {r2, r5, r6, r9, sp, lr}
     e5c:	0d030104 	stfeqs	f0, [r3, #-16]
     e60:	034a4947 	cmpeq	sl, #1163264	; 0x11c000
     e64:	822d630d 	eorhi	r6, sp, #872415232	; 0x34000000
     e68:	2d471003 	stccsl	0, cr1, [r7, #-12]
     e6c:	470e03bb 	undefined
     e70:	642f2a28 	strvst	r2, [pc], #2600	; e78 <DISABLE_IRQ+0xdf8>
     e74:	47110383 	ldrmi	r0, [r1, -r3, lsl #7]
     e78:	9f2d2d29 	swils	0x002d2d29
     e7c:	0332487d 	teqeq	r2, #8192000	; 0x7d0000
     e80:	2108470e 	tstcs	r8, lr, lsl #14
     e84:	4711032c 	ldrmi	r0, [r1, -ip, lsr #6]
     e88:	2c2b7a03 	stccs	10, cr7, [fp], #-12
     e8c:	1f082930 	swine	0x00082930
     e90:	0b032c4a 	bleq	cbfc0 <DISABLE_IRQ+0xcbf40>
     e94:	482c6247 	stmmida	ip!, {r0, r1, r2, r6, r9, sp, lr}
     e98:	032c6646 	teqeq	ip, #73400320	; 0x4600000
     e9c:	2e442b1d 	mcrcs	11, 2, r2, cr4, cr13, {0}
     ea0:	476a0382 	strmib	r0, [sl, -r2, lsl #7]!
     ea4:	6565482b 	strvsb	r4, [r5, #-2091]!
     ea8:	1c032c64 	stcne	12, cr2, [r3], {100}
     eac:	082e442b 	stmeqda	lr!, {r0, r1, r3, r5, sl, lr}
     eb0:	470b0358 	smlsdmi	fp, r8, r3, r0
     eb4:	9c802d2e 	stcls	13, cr2, [r0], {46}
     eb8:	630a0346 	tstvs	sl, #402653185	; 0x18000001
     ebc:	42637a03 	rsbmi	r7, r3, #12288	; 0x3000
     ec0:	2b79034e 	blcs	1e41c00 <DISABLE_IRQ+0x1e41b80>
     ec4:	032b0b03 	teqeq	fp, #3072	; 0xc00
     ec8:	802e7f0a 	eorhi	r7, lr, sl, lsl #30
     ecc:	69624680 	stmvsdb	r2!, {r7, r9, sl, lr}^
     ed0:	2b0c032c 	blcs	301b88 <DISABLE_IRQ+0x301b08>
     ed4:	2f4a282e 	swics	0x004a282e
     ed8:	2a2a6564 	bcs	a9a470 <DISABLE_IRQ+0xa9a3f0>
     edc:	4880642f 	stmmiia	r0, {r0, r1, r2, r3, r5, sl, sp, lr}
     ee0:	72032c2c 	andvc	r2, r3, #11264	; 0x2c00
     ee4:	2a2c482b 	bcs	b12f98 <DISABLE_IRQ+0xb12f18>
     ee8:	2b631d03 	blcs	18c82fc <DISABLE_IRQ+0x18c827c>
     eec:	2a2c2d2c 	bcs	b0c3a4 <DISABLE_IRQ+0xb0c324>
     ef0:	4a2c2c2e 	bmi	b0bfb0 <DISABLE_IRQ+0xb0bf30>
     ef4:	11032e29 	tstne	r3, r9, lsr #28
     ef8:	9e2e4447 	cdpls	4, 2, cr4, cr14, cr7, {2}
     efc:	2b2b1603 	blcs	ac6710 <DISABLE_IRQ+0xac6690>
     f00:	44d31303 	ldrmib	r1, [r3], #771
     f04:	1003ba2e 	andne	fp, r3, lr, lsr #20
     f08:	442f2b2b 	strmit	r2, [pc], #2859	; f10 <DISABLE_IRQ+0xe90>
     f0c:	2e2ad72e 	cdpcs	7, 2, cr13, cr10, cr14, {1}
     f10:	2b0f03d7 	blcs	3c1e74 <DISABLE_IRQ+0x3c1df4>
     f14:	622c2d29 	eorvs	r2, ip, #2624	; 0xa40
     f18:	034b2a48 	cmpeq	fp, #294912	; 0x48000
     f1c:	282b4715 	stmcsda	fp!, {r0, r2, r4, r8, r9, sl, lr}
     f20:	2e2c2a66 	fnmulscs	s4, s24, s13
     f24:	2b2b0a03 	blcs	ac3738 <DISABLE_IRQ+0xac36b8>
     f28:	2c2e282e 	stccs	8, cr2, [lr], #-184
     f2c:	264c434d 	strcsb	r4, [ip], -sp, asr #6
     f30:	2c9a2930 	ldccs	9, cr2, [sl], {48}
     f34:	032c652d 	teqeq	ip, #188743680	; 0xb400000
     f38:	622b2b12 	eorvs	r2, fp, #18432	; 0x4800
     f3c:	4a2c2a48 	bmi	b0b864 <DISABLE_IRQ+0xb0b7e4>
     f40:	0002022c 	andeq	r0, r2, ip, lsr #4
     f44:	03750101 	cmneq	r5, #1073741824	; 0x40000000
     f48:	00020000 	andeq	r0, r2, r0
     f4c:	00000065 	andeq	r0, r0, r5, rrx
     f50:	0efb0102 	cdpeq	1, 15, cr0, cr11, cr2, {0}
     f54:	0101000a 	tsteq	r1, sl
     f58:	00000101 	andeq	r0, r0, r1, lsl #2
     f5c:	6d2f0100 	stfvss	f0, [pc]
     f60:	682f746e 	stmvsda	pc!, {r1, r2, r3, r5, r6, sl, ip, sp, lr}
     f64:	2f736667 	swics	0x00736667
     f68:	6d797341 	ldcvsl	3, cr7, [r9, #-260]!
     f6c:	746f7470 	strvcbt	r7, [pc], #1136	; f74 <DISABLE_IRQ+0xef4>
     f70:	696c2f65 	stmvsdb	ip!, {r0, r2, r5, r6, r8, r9, sl, fp, sp}^
     f74:	2e2e2f62 	cdpcs	15, 2, cr2, cr14, cr2, {3}
     f78:	636e692f 	cmnvs	lr, #770048	; 0xbc000
     f7c:	6564756c 	strvsb	r7, [r4, #-1388]!
     f80:	73760000 	cmnvc	r6, #0	; 0x0
     f84:	6e697270 	mcrvs	2, 3, r7, cr9, cr0, {3}
     f88:	632e6674 	teqvs	lr, #121634816	; 0x7400000
     f8c:	00000000 	andeq	r0, r0, r0
     f90:	70797463 	rsbvcs	r7, r9, r3, ror #8
     f94:	00682e65 	rsbeq	r2, r8, r5, ror #28
     f98:	74000001 	strvc	r0, [r0], #-1
     f9c:	73657079 	cmnvc	r5, #121	; 0x79
     fa0:	0100682e 	tsteq	r0, lr, lsr #16
     fa4:	73760000 	cmnvc	r6, #0	; 0x0
     fa8:	6e697270 	mcrvs	2, 3, r7, cr9, cr0, {3}
     fac:	682e6674 	stmvsda	lr!, {r2, r4, r5, r6, r9, sl, sp, lr}
     fb0:	00000000 	andeq	r0, r0, r0
     fb4:	02050000 	andeq	r0, r5, #0	; 0x0
     fb8:	30003df8 	strccd	r3, [r0], -r8
     fbc:	2e012503 	cfsh32cs	mvfx2, mvfx1, #3
     fc0:	2d2d2c28 	stccs	12, cr2, [sp, #-160]!
     fc4:	0f032c46 	swieq	0x00032c46
     fc8:	03020463 	tsteq	r2, #1660944384	; 0x63000000
     fcc:	452c4771 	strmi	r4, [ip, #-1905]!
     fd0:	0f030104 	swieq	0x00030104
     fd4:	2c9d4863 	ldccs	8, cr4, [sp], {99}
     fd8:	4774032d 	ldrmib	r0, [r4, -sp, lsr #6]!
     fdc:	03020464 	tsteq	r2, #1677721600	; 0x64000000
     fe0:	642c6376 	strvst	r6, [ip], #-886
     fe4:	2c2a8045 	stccs	0, cr8, [sl], #-276
     fe8:	01044548 	tsteq	r4, r8, asr #10
     fec:	2902042d 	stmcsdb	r2, {r0, r2, r3, r5, sl}
     ff0:	03a10104 	moveq	r0, #1	; 0x1
     ff4:	662c631a 	undefined
     ff8:	03492a2a 	cmpeq	r9, #172032	; 0x2a000
     ffc:	282e470b 	stmcsda	lr!, {r0, r1, r3, r8, r9, sl, lr}
    1000:	462d4948 	strmit	r4, [sp], -r8, asr #18
    1004:	7f0f032c 	swivc	0x000f032c
    1008:	bf030204 	swilt	0x00030204
    100c:	0104477f 	tsteq	r4, pc, ror r7
    1010:	4700c103 	strmi	ip, [r0, -r3, lsl #2]
    1014:	bd030204 	sfmlt	f0, 4, [r3, #-16]
    1018:	01042b7f 	tsteq	r4, pc, ror fp
    101c:	9b00c203 	blls	31830 <DISABLE_IRQ+0x317b0>
    1020:	be030204 	cdplt	2, 0, cr0, cr3, cr4, {0}
    1024:	01047f7f 	tsteq	r4, pc, ror pc
    1028:	7f00c203 	swivc	0x0000c203
    102c:	452eb9b8 	strmi	fp, [lr, #-2488]!
    1030:	2b74032d 	blcs	1d01cec <DISABLE_IRQ+0x1d01c6c>
    1034:	03020464 	tsteq	r2, #1677721600	; 0x64000000
    1038:	642c6343 	strvst	r6, [ip], #-835
    103c:	2c2a8045 	stccs	0, cr8, [sl], #-276
    1040:	01044548 	tsteq	r4, r8, asr #10
    1044:	042b3503 	streqt	r3, [fp], #-1283
    1048:	2b4b0302 	blcs	12c1c58 <DISABLE_IRQ+0x12c1bd8>
    104c:	39030104 	stmccdb	r3, {r2, r8}
    1050:	631a03b7 	tstvs	sl, #-603979774	; 0xdc000002
    1054:	2a2a662c 	bcs	a9a90c <DISABLE_IRQ+0xa9a88c>
    1058:	272f6649 	strcs	r6, [pc, -r9, asr #12]!
    105c:	082e7c2f 	stmeqda	lr!, {r0, r1, r2, r3, r5, sl, fp, ip, sp, lr}
    1060:	470b033b 	smladxmi	fp, fp, r3, r0
    1064:	2b790332 	blcs	1e41d34 <DISABLE_IRQ+0x1e41cb4>
    1068:	292d80a2 	stmcsdb	sp!, {r1, r5, r7, pc}
    106c:	2c2a2c2c 	stccs	12, cr2, [sl], #-176
    1070:	4e2b7603 	cfmadda32mi	mvax0, mvax7, mvfx11, mvfx3
    1074:	802d2a2f 	eorhi	r2, sp, pc, lsr #20
    1078:	2c2c292c 	stccs	9, cr2, [ip], #-176
    107c:	802b0d03 	eorhi	r0, fp, r3, lsl #26
    1080:	482d2a48 	stmmida	sp!, {r3, r6, r9, fp, sp}
    1084:	622d2a2e 	eorvs	r2, sp, #188416	; 0x2e000
    1088:	2991084a 	ldmcsib	r1, {r1, r3, r6, fp}
    108c:	2f2c2a49 	swics	0x002c2a49
    1090:	2c2a2d7d 	stccs	13, cr2, [sl], #-500
    1094:	2c2c6482 	cfstrscs	mvf6, [ip], #-520
    1098:	0367642d 	cmneq	r7, #754974720	; 0x2d000000
    109c:	61676309 	cmnvs	r7, r9, lsl #6
    10a0:	2c2a2c2c 	stccs	12, cr2, [sl], #-176
    10a4:	2a2d7d85 	bcs	b606c0 <DISABLE_IRQ+0xb60640>
    10a8:	2cb5842c 	cfldrscs	mvf8, [r5], #176
    10ac:	a02c2a2c 	eorge	r2, ip, ip, lsr #20
    10b0:	2c2a2d7d 	stccs	13, cr2, [sl], #-500
    10b4:	b5032c81 	strlt	r2, [r3, #-3201]
    10b8:	484b477f 	stmmida	fp, {r0, r1, r2, r3, r4, r5, r6, r8, r9, sl, lr}^
    10bc:	2e2a2a2c 	fmulscs	s4, s20, s25
    10c0:	032a2c48 	teqeq	sl, #18432	; 0x4800
    10c4:	2a2c4720 	bcs	b12d4c <DISABLE_IRQ+0xb12ccc>
    10c8:	422b0903 	eormi	r0, fp, #49152	; 0xc000
    10cc:	482c482c 	stmmida	ip!, {r2, r3, r5, fp, lr}
    10d0:	2c7f5103 	ldfcse	f5, [pc], #-12
    10d4:	d8033048 	stmleda	r3, {r3, r6, ip, sp}
    10d8:	11037f00 	tstne	r3, r0, lsl #30
    10dc:	2b6f032b 	blcs	1bc1d90 <DISABLE_IRQ+0x1bc1d10>
    10e0:	032b1503 	teqeq	fp, #12582912	; 0xc00000
    10e4:	03632b6b 	cmneq	r3, #109568	; 0x1ac00
    10e8:	262c2b15 	undefined
    10ec:	0903272f 	stmeqdb	r3, {r0, r1, r2, r3, r5, r8, r9, sl, sp}
    10f0:	4a49652b 	bmi	125a5a4 <DISABLE_IRQ+0x125a524>
    10f4:	64332743 	ldrvst	r2, [r3], #-1859
    10f8:	2b780333 	blcs	1e01dcc <DISABLE_IRQ+0x1e01d4c>
    10fc:	2b01a303 	blcs	69d10 <DISABLE_IRQ+0x69c90>
    1100:	da034848 	ble	d3228 <DISABLE_IRQ+0xd31a8>
    1104:	c0032b7e 	andgt	r2, r3, lr, ror fp
    1108:	462cb701 	strmit	fp, [ip], -r1, lsl #14
    110c:	2c4b492d 	mcrrcs	9, 2, r4, fp, cr13
    1110:	477ec803 	ldrmib	ip, [lr, -r3, lsl #16]!
    1114:	482b7a03 	stmmida	fp!, {r0, r1, r9, fp, ip, sp, lr}
    1118:	2c020a03 	stccs	10, cr0, [r2], {3}
    111c:	2d2c7e01 	stccs	14, cr7, [ip, #-4]!
    1120:	46470c03 	strmib	r0, [r7], -r3, lsl #24
    1124:	2b0f032c 	blcs	3c1ddc <DISABLE_IRQ+0x3c1d5c>
    1128:	0d032c62 	stceq	12, cr2, [r3, #-392]
    112c:	032d45d3 	teqeq	sp, #884998144	; 0x34c00000
    1130:	01ae024d 	moveq	r0, sp, asr #4
    1134:	46494801 	strmib	r4, [r9], -r1, lsl #16
    1138:	2d472603 	stccsl	6, cr2, [r7, #-12]
    113c:	2a652c2a 	bcs	194c1ec <DISABLE_IRQ+0x194c16c>
    1140:	475e032c 	ldrmib	r0, [lr, -ip, lsr #6]
    1144:	03630d03 	cmneq	r3, #192	; 0xc0
    1148:	0c034773 	stceq	7, cr4, [r3], {115}
    114c:	482c2c2b 	stmmida	ip!, {r0, r1, r3, r5, sl, fp, sp}
    1150:	49423181 	stmmidb	r2, {r0, r7, r8, ip, sp}^
    1154:	6d032c2d 	stcvs	12, cr2, [r3, #-180]
    1158:	2f282c47 	swics	0x00282c47
    115c:	0e03262c 	cfmadd32eq	mvax1, mvfx2, mvfx3, mvfx12
    1160:	00f40347 	rsceqs	r0, r4, r7, asr #6
    1164:	2b11039b 	blcs	441fd8 <DISABLE_IRQ+0x441f58>
    1168:	62484b49 	subvs	r4, r8, #74752	; 0x12400
    116c:	2a2c4c2d 	bcs	b14228 <DISABLE_IRQ+0xb141a8>
    1170:	032d2c48 	teqeq	sp, #18432	; 0x4800
    1174:	03550857 	cmpeq	r5, #5701632	; 0x570000
    1178:	6a032b18 	bvs	cbde0 <DISABLE_IRQ+0xcbd60>
    117c:	2b16032b 	blcs	581e30 <DISABLE_IRQ+0x581db0>
    1180:	4773032c 	ldrmib	r0, [r3, -ip, lsr #6]!
    1184:	4c48482c 	mcrrmi	8, 2, r4, r8, cr12
    1188:	47660326 	strmib	r0, [r6, -r6, lsr #6]!
    118c:	4c032a2c 	stcmi	10, cr2, [r3], {44}
    1190:	65652d47 	strvsb	r2, [r5, #-3399]!
    1194:	2a2d7d4b 	bcs	b606c8 <DISABLE_IRQ+0xb60648>
    1198:	2c64822c 	sfmcs	f0, 3, [r4], #-176
    119c:	282c2d29 	stmcsda	ip!, {r0, r3, r5, r8, sl, fp, sp}
    11a0:	7d33282e 	ldcvc	8, cr2, [r3, #-184]!
    11a4:	032c2a2d 	teqeq	ip, #184320	; 0x2d000
    11a8:	2f27b709 	swics	0x0027b709
    11ac:	032e2a29 	teqeq	lr, #167936	; 0x29000
    11b0:	73039b1d 	tstvc	r3, #29696	; 0x7400
    11b4:	be032c47 	cdplt	12, 0, cr2, cr3, cr7, {2}
    11b8:	7d4b637f 	stcvcl	3, cr6, [fp, #-508]
    11bc:	662c2a2d 	strvst	r2, [ip], -sp, lsr #20
    11c0:	26322a2c 	ldrcst	r2, [r2], -ip, lsr #20
    11c4:	452f2730 	strmi	r2, [pc, #-1840]!	; a9c <DISABLE_IRQ+0xa1c>
    11c8:	032c2a2d 	teqeq	ip, #184320	; 0x2d000
    11cc:	649b00e5 	ldrvs	r0, [fp], #229
    11d0:	03622d2a 	cmneq	r2, #2688	; 0xa80
    11d4:	2e2b9b26 	cdpcs	11, 2, cr9, cr11, cr6, {1}
    11d8:	1103642c 	tstne	r3, ip, lsr #8
    11dc:	03664c47 	cmneq	r6, #18176	; 0x4700
    11e0:	264c6311 	undefined
    11e4:	03644930 	cmneq	r4, #786432	; 0xc0000
    11e8:	472c7f11 	undefined
    11ec:	032b1003 	teqeq	fp, #3	; 0x3
    11f0:	036a4709 	cmneq	sl, #2359296	; 0x240000
    11f4:	274b630b 	strcsb	r6, [fp, -fp, lsl #6]
    11f8:	032b2a2c 	teqeq	fp, #180224	; 0x2c000
    11fc:	032b01cc 	teqeq	fp, #51	; 0x33
    1200:	b9b77ec3 	ldmltib	r7!, {r0, r1, r6, r7, r9, sl, fp, ip, sp, lr}
    1204:	803d08d5 	ldrhisb	r0, [sp], -r5
    1208:	7f00e103 	swivc	0x0000e103
    120c:	2b00d603 	blcs	36a20 <DISABLE_IRQ+0x369a0>
    1210:	637ece03 	cmnvs	lr, #48	; 0x30
    1214:	0a034c49 	beq	d4340 <DISABLE_IRQ+0xd42c0>
    1218:	302c4663 	eorcc	r4, ip, r3, ror #12
    121c:	482d2c62 	stmmida	sp!, {r1, r5, r6, sl, fp, sp}
    1220:	44630d03 	strmibt	r0, [r3], #-3331
    1224:	03822d2c 	orreq	r2, r2, #2816	; 0xb00
    1228:	01b4026d 	moveqs	r0, sp, ror #4
    122c:	018c0301 	orreq	r0, ip, r1, lsl #6
    1230:	2c4649d3 	mcrrcs	9, 13, r4, r6, cr3
    1234:	2d45312e 	stfcse	f3, [r5, #-184]
    1238:	7eda0349 	cdpvc	3, 13, cr0, cr10, cr9, {2}
    123c:	08c708d3 	stmeqia	r7, {r0, r1, r4, r6, r7, fp}^
    1240:	00c30394 	smulleq	r0, r3, r4, r3
    1244:	11032d7f 	tstne	r3, pc, ror sp
    1248:	2c3b082b 	ldccs	8, cr0, [fp], #-172
    124c:	94082d80 	strls	r2, [r8], #-3456
    1250:	6e024703 	cdpvs	7, 0, cr4, cr2, cr3, {0}
    1254:	2d2a5f01 	stccs	15, cr5, [sl, #-4]!
    1258:	d372032e 	cmnle	r2, #-1207959552	; 0xb8000000
    125c:	462e4929 	strmit	r4, [lr], -r9, lsr #18
    1260:	9b120348 	blls	481f88 <DISABLE_IRQ+0x481f08>
    1264:	4b470b03 	blmi	11c3e78 <DISABLE_IRQ+0x11c3df8>
    1268:	03470a03 	cmpeq	r7, #12288	; 0x3000
    126c:	032c636d 	teqeq	ip, #-1275068415	; 0xb4000001
    1270:	466300dd 	undefined
    1274:	4759032c 	ldrmib	r0, [r9, -ip, lsr #6]
    1278:	2e2c4649 	cfmadda32cs	mvax2, mvax4, mvfx12, mvfx9
    127c:	497f0d03 	ldmmidb	pc!, {r0, r1, r8, sl, fp}^
    1280:	032e2c46 	teqeq	lr, #17920	; 0x4600
    1284:	46494760 	strmib	r4, [r9], -r0, ror #14
    1288:	2b0c032c 	blcs	301f40 <DISABLE_IRQ+0x301ec0>
    128c:	03476903 	cmpeq	r7, #49152	; 0xc000
    1290:	02e10852 	rsceq	r0, r1, #5373952	; 0x520000
    1294:	3a03112c 	bcc	c574c <DISABLE_IRQ+0xc56cc>
    1298:	032c4663 	teqeq	ip, #103809024	; 0x6300000
    129c:	12032b09 	andne	r2, r3, #9216	; 0x2400
    12a0:	032c4647 	teqeq	ip, #74448896	; 0x4700000
    12a4:	2c46476e 	mcrrcs	7, 6, r4, r6, cr14
    12a8:	477f9503 	ldrmib	r9, [pc, -r3, lsl #10]!
    12ac:	292c2a2d 	stmcsdb	ip!, {r0, r2, r3, r5, r9, fp, sp}
    12b0:	2c2a2d2e 	stccs	13, cr2, [sl], #-184
    12b4:	63019e03 	tstvs	r1, #48	; 0x30
    12b8:	0602664c 	streq	r6, [r2], -ip, asr #12
    12bc:	Address 0x12bc is out of bounds.

Disassembly of section .debug_info:

00000000 <.debug_info>:
       0:	0000003d 	andeq	r0, r0, sp, lsr r0
       4:	00000002 	andeq	r0, r0, r2
       8:	01040000 	tsteq	r4, r0
       c:	00000000 	andeq	r0, r0, r0
      10:	30000000 	andcc	r0, r0, r0
      14:	3000021c 	andcc	r0, r0, ip, lsl r2
      18:	64616568 	strvsbt	r6, [r1], #-1384
      1c:	2f00532e 	swics	0x0000532e
      20:	2f746e6d 	swics	0x00746e6d
      24:	73666768 	cmnvc	r6, #27262976	; 0x1a00000
      28:	7973412f 	ldmvcdb	r3!, {r0, r1, r2, r3, r5, r8, lr}^
      2c:	6f74706d 	swivs	0x0074706d
      30:	47006574 	smlsdxmi	r0, r4, r5, r6
      34:	4120554e 	teqmi	r0, lr, asr #10
      38:	2e322053 	mrccs	0, 1, r2, cr2, cr3, {2}
      3c:	01003531 	tsteq	r0, r1, lsr r5
      40:	00009680 	andeq	r9, r0, r0, lsl #13
      44:	14000200 	strne	r0, [r0], #-512
      48:	04000000 	streq	r0, [r0]
      4c:	00009e01 	andeq	r9, r0, r1, lsl #28
      50:	00035000 	andeq	r5, r3, r0
      54:	00022030 	andeq	r2, r2, r0, lsr r0
      58:	00000930 	andeq	r0, r0, r0, lsr r9
      5c:	002a0100 	eoreq	r0, sl, r0, lsl #2
      60:	00310000 	eoreqs	r0, r1, r0
      64:	01020000 	tsteq	r2, r0
      68:	00000021 	andeq	r0, r0, r1, lsr #32
      6c:	02200401 	eoreq	r0, r0, #16777216	; 0x1000000
      70:	02543000 	subeqs	r3, r4, #0	; 0x0
      74:	5d013000 	stcpl	0, cr3, [r1]
      78:	00006703 	andeq	r6, r0, r3, lsl #14
      7c:	08ca0100 	stmeqia	sl, {r8}^
      80:	0d010000 	stceq	0, cr0, [r1]
      84:	00025401 	andeq	r5, r2, r1, lsl #8
      88:	0002cc30 	andeq	ip, r2, r0, lsr ip
      8c:	045d0130 	ldreqb	r0, [sp], #-304
      90:	10010069 	andne	r0, r1, r9, rrx
      94:	00000067 	andeq	r0, r0, r7, rrx
      98:	04049102 	streq	r9, [r4], #-258
      9c:	1001006a 	andne	r0, r1, sl, rrx
      a0:	00000067 	andeq	r0, r0, r7, rrx
      a4:	00009102 	andeq	r9, r0, r2, lsl #2
      a8:	00006c05 	andeq	r6, r0, r5, lsl #24
      ac:	09150600 	ldmeqdb	r5, {r9, sl}
      b0:	07040000 	streq	r0, [r4, -r0]
      b4:	00150107 	andeqs	r0, r5, r7, lsl #2
      b8:	1e010000 	cdpne	0, 0, cr0, cr1, cr0, {0}
      bc:	0002cc01 	andeq	ip, r2, r1, lsl #24
      c0:	00031430 	andeq	r1, r3, r0, lsr r4
      c4:	075d0130 	smmlareq	sp, r0, r1, r0
      c8:	00000001 	andeq	r0, r0, r1
      cc:	012a0100 	teqeq	sl, r0, lsl #2
      d0:	30000314 	andcc	r0, r0, r4, lsl r3
      d4:	30000350 	andcc	r0, r0, r0, asr r3
      d8:	73005d01 	tstvc	r0, #64	; 0x40
      dc:	02000003 	andeq	r0, r0, #3	; 0x3
      e0:	00008800 	andeq	r8, r0, r0, lsl #16
      e4:	f5010400 	strnv	r0, [r1, #-1024]
      e8:	50000000 	andpl	r0, r0, r0
      ec:	50300008 	eorpls	r0, r0, r8
      f0:	09300003 	ldmeqdb	r0!, {r0, r1}
      f4:	01000000 	tsteq	r0, r0
      f8:	000000fb 	streqd	r0, [r0], -fp
      fc:	00000031 	andeq	r0, r0, r1, lsr r0
     100:	00091a02 	andeq	r1, r9, r2, lsl #20
     104:	03070400 	tsteq	r7, #0	; 0x0
     108:	00000055 	andeq	r0, r0, r5, asr r0
     10c:	000000e7 	andeq	r0, r0, r7, ror #1
     110:	04050208 	streq	r0, [r5], #-520
     114:	00000123 	andeq	r0, r0, r3, lsr #2
     118:	00550602 	subeqs	r0, r5, r2, lsl #12
     11c:	23020000 	tstcs	r2, #0	; 0x0
     120:	00e20400 	rsceq	r0, r2, r0, lsl #8
     124:	07020000 	streq	r0, [r2, -r0]
     128:	00000055 	andeq	r0, r0, r5, asr r0
     12c:	00042302 	andeq	r2, r4, r2, lsl #6
     130:	002c0405 	eoreq	r0, ip, r5, lsl #8
     134:	69060000 	stmvsdb	r6, {}
     138:	0400746e 	streq	r7, [r0], #-1134
     13c:	091a0205 	ldmeqdb	sl, {r0, r2, r9}
     140:	07040000 	streq	r0, [r4, -r0]
     144:	0000a702 	andeq	sl, r0, r2, lsl #14
     148:	07080100 	streq	r0, [r8, -r0, lsl #2]
     14c:	000000a7 	andeq	r0, r0, r7, lsr #1
     150:	00009201 	andeq	r9, r0, r1, lsl #4
     154:	010f0100 	tsteq	pc, r0, lsl #2
     158:	30000350 	andcc	r0, r0, r0, asr r3
     15c:	300003d8 	ldrccd	r0, [r0], -r8
     160:	77085d01 	strvc	r5, [r8, -r1, lsl #26]
     164:	10010071 	andne	r0, r1, r1, ror r0
     168:	00000055 	andeq	r0, r0, r5, asr r0
     16c:	00095301 	andeq	r5, r9, r1, lsl #6
     170:	0a000000 	beq	178 <DISABLE_IRQ+0xf8>
     174:	0000008b 	andeq	r0, r0, fp, lsl #1
     178:	00a71501 	adceq	r1, r7, r1, lsl #10
     17c:	50010000 	andpl	r0, r1, r0
     180:	04050000 	streq	r0, [r5]
     184:	000000ad 	andeq	r0, r0, sp, lsr #1
     188:	00002c0b 	andeq	r2, r0, fp, lsl #24
     18c:	f1010c00 	tstnv	r1, r0, lsl #24
     190:	01000000 	tsteq	r0, r0
     194:	03d80122 	biceqs	r0, r8, #-2147483640	; 0x80000008
     198:	03f83000 	mvneqs	r3, #0	; 0x0
     19c:	5d013000 	stcpl	0, cr3, [r1]
     1a0:	0000e807 	andeq	lr, r0, r7, lsl #16
     1a4:	00ac0100 	adceq	r0, ip, r0, lsl #2
     1a8:	3f010000 	swicc	0x00010000
     1ac:	0003f801 	andeq	pc, r3, r1, lsl #16
     1b0:	00045830 	andeq	r5, r4, r0, lsr r8
     1b4:	0d5d0130 	ldfeqe	f0, [sp, #-192]
     1b8:	3e010070 	mcrcc	0, 0, r0, cr1, cr0, {3}
     1bc:	000000e8 	andeq	r0, r0, r8, ror #1
     1c0:	0e005001 	cdpeq	0, 0, cr5, cr0, cr1, {0}
     1c4:	011a0704 	tsteq	sl, r4, lsl #14
     1c8:	b6010000 	strlt	r0, [r1], -r0
     1cc:	01000000 	tsteq	r0, r0
     1d0:	04580150 	ldreqb	r0, [r8], #-336
     1d4:	04dc3000 	ldreqb	r3, [ip]
     1d8:	5d013000 	stcpl	0, cr3, [r1]
     1dc:	0100700d 	tsteq	r0, sp
     1e0:	0000e84f 	andeq	lr, r0, pc, asr #16
     1e4:	0a500100 	beq	14005ec <DISABLE_IRQ+0x140056c>
     1e8:	000000dd 	ldreqd	r0, [r0], -sp
     1ec:	005b5101 	subeqs	r5, fp, r1, lsl #2
     1f0:	56010000 	strpl	r0, [r1], -r0
     1f4:	01b30700 	moveqs	r0, r0, lsl #14
     1f8:	ca010000 	bgt	40200 <DISABLE_IRQ+0x40180>
     1fc:	01000000 	tsteq	r0, r0
     200:	04dc0169 	ldreqb	r0, [ip], #361
     204:	06003000 	streq	r3, [r0], -r0
     208:	5d013000 	stcpl	0, cr3, [r1]
     20c:	0000790f 	andeq	r7, r0, pc, lsl #18
     210:	e8680100 	stmda	r8!, {r8}^
     214:	01000000 	tsteq	r0, r0
     218:	006e0850 	rsbeq	r0, lr, r0, asr r8
     21c:	005b6a01 	subeqs	r6, fp, r1, lsl #20
     220:	54010000 	strpl	r0, [r1]
     224:	00646608 	rsbeq	r6, r4, r8, lsl #12
     228:	005b6b01 	subeqs	r6, fp, r1, lsl #22
     22c:	55010000 	strpl	r0, [r1]
     230:	0000450a 	andeq	r4, r0, sl, lsl #10
     234:	b36d0100 	cmnlt	sp, #0	; 0x0
     238:	02000001 	andeq	r0, r0, #1	; 0x1
     23c:	540a0491 	strpl	r0, [sl], #-1169
     240:	01000000 	tsteq	r0, r0
     244:	0001c36e 	andeq	ip, r1, lr, ror #6
     248:	03910200 	orreqs	r0, r1, #0	; 0x0
     24c:	00018410 	andeq	r8, r1, r0, lsl r4
     250:	01090100 	tsteq	r9, r0, lsl #2
     254:	70010000 	andvc	r0, r1, r0
     258:	0000005b 	andeq	r0, r0, fp, asr r0
     25c:	12001101 	andne	r1, r0, #1073741824	; 0x40000000
     260:	0000019d 	muleq	r0, sp, r1
     264:	00000018 	andeq	r0, r0, r8, lsl r0
     268:	005d0113 	subeqs	r0, sp, r3, lsl r1
     26c:	78010000 	stmvcda	r1, {}
     270:	0000005b 	andeq	r0, r0, fp, asr r0
     274:	00001101 	andeq	r1, r0, r1, lsl #2
     278:	00003009 	andeq	r3, r0, r9
     27c:	5d011300 	stcpl	3, cr1, [r1]
     280:	01000000 	tsteq	r0, r0
     284:	00005b78 	andeq	r5, r0, r8, ror fp
     288:	00110100 	andeqs	r0, r1, r0, lsl #2
     28c:	c3140000 	tstgt	r4, #0	; 0x0
     290:	69000001 	stmvsdb	r0, {r0}
     294:	15000000 	strne	r0, [r0]
     298:	00000062 	andeq	r0, r0, r2, rrx
     29c:	d314004e 	tstle	r4, #78	; 0x4e
     2a0:	69000001 	stmvsdb	r0, {r0}
     2a4:	15000000 	strne	r0, [r0]
     2a8:	00000062 	andeq	r0, r0, r2, rrx
     2ac:	5c070000 	stcpl	0, cr0, [r7], {0}
     2b0:	01000002 	tsteq	r0, r2
     2b4:	0000007f 	andeq	r0, r0, pc, ror r0
     2b8:	00012b01 	andeq	r2, r1, r1, lsl #22
     2bc:	0c300006 	ldceq	0, cr0, [r0], #-24
     2c0:	01300007 	teqeq	r0, r7
     2c4:	00740f5d 	rsbeqs	r0, r4, sp, asr pc
     2c8:	2a010000 	bcs	402d0 <DISABLE_IRQ+0x40250>
     2cc:	0000025c 	andeq	r0, r0, ip, asr r2
     2d0:	10125001 	andnes	r5, r2, r1
     2d4:	48000002 	stmmida	r0, {r1}
     2d8:	13000000 	tstne	r0, #0	; 0x0
     2dc:	00011e01 	andeq	r1, r1, r1, lsl #28
     2e0:	5b2d0100 	blpl	b406e8 <DISABLE_IRQ+0xb40668>
     2e4:	01000000 	tsteq	r0, r0
     2e8:	12000011 	andne	r0, r0, #17	; 0x11
     2ec:	00000229 	andeq	r0, r0, r9, lsr #4
     2f0:	00000060 	andeq	r0, r0, r0, rrx
     2f4:	011e0113 	tsteq	lr, r3, lsl r1
     2f8:	2d010000 	stccs	0, cr0, [r1]
     2fc:	0000005b 	andeq	r0, r0, fp, asr r0
     300:	00001101 	andeq	r1, r0, r1, lsl #2
     304:	00024616 	andeq	r4, r2, r6, lsl r6
     308:	00067800 	andeq	r7, r6, r0, lsl #16
     30c:	00068c30 	andeq	r8, r6, r0, lsr ip
     310:	1e011330 	mcrne	3, 0, r1, cr1, cr0, {1}
     314:	01000001 	tsteq	r0, r1
     318:	00005b2d 	andeq	r5, r0, sp, lsr #22
     31c:	00110100 	andeqs	r0, r1, r0, lsl #2
     320:	00780900 	rsbeqs	r0, r8, r0, lsl #18
     324:	01130000 	tsteq	r3, r0
     328:	0000011e 	andeq	r0, r0, lr, lsl r1
     32c:	005b2d01 	subeqs	r2, fp, r1, lsl #26
     330:	11010000 	tstne	r1, r0
     334:	05000000 	streq	r0, [r0]
     338:	00006904 	andeq	r6, r0, r4, lsl #18
     33c:	02e80700 	rsceq	r0, r8, #0	; 0x0
     340:	c0010000 	andgt	r0, r1, r0
     344:	01000000 	tsteq	r0, r0
     348:	070c018d 	streq	r0, [ip, -sp, lsl #3]
     34c:	07a83000 	streq	r3, [r8, r0]!
     350:	5d013000 	stcpl	0, cr3, [r1]
     354:	0100700d 	tsteq	r0, sp
     358:	0000e88c 	andeq	lr, r0, ip, lsl #17
     35c:	08500100 	ldmeqda	r0, {r8}^
     360:	8e010069 	cdphi	0, 0, cr0, cr1, cr9, {3}
     364:	0000005b 	andeq	r0, r0, fp, asr r0
     368:	63085501 	tstvs	r8, #4194304	; 0x400000
     36c:	698f0100 	stmvsib	pc, {r8}
     370:	01000000 	tsteq	r0, r0
     374:	00740a54 	rsbeqs	r0, r4, r4, asr sl
     378:	90010000 	andls	r0, r1, r0
     37c:	000002e8 	andeq	r0, r0, r8, ror #5
     380:	10009102 	andne	r9, r0, r2, lsl #2
     384:	000002bb 	streqh	r0, [r0], -fp
     388:	00011901 	andeq	r1, r1, r1, lsl #18
     38c:	5b920100 	blpl	fe480794 <CLKDIVN+0xb2480780>
     390:	01000000 	tsteq	r0, r0
     394:	ce100011 	mrcgt	0, 0, r0, cr0, cr1, {0}
     398:	01000002 	tsteq	r0, r2
     39c:	0000011e 	andeq	r0, r0, lr, lsl r1
     3a0:	005b2d01 	subeqs	r2, fp, r1, lsl #26
     3a4:	11010000 	tstne	r1, r0
     3a8:	07381700 	ldreq	r1, [r8, -r0, lsl #14]!
     3ac:	07603000 	streqb	r3, [r0, -r0]!
     3b0:	01133000 	tsteq	r3, r0
     3b4:	0000004f 	andeq	r0, r0, pc, asr #32
     3b8:	005b9a01 	subeqs	r9, fp, r1, lsl #20
     3bc:	11010000 	tstne	r1, r0
     3c0:	14000000 	strne	r0, [r0]
     3c4:	000002f8 	streqd	r0, [r0], -r8
     3c8:	00000069 	andeq	r0, r0, r9, rrx
     3cc:	00006215 	andeq	r6, r0, r5, lsl r2
     3d0:	07001d00 	streq	r1, [r0, -r0, lsl #26]
     3d4:	00000345 	andeq	r0, r0, r5, asr #6
     3d8:	00001c01 	andeq	r1, r0, r1, lsl #24
     3dc:	01ae0100 	moveq	r0, r0, lsl #2
     3e0:	300007a8 	andcc	r0, r0, r8, lsr #15
     3e4:	30000850 	andcc	r0, r0, r0, asr r8
     3e8:	22105d01 	andcss	r5, r0, #64	; 0x40
     3ec:	01000003 	tsteq	r0, r3
     3f0:	000000d2 	ldreqd	r0, [r0], -r2
     3f4:	005bb101 	subeqs	fp, fp, r1, lsl #2
     3f8:	11010000 	tstne	r1, r0
     3fc:	03351000 	teqeq	r5, #0	; 0x0
     400:	10010000 	andne	r0, r1, r0
     404:	01000001 	tsteq	r0, r1
     408:	00005bb5 	streqh	r5, [r0], -r5
     40c:	00110100 	andeqs	r0, r1, r0, lsl #2
     410:	01090113 	tsteq	r9, r3, lsl r1
     414:	70010000 	andvc	r0, r1, r0
     418:	0000005b 	andeq	r0, r0, fp, asr r0
     41c:	00001101 	andeq	r1, r0, r1, lsl #2
     420:	00035014 	andeq	r5, r3, r4, lsl r0
     424:	00035000 	andeq	r5, r3, r0
     428:	02001800 	andeq	r1, r0, #0	; 0x0
     42c:	0000009e 	muleq	r0, lr, r0
     430:	02190801 	andeqs	r0, r9, #65536	; 0x10000
     434:	03000001 	tsteq	r0, #1	; 0x1
     438:	00034514 	andeq	r4, r3, r4, lsl r5
     43c:	1a010100 	bne	40844 <DISABLE_IRQ+0x407c4>
     440:	00000064 	andeq	r0, r0, r4, rrx
     444:	002c0c01 	eoreq	r0, ip, r1, lsl #24
     448:	05010000 	streq	r0, [r1]
     44c:	00aef403 	adceq	pc, lr, r3, lsl #8
     450:	032a0030 	teqeq	sl, #48	; 0x30
     454:	00020000 	andeq	r0, r2, r0
     458:	000001d5 	ldreqd	r0, [r0], -r5
     45c:	01f90104 	mvneqs	r0, r4, lsl #2
     460:	094c0000 	stmeqdb	ip, {}^
     464:	08503000 	ldmeqda	r0, {ip, sp}^
     468:	00093000 	andeq	r3, r9, r0
     46c:	48010000 	stmmida	r1, {}
     470:	31000001 	tstcc	r0, r1
     474:	02000000 	andeq	r0, r0, #0	; 0x0
     478:	0000091a 	andeq	r0, r0, sl, lsl r9
     47c:	55030704 	strpl	r0, [r3, #-1796]
     480:	e7000000 	str	r0, [r0, -r0]
     484:	08000000 	stmeqda	r0, {}
     488:	23040504 	tstcs	r4, #16777216	; 0x1000000
     48c:	04000001 	streq	r0, [r0], #-1
     490:	00005506 	andeq	r5, r0, r6, lsl #10
     494:	00230200 	eoreq	r0, r3, r0, lsl #4
     498:	0000e204 	andeq	lr, r0, r4, lsl #4
     49c:	55070400 	strpl	r0, [r7, #-1024]
     4a0:	02000000 	andeq	r0, r0, #0	; 0x0
     4a4:	05000423 	streq	r0, [r0, #-1059]
     4a8:	00002c04 	andeq	r2, r0, r4, lsl #24
     4ac:	6e690600 	cdpvs	6, 6, cr0, cr9, cr0, {0}
     4b0:	05040074 	streq	r0, [r4, #-116]
     4b4:	0000df03 	andeq	sp, r0, r3, lsl #30
     4b8:	00062b00 	andeq	r2, r6, r0, lsl #22
     4bc:	43032c00 	tstmi	r3, #0	; 0x0
     4c0:	00019e04 	andeq	r9, r1, r4, lsl #28
     4c4:	5b440300 	blpl	11010cc <DISABLE_IRQ+0x110104c>
     4c8:	02000000 	andeq	r0, r0, #0	; 0x0
     4cc:	d9040023 	stmledb	r4, {r0, r1, r5}
     4d0:	03000001 	tsteq	r0, #1	; 0x1
     4d4:	00005b45 	andeq	r5, r0, r5, asr #22
     4d8:	04230200 	streqt	r0, [r3], #-512
     4dc:	00018804 	andeq	r8, r1, r4, lsl #16
     4e0:	5b460300 	blpl	11810e8 <DISABLE_IRQ+0x1181068>
     4e4:	02000000 	andeq	r0, r0, #0	; 0x0
     4e8:	a5040823 	strge	r0, [r4, #-2083]
     4ec:	03000001 	tsteq	r0, #1	; 0x1
     4f0:	00005b47 	andeq	r5, r0, r7, asr #22
     4f4:	0c230200 	sfmeq	f0, 4, [r3]
     4f8:	00019504 	andeq	r9, r1, r4, lsl #10
     4fc:	df480300 	swile	0x00480300
     500:	02000000 	andeq	r0, r0, #0	; 0x0
     504:	28041023 	stmcsda	r4, {r0, r1, r5, ip}
     508:	03000001 	tsteq	r0, #1	; 0x1
     50c:	00005b4b 	andeq	r5, r0, fp, asr #22
     510:	20230200 	eorcs	r0, r3, r0, lsl #4
     514:	0001e004 	andeq	lr, r1, r4
     518:	5b4c0300 	blpl	1301120 <DISABLE_IRQ+0x13010a0>
     51c:	02000000 	andeq	r0, r0, #0	; 0x0
     520:	7a042423 	bvc	1095b4 <DISABLE_IRQ+0x109534>
     524:	03000001 	tsteq	r0, #1	; 0x1
     528:	00005b4d 	andeq	r5, r0, sp, asr #22
     52c:	28230200 	stmcsda	r3!, {r9}
     530:	00ef0700 	rsceq	r0, pc, r0, lsl #14
     534:	00f60000 	rsceqs	r0, r6, r0
     538:	ef080000 	swi	0x00080000
     53c:	0f000000 	swieq	0x00000000
     540:	091a0200 	ldmeqdb	sl, {r9}
     544:	07040000 	streq	r0, [r4, -r0]
     548:	0000a702 	andeq	sl, r0, r2, lsl #14
     54c:	03080100 	tsteq	r8, #0	; 0x0
     550:	00000134 	andeq	r0, r0, r4, lsr r1
     554:	00000476 	andeq	r0, r0, r6, ror r4
     558:	0457030c 	ldreqb	r0, [r7], #-780
     55c:	00000140 	andeq	r0, r0, r0, asr #2
     560:	005b5803 	subeqs	r5, fp, r3, lsl #16
     564:	23020000 	tstcs	r2, #0	; 0x0
     568:	015a0400 	cmpeq	sl, r0, lsl #8
     56c:	59030000 	stmpldb	r3, {}
     570:	0000005b 	andeq	r0, r0, fp, asr r0
     574:	04042302 	streq	r2, [r4], #-770
     578:	0000016d 	andeq	r0, r0, sp, ror #2
     57c:	01345a03 	teqeq	r4, r3, lsl #20
     580:	23020000 	tstcs	r2, #0	; 0x0
     584:	04050008 	streq	r0, [r5], #-8
     588:	00000062 	andeq	r0, r0, r2, rrx
     58c:	00018e09 	andeq	r8, r1, r9, lsl #28
     590:	00016100 	andeq	r6, r1, r0, lsl #2
     594:	02011400 	andeq	r1, r1, #0	; 0x0
     598:	70730a08 	rsbvcs	r0, r3, r8, lsl #20
     59c:	25090200 	strcs	r0, [r9, #-512]
     5a0:	02000000 	andeq	r0, r0, #0	; 0x0
     5a4:	700a0023 	andvc	r0, sl, r3, lsr #32
     5a8:	02006469 	andeq	r6, r0, #1761607680	; 0x69000000
     5ac:	0000250a 	andeq	r2, r0, sl, lsl #10
     5b0:	04230200 	streqt	r0, [r3], #-512
     5b4:	00012e04 	andeq	r2, r1, r4, lsl #28
     5b8:	250b0200 	strcs	r0, [fp, #-512]
     5bc:	02000000 	andeq	r0, r0, #0	; 0x0
     5c0:	ca040823 	bgt	102654 <DISABLE_IRQ+0x1025d4>
     5c4:	02000001 	andeq	r0, r0, #1	; 0x1
     5c8:	00018e0c 	andeq	r8, r1, ip, lsl #28
     5cc:	0c230200 	sfmeq	f0, 4, [r3]
     5d0:	00096804 	andeq	r6, r9, r4, lsl #16
     5d4:	2c0d0200 	sfmcs	f0, 4, [sp], {0}
     5d8:	03000000 	tsteq	r0, #0	; 0x0
     5dc:	00028c23 	andeq	r8, r2, r3, lsr #24
     5e0:	00019e07 	andeq	r9, r1, r7, lsl #28
     5e4:	00019e00 	andeq	r9, r1, r0, lsl #28
     5e8:	00ef0800 	rsceq	r0, pc, r0, lsl #16
     5ec:	003f0000 	eoreqs	r0, pc, r0
     5f0:	00fd0405 	rsceqs	r0, sp, r5, lsl #8
     5f4:	cc0b0000 	stcgt	0, cr0, [fp], {0}
     5f8:	01000001 	tsteq	r0, r1
     5fc:	00000134 	andeq	r0, r0, r4, lsr r1
     600:	cc010a01 	stcgt	10, cr0, [r1], {1}
     604:	50000001 	andpl	r0, r0, r1
     608:	5c300008 	ldcpl	0, cr0, [r0], #-32
     60c:	01300008 	teqeq	r0, r8
     610:	70730c5d 	rsbvcs	r0, r3, sp, asr ip
     614:	d20b0100 	andle	r0, fp, #0	; 0x0
     618:	01000001 	tsteq	r0, r1
     61c:	0405005d 	streq	r0, [r5], #-93
     620:	0000013a 	andeq	r0, r0, sl, lsr r1
     624:	00091502 	andeq	r1, r9, r2, lsl #10
     628:	0d070400 	cfstrseq	mvf0, [r7]
     62c:	00015001 	andeq	r5, r1, r1
     630:	01100100 	tsteq	r0, r0, lsl #2
     634:	3000085c 	andcc	r0, r0, ip, asr r8
     638:	30000870 	andcc	r0, r0, r0, ror r8
     63c:	010d5d01 	tsteq	sp, r1, lsl #26
     640:	000001b3 	streqh	r0, [r0], -r3
     644:	70011501 	andvc	r1, r1, r1, lsl #10
     648:	88300008 	ldmhida	r0!, {r3}
     64c:	01300008 	teqeq	r0, r8
     650:	be010d5d 	mcrlt	13, 0, r0, cr1, cr13, {2}
     654:	01000001 	tsteq	r0, r1
     658:	0888011f 	stmeqia	r8, {r0, r1, r2, r3, r4, r8}
     65c:	08a03000 	stmeqia	r0!, {ip, sp}
     660:	5d013000 	stcpl	0, cr3, [r1]
     664:	0002580b 	andeq	r5, r2, fp, lsl #16
     668:	01ef0100 	mvneq	r0, r0, lsl #2
     66c:	2b010000 	blcs	40674 <DISABLE_IRQ+0x405f4>
     670:	00025801 	andeq	r5, r2, r1, lsl #16
     674:	0008a000 	andeq	sl, r8, r0
     678:	0008cc30 	andeq	ip, r8, r0, lsr ip
     67c:	0e5d0130 	mrceq	1, 2, r0, cr13, cr0, {1}
     680:	00000244 	andeq	r0, r0, r4, asr #4
     684:	00000090 	muleq	r0, r0, r0
     688:	00008b0f 	andeq	r8, r0, pc, lsl #22
     68c:	5a2f0100 	bpl	bc0a94 <DISABLE_IRQ+0xbc0a14>
     690:	01000002 	tsteq	r0, r2
     694:	b0100052 	andlts	r0, r0, r2, asr r0
     698:	0f000000 	swieq	0x00000000
     69c:	0000008b 	andeq	r0, r0, fp, lsl #1
     6a0:	025a2d01 	subeqs	r2, sl, #64	; 0x40
     6a4:	53010000 	tstpl	r1, #0	; 0x0
     6a8:	04110000 	ldreq	r0, [r1]
     6ac:	02600405 	rsbeq	r0, r0, #83886080	; 0x5000000
     6b0:	2c120000 	ldccs	0, cr0, [r2], {0}
     6b4:	13000000 	tstne	r0, #0	; 0x0
     6b8:	0000028a 	andeq	r0, r0, sl, lsl #5
     6bc:	0001cf01 	andeq	ip, r1, r1, lsl #30
     6c0:	01330100 	teqeq	r3, r0, lsl #2
     6c4:	300008cc 	andcc	r0, r0, ip, asr #17
     6c8:	300008d0 	ldrccd	r0, [r0], -r0
     6cc:	cd145d01 	ldcgt	13, cr5, [r4, #-4]
     6d0:	01000000 	tsteq	r0, r0
     6d4:	0001cc32 	andeq	ip, r1, r2, lsr ip
     6d8:	00500100 	subeqs	r0, r0, r0, lsl #2
     6dc:	01f8010d 	mvneqs	r0, sp, lsl #2
     6e0:	38010000 	stmccda	r1, {}
     6e4:	0008d001 	andeq	sp, r8, r1
     6e8:	0008d430 	andeq	sp, r8, r0, lsr r4
     6ec:	135d0130 	cmpne	sp, #12	; 0xc
     6f0:	000002d8 	ldreqd	r0, [r0], -r8
     6f4:	00018001 	andeq	r8, r1, r1
     6f8:	013d0100 	teqeq	sp, r0, lsl #2
     6fc:	300008d4 	ldrccd	r0, [r0], -r4
     700:	30000904 	andcc	r0, r0, r4, lsl #18
     704:	77155d01 	ldrvc	r5, [r5, -r1, lsl #26]
     708:	3c010071 	stccc	0, cr0, [r1], {113}
     70c:	00000055 	andeq	r0, r0, r5, asr r0
     710:	e0165401 	ands	r5, r6, r1, lsl #8
     714:	e4300008 	ldrt	r0, [r0], #-8
     718:	0f300008 	swieq	0x00300008
     71c:	0000008b 	andeq	r0, r0, fp, lsl #1
     720:	025a3f01 	subeqs	r3, sl, #4	; 0x4
     724:	55010000 	strpl	r0, [r1]
     728:	fc130000 	ldc2	0, cr0, [r3], {0}
     72c:	01000002 	tsteq	r0, r2
     730:	000001e6 	andeq	r0, r0, r6, ror #3
     734:	04014601 	streq	r4, [r1], #-1537
     738:	4c300009 	ldcmi	0, cr0, [r0], #-36
     73c:	01300009 	teqeq	r0, r9
     740:	7177155d 	cmnvc	r7, sp, asr r5
     744:	55450100 	strplb	r0, [r5, #-256]
     748:	01000000 	tsteq	r0, r0
     74c:	07070055 	smlsdeq	r7, r5, r0, r0
     750:	07000003 	streq	r0, [r0, -r3]
     754:	17000003 	strne	r0, [r0, -r3]
     758:	009e0200 	addeqs	r0, lr, r0, lsl #4
     75c:	08010000 	stmeqda	r1, {}
     760:	00010218 	andeq	r0, r1, r8, lsl r2
     764:	fc140500 	ldc2	5, cr0, [r4], {0}
     768:	01000002 	tsteq	r0, r2
     76c:	6d741901 	ldcvsl	9, cr1, [r4, #-4]!
     770:	28010070 	stmcsda	r1, {r4, r5, r6}
     774:	00000055 	andeq	r0, r0, r5, asr r0
     778:	fc030501 	stc2	5, cr0, [r3], {1}
     77c:	003000ae 	eoreqs	r0, r0, lr, lsr #1
     780:	000002da 	ldreqd	r0, [r0], -sl
     784:	03250002 	teqeq	r5, #2	; 0x2
     788:	01040000 	tsteq	r4, r0
     78c:	00000293 	muleq	r0, r3, r2
     790:	30000a30 	andcc	r0, r0, r0, lsr sl
     794:	3000094c 	andcc	r0, r0, ip, asr #18
     798:	00000009 	andeq	r0, r0, r9
     79c:	00024801 	andeq	r4, r2, r1, lsl #16
     7a0:	00003100 	andeq	r3, r0, r0, lsl #2
     7a4:	091a0200 	ldmeqdb	sl, {r9}
     7a8:	07040000 	streq	r0, [r4, -r0]
     7ac:	00005503 	andeq	r5, r0, r3, lsl #10
     7b0:	0000e700 	andeq	lr, r0, r0, lsl #14
     7b4:	05040800 	streq	r0, [r4, #-2048]
     7b8:	00012304 	andeq	r2, r1, r4, lsl #6
     7bc:	55060400 	strpl	r0, [r6, #-1024]
     7c0:	02000000 	andeq	r0, r0, #0	; 0x0
     7c4:	e2040023 	and	r0, r4, #35	; 0x23
     7c8:	04000000 	streq	r0, [r0]
     7cc:	00005507 	andeq	r5, r0, r7, lsl #10
     7d0:	04230200 	streqt	r0, [r3], #-512
     7d4:	2c040500 	cfstr32cs	mvfx0, [r4], {0}
     7d8:	06000000 	streq	r0, [r0], -r0
     7dc:	00746e69 	rsbeqs	r6, r4, r9, ror #28
     7e0:	df030504 	swile	0x00030504
     7e4:	2b000000 	blcs	7ec <DISABLE_IRQ+0x76c>
     7e8:	2c000006 	stccs	0, cr0, [r0], {6}
     7ec:	9e044303 	cdpls	3, 0, cr4, cr4, cr3, {0}
     7f0:	03000001 	tsteq	r0, #1	; 0x1
     7f4:	00005b44 	andeq	r5, r0, r4, asr #22
     7f8:	00230200 	eoreq	r0, r3, r0, lsl #4
     7fc:	0001d904 	andeq	sp, r1, r4, lsl #18
     800:	5b450300 	blpl	1141408 <DISABLE_IRQ+0x1141388>
     804:	02000000 	andeq	r0, r0, #0	; 0x0
     808:	88040423 	stmhida	r4, {r0, r1, r5, sl}
     80c:	03000001 	tsteq	r0, #1	; 0x1
     810:	00005b46 	andeq	r5, r0, r6, asr #22
     814:	08230200 	stmeqda	r3!, {r9}
     818:	0001a504 	andeq	sl, r1, r4, lsl #10
     81c:	5b470300 	blpl	11c1424 <DISABLE_IRQ+0x11c13a4>
     820:	02000000 	andeq	r0, r0, #0	; 0x0
     824:	95040c23 	strls	r0, [r4, #-3107]
     828:	03000001 	tsteq	r0, #1	; 0x1
     82c:	0000df48 	andeq	sp, r0, r8, asr #30
     830:	10230200 	eorne	r0, r3, r0, lsl #4
     834:	00012804 	andeq	r2, r1, r4, lsl #16
     838:	5b4b0300 	blpl	12c1440 <DISABLE_IRQ+0x12c13c0>
     83c:	02000000 	andeq	r0, r0, #0	; 0x0
     840:	e0042023 	and	r2, r4, r3, lsr #32
     844:	03000001 	tsteq	r0, #1	; 0x1
     848:	00005b4c 	andeq	r5, r0, ip, asr #22
     84c:	24230200 	strcst	r0, [r3], #-512
     850:	00017a04 	andeq	r7, r1, r4, lsl #20
     854:	5b4d0300 	blpl	134145c <DISABLE_IRQ+0x13413dc>
     858:	02000000 	andeq	r0, r0, #0	; 0x0
     85c:	07002823 	streq	r2, [r0, -r3, lsr #16]
     860:	000000ef 	andeq	r0, r0, pc, ror #1
     864:	000000f6 	streqd	r0, [r0], -r6
     868:	0000ef08 	andeq	lr, r0, r8, lsl #30
     86c:	02000f00 	andeq	r0, r0, #0	; 0x0
     870:	0000091a 	andeq	r0, r0, sl, lsl r9
     874:	a7020704 	strge	r0, [r2, -r4, lsl #14]
     878:	01000000 	tsteq	r0, r0
     87c:	01340308 	teqeq	r4, r8, lsl #6
     880:	04760000 	ldreqbt	r0, [r6]
     884:	030c0000 	tsteq	ip, #0	; 0x0
     888:	01400457 	cmpeq	r0, r7, asr r4
     88c:	58030000 	stmplda	r3, {}
     890:	0000005b 	andeq	r0, r0, fp, asr r0
     894:	04002302 	streq	r2, [r0], #-770
     898:	0000015a 	andeq	r0, r0, sl, asr r1
     89c:	005b5903 	subeqs	r5, fp, r3, lsl #18
     8a0:	23020000 	tstcs	r2, #0	; 0x0
     8a4:	016d0404 	cmneq	sp, r4, lsl #8
     8a8:	5a030000 	bpl	c08b0 <DISABLE_IRQ+0xc0830>
     8ac:	00000134 	andeq	r0, r0, r4, lsr r1
     8b0:	00082302 	andeq	r2, r8, r2, lsl #6
     8b4:	00620405 	rsbeq	r0, r2, r5, lsl #8
     8b8:	8e090000 	cdphi	0, 0, cr0, cr9, cr0, {0}
     8bc:	61000001 	tstvs	r0, r1
     8c0:	14000001 	strne	r0, [r0], #-1
     8c4:	0a080201 	beq	2010d0 <DISABLE_IRQ+0x201050>
     8c8:	02007073 	andeq	r7, r0, #115	; 0x73
     8cc:	00002509 	andeq	r2, r0, r9, lsl #10
     8d0:	00230200 	eoreq	r0, r3, r0, lsl #4
     8d4:	6469700a 	strvsbt	r7, [r9], #-10
     8d8:	250a0200 	strcs	r0, [sl, #-512]
     8dc:	02000000 	andeq	r0, r0, #0	; 0x0
     8e0:	2e040423 	cdpcs	4, 0, cr0, cr4, cr3, {1}
     8e4:	02000001 	andeq	r0, r0, #1	; 0x1
     8e8:	0000250b 	andeq	r2, r0, fp, lsl #10
     8ec:	08230200 	stmeqda	r3!, {r9}
     8f0:	0001ca04 	andeq	ip, r1, r4, lsl #20
     8f4:	8e0c0200 	cdphi	2, 0, cr0, cr12, cr0, {0}
     8f8:	02000001 	andeq	r0, r0, #1	; 0x1
     8fc:	68040c23 	stmvsda	r4, {r0, r1, r5, sl, fp}
     900:	02000009 	andeq	r0, r0, #9	; 0x9
     904:	00002c0d 	andeq	r2, r0, sp, lsl #24
     908:	8c230300 	stchi	3, cr0, [r3]
     90c:	9e070002 	cdpls	0, 0, cr0, cr7, cr2, {0}
     910:	9e000001 	cdpls	0, 0, cr0, cr0, cr1, {0}
     914:	08000001 	stmeqda	r0, {r0}
     918:	000000ef 	andeq	r0, r0, pc, ror #1
     91c:	0405003f 	streq	r0, [r5], #-63
     920:	000000fd 	streqd	r0, [r0], -sp
     924:	0001de0b 	andeq	sp, r1, fp, lsl #28
     928:	02010100 	andeq	r0, r1, #0	; 0x0
     92c:	09010000 	stmeqdb	r1, {}
     930:	0001de01 	andeq	sp, r1, r1, lsl #28
     934:	00094c00 	andeq	r4, r9, r0, lsl #24
     938:	00096430 	andeq	r6, r9, r0, lsr r4
     93c:	0c5d0130 	ldfeqe	f0, [sp], {48}
     940:	00000216 	andeq	r0, r0, r6, lsl r2
     944:	005b0a01 	subeqs	r0, fp, r1, lsl #20
     948:	03050000 	tsteq	r5, #0	; 0x0
     94c:	30005de0 	andcc	r5, r0, r0, ror #27
     950:	706d740d 	rsbvc	r7, sp, sp, lsl #8
     954:	de0c0100 	adflee	f0, f4, f0
     958:	01000001 	tsteq	r0, r1
     95c:	04050050 	streq	r0, [r5], #-80
     960:	0000013a 	andeq	r0, r0, sl, lsr r1
     964:	00020b0b 	andeq	r0, r2, fp, lsl #22
     968:	022b0100 	eoreq	r0, fp, #0	; 0x0
     96c:	22010000 	andcs	r0, r1, #0	; 0x0
     970:	00002501 	andeq	r2, r0, r1, lsl #10
     974:	00096400 	andeq	r6, r9, r0, lsl #8
     978:	00096c30 	andeq	r6, r9, r0, lsr ip
     97c:	0d5d0130 	ldfeqe	f0, [sp, #-192]
     980:	23010070 	tstcs	r1, #112	; 0x70
     984:	00000025 	andeq	r0, r0, r5, lsr #32
     988:	0b005001 	bleq	14994 <DISABLE_IRQ+0x14914>
     98c:	00000267 	andeq	r0, r0, r7, ror #4
     990:	00023901 	andeq	r3, r2, r1, lsl #18
     994:	012e0100 	teqeq	lr, r0, lsl #2
     998:	0000005b 	andeq	r0, r0, fp, asr r0
     99c:	3000096c 	andcc	r0, r0, ip, ror #18
     9a0:	30000a08 	andcc	r0, r0, r8, lsl #20
     9a4:	660e5d01 	strvs	r5, [lr], -r1, lsl #26
     9a8:	2d01006e 	stccs	0, cr0, [r1, #-440]
     9ac:	00000275 	andeq	r0, r0, r5, ror r2
     9b0:	340f5401 	strcc	r5, [pc], #1025	; 9b8 <DISABLE_IRQ+0x938>
     9b4:	01000002 	tsteq	r0, r2
     9b8:	0002732d 	andeq	r7, r2, sp, lsr #6
     9bc:	0d570100 	ldfeqe	f0, [r7]
     9c0:	006b7374 	rsbeq	r7, fp, r4, ror r3
     9c4:	01de2f01 	biceqs	r2, lr, r1, lsl #30
     9c8:	55010000 	strpl	r0, [r1]
     9cc:	706d7410 	rsbvc	r7, sp, r0, lsl r4
     9d0:	de2f0100 	suflee	f0, f7, f0
     9d4:	11000001 	tstne	r0, r1
     9d8:	00024101 	andeq	r4, r2, r1, lsl #2
     9dc:	5b350100 	blpl	d40de4 <DISABLE_IRQ+0xd40d64>
     9e0:	01000000 	tsteq	r0, r0
     9e4:	13000012 	tstne	r0, #18	; 0x12
     9e8:	00000273 	andeq	r0, r0, r3, ror r2
     9ec:	02731401 	rsbeqs	r1, r3, #16777216	; 0x1000000
     9f0:	15000000 	strne	r0, [r0]
     9f4:	67040504 	strvs	r0, [r4, -r4, lsl #10]
     9f8:	0b000002 	bleq	a08 <DISABLE_IRQ+0x988>
     9fc:	000002b1 	streqh	r0, [r0], -r1
     a00:	00024f01 	andeq	r4, r2, r1, lsl #30
     a04:	01470100 	cmpeq	r7, r0, lsl #2
     a08:	000002b1 	streqh	r0, [r0], -r1
     a0c:	30000a08 	andcc	r0, r0, r8, lsl #20
     a10:	30000a30 	andcc	r0, r0, r0, lsr sl
     a14:	540f5d01 	strpl	r5, [pc], #3329	; a1c <DISABLE_IRQ+0x99c>
     a18:	01000002 	tsteq	r0, r2
     a1c:	0002be46 	andeq	fp, r2, r6, asr #28
     a20:	0c540100 	ldfeqe	f0, [r4], {0}
     a24:	00000259 	andeq	r0, r0, r9, asr r2
     a28:	02b14801 	adceqs	r4, r1, #65536	; 0x10000
     a2c:	55010000 	strpl	r0, [r1]
     a30:	b7040500 	strlt	r0, [r4, -r0, lsl #10]
     a34:	02000002 	andeq	r0, r0, #2	; 0x2
     a38:	0000009e 	muleq	r0, lr, r0
     a3c:	15020801 	strne	r0, [r2, #-2049]
     a40:	04000009 	streq	r0, [r0], #-9
     a44:	02d00707 	sbceqs	r0, r0, #1835008	; 0x1c0000
     a48:	02b70000 	adceqs	r0, r7, #0	; 0x0
     a4c:	00160000 	andeqs	r0, r6, r0
     a50:	00010217 	andeq	r0, r1, r7, lsl r2
     a54:	c5140500 	ldrgt	r0, [r4, #-1280]
     a58:	01000002 	tsteq	r0, r2
     a5c:	00c40001 	sbceq	r0, r4, r1
     a60:	00020000 	andeq	r0, r2, r0
     a64:	0000044b 	andeq	r0, r0, fp, asr #8
     a68:	03240104 	teqeq	r4, #1	; 0x1
     a6c:	0aa80000 	beq	fea00a74 <CLKDIVN+0xb2a00a60>
     a70:	0a303000 	beq	c0ca78 <DISABLE_IRQ+0xc0c9f8>
     a74:	00093000 	andeq	r3, r9, r0
     a78:	66010000 	strvs	r0, [r1], -r0
     a7c:	31000002 	tstcc	r0, r2
     a80:	02000000 	andeq	r0, r0, #0	; 0x0
     a84:	0000004c 	andeq	r0, r0, ip, asr #32
     a88:	00026c01 	andeq	r6, r2, r1, lsl #24
     a8c:	01200100 	teqeq	r0, r0, lsl #2
     a90:	0000004c 	andeq	r0, r0, ip, asr #32
     a94:	30000a30 	andcc	r0, r0, r0, lsr sl
     a98:	30000a7c 	andcc	r0, r0, ip, ror sl
     a9c:	69035d01 	stmvsdb	r3, {r0, r8, sl, fp, ip, lr}
     aa0:	59210100 	stmpldb	r1!, {r8}
     aa4:	01000000 	tsteq	r0, r0
     aa8:	04040052 	streq	r0, [r4], #-82
     aac:	00000052 	andeq	r0, r0, r2, asr r0
     ab0:	00091505 	andeq	r1, r9, r5, lsl #10
     ab4:	06070400 	streq	r0, [r7], -r0, lsl #8
     ab8:	00746e69 	rsbeqs	r6, r4, r9, ror #28
     abc:	96020504 	strls	r0, [r2], -r4, lsl #10
     ac0:	01000000 	tsteq	r0, r0
     ac4:	00000270 	andeq	r0, r0, r0, ror r2
     ac8:	59013901 	stmpldb	r1, {r0, r8, fp, ip, sp}
     acc:	7c000000 	stcvc	0, cr0, [r0], {0}
     ad0:	a830000a 	ldmgeda	r0!, {r1, r3}
     ad4:	0130000a 	teqeq	r0, sl
     ad8:	0259075d 	subeqs	r0, r9, #24379392	; 0x1740000
     adc:	38010000 	stmccda	r1, {}
     ae0:	0000004c 	andeq	r0, r0, ip, asr #32
     ae4:	75085001 	strvc	r5, [r8, #-1]
     ae8:	01000002 	tsteq	r0, r2
     aec:	0000593a 	andeq	r5, r0, sl, lsr r9
     af0:	00500100 	subeqs	r0, r0, r0, lsl #2
     af4:	0000a709 	andeq	sl, r0, r9, lsl #14
     af8:	0000ae00 	andeq	sl, r0, r0, lsl #28
     afc:	00a70a00 	adceq	r0, r7, r0, lsl #20
     b00:	3fff0000 	swicc	0x00ff0000
     b04:	091a0500 	ldmeqdb	sl, {r8, sl}
     b08:	07040000 	streq	r0, [r4, -r0]
     b0c:	00009e05 	andeq	r9, r0, r5, lsl #28
     b10:	0b080100 	bleq	200f18 <DISABLE_IRQ+0x200e98>
     b14:	0000025e 	andeq	r0, r0, lr, asr r2
     b18:	00961101 	addeqs	r1, r6, r1, lsl #2
     b1c:	05010000 	streq	r0, [r1]
     b20:	005ef403 	subeqs	pc, lr, r3, lsl #8
     b24:	023b0030 	eoreqs	r0, fp, #48	; 0x30
     b28:	00020000 	andeq	r0, r2, r0
     b2c:	000004e7 	andeq	r0, r0, r7, ror #9
     b30:	03670104 	cmneq	r7, #1	; 0x1
     b34:	0dc40000 	stceql	0, cr0, [r4]
     b38:	0aa83000 	beq	fea0cb40 <CLKDIVN+0xb2a0cb2c>
     b3c:	00093000 	andeq	r3, r9, r0
     b40:	e4010000 	str	r0, [r1]
     b44:	31000002 	tstcc	r0, r2
     b48:	02000000 	andeq	r0, r0, #0	; 0x0
     b4c:	00000059 	andeq	r0, r0, r9, asr r0
     b50:	0002ae01 	andeq	sl, r2, r1, lsl #28
     b54:	010f0100 	tsteq	pc, r0, lsl #2
     b58:	00000059 	andeq	r0, r0, r9, asr r0
     b5c:	30000aa8 	andcc	r0, r0, r8, lsr #21
     b60:	30000ad4 	ldrccd	r0, [r0], -r4
     b64:	70035d01 	andvc	r5, r3, r1, lsl #26
     b68:	60100100 	andvss	r0, r0, r0, lsl #2
     b6c:	01000000 	tsteq	r0, r0
     b70:	61760351 	cmnvs	r6, r1, asr r3
     b74:	1101006c 	tstne	r1, ip, rrx
     b78:	00000059 	andeq	r0, r0, r9, asr r0
     b7c:	04005c01 	streq	r5, [r0], #-3073
     b80:	00746e69 	rsbeqs	r6, r4, r9, ror #28
     b84:	04050504 	streq	r0, [r5], #-1284
     b88:	00000066 	andeq	r0, r0, r6, rrx
     b8c:	00005906 	andeq	r5, r0, r6, lsl #18
     b90:	00a80700 	adceq	r0, r8, r0, lsl #14
     b94:	eb010000 	bl	40b9c <DISABLE_IRQ+0x40b1c>
     b98:	01000002 	tsteq	r0, r2
     b9c:	0ad40137 	beq	ff501080 <CLKDIVN+0xb350106c>
     ba0:	0b003000 	bleq	cba8 <DISABLE_IRQ+0xcb28>
     ba4:	5d013000 	stcpl	0, cr3, [r1]
     ba8:	0002a208 	andeq	sl, r2, r8, lsl #4
     bac:	59380100 	ldmpldb	r8!, {r8}
     bb0:	01000000 	tsteq	r0, r0
     bb4:	02c60801 	sbceq	r0, r6, #65536	; 0x10000
     bb8:	38010000 	stmccda	r1, {}
     bbc:	00000059 	andeq	r0, r0, r9, asr r0
     bc0:	70030101 	andvc	r0, r3, r1, lsl #2
     bc4:	a8390100 	ldmgeda	r9!, {r8}
     bc8:	01000000 	tsteq	r0, r0
     bcc:	04050053 	streq	r0, [r5], #-83
     bd0:	00000059 	andeq	r0, r0, r9, asr r0
     bd4:	027a0109 	rsbeqs	r0, sl, #1073741826	; 0x40000002
     bd8:	40010000 	andmi	r0, r1, r0
     bdc:	000b0001 	andeq	r0, fp, r1
     be0:	000b1830 	andeq	r1, fp, r0, lsr r8
     be4:	095d0130 	ldmeqdb	sp, {r4, r5, r8}^
     be8:	0002f501 	andeq	pc, r2, r1, lsl #10
     bec:	014b0100 	cmpeq	fp, r0, lsl #2
     bf0:	30000b18 	andcc	r0, r0, r8, lsl fp
     bf4:	30000b2c 	andcc	r0, r0, ip, lsr #22
     bf8:	01095d01 	tsteq	r9, r1, lsl #26
     bfc:	00000284 	andeq	r0, r0, r4, lsl #5
     c00:	2c015001 	stccs	0, cr5, [r1], {1}
     c04:	4030000b 	eormis	r0, r0, fp
     c08:	0130000b 	teqeq	r0, fp
     c0c:	0118075d 	tsteq	r8, sp, asr r7
     c10:	14010000 	strne	r0, [r1]
     c14:	01000003 	tsteq	r0, r3
     c18:	0b400155 	bleq	1001174 <DISABLE_IRQ+0x10010f4>
     c1c:	0b843000 	bleq	fe10cc24 <CLKDIVN+0xb210cc10>
     c20:	5d013000 	stcpl	0, cr3, [r1]
     c24:	646d630a 	strvsbt	r6, [sp], #-778
     c28:	18540100 	ldmneda	r4, {r8}^
     c2c:	01000001 	tsteq	r0, r1
     c30:	00690350 	rsbeq	r0, r9, r0, asr r3
     c34:	00665601 	rsbeq	r5, r6, r1, lsl #12
     c38:	91020000 	tstls	r2, r0
     c3c:	9e0b0000 	cdpls	0, 0, cr0, cr11, cr0, {0}
     c40:	01000000 	tsteq	r0, r0
     c44:	016a0708 	cmneq	sl, r8, lsl #14
     c48:	54010000 	strpl	r0, [r1]
     c4c:	01000002 	tsteq	r0, r2
     c50:	0b84015c 	bleq	fe1011c8 <CLKDIVN+0xb21011b4>
     c54:	0ca03000 	stceq	0, cr3, [r0]
     c58:	5d013000 	stcpl	0, cr3, [r1]
     c5c:	0002590c 	andeq	r5, r2, ip, lsl #18
     c60:	6a5b0100 	bvs	16c1068 <DISABLE_IRQ+0x16c0fe8>
     c64:	01000001 	tsteq	r0, r1
     c68:	6f630350 	swivs	0x00630350
     c6c:	5d01006c 	stcpl	0, cr0, [r1, #-432]
     c70:	0000016a 	andeq	r0, r0, sl, ror #2
     c74:	750d5101 	strvc	r5, [sp, #-257]
     c78:	01000002 	tsteq	r0, r2
     c7c:	00016a5e 	andeq	r6, r1, lr, asr sl
     c80:	03500100 	cmpeq	r0, #0	; 0x0
     c84:	5f010069 	swipl	0x00010069
     c88:	00000066 	andeq	r0, r0, r6, rrx
     c8c:	00009102 	andeq	r9, r0, r2, lsl #2
     c90:	00091a0b 	andeq	r1, r9, fp, lsl #20
     c94:	09070400 	stmeqdb	r7, {sl}
     c98:	00029201 	andeq	r9, r2, r1, lsl #4
     c9c:	016f0100 	cmneq	pc, r0, lsl #2
     ca0:	30000ca0 	andcc	r0, r0, r0, lsr #25
     ca4:	30000cb4 	strcch	r0, [r0], -r4
     ca8:	010e5d01 	tsteq	lr, r1, lsl #26
     cac:	000002d0 	ldreqd	r0, [r0], -r0
     cb0:	18017401 	stmneda	r1, {r0, sl, ip, sp, lr}
     cb4:	b4000001 	strlt	r0, [r0], #-1
     cb8:	c030000c 	eorgts	r0, r0, ip
     cbc:	0130000c 	teqeq	r0, ip
     cc0:	01f2075d 	mvneqs	r0, sp, asr r7
     cc4:	da010000 	ble	40ccc <DISABLE_IRQ+0x40c4c>
     cc8:	01000002 	tsteq	r0, r2
     ccc:	0cc00179 	stfeqe	f0, [r0], {121}
     cd0:	0d703000 	ldceql	0, cr3, [r0]
     cd4:	5d013000 	stcpl	0, cr3, [r1]
     cd8:	0002590c 	andeq	r5, r2, ip, lsl #18
     cdc:	6a780100 	bvs	1e010e4 <DISABLE_IRQ+0x1e01064>
     ce0:	01000001 	tsteq	r0, r1
     ce4:	75620a56 	strvcb	r0, [r2, #-2646]!
     ce8:	78010066 	stmvcda	r1, {r1, r2, r5, r6}
     cec:	000001f2 	streqd	r0, [r0], -r2
     cf0:	6c0a5a01 	stcvs	10, cr5, [sl], {1}
     cf4:	01006e65 	tsteq	r0, r5, ror #28
     cf8:	00016a78 	andeq	r6, r1, r8, ror sl
     cfc:	03570100 	cmpeq	r7, #0	; 0x0
     d00:	006c6f63 	rsbeq	r6, ip, r3, ror #30
     d04:	00597a01 	subeqs	r7, r9, r1, lsl #20
     d08:	54010000 	strpl	r0, [r1]
     d0c:	01006903 	tsteq	r0, r3, lsl #18
     d10:	0000597b 	andeq	r5, r0, fp, ror r9
     d14:	00550100 	subeqs	r0, r5, r0, lsl #2
     d18:	01180405 	tsteq	r8, r5, lsl #8
     d1c:	010f0000 	mrseq	r0, CPSR
     d20:	00000301 	andeq	r0, r0, r1, lsl #6
     d24:	70012301 	andvc	r2, r1, r1, lsl #6
     d28:	c430000d 	ldrgtt	r0, [r0], #-13
     d2c:	0130000d 	teqeq	r0, sp
     d30:	72730a5d 	rsbvcs	r0, r3, #380928	; 0x5d000
     d34:	22010063 	andcs	r0, r1, #99	; 0x63
     d38:	000001f2 	streqd	r0, [r0], -r2
     d3c:	c10c5501 	tstgt	ip, r1, lsl #10
     d40:	01000002 	tsteq	r0, r2
     d44:	0001f222 	andeq	pc, r1, r2, lsr #4
     d48:	0a560100 	beq	1581150 <DISABLE_IRQ+0x15810d0>
     d4c:	006e656c 	rsbeq	r6, lr, ip, ror #10
     d50:	016a2201 	cmneq	sl, r1, lsl #4
     d54:	54010000 	strpl	r0, [r1]
     d58:	01006903 	tsteq	r0, r3, lsl #18
     d5c:	00005924 	andeq	r5, r0, r4, lsr #18
     d60:	00520100 	subeqs	r0, r2, r0, lsl #2
     d64:	0001f800 	andeq	pc, r1, r0, lsl #16
     d68:	df000200 	swile	0x00000200
     d6c:	04000005 	streq	r0, [r0], #-5
     d70:	00040f01 	andeq	r0, r4, r1, lsl #30
     d74:	00104800 	andeqs	r4, r0, r0, lsl #16
     d78:	000dc430 	andeq	ip, sp, r0, lsr r4
     d7c:	00000930 	andeq	r0, r0, r0, lsr r9
     d80:	03350100 	teqeq	r5, #0	; 0x0
     d84:	00310000 	eoreqs	r0, r1, r0
     d88:	01020000 	tsteq	r2, r0
     d8c:	00000341 	andeq	r0, r0, r1, asr #6
     d90:	0dc44501 	cfstr64eq	mvdx4, [r4, #4]
     d94:	0e103000 	wxoreq	wr3, wr0, wr0
     d98:	5d013000 	stcpl	0, cr3, [r1]
     d9c:	038d0102 	orreq	r0, sp, #-2147483648	; 0x80000000
     da0:	51010000 	tstpl	r1, r0
     da4:	30000e10 	andcc	r0, r0, r0, lsl lr
     da8:	30000e84 	andcc	r0, r0, r4, lsl #29
     dac:	01025d01 	tsteq	r2, r1, lsl #26
     db0:	0000035b 	andeq	r0, r0, fp, asr r3
     db4:	0e848601 	cdpeq	6, 8, cr8, cr4, cr1, {0}
     db8:	0ec03000 	cdpeq	0, 12, cr3, cr0, cr0, {0}
     dbc:	5d013000 	stcpl	0, cr3, [r1]
     dc0:	037a0102 	cmneq	sl, #-2147483648	; 0x80000000
     dc4:	8f010000 	swihi	0x00010000
     dc8:	30000ec0 	andcc	r0, r0, r0, asr #29
     dcc:	30000ee4 	andcc	r0, r0, r4, ror #29
     dd0:	01025d01 	tsteq	r2, r1, lsl #26
     dd4:	000003e6 	andeq	r0, r0, r6, ror #7
     dd8:	0ee49501 	cdpeq	5, 14, cr9, cr4, cr1, {0}
     ddc:	0f0c3000 	swieq	0x000c3000
     de0:	5d013000 	stcpl	0, cr3, [r1]
     de4:	0000ee03 	andeq	lr, r0, r3, lsl #28
     de8:	03a60100 	moveq	r0, #0	; 0x0
     dec:	a7010000 	strge	r0, [r1, -r0]
     df0:	000f0c01 	andeq	r0, pc, r1, lsl #24
     df4:	000f6430 	andeq	r6, pc, r0, lsr r4
     df8:	045d0130 	ldreqb	r0, [sp], #-304
     dfc:	a6010078 	undefined
     e00:	000000ee 	andeq	r0, r0, lr, ror #1
     e04:	79045001 	stmvcdb	r4, {r0, ip, lr}
     e08:	eea60100 	fdvs	f0, f6, f0
     e0c:	01000000 	tsteq	r0, r0
     e10:	034f0551 	cmpeq	pc, #339738624	; 0x14400000
     e14:	a6010000 	strge	r0, [r1], -r0
     e18:	000000ee 	andeq	r0, r0, lr, ror #1
     e1c:	72065c01 	andvc	r5, r6, #256	; 0x100
     e20:	01006465 	tsteq	r0, r5, ror #8
     e24:	0000f5a8 	andeq	pc, r0, r8, lsr #11
     e28:	07510100 	ldreqb	r0, [r1, -r0, lsl #2]
     e2c:	00000355 	andeq	r0, r0, r5, asr r3
     e30:	00f5a801 	rsceqs	sl, r5, r1, lsl #16
     e34:	53010000 	tstpl	r1, #0	; 0x0
     e38:	00033007 	andeq	r3, r3, r7
     e3c:	f5a80100 	strnv	r0, [r8, #256]!
     e40:	01000000 	tsteq	r0, r0
     e44:	02590753 	subeqs	r0, r9, #21757952	; 0x14c0000
     e48:	aa010000 	bge	40e50 <DISABLE_IRQ+0x40dd0>
     e4c:	000000fc 	streqd	r0, [r0], -ip
     e50:	08005301 	stmeqda	r0, {r0, r8, r9, ip, lr}
     e54:	0000091a 	andeq	r0, r0, sl, lsl r9
     e58:	9e080704 	cdpls	7, 0, cr0, cr8, cr4, {0}
     e5c:	01000000 	tsteq	r0, r0
     e60:	02040908 	andeq	r0, r4, #131072	; 0x20000
     e64:	08000001 	stmeqda	r0, {r0}
     e68:	0000031d 	andeq	r0, r0, sp, lsl r3
     e6c:	44030702 	strmi	r0, [r3], #-1794
     e70:	01000001 	tsteq	r0, r1
     e74:	000003cf 	andeq	r0, r0, pc, asr #7
     e78:	6401ba01 	strvs	fp, [r1], #-2561
     e7c:	d030000f 	eorles	r0, r0, pc
     e80:	0130000f 	teqeq	r0, pc
     e84:	034f055d 	cmpeq	pc, #390070272	; 0x17400000
     e88:	b9010000 	stmltdb	r1, {}
     e8c:	000000ee 	andeq	r0, r0, lr, ror #1
     e90:	78065601 	stmvcda	r6, {r0, r9, sl, ip, lr}
     e94:	eebb0100 	frde	f0, f3, f0
     e98:	01000000 	tsteq	r0, r0
     e9c:	00790654 	rsbeqs	r0, r9, r4, asr r6
     ea0:	00eebb01 	rsceq	fp, lr, r1, lsl #22
     ea4:	55010000 	strpl	r0, [r1]
     ea8:	01b30300 	moveqs	r0, r0, lsl #6
     eac:	dc010000 	stcle	0, cr0, [r1], {0}
     eb0:	01000003 	tsteq	r0, r3
     eb4:	0fd001c4 	swieq	0x00d001c4
     eb8:	10283000 	eorne	r3, r8, r0
     ebc:	5d013000 	stcpl	0, cr3, [r1]
     ec0:	00036c05 	andeq	r6, r3, r5, lsl #24
     ec4:	eec20100 	pols	f0, f2, f0
     ec8:	01000000 	tsteq	r0, r0
     ecc:	03b10558 	moveqs	r0, #369098752	; 0x16000000
     ed0:	c2010000 	andgt	r0, r1, #0	; 0x0
     ed4:	000000ee 	andeq	r0, r0, lr, ror #1
     ed8:	87055101 	strhi	r5, [r5, -r1, lsl #2]
     edc:	01000003 	tsteq	r0, r3
     ee0:	0000eec3 	andeq	lr, r0, r3, asr #29
     ee4:	05560100 	ldreqb	r0, [r6, #-256]
     ee8:	000003a0 	andeq	r0, r0, r0, lsr #7
     eec:	00eec301 	rsceq	ip, lr, r1, lsl #6
     ef0:	5a010000 	bpl	40ef8 <DISABLE_IRQ+0x40e78>
     ef4:	00034f05 	andeq	r4, r3, r5, lsl #30
     ef8:	eec30100 	pols	f0, f3, f0
     efc:	01000000 	tsteq	r0, r0
     f00:	00780657 	rsbeqs	r0, r8, r7, asr r6
     f04:	00eec501 	rsceq	ip, lr, r1, lsl #10
     f08:	54010000 	strpl	r0, [r1]
     f0c:	01007906 	tsteq	r0, r6, lsl #18
     f10:	0000eec5 	andeq	lr, r0, r5, asr #29
     f14:	00550100 	subeqs	r0, r5, r0, lsl #2
     f18:	03c60102 	biceq	r0, r6, #-2147483648	; 0x80000000
     f1c:	cd010000 	stcgt	0, cr0, [r1]
     f20:	30001028 	andcc	r1, r0, r8, lsr #32
     f24:	30001048 	andcc	r1, r0, r8, asr #32
     f28:	b90a5d01 	stmltdb	sl, {r0, r8, sl, fp, ip, lr}
     f2c:	01000003 	tsteq	r0, r3
     f30:	0000ee9a 	muleq	r0, sl, lr
     f34:	03050100 	tsteq	r5, #0	; 0x0
     f38:	30005dec 	andcc	r5, r0, ip, ror #27
     f3c:	0003740a 	andeq	r7, r3, sl, lsl #8
     f40:	ee9b0100 	fmle	f0, f3, f0
     f44:	01000000 	tsteq	r0, r0
     f48:	5de80305 	stcpll	3, cr0, [r8, #20]!
     f4c:	3b0a3000 	blcc	28cf54 <DISABLE_IRQ+0x28ced4>
     f50:	01000003 	tsteq	r0, r3
     f54:	0000ee9c 	muleq	r0, ip, lr
     f58:	03050100 	tsteq	r5, #0	; 0x0
     f5c:	30005de4 	andcc	r5, r0, r4, ror #27
     f60:	0001d400 	andeq	sp, r1, r0, lsl #8
     f64:	7e000200 	cdpvc	2, 0, cr0, cr0, cr0, {0}
     f68:	04000006 	streq	r0, [r0], #-6
     f6c:	0004b601 	andeq	fp, r4, r1, lsl #12
     f70:	0010a400 	andeqs	sl, r0, r0, lsl #8
     f74:	00104830 	andeqs	r4, r0, r0, lsr r8
     f78:	00000930 	andeq	r0, r0, r0, lsr r9
     f7c:	04180100 	ldreq	r0, [r8], #-256
     f80:	00310000 	eoreqs	r0, r1, r0
     f84:	1a020000 	bne	80f8c <DISABLE_IRQ+0x80f0c>
     f88:	04000009 	streq	r0, [r0], #-9
     f8c:	00550307 	subeqs	r0, r5, r7, lsl #6
     f90:	00e70000 	rsceq	r0, r7, r0
     f94:	02080000 	andeq	r0, r8, #0	; 0x0
     f98:	01230405 	teqeq	r3, r5, lsl #8
     f9c:	06020000 	streq	r0, [r2], -r0
     fa0:	00000055 	andeq	r0, r0, r5, asr r0
     fa4:	04002302 	streq	r2, [r0], #-770
     fa8:	000000e2 	andeq	r0, r0, r2, ror #1
     fac:	00550702 	subeqs	r0, r5, r2, lsl #14
     fb0:	23020000 	tstcs	r2, #0	; 0x0
     fb4:	04050004 	streq	r0, [r5], #-4
     fb8:	0000002c 	andeq	r0, r0, ip, lsr #32
     fbc:	0000a702 	andeq	sl, r0, r2, lsl #14
     fc0:	06080100 	streq	r0, [r8], -r0, lsl #2
     fc4:	00746e69 	rsbeqs	r6, r4, r9, ror #28
     fc8:	31020504 	tstcc	r2, r4, lsl #10
     fcc:	04000009 	streq	r0, [r0], #-9
     fd0:	00950705 	addeqs	r0, r5, r5, lsl #14
     fd4:	2a010000 	bcs	40fdc <DISABLE_IRQ+0x40f5c>
     fd8:	01000004 	tsteq	r0, r4
     fdc:	10480104 	subne	r0, r8, r4, lsl #2
     fe0:	10543000 	subnes	r3, r4, r0
     fe4:	5d013000 	stcpl	0, cr3, [r1]
     fe8:	00006f08 	andeq	r6, r0, r8, lsl #30
     fec:	55030100 	strpl	r0, [r3, #-256]
     ff0:	01000000 	tsteq	r0, r0
     ff4:	c7070050 	smlsdgt	r7, r0, r0, r0
     ff8:	01000000 	tsteq	r0, r0
     ffc:	000003ff 	streqd	r0, [r0], -pc
    1000:	54012301 	strpl	r2, [r1], #-769
    1004:	60300010 	eorvss	r0, r0, r0, lsl r0
    1008:	01300010 	teqeq	r0, r0, lsl r0
    100c:	0123085d 	teqeq	r3, sp, asr r8
    1010:	22010000 	andcs	r0, r1, #0	; 0x0
    1014:	00000055 	andeq	r0, r0, r5, asr r0
    1018:	e2085001 	and	r5, r8, #1	; 0x1
    101c:	01000000 	tsteq	r0, r0
    1020:	00005522 	andeq	r5, r0, r2, lsr #10
    1024:	00510100 	subeqs	r0, r1, r0, lsl #2
    1028:	0000ec07 	andeq	lr, r0, r7, lsl #24
    102c:	04010100 	streq	r0, [r1], #-256
    1030:	29010000 	stmcsdb	r1, {}
    1034:	00106001 	andeqs	r6, r0, r1
    1038:	00106830 	andeqs	r6, r0, r0, lsr r8
    103c:	085d0130 	ldmeqda	sp, {r4, r5, r8}^
    1040:	0000057b 	andeq	r0, r0, fp, ror r5
    1044:	00552801 	subeqs	r2, r5, r1, lsl #16
    1048:	50010000 	andpl	r0, r1, r0
    104c:	01150900 	tsteq	r5, r0, lsl #18
    1050:	f4010000 	strnv	r0, [r1]
    1054:	01000003 	tsteq	r0, r3
    1058:	00620130 	rsbeq	r0, r2, r0, lsr r1
    105c:	10680000 	rsbne	r0, r8, r0
    1060:	107c3000 	rsbnes	r3, ip, r0
    1064:	5d013000 	stcpl	0, cr3, [r1]
    1068:	00006f08 	andeq	r6, r0, r8, lsl #30
    106c:	552f0100 	strpl	r0, [pc, #-256]!	; f74 <DISABLE_IRQ+0xef4>
    1070:	01000000 	tsteq	r0, r0
    1074:	54070050 	strpl	r0, [r7], #-80
    1078:	01000001 	tsteq	r0, r1
    107c:	0000041f 	andeq	r0, r0, pc, lsl r4
    1080:	7c013701 	stcvc	7, cr3, [r1], {1}
    1084:	90300010 	eorlss	r0, r0, r0, lsl r0
    1088:	01300010 	teqeq	r0, r0, lsl r0
    108c:	656e0a5d 	strvsb	r0, [lr, #-2653]!
    1090:	34010077 	strcc	r0, [r1], #-119
    1094:	00000055 	andeq	r0, r0, r5, asr r0
    1098:	23085001 	tstcs	r8, #1	; 0x1
    109c:	01000001 	tsteq	r0, r1
    10a0:	00005535 	andeq	r5, r0, r5, lsr r5
    10a4:	08510100 	ldmeqda	r1, {r8}^
    10a8:	000000e2 	andeq	r0, r0, r2, ror #1
    10ac:	00553601 	subeqs	r3, r5, r1, lsl #12
    10b0:	52010000 	andpl	r0, r1, #0	; 0x0
    10b4:	01860700 	orreq	r0, r6, r0, lsl #14
    10b8:	21010000 	tstcs	r1, r0
    10bc:	01000004 	tsteq	r0, r4
    10c0:	1090013f 	addnes	r0, r0, pc, lsr r1
    10c4:	10983000 	addnes	r3, r8, r0
    10c8:	5d013000 	stcpl	0, cr3, [r1]
    10cc:	77656e0a 	strvcb	r6, [r5, -sl, lsl #28]!
    10d0:	553e0100 	ldrpl	r0, [lr, #-256]!
    10d4:	01000000 	tsteq	r0, r0
    10d8:	006f0850 	rsbeq	r0, pc, r0, asr r8
    10dc:	3e010000 	cdpcc	0, 0, cr0, cr1, cr0, {0}
    10e0:	00000055 	andeq	r0, r0, r5, asr r0
    10e4:	07005101 	streq	r5, [r0, -r1, lsl #2]
    10e8:	000001b8 	streqh	r0, [r0], -r8
    10ec:	00040a01 	andeq	r0, r4, r1, lsl #20
    10f0:	01440100 	cmpeq	r4, r0, lsl #2
    10f4:	30001098 	mulcc	r0, r8, r0
    10f8:	300010a4 	andcc	r1, r0, r4, lsr #1
    10fc:	6e0a5d01 	cdpvs	13, 0, cr5, cr10, cr1, {0}
    1100:	01007765 	tsteq	r0, r5, ror #14
    1104:	00005543 	andeq	r5, r0, r3, asr #10
    1108:	08500100 	ldmeqda	r0, {r8}^
    110c:	0000006f 	andeq	r0, r0, pc, rrx
    1110:	00554301 	subeqs	r4, r5, r1, lsl #6
    1114:	51010000 	tstpl	r1, r0
    1118:	01c30b00 	biceq	r0, r3, r0, lsl #22
    111c:	01c30000 	biceq	r0, r3, r0
    1120:	000c0000 	andeq	r0, ip, r0
    1124:	00009e02 	andeq	r9, r0, r2, lsl #28
    1128:	0d080100 	stfeqs	f0, [r8]
    112c:	00000102 	andeq	r0, r0, r2, lsl #2
    1130:	01b81403 	moveqs	r1, r3, lsl #8
    1134:	01010000 	tsteq	r1, r0
    1138:	00010000 	andeq	r0, r1, r0
    113c:	3c000200 	sfmcc	f0, 4, [r0], {0}
    1140:	04000007 	streq	r0, [r0], #-7
    1144:	00052501 	andeq	r2, r5, r1, lsl #10
    1148:	00117800 	andeqs	r7, r1, r0, lsl #16
    114c:	0010a430 	andeqs	sl, r0, r0, lsr r4
    1150:	00000930 	andeq	r0, r0, r0, lsr r9
    1154:	04390100 	ldreqt	r0, [r9], #-256
    1158:	00310000 	eoreqs	r0, r1, r0
    115c:	01020000 	tsteq	r2, r0
    1160:	000000d2 	ldreqd	r0, [r0], -r2
    1164:	a4010f01 	strge	r0, [r1], #-3841
    1168:	f0300010 	eornvs	r0, r0, r0, lsl r0
    116c:	01300010 	teqeq	r0, r0, lsl r0
    1170:	005b035d 	subeqs	r0, fp, sp, asr r3
    1174:	19010000 	stmnedb	r1, {}
    1178:	01000001 	tsteq	r0, r1
    117c:	10f0011b 	rscnes	r0, r0, fp, lsl r1
    1180:	110c3000 	tstne	ip, r0
    1184:	5d013000 	stcpl	0, cr3, [r1]
    1188:	01006304 	tsteq	r0, r4, lsl #6
    118c:	00005b1a 	andeq	r5, r0, sl, lsl fp
    1190:	00500100 	subeqs	r0, r0, r0, lsl #2
    1194:	00009e05 	andeq	r9, r0, r5, lsl #28
    1198:	06080100 	streq	r0, [r8], -r0, lsl #2
    119c:	00004f01 	andeq	r4, r0, r1, lsl #30
    11a0:	01220100 	teqeq	r2, r0, lsl #2
    11a4:	0000005b 	andeq	r0, r0, fp, asr r0
    11a8:	3000110c 	andcc	r1, r0, ip, lsl #2
    11ac:	30001124 	andcc	r1, r0, r4, lsr #2
    11b0:	9c035d01 	stcls	13, cr5, [r3], {1}
    11b4:	01000000 	tsteq	r0, r0
    11b8:	0000011e 	andeq	r0, r0, lr, lsl r1
    11bc:	24012901 	strcs	r2, [r1], #-2305
    11c0:	4c300011 	ldcmi	0, cr0, [r0], #-68
    11c4:	01300011 	teqeq	r0, r1, lsl r0
    11c8:	0073045d 	rsbeqs	r0, r3, sp, asr r4
    11cc:	009c2801 	addeqs	r2, ip, r1, lsl #16
    11d0:	54010000 	strpl	r0, [r1]
    11d4:	5b040700 	blpl	102ddc <DISABLE_IRQ+0x102d5c>
    11d8:	08000000 	stmeqda	r0, {}
    11dc:	000000c9 	andeq	r0, r0, r9, asr #1
    11e0:	00043401 	andeq	r3, r4, r1, lsl #8
    11e4:	012f0100 	teqeq	pc, r0, lsl #2
    11e8:	0000009c 	muleq	r0, ip, r0
    11ec:	3000114c 	andcc	r1, r0, ip, asr #2
    11f0:	30001178 	andcc	r1, r0, r8, ror r1
    11f4:	73045d01 	tstvc	r4, #64	; 0x40
    11f8:	9c2e0100 	stflss	f0, [lr]
    11fc:	01000000 	tsteq	r0, r0
    1200:	da090054 	ble	241358 <DISABLE_IRQ+0x2412d8>
    1204:	5b000000 	blpl	120c <DISABLE_IRQ+0x118c>
    1208:	0a000000 	beq	1210 <DISABLE_IRQ+0x1190>
    120c:	000000da 	ldreqd	r0, [r0], -sl
    1210:	050003ff 	streq	r0, [r0, #-1023]
    1214:	0000091a 	andeq	r0, r0, sl, lsl r9
    1218:	400b0704 	andmi	r0, fp, r4, lsl #14
    121c:	01000004 	tsteq	r0, r4
    1220:	0000c907 	andeq	ip, r0, r7, lsl #18
    1224:	f4030500 	strnv	r0, [r3], #-1280
    1228:	0b30009e 	bleq	c014a8 <DISABLE_IRQ+0xc01428>
    122c:	0000044b 	andeq	r0, r0, fp, asr #8
    1230:	00c90801 	sbceq	r0, r9, r1, lsl #16
    1234:	03050000 	tsteq	r5, #0	; 0x0
    1238:	3000a2f4 	strccd	sl, [r0], -r4
    123c:	000bd900 	andeq	sp, fp, r0, lsl #18
    1240:	f0000200 	andnv	r0, r0, r0, lsl #4
    1244:	04000007 	streq	r0, [r0], #-7
    1248:	00057301 	andeq	r7, r5, r1, lsl #6
    124c:	0023f000 	eoreq	pc, r3, r0
    1250:	00117830 	andeqs	r7, r1, r0, lsr r8
    1254:	00000930 	andeq	r0, r0, r0, lsr r9
    1258:	05e60100 	streqb	r0, [r6, #256]!
    125c:	00310000 	eoreqs	r0, r1, r0
    1260:	1a020000 	bne	81268 <DISABLE_IRQ+0x811e8>
    1264:	04000009 	streq	r0, [r0], #-9
    1268:	091a0207 	ldmeqdb	sl, {r0, r1, r2, r9}
    126c:	07040000 	streq	r0, [r4, -r0]
    1270:	00009e02 	andeq	r9, r0, r2, lsl #28
    1274:	03080100 	tsteq	r8, #0	; 0x0
    1278:	000000e1 	andeq	r0, r0, r1, ror #1
    127c:	000004b3 	streqh	r0, [r0], -r3
    1280:	042c022c 	streqt	r0, [ip], #-556
    1284:	000006f8 	streqd	r0, [r0], -r8
    1288:	00e12d02 	rsceq	r2, r1, r2, lsl #26
    128c:	23020000 	tstcs	r2, #0	; 0x0
    1290:	04f00400 	ldreqbt	r0, [r0], #1024
    1294:	2e020000 	cdpcs	0, 0, cr0, cr2, cr0, {0}
    1298:	000000e1 	andeq	r0, r0, r1, ror #1
    129c:	04042302 	streq	r2, [r4], #-770
    12a0:	000001a7 	andeq	r0, r0, r7, lsr #3
    12a4:	00252f02 	eoreq	r2, r5, r2, lsl #30
    12a8:	23020000 	tstcs	r2, #0	; 0x0
    12ac:	06670408 	streqbt	r0, [r7], -r8, lsl #8
    12b0:	31020000 	tstcc	r2, r0
    12b4:	000000e1 	andeq	r0, r0, r1, ror #1
    12b8:	040c2302 	streq	r2, [ip], #-770
    12bc:	00000605 	andeq	r0, r0, r5, lsl #12
    12c0:	00e13202 	rsceq	r3, r1, r2, lsl #4
    12c4:	23020000 	tstcs	r2, #0	; 0x0
    12c8:	05f50410 	ldreqb	r0, [r5, #1040]!
    12cc:	33020000 	tstcc	r2, #0	; 0x0
    12d0:	000000e1 	andeq	r0, r0, r1, ror #1
    12d4:	04142302 	ldreq	r2, [r4], #-770
    12d8:	00000519 	andeq	r0, r0, r9, lsl r5
    12dc:	00e13502 	rsceq	r3, r1, r2, lsl #10
    12e0:	23020000 	tstcs	r2, #0	; 0x0
    12e4:	06ce0418 	undefined
    12e8:	36020000 	strcc	r0, [r2], -r0
    12ec:	000000e1 	andeq	r0, r0, r1, ror #1
    12f0:	041c2302 	ldreq	r2, [ip], #-770
    12f4:	00000568 	andeq	r0, r0, r8, ror #10
    12f8:	00e13702 	rsceq	r3, r1, r2, lsl #14
    12fc:	23020000 	tstcs	r2, #0	; 0x0
    1300:	06820420 	streq	r0, [r2], r0, lsr #8
    1304:	3a020000 	bcc	8130c <DISABLE_IRQ+0x8128c>
    1308:	000000e1 	andeq	r0, r0, r1, ror #1
    130c:	04242302 	streqt	r2, [r4], #-770
    1310:	00000561 	andeq	r0, r0, r1, ror #10
    1314:	00e13f02 	rsceq	r3, r1, r2, lsl #30
    1318:	23020000 	tstcs	r2, #0	; 0x0
    131c:	69050028 	stmvsdb	r5, {r3, r5}
    1320:	0400746e 	streq	r7, [r0], #-1134
    1324:	01650305 	cmneq	r5, r5, lsl #6
    1328:	062b0000 	streqt	r0, [fp], -r0
    132c:	022c0000 	eoreq	r0, ip, #0	; 0x0
    1330:	019e0443 	orreqs	r0, lr, r3, asr #8
    1334:	44020000 	strmi	r0, [r2]
    1338:	000000e1 	andeq	r0, r0, r1, ror #1
    133c:	04002302 	streq	r2, [r0], #-770
    1340:	000001d9 	ldreqd	r0, [r0], -r9
    1344:	00e14502 	rsceq	r4, r1, r2, lsl #10
    1348:	23020000 	tstcs	r2, #0	; 0x0
    134c:	01880404 	orreq	r0, r8, r4, lsl #8
    1350:	46020000 	strmi	r0, [r2], -r0
    1354:	000000e1 	andeq	r0, r0, r1, ror #1
    1358:	04082302 	streq	r2, [r8], #-770
    135c:	000001a5 	andeq	r0, r0, r5, lsr #3
    1360:	00e14702 	rsceq	r4, r1, r2, lsl #14
    1364:	23020000 	tstcs	r2, #0	; 0x0
    1368:	0195040c 	orreqs	r0, r5, ip, lsl #8
    136c:	48020000 	stmmida	r2, {}
    1370:	00000165 	andeq	r0, r0, r5, ror #2
    1374:	04102302 	ldreq	r2, [r0], #-770
    1378:	00000128 	andeq	r0, r0, r8, lsr #2
    137c:	00e14b02 	rsceq	r4, r1, r2, lsl #22
    1380:	23020000 	tstcs	r2, #0	; 0x0
    1384:	01e00420 	mvneq	r0, r0, lsr #8
    1388:	4c020000 	stcmi	0, cr0, [r2], {0}
    138c:	000000e1 	andeq	r0, r0, r1, ror #1
    1390:	04242302 	streqt	r2, [r4], #-770
    1394:	0000017a 	andeq	r0, r0, sl, ror r1
    1398:	00e14d02 	rsceq	r4, r1, r2, lsl #26
    139c:	23020000 	tstcs	r2, #0	; 0x0
    13a0:	75060028 	strvc	r0, [r6, #-40]
    13a4:	75000001 	strvc	r0, [r0, #-1]
    13a8:	07000001 	streq	r0, [r0, -r1]
    13ac:	0000002c 	andeq	r0, r0, ip, lsr #32
    13b0:	a702000f 	strge	r0, [r2, -pc]
    13b4:	01000000 	tsteq	r0, r0
    13b8:	01a50308 	moveq	r0, r8, lsl #6
    13bc:	05770000 	ldreqb	r0, [r7]!
    13c0:	02100000 	andeqs	r0, r0, #0	; 0x0
    13c4:	04d60451 	ldreqb	r0, [r6], #1105
    13c8:	52020000 	andpl	r0, r2, #0	; 0x0
    13cc:	000000e1 	andeq	r0, r0, r1, ror #1
    13d0:	04002302 	streq	r2, [r0], #-770
    13d4:	0000067d 	andeq	r0, r0, sp, ror r6
    13d8:	01a55302 	moveq	r5, r2, lsl #6
    13dc:	23020000 	tstcs	r2, #0	; 0x0
    13e0:	b5060004 	strlt	r0, [r6, #-4]
    13e4:	75000001 	strvc	r0, [r0, #-1]
    13e8:	07000001 	streq	r0, [r0, -r1]
    13ec:	0000002c 	andeq	r0, r0, ip, lsr #32
    13f0:	ec03000b 	stc	0, cr0, [r3], {11}
    13f4:	76000001 	strvc	r0, [r0], -r1
    13f8:	0c000004 	stceq	0, cr0, [r0], {4}
    13fc:	40045702 	andmi	r5, r4, r2, lsl #14
    1400:	02000001 	andeq	r0, r0, #1	; 0x1
    1404:	0000e158 	andeq	lr, r0, r8, asr r1
    1408:	00230200 	eoreq	r0, r3, r0, lsl #4
    140c:	00015a04 	andeq	r5, r1, r4, lsl #20
    1410:	e1590200 	cmp	r9, r0, lsl #4
    1414:	02000000 	andeq	r0, r0, #0	; 0x0
    1418:	6d040423 	cfstrsvs	mvf0, [r4, #-140]
    141c:	02000001 	andeq	r0, r0, #1	; 0x1
    1420:	0001ec5a 	andeq	lr, r1, sl, asr ip
    1424:	08230200 	stmeqda	r3!, {r9}
    1428:	e8040800 	stmda	r4, {fp}
    142c:	02000000 	andeq	r0, r0, #0	; 0x0
    1430:	0000031d 	andeq	r0, r0, sp, lsl r3
    1434:	29090702 	stmcsdb	r9, {r1, r8, r9, sl}
    1438:	01000002 	tsteq	r0, r2
    143c:	00000640 	andeq	r0, r0, r0, asr #12
    1440:	78012501 	stmvcda	r1, {r0, r8, sl, sp}
    1444:	9c300011 	ldcls	0, cr0, [r0], #-68
    1448:	01300011 	teqeq	r0, r1, lsl r0
    144c:	75620a5d 	strvcb	r0, [r2, #-2653]!
    1450:	24010066 	strcs	r0, [r1], #-102
    1454:	00000229 	andeq	r0, r0, r9, lsr #4
    1458:	690b5001 	stmvsdb	fp, {r0, ip, lr}
    145c:	e1260100 	teq	r6, r0, lsl #2
    1460:	01000000 	tsteq	r0, r0
    1464:	04080053 	streq	r0, [r8], #-83
    1468:	00000033 	andeq	r0, r0, r3, lsr r0
    146c:	0002a409 	andeq	sl, r2, r9, lsl #8
    1470:	05ca0100 	streqb	r0, [sl, #256]
    1474:	39010000 	stmccdb	r1, {}
    1478:	00119c01 	andeqs	r9, r1, r1, lsl #24
    147c:	00142430 	andeqs	r2, r4, r0, lsr r4
    1480:	0b5d0130 	bleq	1741948 <DISABLE_IRQ+0x17418c8>
    1484:	3a010069 	bcc	41630 <DISABLE_IRQ+0x415b0>
    1488:	000000e1 	andeq	r0, r0, r1, ror #1
    148c:	6a0c5401 	bvs	316498 <DISABLE_IRQ+0x316418>
    1490:	e13a0100 	teq	sl, r0, lsl #2
    1494:	0d000000 	stceq	0, cr0, [r0]
    1498:	00000494 	muleq	r0, r4, r4
    149c:	00e13b01 	rsceq	r3, r1, r1, lsl #22
    14a0:	53010000 	tstpl	r1, #0	; 0x0
    14a4:	0006150e 	andeq	r1, r6, lr, lsl #10
    14a8:	e13c0100 	teq	ip, r0, lsl #2
    14ac:	0d000000 	stceq	0, cr0, [r0]
    14b0:	000006c0 	andeq	r0, r0, r0, asr #13
    14b4:	02a43d01 	adceq	r3, r4, #64	; 0x40
    14b8:	91020000 	tstls	r2, r0
    14bc:	62730c00 	rsbvss	r0, r3, #0	; 0x0
    14c0:	b53e0100 	ldrlt	r0, [lr, #-256]!
    14c4:	0b000002 	bleq	14d4 <DISABLE_IRQ+0x1454>
    14c8:	01006970 	tsteq	r0, r0, ror r9
    14cc:	0001ec3f 	andeq	lr, r1, pc, lsr ip
    14d0:	0b530100 	bleq	14c18d8 <DISABLE_IRQ+0x14c1858>
    14d4:	00656470 	rsbeq	r6, r5, r0, ror r4
    14d8:	02bb4001 	adceqs	r4, fp, #1	; 0x1
    14dc:	55010000 	strpl	r0, [r1]
    14e0:	02b50600 	adceqs	r0, r5, #0	; 0x0
    14e4:	00330000 	eoreqs	r0, r3, r0
    14e8:	2c0f0000 	stccs	0, cr0, [pc], {0}
    14ec:	ff000000 	swinv	0x00000000
    14f0:	04080001 	streq	r0, [r8], #-1
    14f4:	0000003a 	andeq	r0, r0, sl, lsr r0
    14f8:	017c0408 	cmneq	ip, r8, lsl #8
    14fc:	fc090000 	stc2	0, cr0, [r9], {0}
    1500:	01000002 	tsteq	r0, r2
    1504:	000004ae 	andeq	r0, r0, lr, lsr #9
    1508:	2401dc01 	strcs	sp, [r1], #-3073
    150c:	d8300014 	ldmleda	r0!, {r2, r4}
    1510:	01300014 	teqeq	r0, r4, lsl r0
    1514:	65640a5d 	strvsb	r0, [r4, #-2653]!
    1518:	db010076 	blle	416f8 <DISABLE_IRQ+0x41678>
    151c:	000000e1 	andeq	r0, r0, r1, ror #1
    1520:	690b5701 	stmvsdb	fp, {r0, r8, r9, sl, ip, lr}
    1524:	e1dd0100 	bics	r0, sp, r0, lsl #2
    1528:	01000000 	tsteq	r0, r0
    152c:	73700c55 	cmnvc	r0, #21760	; 0x5500
    1530:	de010062 	cdple	0, 0, cr0, cr1, cr2, {3}
    1534:	000002b5 	streqh	r0, [r0], -r5
    1538:	03311000 	teqeq	r1, #0	; 0x0
    153c:	e0010000 	and	r0, r1, r0
    1540:	01000004 	tsteq	r0, r4
    1544:	02b501fd 	adceqs	r0, r5, #1073741887	; 0x4000003f
    1548:	14d80000 	ldrneb	r0, [r8]
    154c:	15243000 	strne	r3, [r4]!
    1550:	5d013000 	stcpl	0, cr3, [r1]
    1554:	7665640a 	strvcbt	r6, [r5], -sl, lsl #8
    1558:	e1fc0100 	mvns	r0, r0, lsl #2
    155c:	01000000 	tsteq	r0, r0
    1560:	62730b50 	rsbvss	r0, r3, #81920	; 0x14000
    1564:	b5fe0100 	ldrltb	r0, [lr, #256]!
    1568:	01000002 	tsteq	r0, r2
    156c:	a9110052 	ldmgedb	r1, {r1, r4, r6}
    1570:	01000003 	tsteq	r0, r3
    1574:	000006e6 	andeq	r0, r0, r6, ror #13
    1578:	01011501 	tsteq	r1, r1, lsl #10
    157c:	000001ec 	andeq	r0, r0, ip, ror #3
    1580:	30001524 	andcc	r1, r0, r4, lsr #10
    1584:	30001688 	andcc	r1, r0, r8, lsl #13
    1588:	64125d01 	ldrvs	r5, [r2], #-3329
    158c:	01007665 	tsteq	r0, r5, ror #12
    1590:	00e10114 	rsceq	r0, r1, r4, lsl r1
    1594:	54010000 	strpl	r0, [r1]
    1598:	6d756e12 	ldcvsl	14, cr6, [r5, #-72]!
    159c:	01140100 	tsteq	r4, r0, lsl #2
    15a0:	000000e1 	andeq	r0, r0, r1, ror #1
    15a4:	70135801 	andvcs	r5, r3, r1, lsl #16
    15a8:	01160100 	tsteq	r6, r0, lsl #2
    15ac:	000001ec 	andeq	r0, r0, ip, ror #3
    15b0:	71135201 	tstvc	r3, r1, lsl #4
    15b4:	01170100 	tsteq	r7, r0, lsl #2
    15b8:	000001ec 	andeq	r0, r0, ip, ror #3
    15bc:	73145701 	tstvc	r4, #262144	; 0x40000
    15c0:	18010062 	stmneda	r1, {r1, r5, r6}
    15c4:	0002b501 	andeq	fp, r2, r1, lsl #10
    15c8:	048d1500 	streq	r1, [sp], #1280
    15cc:	19010000 	stmnedb	r1, {}
    15d0:	0000e101 	andeq	lr, r0, r1, lsl #2
    15d4:	15540100 	ldrneb	r0, [r4, #-256]
    15d8:	000005ee 	andeq	r0, r0, lr, ror #11
    15dc:	ec011a01 	stc	10, cr1, [r1], {1}
    15e0:	01000001 	tsteq	r0, r1
    15e4:	d0160054 	andles	r0, r6, r4, asr r0
    15e8:	01000003 	tsteq	r0, r3
    15ec:	00000506 	andeq	r0, r0, r6, lsl #10
    15f0:	01015801 	tsteq	r1, r1, lsl #16
    15f4:	30001688 	andcc	r1, r0, r8, lsl #13
    15f8:	30001698 	mulcc	r0, r8, r6
    15fc:	ee175d01 	cdp	13, 1, cr5, cr7, cr1, {0}
    1600:	01000005 	tsteq	r0, r5
    1604:	01ec0157 	mvneq	r0, r7, asr r1
    1608:	50010000 	andpl	r0, r1, r0
    160c:	041c1600 	ldreq	r1, [ip], #-1536
    1610:	26010000 	strcs	r0, [r1], -r0
    1614:	01000006 	tsteq	r0, r6
    1618:	98010164 	stmlsda	r1, {r2, r5, r6, r8}
    161c:	60300016 	eorvss	r0, r0, r6, lsl r0
    1620:	01300017 	teqeq	r0, r7, lsl r0
    1624:	0070125d 	rsbeqs	r1, r0, sp, asr r2
    1628:	ec016301 	stc	3, cr6, [r1], {1}
    162c:	01000001 	tsteq	r0, r1
    1630:	05ee1555 	streqb	r1, [lr, #1365]!
    1634:	65010000 	strvs	r0, [r1]
    1638:	0001ec01 	andeq	lr, r1, r1, lsl #24
    163c:	14530100 	ldrneb	r0, [r3], #-256
    1640:	01006273 	tsteq	r0, r3, ror r2
    1644:	02b50166 	adceqs	r0, r5, #-2147483623	; 0x80000019
    1648:	8d150000 	ldchi	0, cr0, [r5]
    164c:	01000004 	tsteq	r0, r4
    1650:	00e10167 	rsceq	r0, r1, r7, ror #2
    1654:	58010000 	stmplda	r1, {}
    1658:	047b1100 	ldreqbt	r1, [fp], #-256
    165c:	1a010000 	bne	41664 <DISABLE_IRQ+0x415e4>
    1660:	01000007 	tsteq	r0, r7
    1664:	e1010187 	smlabb	r1, r7, r1, r0
    1668:	60000000 	andvs	r0, r0, r0
    166c:	d4300017 	ldrlet	r0, [r0], #-23
    1670:	01300017 	teqeq	r0, r7, lsl r0
    1674:	04c8175d 	streqb	r1, [r8], #1885
    1678:	86010000 	strhi	r0, [r1], -r0
    167c:	00047b01 	andeq	r7, r4, r1, lsl #22
    1680:	17500100 	ldrneb	r0, [r0, -r0, lsl #2]
    1684:	00000654 	andeq	r0, r0, r4, asr r6
    1688:	81018601 	tsthi	r1, r1, lsl #12
    168c:	01000004 	tsteq	r0, r4
    1690:	05ed1751 	streqb	r1, [sp, #1873]!
    1694:	86010000 	strhi	r0, [r1], -r0
    1698:	00048c01 	andeq	r8, r4, r1, lsl #24
    169c:	135e0100 	cmpne	lr, #0	; 0x0
    16a0:	88010073 	stmhida	r1, {r0, r1, r4, r5, r6}
    16a4:	00048101 	andeq	r8, r4, r1, lsl #2
    16a8:	13510100 	cmpne	r1, #0	; 0x0
    16ac:	89010074 	stmhidb	r1, {r2, r4, r5, r6}
    16b0:	00047b01 	andeq	r7, r4, r1, lsl #22
    16b4:	005c0100 	subeqs	r0, ip, r0, lsl #2
    16b8:	01750408 	cmneq	r5, r8, lsl #8
    16bc:	04080000 	streq	r0, [r8]
    16c0:	00000487 	andeq	r0, r0, r7, lsl #9
    16c4:	00017518 	andeq	r7, r1, r8, lsl r5
    16c8:	ec040800 	stc	8, cr0, [r4], {0}
    16cc:	11000001 	tstne	r0, r1
    16d0:	00000504 	andeq	r0, r0, r4, lsl #10
    16d4:	00053f01 	andeq	r3, r5, r1, lsl #30
    16d8:	01ad0100 	moveq	r0, r0, lsl #2
    16dc:	0000e101 	andeq	lr, r0, r1, lsl #2
    16e0:	0017d400 	andeqs	sp, r7, r0, lsl #8
    16e4:	0018bc30 	andeqs	fp, r8, r0, lsr ip
    16e8:	125d0130 	subnes	r0, sp, #12	; 0xc
    16ec:	00766564 	rsbeqs	r6, r6, r4, ror #10
    16f0:	e101ac01 	tst	r1, r1, lsl #24
    16f4:	01000000 	tsteq	r0, r0
    16f8:	04d61550 	ldreqb	r1, [r6], #1360
    16fc:	ae010000 	cdpge	0, 0, cr0, cr1, cr0, {0}
    1700:	0000e101 	andeq	lr, r0, r1, lsl #2
    1704:	14560100 	ldrneb	r0, [r6], #-256
    1708:	af010069 	swige	0x00010069
    170c:	0000e101 	andeq	lr, r0, r1, lsl #2
    1710:	006a1300 	rsbeq	r1, sl, r0, lsl #6
    1714:	e101af01 	tst	r1, r1, lsl #30
    1718:	01000000 	tsteq	r0, r0
    171c:	006b1354 	rsbeq	r1, fp, r4, asr r3
    1720:	e101af01 	tst	r1, r1, lsl #30
    1724:	01000000 	tsteq	r0, r0
    1728:	0554195e 	ldreqb	r1, [r4, #-2398]
    172c:	b1010000 	tstlt	r1, r0
    1730:	0000e101 	andeq	lr, r0, r1, lsl #2
    1734:	62731400 	rsbvss	r1, r3, #0	; 0x0
    1738:	01b20100 	moveqs	r0, r0, lsl #2
    173c:	000002b5 	streqh	r0, [r0], -r5
    1740:	058a1100 	streq	r1, [sl, #256]
    1744:	25010000 	strcs	r0, [r1]
    1748:	01000007 	tsteq	r0, r7
    174c:	e10101e3 	smlatt	r1, r3, r1, r0
    1750:	bc000000 	stclt	0, cr0, [r0], {0}
    1754:	18300018 	ldmneda	r0!, {r3, r4}
    1758:	0130001a 	teqeq	r0, sl, lsl r0
    175c:	6564125d 	strvsb	r1, [r4, #-605]!
    1760:	e2010076 	and	r0, r1, #118	; 0x76
    1764:	0000e101 	andeq	lr, r0, r1, lsl #2
    1768:	17500100 	ldrneb	r0, [r0, -r0, lsl #2]
    176c:	0000047b 	andeq	r0, r0, fp, ror r4
    1770:	e101e201 	tst	r1, r1, lsl #4
    1774:	01000000 	tsteq	r0, r0
    1778:	00691354 	rsbeq	r1, r9, r4, asr r3
    177c:	e101e601 	tst	r1, r1, lsl #12
    1780:	01000000 	tsteq	r0, r0
    1784:	006a1358 	rsbeq	r1, sl, r8, asr r3
    1788:	e101e701 	tst	r1, r1, lsl #14
    178c:	01000000 	tsteq	r0, r0
    1790:	006b135c 	rsbeq	r1, fp, ip, asr r3
    1794:	e101e801 	tst	r1, r1, lsl #16
    1798:	01000000 	tsteq	r0, r0
    179c:	62731351 	rsbvss	r1, r3, #1140850689	; 0x44000001
    17a0:	01ea0100 	mvneq	r0, r0, lsl #2
    17a4:	000002b5 	streqh	r0, [r0], -r5
    17a8:	b6155701 	ldrlt	r5, [r5], -r1, lsl #14
    17ac:	01000005 	tsteq	r0, r5
    17b0:	00e101ec 	rsceq	r0, r1, ip, ror #3
    17b4:	59010000 	stmpldb	r1, {}
    17b8:	0006b215 	andeq	fp, r6, r5, lsl r2
    17bc:	01ed0100 	mvneq	r0, r0, lsl #2
    17c0:	000000e1 	andeq	r0, r0, r1, ror #1
    17c4:	11005601 	tstne	r0, r1, lsl #12
    17c8:	000005df 	ldreqd	r0, [r0], -pc
    17cc:	00065d01 	andeq	r5, r6, r1, lsl #26
    17d0:	02270100 	eoreq	r0, r7, #0	; 0x0
    17d4:	0001ec01 	andeq	lr, r1, r1, lsl #24
    17d8:	001a1800 	andeqs	r1, sl, r0, lsl #16
    17dc:	001a6430 	andeqs	r6, sl, r0, lsr r4
    17e0:	125d0130 	subnes	r0, sp, #12	; 0xc
    17e4:	00766564 	rsbeqs	r6, r6, r4, ror #10
    17e8:	e1022601 	tst	r2, r1, lsl #12
    17ec:	01000000 	tsteq	r0, r0
    17f0:	04d61756 	ldreqb	r1, [r6], #1878
    17f4:	26010000 	strcs	r0, [r1], -r0
    17f8:	0000e102 	andeq	lr, r0, r2, lsl #2
    17fc:	17570100 	ldrneb	r0, [r7, -r0, lsl #2]
    1800:	0000018a 	andeq	r0, r0, sl, lsl #3
    1804:	e1022601 	tst	r2, r1, lsl #12
    1808:	01000000 	tsteq	r0, r0
    180c:	065d1555 	undefined
    1810:	28010000 	stmcsda	r1, {}
    1814:	0001ec02 	andeq	lr, r1, r2, lsl #24
    1818:	00540100 	subeqs	r0, r4, r0, lsl #2
    181c:	00068e16 	andeq	r8, r6, r6, lsl lr
    1820:	05730100 	ldreqb	r0, [r3, #-256]!
    1824:	43010000 	tstmi	r1, #0	; 0x0
    1828:	1a640102 	bne	1901c38 <DISABLE_IRQ+0x1901bb8>
    182c:	1b9c3000 	blne	fe70d834 <CLKDIVN+0xb270d820>
    1830:	5d013000 	stcpl	0, cr3, [r1]
    1834:	00058117 	andeq	r8, r5, r7, lsl r1
    1838:	02420100 	subeq	r0, r2, #0	; 0x0
    183c:	000001ec 	andeq	r0, r0, ip, ror #3
    1840:	fd175901 	ldc2	9, cr5, [r7, #-4]
    1844:	01000004 	tsteq	r0, r4
    1848:	00e10242 	rsceq	r0, r1, r2, asr #4
    184c:	91020000 	tstls	r2, r0
    1850:	04c81704 	streqb	r1, [r8], #1796
    1854:	42010000 	andmi	r0, r1, #0	; 0x0
    1858:	00047b02 	andeq	r7, r4, r2, lsl #22
    185c:	00910200 	addeqs	r0, r1, r0, lsl #4
    1860:	00059c15 	andeq	r9, r5, r5, lsl ip
    1864:	02450100 	subeq	r0, r5, #0	; 0x0
    1868:	000000e1 	andeq	r0, r0, r1, ror #1
    186c:	5b155a01 	blpl	558078 <DISABLE_IRQ+0x557ff8>
    1870:	01000004 	tsteq	r0, r4
    1874:	00e10246 	rsceq	r0, r1, r6, asr #4
    1878:	5b010000 	blpl	41880 <DISABLE_IRQ+0x41800>
    187c:	00063115 	andeq	r3, r6, r5, lsl r1
    1880:	02470100 	subeq	r0, r7, #0	; 0x0
    1884:	000000e1 	andeq	r0, r0, r1, ror #1
    1888:	69135501 	ldmvsdb	r3, {r0, r8, sl, ip, lr}
    188c:	024d0100 	subeq	r0, sp, #0	; 0x0
    1890:	000000e1 	andeq	r0, r0, r1, ror #1
    1894:	6a135701 	bvs	4d74a0 <DISABLE_IRQ+0x4d7420>
    1898:	024d0100 	subeq	r0, sp, #0	; 0x0
    189c:	000000e1 	andeq	r0, r0, r1, ror #1
    18a0:	6d135201 	lfmvs	f5, 4, [r3, #-4]
    18a4:	024e0100 	subeq	r0, lr, #0	; 0x0
    18a8:	000000e1 	andeq	r0, r0, r1, ror #1
    18ac:	70135401 	andvcs	r5, r3, r1, lsl #8
    18b0:	01006564 	tsteq	r0, r4, ror #10
    18b4:	02bb024f 	adceqs	r0, fp, #-268435452	; 0xf0000004
    18b8:	5e010000 	cdppl	0, 0, cr0, cr1, cr0, {0}
    18bc:	00071315 	andeq	r1, r7, r5, lsl r3
    18c0:	02500100 	subeqs	r0, r0, #0	; 0x0
    18c4:	000002bb 	streqh	r0, [r0], -fp
    18c8:	11005601 	tstne	r0, r1, lsl #12
    18cc:	0000073f 	andeq	r0, r0, pc, lsr r7
    18d0:	0004a201 	andeq	sl, r4, r1, lsl #4
    18d4:	02830100 	addeq	r0, r3, #0	; 0x0
    18d8:	0000e101 	andeq	lr, r0, r1, lsl #2
    18dc:	001b9c00 	andeqs	r9, fp, r0, lsl #24
    18e0:	001cb030 	andeqs	fp, ip, r0, lsr r0
    18e4:	175d0130 	smmlarne	sp, r0, r1, r0
    18e8:	00000720 	andeq	r0, r0, r0, lsr #14
    18ec:	81028201 	tsthi	r2, r1, lsl #4
    18f0:	01000004 	tsteq	r0, r4
    18f4:	00611350 	rsbeq	r1, r1, r0, asr r3
    18f8:	e1028401 	tst	r2, r1, lsl #8
    18fc:	01000000 	tsteq	r0, r0
    1900:	00691353 	rsbeq	r1, r9, r3, asr r3
    1904:	e1028501 	tst	r2, r1, lsl #10
    1908:	01000000 	tsteq	r0, r0
    190c:	006a135a 	rsbeq	r1, sl, sl, asr r3
    1910:	e1028501 	tst	r2, r1, lsl #10
    1914:	01000000 	tsteq	r0, r0
    1918:	059c1554 	ldreq	r1, [ip, #1364]
    191c:	87010000 	strhi	r0, [r1, -r0]
    1920:	0000e102 	andeq	lr, r0, r2, lsl #2
    1924:	155b0100 	ldrneb	r0, [fp, #-256]
    1928:	0000045b 	andeq	r0, r0, fp, asr r4
    192c:	e1028801 	tst	r2, r1, lsl #16
    1930:	01000000 	tsteq	r0, r0
    1934:	06311559 	undefined
    1938:	89010000 	stmhidb	r1, {}
    193c:	0000e102 	andeq	lr, r0, r2, lsl #2
    1940:	13570100 	cmpne	r7, #0	; 0x0
    1944:	8b01006d 	blhi	41b00 <DISABLE_IRQ+0x41a80>
    1948:	0000e102 	andeq	lr, r0, r2, lsl #2
    194c:	13560100 	cmpne	r6, #0	; 0x0
    1950:	00656470 	rsbeq	r6, r5, r0, ror r4
    1954:	bb028c01 	bllt	a4960 <DISABLE_IRQ+0xa48e0>
    1958:	01000002 	tsteq	r0, r2
    195c:	05811555 	streq	r1, [r1, #1365]
    1960:	8e010000 	cdphi	0, 0, cr0, cr1, cr0, {0}
    1964:	0001ec02 	andeq	lr, r1, r2, lsl #24
    1968:	00910200 	addeqs	r0, r1, r0, lsl #4
    196c:	0004c815 	andeq	ip, r4, r5, lsl r8
    1970:	028f0100 	addeq	r0, pc, #0	; 0x0
    1974:	000001a5 	andeq	r0, r0, r5, lsr #3
    1978:	00049102 	andeq	r9, r4, r2, lsl #2
    197c:	0007c011 	andeq	ip, r7, r1, lsl r0
    1980:	046f0100 	streqbt	r0, [pc], #256	; 1988 <DISABLE_IRQ+0x1908>
    1984:	cd010000 	stcgt	0, cr0, [r1]
    1988:	01ec0102 	mvneq	r0, r2, lsl #2
    198c:	1cb00000 	ldcne	0, cr0, [r0]
    1990:	1db43000 	ldcne	0, cr3, [r4]
    1994:	5d013000 	stcpl	0, cr3, [r1]
    1998:	00072017 	andeq	r2, r7, r7, lsl r0
    199c:	02cc0100 	sbceq	r0, ip, #0	; 0x0
    19a0:	00000481 	andeq	r0, r0, r1, lsl #9
    19a4:	c4175101 	ldrgt	r5, [r7], #-257
    19a8:	01000005 	tsteq	r0, r5
    19ac:	00e102cc 	rsceq	r0, r1, ip, asr #5
    19b0:	51010000 	tstpl	r1, r0
    19b4:	0004c815 	andeq	ip, r4, r5, lsl r8
    19b8:	02ce0100 	sbceq	r0, lr, #0	; 0x0
    19bc:	000001a5 	andeq	r0, r0, r5, lsr #3
    19c0:	15049102 	strne	r9, [r4, #-258]
    19c4:	000004d6 	ldreqd	r0, [r0], -r6
    19c8:	e102cf01 	tst	r2, r1, lsl #30
    19cc:	01000000 	tsteq	r0, r0
    19d0:	06b21555 	ssateq	r1, #19, r5, ASR #10
    19d4:	d0010000 	andle	r0, r1, r0
    19d8:	0000e102 	andeq	lr, r0, r2, lsl #2
    19dc:	15540100 	ldrneb	r0, [r4, #-256]
    19e0:	00000581 	andeq	r0, r0, r1, lsl #11
    19e4:	ec02d101 	stfd	f5, [r2], {1}
    19e8:	02000001 	andeq	r0, r0, #1	; 0x1
    19ec:	d4150091 	ldrle	r0, [r5], #-145
    19f0:	01000005 	tsteq	r0, r5
    19f4:	01ec02d2 	ldreqd	r0, [ip, #34]!
    19f8:	54010000 	strpl	r0, [r1]
    19fc:	08581100 	ldmeqda	r8, {r8, ip}^
    1a00:	97010000 	strls	r0, [r1, -r0]
    1a04:	01000005 	tsteq	r0, r5
    1a08:	e10102f6 	strd	r0, [r1, -r6]
    1a0c:	b4000000 	strlt	r0, [r0]
    1a10:	f430001d 	ldrnvt	r0, [r0], #-29
    1a14:	0130001e 	teqeq	r0, lr, lsl r0
    1a18:	0678175d 	undefined
    1a1c:	f5010000 	strnv	r0, [r1]
    1a20:	00048102 	andeq	r8, r4, r2, lsl #2
    1a24:	17560100 	ldrneb	r0, [r6, -r0, lsl #2]
    1a28:	000005c4 	andeq	r0, r0, r4, asr #11
    1a2c:	e102f501 	tstp	r2, r1, lsl #10
    1a30:	01000000 	tsteq	r0, r0
    1a34:	64661357 	strvsbt	r1, [r6], #-855
    1a38:	02f70100 	rsceqs	r0, r7, #0	; 0x0
    1a3c:	000000e1 	andeq	r0, r0, r1, ror #1
    1a40:	d6155a01 	ldrle	r5, [r5], -r1, lsl #20
    1a44:	01000004 	tsteq	r0, r4
    1a48:	00e102f8 	streqd	r0, [r1], #40
    1a4c:	55010000 	strpl	r0, [r1]
    1a50:	01006913 	tsteq	r0, r3, lsl r9
    1a54:	00e102f9 	streqd	r0, [r1], #41
    1a58:	54010000 	strpl	r0, [r1]
    1a5c:	6e697013 	mcrvs	0, 3, r7, cr9, cr3, {0}
    1a60:	02fa0100 	rsceqs	r0, sl, #0	; 0x0
    1a64:	000001ec 	andeq	r0, r0, ip, ror #3
    1a68:	4e195501 	cfmul32mi	mvfx5, mvfx9, mvfx1
    1a6c:	01000005 	tsteq	r0, r5
    1a70:	00e102fb 	streqd	r0, [r1], #43
    1a74:	c8150000 	ldmgtda	r5, {}
    1a78:	01000004 	tsteq	r0, r4
    1a7c:	01a502fd 	streqd	r0, [r5, sp]!
    1a80:	91020000 	tstls	r2, r0
    1a84:	05811504 	streq	r1, [r1, #1284]
    1a88:	fe010000 	cdp2	0, 0, cr0, cr1, cr0, {0}
    1a8c:	0001ec02 	andeq	lr, r1, r2, lsl #24
    1a90:	00910200 	addeqs	r0, r1, r0, lsl #4
    1a94:	087e1600 	ldmeqda	lr!, {r9, sl, ip}^
    1a98:	28010000 	stmcsda	r1, {}
    1a9c:	01000005 	tsteq	r0, r5
    1aa0:	f401035d 	strnv	r0, [r1], #-861
    1aa4:	7c30001e 	ldcvc	0, cr0, [r0], #-120
    1aa8:	01300020 	teqeq	r0, r0, lsr #32
    1aac:	6273135d 	rsbvss	r1, r3, #1946157057	; 0x74000001
    1ab0:	035e0100 	cmpeq	lr, #0	; 0x0
    1ab4:	000002b5 	streqh	r0, [r0], -r5
    1ab8:	11005401 	tstne	r0, r1, lsl #8
    1abc:	000008a8 	andeq	r0, r0, r8, lsr #17
    1ac0:	00045501 	andeq	r5, r4, r1, lsl #10
    1ac4:	03890100 	orreq	r0, r9, #0	; 0x0
    1ac8:	0000e101 	andeq	lr, r0, r1, lsl #2
    1acc:	00207c00 	eoreq	r7, r0, r0, lsl #24
    1ad0:	0020c430 	eoreq	ip, r0, r0, lsr r4
    1ad4:	125d0130 	subnes	r0, sp, #12	; 0xc
    1ad8:	01006466 	tsteq	r0, r6, ror #8
    1adc:	00e10388 	rsceq	r0, r1, r8, lsl #7
    1ae0:	54010000 	strpl	r0, [r1]
    1ae4:	08f71600 	ldmeqia	r7!, {r9, sl, ip}^
    1ae8:	4a010000 	bmi	41af0 <DISABLE_IRQ+0x41a70>
    1aec:	01000006 	tsteq	r0, r6
    1af0:	c4010393 	strgt	r0, [r1], #-915
    1af4:	e8300020 	ldmda	r0!, {r5}
    1af8:	01300020 	teqeq	r0, r0, lsr #32
    1afc:	061f175d 	undefined
    1b00:	92010000 	andls	r0, r1, #0	; 0x0
    1b04:	00022903 	andeq	r2, r2, r3, lsl #18
    1b08:	12500100 	subnes	r0, r0, #0	; 0x0
    1b0c:	00667562 	rsbeq	r7, r6, r2, ror #10
    1b10:	29039201 	stmcsdb	r3, {r0, r9, ip, pc}
    1b14:	01000002 	tsteq	r0, r2
    1b18:	06c81751 	undefined
    1b1c:	92010000 	andls	r0, r1, #0	; 0x0
    1b20:	0000e103 	andeq	lr, r0, r3, lsl #2
    1b24:	13520100 	cmpne	r2, #0	; 0x0
    1b28:	94010069 	strls	r0, [r1], #-105
    1b2c:	0000e103 	andeq	lr, r0, r3, lsl #2
    1b30:	005c0100 	subeqs	r0, ip, r0, lsl #2
    1b34:	00092c1a 	andeq	r2, r9, sl, lsl ip
    1b38:	696d0100 	stmvsdb	sp!, {r8}^
    1b3c:	9d01006e 	stcls	0, cr0, [r1, #-440]
    1b40:	00e10103 	rsceq	r0, r1, r3, lsl #2
    1b44:	20e80000 	rsccs	r0, r8, r0
    1b48:	20f43000 	rsccss	r3, r4, r0
    1b4c:	5d013000 	stcpl	0, cr3, [r1]
    1b50:	01006112 	tsteq	r0, r2, lsl r1
    1b54:	00e1039c 	smlaleq	r0, r1, ip, r3
    1b58:	50010000 	andpl	r0, r1, r0
    1b5c:	01006212 	tsteq	r0, r2, lsl r2
    1b60:	00e1039c 	smlaleq	r0, r1, ip, r3
    1b64:	51010000 	tstpl	r1, r0
    1b68:	0a291100 	beq	a45f70 <DISABLE_IRQ+0xa45ef0>
    1b6c:	67010000 	strvs	r0, [r1, -r0]
    1b70:	01000004 	tsteq	r0, r4
    1b74:	e10103a2 	smlatb	r1, r2, r3, r0
    1b78:	f4000000 	strnv	r0, [r0]
    1b7c:	e4300020 	ldrt	r0, [r0], #-32
    1b80:	01300022 	teqeq	r0, r2, lsr #32
    1b84:	6466125d 	strvsbt	r1, [r6], #-605
    1b88:	03a10100 	moveq	r0, #0	; 0x0
    1b8c:	000000e1 	andeq	r0, r0, r1, ror #1
    1b90:	1f175401 	swine	0x00175401
    1b94:	01000006 	tsteq	r0, r6
    1b98:	0a2903a1 	beq	a42a24 <DISABLE_IRQ+0xa429a4>
    1b9c:	91020000 	tstls	r2, r0
    1ba0:	0691170c 	ldreq	r1, [r1], ip, lsl #14
    1ba4:	a1010000 	tstge	r1, r0
    1ba8:	0000e103 	andeq	lr, r0, r3, lsl #2
    1bac:	17550100 	ldrneb	r0, [r5, -r0, lsl #2]
    1bb0:	000005a8 	andeq	r0, r0, r8, lsr #11
    1bb4:	e103a101 	tst	r3, r1, lsl #2
    1bb8:	02000000 	andeq	r0, r0, #0	; 0x0
    1bbc:	70130891 	mulvcs	r3, r1, r8
    1bc0:	01006e69 	tsteq	r0, r9, ror #28
    1bc4:	01ec03a4 	mvneq	r0, r4, lsr #7
    1bc8:	91020000 	tstls	r2, r0
    1bcc:	6f701304 	swivs	0x00701304
    1bd0:	a7010073 	smlsdxge	r1, r3, r0, r0
    1bd4:	0000e103 	andeq	lr, r0, r3, lsl #2
    1bd8:	15560100 	ldrneb	r0, [r6, #-256]
    1bdc:	0000054e 	andeq	r0, r0, lr, asr #10
    1be0:	e103aa01 	tst	r3, r1, lsl #20
    1be4:	01000000 	tsteq	r0, r0
    1be8:	06f01552 	usateq	r1, #16, r2, ASR #10
    1bec:	ac010000 	stcge	0, cr0, [r1], {0}
    1bf0:	0000e103 	andeq	lr, r0, r3, lsl #2
    1bf4:	13500100 	cmpne	r0, #0	; 0x0
    1bf8:	0066666f 	rsbeq	r6, r6, pc, ror #12
    1bfc:	e103ae01 	tst	r3, r1, lsl #28
    1c00:	01000000 	tsteq	r0, r0
    1c04:	058b1555 	streq	r1, [fp, #1365]
    1c08:	af010000 	swige	0x00010000
    1c0c:	0000e103 	andeq	lr, r0, r3, lsl #2
    1c10:	15540100 	ldrneb	r0, [r4, #-256]
    1c14:	000006fe 	streqd	r0, [r0], -lr
    1c18:	e103b001 	tst	r3, r1
    1c1c:	01000000 	tsteq	r0, r0
    1c20:	06ac155a 	ssateq	r1, #13, sl, ASR #10
    1c24:	b1010000 	tstlt	r1, r0
    1c28:	0000e103 	andeq	lr, r0, r3, lsl #2
    1c2c:	15570100 	ldrneb	r0, [r7, #-256]
    1c30:	000006a3 	andeq	r0, r0, r3, lsr #13
    1c34:	e103b301 	tst	r3, r1, lsl #6
    1c38:	01000000 	tsteq	r0, r0
    1c3c:	06db1559 	undefined
    1c40:	b4010000 	strlt	r0, [r1]
    1c44:	0000e103 	andeq	lr, r0, r3, lsl #2
    1c48:	13580100 	cmpne	r8, #0	; 0x0
    1c4c:	b5010069 	strlt	r0, [r1, #-105]
    1c50:	0000e103 	andeq	lr, r0, r3, lsl #2
    1c54:	15560100 	ldrneb	r0, [r6, #-256]
    1c58:	000006c8 	andeq	r0, r0, r8, asr #13
    1c5c:	e103b601 	tst	r3, r1, lsl #12
    1c60:	01000000 	tsteq	r0, r0
    1c64:	041b0054 	ldreq	r0, [fp], #-84
    1c68:	000a7111 	andeq	r7, sl, r1, lsl r1
    1c6c:	05b00100 	ldreq	r0, [r0, #256]!
    1c70:	1a010000 	bne	41c78 <DISABLE_IRQ+0x41bf8>
    1c74:	00e10104 	rsceq	r0, r1, r4, lsl #2
    1c78:	22e40000 	rsccs	r0, r4, #0	; 0x0
    1c7c:	22ec3000 	rsccs	r3, ip, #0	; 0x0
    1c80:	5d013000 	stcpl	0, cr3, [r1]
    1c84:	00646612 	rsbeq	r6, r4, r2, lsl r6
    1c88:	e1041901 	tst	r4, r1, lsl #18
    1c8c:	01000000 	tsteq	r0, r0
    1c90:	061f1750 	undefined
    1c94:	19010000 	stmnedb	r1, {}
    1c98:	00047b04 	andeq	r7, r4, r4, lsl #22
    1c9c:	17510100 	ldrneb	r0, [r1, -r0, lsl #2]
    1ca0:	00000691 	muleq	r0, r1, r6
    1ca4:	e1041901 	tst	r4, r1, lsl #18
    1ca8:	01000000 	tsteq	r0, r0
    1cac:	b7110052 	undefined
    1cb0:	0100000a 	tsteq	r0, sl
    1cb4:	000002df 	ldreqd	r0, [r0], -pc
    1cb8:	01041f01 	tsteq	r4, r1, lsl #30
    1cbc:	000000e1 	andeq	r0, r0, r1, ror #1
    1cc0:	300022ec 	andcc	r2, r0, ip, ror #5
    1cc4:	300022f4 	strccd	r2, [r0], -r4
    1cc8:	66125d01 	ldrvs	r5, [r2], -r1, lsl #26
    1ccc:	1e010064 	cdpne	0, 0, cr0, cr1, cr4, {3}
    1cd0:	0000e104 	andeq	lr, r0, r4, lsl #2
    1cd4:	17500100 	ldrneb	r0, [r0, -r0, lsl #2]
    1cd8:	0000061f 	andeq	r0, r0, pc, lsl r6
    1cdc:	7b041e01 	blvc	1094e8 <DISABLE_IRQ+0x109468>
    1ce0:	01000004 	tsteq	r0, r4
    1ce4:	06911751 	undefined
    1ce8:	1e010000 	cdpne	0, 0, cr0, cr1, cr0, {0}
    1cec:	0000e104 	andeq	lr, r0, r4, lsl #2
    1cf0:	00520100 	subeqs	r0, r2, r0, lsl #2
    1cf4:	000b2f16 	andeq	r2, fp, r6, lsl pc
    1cf8:	05300100 	ldreq	r0, [r0, #-256]!
    1cfc:	24010000 	strcs	r0, [r1]
    1d00:	22f40104 	rsccss	r0, r4, #1	; 0x1
    1d04:	23f03000 	mvncss	r3, #0	; 0x0
    1d08:	5d013000 	stcpl	0, cr3, [r1]
    1d0c:	01007914 	tsteq	r0, r4, lsl r9
    1d10:	00e10425 	rsceq	r0, r1, r5, lsr #8
    1d14:	64130000 	ldrvs	r0, [r3]
    1d18:	26010065 	strcs	r0, [r1], -r5, rrx
    1d1c:	0002bb04 	andeq	fp, r2, r4, lsl #22
    1d20:	1c540100 	ldfnee	f0, [r4], {0}
    1d24:	30002328 	andcc	r2, r0, r8, lsr #6
    1d28:	300023b8 	strcch	r2, [r0], -r8
    1d2c:	00051019 	andeq	r1, r5, r9, lsl r0
    1d30:	042f0100 	streqt	r0, [pc], #256	; 1d38 <DISABLE_IRQ+0x1cb8>
    1d34:	00000025 	andeq	r0, r0, r5, lsr #32
    1d38:	0004bf19 	andeq	fp, r4, r9, lsl pc
    1d3c:	042f0100 	streqt	r0, [pc], #256	; 1d44 <DISABLE_IRQ+0x1cc4>
    1d40:	00000025 	andeq	r0, r0, r5, lsr #32
    1d44:	00233c1c 	eoreq	r3, r3, ip, lsl ip
    1d48:	0023b430 	eoreq	fp, r3, r0, lsr r4
    1d4c:	04d11530 	ldreqb	r1, [r1], #1328
    1d50:	2f010000 	swics	0x00010000
    1d54:	000b2f04 	andeq	r2, fp, r4, lsl #30
    1d58:	155c0100 	ldrneb	r0, [ip, #-256]
    1d5c:	0000070a 	andeq	r0, r0, sl, lsl #14
    1d60:	e1042f01 	tst	r4, r1, lsl #30
    1d64:	01000000 	tsteq	r0, r0
    1d68:	00000051 	andeq	r0, r0, r1, asr r0
    1d6c:	0b350408 	bleq	d42d94 <DISABLE_IRQ+0xd42d14>
    1d70:	33180000 	tstcc	r8, #0	; 0x0
    1d74:	06000000 	streq	r0, [r0], -r0
    1d78:	00000b45 	andeq	r0, r0, r5, asr #22
    1d7c:	00000033 	andeq	r0, r0, r3, lsr r0
    1d80:	021e001d 	andeqs	r0, lr, #29	; 0x1d
    1d84:	03000001 	tsteq	r0, #1	; 0x1
    1d88:	000b3a14 	andeq	r3, fp, r4, lsl sl
    1d8c:	1f010100 	swine	0x00010100
    1d90:	00667562 	rsbeq	r7, r6, r2, ror #10
    1d94:	02a41b01 	adceq	r1, r4, #1024	; 0x400
    1d98:	05010000 	streq	r0, [r1]
    1d9c:	00be6403 	adceqs	r6, lr, r3, lsl #8
    1da0:	051d2030 	ldreq	r2, [sp, #-48]
    1da4:	1d010000 	stcne	0, cr0, [r1]
    1da8:	000001ec 	andeq	r0, r0, ip, ror #3
    1dac:	60030501 	andvs	r0, r3, r1, lsl #10
    1db0:	063000b0 	undefined
    1db4:	00000b86 	andeq	r0, r0, r6, lsl #23
    1db8:	000001b5 	streqh	r0, [r0], -r5
    1dbc:	00002c07 	andeq	r2, r0, r7, lsl #24
    1dc0:	20003f00 	andcs	r3, r0, r0, lsl #30
    1dc4:	000005dd 	ldreqd	r0, [r0], -sp
    1dc8:	0b761f01 	bleq	1d899d4 <DISABLE_IRQ+0x1d89954>
    1dcc:	05010000 	streq	r0, [r1]
    1dd0:	00bb6403 	adceqs	r6, fp, r3, lsl #8
    1dd4:	0ba80630 	bleq	fea0369c <CLKDIVN+0xb2a03688>
    1dd8:	00e80000 	rsceq	r0, r8, r0
    1ddc:	2c070000 	stccs	0, cr0, [r7], {0}
    1de0:	3f000000 	swicc	0x00000000
    1de4:	06972000 	ldreq	r2, [r7], r0
    1de8:	20010000 	andcs	r0, r1, r0
    1dec:	00000b98 	muleq	r0, r8, fp
    1df0:	64030501 	strvs	r0, [r3], #-1281
    1df4:	063000b0 	undefined
    1df8:	00000bca 	andeq	r0, r0, sl, asr #23
    1dfc:	0000003a 	andeq	r0, r0, sl, lsr r0
    1e00:	00002c07 	andeq	r2, r0, r7, lsl #24
    1e04:	20000700 	andcs	r0, r0, r0, lsl #14
    1e08:	000004b3 	streqh	r0, [r0], -r3
    1e0c:	0bba2101 	bleq	fee8a218 <CLKDIVN+0xb2e8a204>
    1e10:	05010000 	streq	r0, [r1]
    1e14:	00af0003 	adceq	r0, pc, r3
    1e18:	070f0030 	smladxeq	pc, r0, r0, r0
    1e1c:	00020000 	andeq	r0, r2, r0
    1e20:	000009c1 	andeq	r0, r0, r1, asr #19
    1e24:	08cb0104 	stmeqia	fp, {r2, r8}^
    1e28:	32600000 	rsbcc	r0, r0, #0	; 0x0
    1e2c:	23f03000 	mvncss	r3, #0	; 0x0
    1e30:	00093000 	andeq	r3, r9, r0
    1e34:	09010000 	stmeqdb	r1, {}
    1e38:	31000008 	tstcc	r0, r8
    1e3c:	02000000 	andeq	r0, r0, #0	; 0x0
    1e40:	00000094 	muleq	r0, r4, r0
    1e44:	000007a5 	andeq	r0, r0, r5, lsr #15
    1e48:	0327022c 	teqeq	r7, #-1073741822	; 0xc0000002
    1e4c:	00000734 	andeq	r0, r0, r4, lsr r7
    1e50:	00942802 	addeqs	r2, r4, r2, lsl #16
    1e54:	23020000 	tstcs	r2, #0	; 0x0
    1e58:	079d0300 	ldreq	r0, [sp, r0, lsl #6]
    1e5c:	29020000 	stmcsdb	r2, {}
    1e60:	00000094 	muleq	r0, r4, r0
    1e64:	03012302 	tsteq	r1, #134217728	; 0x8000000
    1e68:	000007fa 	streqd	r0, [r0], -sl
    1e6c:	009b2a02 	addeqs	r2, fp, r2, lsl #20
    1e70:	23020000 	tstcs	r2, #0	; 0x0
    1e74:	087b0302 	ldmeqda	fp!, {r1, r8, r9}^
    1e78:	2b020000 	blcs	81e80 <DISABLE_IRQ+0x81e00>
    1e7c:	000000a2 	andeq	r0, r0, r2, lsr #1
    1e80:	03042302 	tsteq	r4, #134217728	; 0x8000000
    1e84:	000007cf 	andeq	r0, r0, pc, asr #15
    1e88:	00b92c02 	adceqs	r2, r9, r2, lsl #24
    1e8c:	23020000 	tstcs	r2, #0	; 0x0
    1e90:	07670314 	undefined
    1e94:	2d020000 	stccs	0, cr0, [r2]
    1e98:	000000c9 	andeq	r0, r0, r9, asr #1
    1e9c:	03242302 	teqeq	r4, #134217728	; 0x8000000
    1ea0:	0000073c 	andeq	r0, r0, ip, lsr r7
    1ea4:	00c92e02 	sbceq	r2, r9, r2, lsl #28
    1ea8:	23020000 	tstcs	r2, #0	; 0x0
    1eac:	9e040028 	cdpls	0, 0, cr0, cr4, cr8, {1}
    1eb0:	01000000 	tsteq	r0, r0
    1eb4:	031d0408 	tsteq	sp, #134217728	; 0x8000000
    1eb8:	07020000 	streq	r0, [r2, -r0]
    1ebc:	0000b205 	andeq	fp, r0, r5, lsl #4
    1ec0:	00009400 	andeq	r9, r0, r0, lsl #8
    1ec4:	00b20600 	adceqs	r0, r2, r0, lsl #12
    1ec8:	000f0000 	andeq	r0, pc, r0
    1ecc:	00091a04 	andeq	r1, r9, r4, lsl #20
    1ed0:	05070400 	streq	r0, [r7, #-1024]
    1ed4:	000000c9 	andeq	r0, r0, r9, asr #1
    1ed8:	000000c9 	andeq	r0, r0, r9, asr #1
    1edc:	0000b206 	andeq	fp, r0, r6, lsl #4
    1ee0:	04000300 	streq	r0, [r0], #-768
    1ee4:	0000091a 	andeq	r0, r0, sl, lsl r9
    1ee8:	66070704 	strvs	r0, [r7], -r4, lsl #14
    1eec:	01000001 	tsteq	r0, r1
    1ef0:	000007ad 	andeq	r0, r0, sp, lsr #15
    1ef4:	c901f001 	stmgtdb	r1, {r0, ip, sp, lr, pc}
    1ef8:	f0000000 	andnv	r0, r0, r0
    1efc:	f4300023 	ldrnvt	r0, [r0], #-35
    1f00:	01300024 	teqeq	r0, r4, lsr #32
    1f04:	6d63085d 	stcvsl	8, cr0, [r3, #-372]!
    1f08:	ef010064 	swi	0x00010064
    1f0c:	00000166 	andeq	r0, r0, r6, ror #2
    1f10:	56095001 	strpl	r5, [r9], -r1
    1f14:	01000008 	tsteq	r0, r8
    1f18:	000166ef 	andeq	r6, r1, pc, ror #13
    1f1c:	0a510100 	beq	1442324 <DISABLE_IRQ+0x14422a4>
    1f20:	00000750 	andeq	r0, r0, r0, asr r7
    1f24:	0166f101 	msreq	SPSR_sx, r1, lsl #2
    1f28:	52010000 	andpl	r0, r1, #0	; 0x0
    1f2c:	00012f0b 	andeq	r2, r1, fp, lsl #30
    1f30:	0023fc00 	eoreq	pc, r3, r0, lsl #24
    1f34:	00242830 	eoreq	r2, r4, r0, lsr r8
    1f38:	09010c30 	stmeqdb	r1, {r4, r5, sl, fp}
    1f3c:	01000001 	tsteq	r0, r1
    1f40:	00016649 	andeq	r6, r1, r9, asr #12
    1f44:	000d0100 	andeq	r0, sp, r0, lsl #2
    1f48:	014c0b00 	cmpeq	ip, r0, lsl #22
    1f4c:	24980000 	ldrcs	r0, [r8]
    1f50:	24ac3000 	strcst	r3, [ip]
    1f54:	010c3000 	tsteq	ip, r0
    1f58:	00000109 	andeq	r0, r0, r9, lsl #2
    1f5c:	01664901 	cmneq	r6, r1, lsl #18
    1f60:	0d010000 	stceq	0, cr0, [r1]
    1f64:	d80e0000 	stmleda	lr, {}
    1f68:	f4300024 	ldrnvt	r0, [r0], #-36
    1f6c:	0c300024 	ldceq	0, cr0, [r0], #-144
    1f70:	00010901 	andeq	r0, r1, r1, lsl #18
    1f74:	66490100 	strvsb	r0, [r9], -r0, lsl #2
    1f78:	01000001 	tsteq	r0, r1
    1f7c:	0000000d 	andeq	r0, r0, sp
    1f80:	746e690f 	strvcbt	r6, [lr], #-2319
    1f84:	10050400 	andne	r0, r5, r0, lsl #8
    1f88:	00000198 	muleq	r0, r8, r1
    1f8c:	0007de01 	andeq	sp, r7, r1, lsl #28
    1f90:	01b70100 	moveqs	r0, r0, lsl #2
    1f94:	00009b01 	andeq	r9, r0, r1, lsl #22
    1f98:	0024f400 	eoreq	pc, r4, r0, lsl #8
    1f9c:	00253c30 	eoreq	r3, r5, r0, lsr ip
    1fa0:	115d0130 	cmpne	sp, r0, lsr r1
    1fa4:	000007fc 	streqd	r0, [r0], -ip
    1fa8:	9b01b601 	blls	6f7b4 <DISABLE_IRQ+0x6f734>
    1fac:	01000000 	tsteq	r0, r0
    1fb0:	d1100050 	tstle	r0, r0, asr r0
    1fb4:	01000001 	tsteq	r0, r1
    1fb8:	00000863 	andeq	r0, r0, r3, ror #16
    1fbc:	01019a01 	tsteq	r1, r1, lsl #20
    1fc0:	00000094 	muleq	r0, r4, r0
    1fc4:	3000253c 	andcc	r2, r0, ip, lsr r5
    1fc8:	30002598 	mulcc	r0, r8, r5
    1fcc:	fc115d01 	ldc2	13, cr5, [r1], {1}
    1fd0:	01000007 	tsteq	r0, r7
    1fd4:	009b0199 	umulleqs	r0, fp, r9, r1
    1fd8:	50010000 	andpl	r0, r1, r0
    1fdc:	0008aa11 	andeq	sl, r8, r1, lsl sl
    1fe0:	01990100 	orreqs	r0, r9, r0, lsl #2
    1fe4:	000001d1 	ldreqd	r0, [r0], -r1
    1fe8:	12005501 	andne	r5, r0, #4194304	; 0x400000
    1fec:	0000c904 	andeq	ip, r0, r4, lsl #18
    1ff0:	02101000 	andeqs	r1, r0, #0	; 0x0
    1ff4:	51010000 	tstpl	r1, r0
    1ff8:	01000008 	tsteq	r0, r8
    1ffc:	94010166 	strls	r0, [r1], #-358
    2000:	98000000 	stmlsda	r0, {}
    2004:	1c300025 	ldcne	0, cr0, [r0], #-148
    2008:	01300026 	teqeq	r0, r6, lsr #32
    200c:	07e4115d 	undefined
    2010:	65010000 	strvs	r0, [r1]
    2014:	00009b01 	andeq	r9, r0, r1, lsl #22
    2018:	11560100 	cmpne	r6, r0, lsl #2
    201c:	000007fc 	streqd	r0, [r0], -ip
    2020:	10016501 	andne	r6, r1, r1, lsl #10
    2024:	01000002 	tsteq	r0, r2
    2028:	04120055 	ldreq	r0, [r2], #-85
    202c:	0000009b 	muleq	r0, fp, r0
    2030:	00024110 	andeq	r4, r2, r0, lsl r1
    2034:	084c0100 	stmeqda	ip, {r8}^
    2038:	4a010000 	bmi	42040 <DISABLE_IRQ+0x41fc0>
    203c:	00940101 	addeqs	r0, r4, r1, lsl #2
    2040:	261c0000 	ldrcs	r0, [ip], -r0
    2044:	27103000 	ldrcs	r3, [r0, -r0]
    2048:	5d013000 	stcpl	0, cr3, [r1]
    204c:	0008d011 	andeq	sp, r8, r1, lsl r0
    2050:	01490100 	cmpeq	r9, r0, lsl #2
    2054:	00000241 	andeq	r0, r0, r1, asr #4
    2058:	12005401 	andne	r5, r0, #16777216	; 0x1000000
    205c:	00009404 	andeq	r9, r0, r4, lsl #8
    2060:	42011300 	andmi	r1, r1, #0	; 0x0
    2064:	01000008 	tsteq	r0, r8
    2068:	1001012d 	andne	r0, r1, sp, lsr #2
    206c:	40300027 	eormis	r0, r0, r7, lsr #32
    2070:	01300027 	teqeq	r0, r7, lsr #32
    2074:	4701145d 	smlsdmi	r1, sp, r4, r1
    2078:	01000008 	tsteq	r0, r8
    207c:	94010137 	strls	r0, [r1], #-311
    2080:	40000000 	andmi	r0, r0, r0
    2084:	98300027 	ldmlsda	r0!, {r0, r1, r2, r5}
    2088:	01300027 	teqeq	r0, r7, lsr #32
    208c:	029c105d 	addeqs	r1, ip, #93	; 0x5d
    2090:	68010000 	stmvsda	r1, {}
    2094:	01000008 	tsteq	r0, r8
    2098:	c901022b 	stmgtdb	r1, {r0, r1, r3, r5, r9}
    209c:	98000000 	stmlsda	r0, {}
    20a0:	c4300027 	ldrgtt	r0, [r0], #-39
    20a4:	01300027 	teqeq	r0, r7, lsr #32
    20a8:	0069155d 	rsbeq	r1, r9, sp, asr r5
    20ac:	66022c01 	strvs	r2, [r2], -r1, lsl #24
    20b0:	01000001 	tsteq	r0, r1
    20b4:	d5100054 	ldrle	r0, [r0, #-84]
    20b8:	01000002 	tsteq	r0, r2
    20bc:	0000085e 	andeq	r0, r0, lr, asr r8
    20c0:	01017e01 	tsteq	r1, r1, lsl #28
    20c4:	00000094 	muleq	r0, r4, r0
    20c8:	300027c4 	andcc	r2, r0, r4, asr #15
    20cc:	30002858 	andcc	r2, r0, r8, asr r8
    20d0:	8f115d01 	swihi	0x00115d01
    20d4:	01000008 	tsteq	r0, r8
    20d8:	0094017d 	addeqs	r0, r4, sp, ror r1
    20dc:	52010000 	andpl	r0, r1, #0	; 0x0
    20e0:	0007fc11 	andeq	pc, r7, r1, lsl ip
    20e4:	017d0100 	cmneq	sp, r0, lsl #2
    20e8:	0000009b 	muleq	r0, fp, r0
    20ec:	10005301 	andne	r5, r0, r1, lsl #6
    20f0:	0000030e 	andeq	r0, r0, lr, lsl #6
    20f4:	00078a01 	andeq	r8, r7, r1, lsl #20
    20f8:	02470100 	subeq	r0, r7, #0	; 0x0
    20fc:	00009401 	andeq	r9, r0, r1, lsl #8
    2100:	00285800 	eoreq	r5, r8, r0, lsl #16
    2104:	00287830 	eoreq	r7, r8, r0, lsr r8
    2108:	115d0130 	cmpne	sp, r0, lsr r1
    210c:	00000826 	andeq	r0, r0, r6, lsr #16
    2110:	94024601 	strls	r4, [r2], #-1537
    2114:	01000000 	tsteq	r0, r0
    2118:	08391150 	ldmeqda	r9!, {r4, r6, r8, ip}
    211c:	46010000 	strmi	r0, [r1], -r0
    2120:	00009b02 	andeq	r9, r0, r2, lsl #22
    2124:	00510100 	subeqs	r0, r1, r0, lsl #2
    2128:	07d80114 	undefined
    212c:	aa010000 	bge	42134 <DISABLE_IRQ+0x420b4>
    2130:	00940101 	addeqs	r0, r4, r1, lsl #2
    2134:	28780000 	ldmcsda	r8!, {}^
    2138:	28b03000 	ldmcsia	r0!, {ip, sp}
    213c:	5d013000 	stcpl	0, cr3, [r1]
    2140:	00035110 	andeq	r5, r3, r0, lsl r1
    2144:	07ee0100 	streqb	r0, [lr, r0, lsl #2]!
    2148:	c4010000 	strgt	r0, [r1]
    214c:	00940101 	addeqs	r0, r4, r1, lsl #2
    2150:	28b00000 	ldmcsia	r0!, {}
    2154:	28e43000 	stmcsia	r4!, {ip, sp}^
    2158:	5d013000 	stcpl	0, cr3, [r1]
    215c:	00025911 	andeq	r5, r2, r1, lsl r9
    2160:	01c30100 	biceq	r0, r3, r0, lsl #2
    2164:	000000c9 	andeq	r0, r0, r9, asr #1
    2168:	10005c01 	andne	r5, r0, r1, lsl #24
    216c:	0000037c 	andeq	r0, r0, ip, ror r3
    2170:	0007f401 	andeq	pc, r7, r1, lsl #8
    2174:	01d10100 	biceqs	r0, r1, r0, lsl #2
    2178:	00009401 	andeq	r9, r0, r1, lsl #8
    217c:	0028e400 	eoreq	lr, r8, r0, lsl #8
    2180:	00291830 	eoreq	r1, r9, r0, lsr r8
    2184:	115d0130 	cmpne	sp, r0, lsr r1
    2188:	00000259 	andeq	r0, r0, r9, asr r2
    218c:	c901d001 	stmgtdb	r1, {r0, ip, lr, pc}
    2190:	01000000 	tsteq	r0, r0
    2194:	dd10005c 	ldcle	0, cr0, [r0, #-368]
    2198:	01000003 	tsteq	r0, r3
    219c:	00000758 	andeq	r0, r0, r8, asr r7
    21a0:	01026401 	tsteq	r2, r1, lsl #8
    21a4:	00000094 	muleq	r0, r4, r0
    21a8:	30002918 	andcc	r2, r0, r8, lsl r9
    21ac:	30002a24 	andcc	r2, r0, r4, lsr #20
    21b0:	62165d01 	andvss	r5, r6, #64	; 0x40
    21b4:	01006675 	tsteq	r0, r5, ror r6
    21b8:	01d10263 	biceqs	r0, r1, r3, ror #4
    21bc:	58010000 	stmplda	r1, {}
    21c0:	00025911 	andeq	r5, r2, r1, lsl r9
    21c4:	02630100 	rsbeq	r0, r3, #0	; 0x0
    21c8:	000000c9 	andeq	r0, r0, r9, asr #1
    21cc:	af115501 	swige	0x00115501
    21d0:	01000008 	tsteq	r0, r8
    21d4:	00c90263 	sbceq	r0, r9, r3, ror #4
    21d8:	5a010000 	bpl	421e0 <DISABLE_IRQ+0x42160>
    21dc:	01006915 	tsteq	r0, r5, lsl r9
    21e0:	00c90265 	sbceq	r0, r9, r5, ror #4
    21e4:	57010000 	strpl	r0, [r1, -r0]
    21e8:	00077317 	andeq	r7, r7, r7, lsl r3
    21ec:	02660100 	rsbeq	r0, r6, #0	; 0x0
    21f0:	000000c9 	andeq	r0, r0, r9, asr #1
    21f4:	10005301 	andne	r5, r0, r1, lsl #6
    21f8:	00000408 	andeq	r0, r0, r8, lsl #8
    21fc:	0008b901 	andeq	fp, r8, r1, lsl #18
    2200:	01de0100 	biceqs	r0, lr, r0, lsl #2
    2204:	00009401 	andeq	r9, r0, r1, lsl #8
    2208:	002a2400 	eoreq	r2, sl, r0, lsl #8
    220c:	002a5430 	eoreq	r5, sl, r0, lsr r4
    2210:	115d0130 	cmpne	sp, r0, lsr r1
    2214:	00000259 	andeq	r0, r0, r9, asr r2
    2218:	c901dd01 	stmgtdb	r1, {r0, r8, sl, fp, ip, lr, pc}
    221c:	01000000 	tsteq	r0, r0
    2220:	3310005c 	tstcc	r0, #92	; 0x5c
    2224:	01000004 	tsteq	r0, r4
    2228:	000008bf 	streqh	r0, [r0], -pc
    222c:	0101eb01 	tsteq	r1, r1, lsl #22
    2230:	00000094 	muleq	r0, r4, r0
    2234:	30002a54 	andcc	r2, r0, r4, asr sl
    2238:	30002a88 	andcc	r2, r0, r8, lsl #21
    223c:	59115d01 	ldmpldb	r1, {r0, r8, sl, fp, ip, lr}
    2240:	01000002 	tsteq	r0, r2
    2244:	00c901ea 	sbceq	r0, r9, sl, ror #3
    2248:	5c010000 	stcpl	0, cr0, [r1], {0}
    224c:	04941000 	ldreq	r1, [r4]
    2250:	7a010000 	bvc	42258 <DISABLE_IRQ+0x421d8>
    2254:	01000007 	tsteq	r0, r7
    2258:	9401029c 	strls	r0, [r1], #-668
    225c:	88000000 	stmhida	r0, {}
    2260:	7430002a 	ldrvct	r0, [r0], #-42
    2264:	0130002b 	teqeq	r0, fp, lsr #32
    2268:	7562165d 	strvcb	r1, [r2, #-1629]!
    226c:	9b010066 	blls	4240c <DISABLE_IRQ+0x4238c>
    2270:	0001d102 	andeq	sp, r1, r2, lsl #2
    2274:	11580100 	cmpne	r8, r0, lsl #2
    2278:	00000259 	andeq	r0, r0, r9, asr r2
    227c:	c9029b01 	stmgtdb	r2, {r0, r8, r9, fp, ip, pc}
    2280:	01000000 	tsteq	r0, r0
    2284:	08af1154 	stmeqia	pc!, {r2, r4, r6, r8, ip}
    2288:	9b010000 	blls	42290 <DISABLE_IRQ+0x42210>
    228c:	0000c902 	andeq	ip, r0, r2, lsl #18
    2290:	155a0100 	ldrneb	r0, [sl, #-256]
    2294:	9d010069 	stcls	0, cr0, [r1, #-420]
    2298:	00009b02 	andeq	r9, r0, r2, lsl #22
    229c:	17550100 	ldrneb	r0, [r5, -r0, lsl #2]
    22a0:	00000773 	andeq	r0, r0, r3, ror r7
    22a4:	c9029e01 	stmgtdb	r2, {r0, r9, sl, fp, ip, pc}
    22a8:	01000000 	tsteq	r0, r0
    22ac:	bf100051 	swilt	0x00100051
    22b0:	01000004 	tsteq	r0, r4
    22b4:	00000817 	andeq	r0, r0, r7, lsl r8
    22b8:	0101f801 	tsteqp	r1, r1, lsl #16
    22bc:	00000094 	muleq	r0, r4, r0
    22c0:	30002b74 	andcc	r2, r0, r4, ror fp
    22c4:	30002bb0 	strcch	r2, [r0], -r0
    22c8:	fc115d01 	ldc2	13, cr5, [r1], {1}
    22cc:	01000007 	tsteq	r0, r7
    22d0:	009b01f7 	ldreqsh	r0, [fp], r7
    22d4:	50010000 	andpl	r0, r1, r0
    22d8:	04f81000 	ldreqbt	r1, [r8]
    22dc:	c9010000 	stmgtdb	r1, {}
    22e0:	01000007 	tsteq	r0, r7
    22e4:	94010204 	strls	r0, [r1], #-516
    22e8:	b0000000 	andlt	r0, r0, r0
    22ec:	1c30002b 	ldcne	0, cr0, [r0], #-172
    22f0:	0130002c 	teqeq	r0, ip, lsr #32
    22f4:	07c0115d 	undefined
    22f8:	03010000 	tsteq	r1, #0	; 0x0
    22fc:	00009402 	andeq	r9, r0, r2, lsl #8
    2300:	11540100 	cmpne	r4, r0, lsl #2
    2304:	000007fc 	streqd	r0, [r0], -ip
    2308:	9b020301 	blls	82f14 <DISABLE_IRQ+0x82e94>
    230c:	01000000 	tsteq	r0, r0
    2310:	3f100051 	swicc	0x00100051
    2314:	01000005 	tsteq	r0, r5
    2318:	00000895 	muleq	r0, r5, r8
    231c:	01025001 	tsteq	r2, r1
    2320:	00000094 	muleq	r0, r4, r0
    2324:	30002c1c 	andcc	r2, r0, ip, lsl ip
    2328:	30002c54 	andcc	r2, r0, r4, asr ip
    232c:	46115d01 	ldrmi	r5, [r1], -r1, lsl #26
    2330:	01000007 	tsteq	r0, r7
    2334:	0094024f 	addeqs	r0, r4, pc, asr #4
    2338:	50010000 	andpl	r0, r1, r0
    233c:	0007bf11 	andeq	fp, r7, r1, lsl pc
    2340:	024f0100 	subeq	r0, pc, #0	; 0x0
    2344:	00000094 	muleq	r0, r4, r0
    2348:	fc115101 	ldc2	1, cr5, [r1], {1}
    234c:	01000007 	tsteq	r0, r7
    2350:	009b024f 	addeqs	r0, fp, pc, asr #4
    2354:	52010000 	andpl	r0, r1, #0	; 0x0
    2358:	05781000 	ldreqb	r1, [r8]!
    235c:	a3010000 	tstge	r1, #0	; 0x0
    2360:	01000008 	tsteq	r0, r8
    2364:	94010213 	strls	r0, [r1], #-531
    2368:	54000000 	strpl	r0, [r0]
    236c:	0c30002c 	ldceq	0, cr0, [r0], #-176
    2370:	0130002d 	teqeq	r0, sp, lsr #32
    2374:	07fc115d 	undefined
    2378:	12010000 	andne	r0, r1, #0	; 0x0
    237c:	00009b02 	andeq	r9, r0, r2, lsl #22
    2380:	17500100 	ldrneb	r0, [r0, -r0, lsl #2]
    2384:	00000801 	andeq	r0, r0, r1, lsl #16
    2388:	94021401 	strls	r1, [r2], #-1025
    238c:	01000000 	tsteq	r0, r0
    2390:	9d180050 	ldcls	0, cr0, [r8, #-320]
    2394:	01000005 	tsteq	r0, r5
    2398:	000008c5 	andeq	r0, r0, r5, asr #17
    239c:	0102c701 	tsteq	r2, r1, lsl #14
    23a0:	30002d0c 	andcc	r2, r0, ip, lsl #26
    23a4:	30002d18 	andcc	r2, r0, r8, lsl sp
    23a8:	69165d01 	ldmvsdb	r6, {r0, r8, sl, fp, ip, lr}
    23ac:	02c60100 	sbceq	r0, r6, #0	; 0x0
    23b0:	000000c9 	andeq	r0, r0, r9, asr #1
    23b4:	10005001 	andne	r5, r0, r1
    23b8:	000005c6 	andeq	r0, r0, r6, asr #11
    23bc:	00088401 	andeq	r8, r8, r1, lsl #8
    23c0:	02380100 	eoreqs	r0, r8, #0	; 0x0
    23c4:	0000c901 	andeq	ip, r0, r1, lsl #18
    23c8:	002d1800 	eoreq	r1, sp, r0, lsl #16
    23cc:	002d7c30 	eoreq	r7, sp, r0, lsr ip
    23d0:	155d0130 	ldrneb	r0, [sp, #-304]
    23d4:	39010069 	stmccdb	r1, {r0, r3, r5, r6}
    23d8:	00016602 	andeq	r6, r1, r2, lsl #12
    23dc:	00540100 	subeqs	r0, r4, r0, lsl #2
    23e0:	0005fb19 	andeq	pc, r5, r9, lsl fp
    23e4:	01100100 	tsteq	r0, r0, lsl #2
    23e8:	7f010000 	swivc	0x00010000
    23ec:	00000094 	muleq	r0, r4, r0
    23f0:	30002d7c 	andcc	r2, r0, ip, ror sp
    23f4:	30003120 	andcc	r3, r0, r0, lsr #2
    23f8:	691a5d01 	ldmvsdb	sl, {r0, r8, sl, fp, ip, lr}
    23fc:	66800100 	strvs	r0, [r0], r0, lsl #2
    2400:	01000001 	tsteq	r0, r1
    2404:	09010c5c 	stmeqdb	r1, {r2, r3, r4, r6, sl, fp}
    2408:	01000001 	tsteq	r0, r1
    240c:	00016649 	andeq	r6, r1, r9, asr #12
    2410:	000d0100 	andeq	r0, sp, r0, lsl #2
    2414:	06cb1900 	streqb	r1, [fp], r0, lsl #18
    2418:	0e010000 	cdpeq	0, 0, cr0, cr1, cr0, {0}
    241c:	01000008 	tsteq	r0, r8
    2420:	00016644 	andeq	r6, r1, r4, asr #12
    2424:	00312000 	eoreqs	r2, r1, r0
    2428:	00326030 	eoreqs	r6, r2, r0, lsr r0
    242c:	1a5d0130 	bne	17428f4 <DISABLE_IRQ+0x1742874>
    2430:	45010069 	strmi	r0, [r1, #-105]
    2434:	000000c9 	andeq	r0, r0, r9, asr #1
    2438:	3d0b5401 	cfstrscc	mvf5, [fp, #-4]
    243c:	30000006 	andcc	r0, r0, r6
    2440:	3c300031 	ldccc	0, cr0, [r0], #-196
    2444:	0c300031 	ldceq	0, cr0, [r0], #-196
    2448:	00010901 	andeq	r0, r1, r1, lsl #18
    244c:	66490100 	strvsb	r0, [r9], -r0, lsl #2
    2450:	01000001 	tsteq	r0, r1
    2454:	0b00000d 	bleq	2490 <DISABLE_IRQ+0x2410>
    2458:	0000065a 	andeq	r0, r0, sl, asr r6
    245c:	30003180 	andcc	r3, r0, r0, lsl #3
    2460:	30003188 	andcc	r3, r0, r8, lsl #3
    2464:	0109010c 	tsteq	r9, ip, lsl #2
    2468:	49010000 	stmmidb	r1, {}
    246c:	00000166 	andeq	r0, r0, r6, ror #2
    2470:	00000d01 	andeq	r0, r0, r1, lsl #26
    2474:	0006770b 	andeq	r7, r6, fp, lsl #14
    2478:	0031a000 	eoreqs	sl, r1, r0
    247c:	00321030 	eoreqs	r1, r2, r0, lsr r0
    2480:	09010c30 	stmeqdb	r1, {r4, r5, sl, fp}
    2484:	01000001 	tsteq	r0, r1
    2488:	00016649 	andeq	r6, r1, r9, asr #12
    248c:	000d0100 	andeq	r0, sp, r0, lsl #2
    2490:	06940b00 	ldreq	r0, [r4], r0, lsl #22
    2494:	32140000 	andccs	r0, r4, #0	; 0x0
    2498:	32183000 	andccs	r3, r8, #0	; 0x0
    249c:	010c3000 	tsteq	ip, r0
    24a0:	00000109 	andeq	r0, r0, r9, lsl #2
    24a4:	01664901 	cmneq	r6, r1, lsl #18
    24a8:	0d010000 	stceq	0, cr0, [r1]
    24ac:	b10b0000 	tstlt	fp, r0
    24b0:	18000006 	stmneda	r0, {r1, r2}
    24b4:	2c300032 	ldccs	0, cr0, [r0], #-200
    24b8:	0c300032 	ldceq	0, cr0, [r0], #-200
    24bc:	00010901 	andeq	r0, r1, r1, lsl #18
    24c0:	66490100 	strvsb	r0, [r9], -r0, lsl #2
    24c4:	01000001 	tsteq	r0, r1
    24c8:	0e00000d 	cdpeq	0, 0, cr0, cr0, cr13, {0}
    24cc:	3000322c 	andcc	r3, r0, ip, lsr #4
    24d0:	30003260 	andcc	r3, r0, r0, ror #4
    24d4:	0109010c 	tsteq	r9, ip, lsl #2
    24d8:	49010000 	stmmidb	r1, {}
    24dc:	00000166 	andeq	r0, r0, r6, ror #2
    24e0:	00000d01 	andeq	r0, r0, r1, lsl #26
    24e4:	06dc0500 	ldreqb	r0, [ip], r0, lsl #10
    24e8:	00940000 	addeqs	r0, r4, r0
    24ec:	b21b0000 	andlts	r0, fp, #0	; 0x0
    24f0:	ff000000 	swinv	0x00000000
    24f4:	1d1c0001 	ldcne	0, cr0, [ip, #-4]
    24f8:	01000008 	tsteq	r0, r8
    24fc:	0006cb3f 	andeq	ip, r6, pc, lsr fp
    2500:	03050100 	tsteq	r5, #0	; 0x0
    2504:	3000c264 	andcc	ip, r0, r4, ror #4
    2508:	0008301c 	andeq	r3, r8, ip, lsl r0
    250c:	cb400100 	blgt	1002914 <DISABLE_IRQ+0x1002894>
    2510:	01000006 	tsteq	r0, r6
    2514:	c0640305 	rsbgt	r0, r4, r5, lsl #6
    2518:	741c3000 	ldrvc	r3, [ip]
    251c:	01000008 	tsteq	r0, r8
    2520:	00002541 	andeq	r2, r0, r1, asr #10
    2524:	03050100 	tsteq	r5, #0	; 0x0
    2528:	3000c464 	andcc	ip, r0, r4, ror #8
    252c:	00004200 	andeq	r4, r0, r0, lsl #4
    2530:	6c000200 	sfmvs	f0, 4, [r0], {0}
    2534:	0400000b 	streq	r0, [r0], #-11
    2538:	000bae01 	andeq	sl, fp, r1, lsl #28
    253c:	00326000 	eoreqs	r6, r2, r0
    2540:	00338c30 	eoreqs	r8, r3, r0, lsr ip
    2544:	76696430 	undefined
    2548:	532e3436 	teqpl	lr, #905969664	; 0x36000000
    254c:	6e6d2f00 	cdpvs	15, 6, cr2, cr13, cr0, {0}
    2550:	67682f74 	undefined
    2554:	412f7366 	teqmi	pc, r6, ror #6
    2558:	706d7973 	rsbvc	r7, sp, r3, ror r9
    255c:	65746f74 	ldrvsb	r6, [r4, #-3956]!
    2560:	62696c2f 	rsbvs	r6, r9, #12032	; 0x2f00
    2564:	554e4700 	strplb	r4, [lr, #-1792]
    2568:	20534120 	subcss	r4, r3, r0, lsr #2
    256c:	35312e32 	ldrcc	r2, [r1, #-3634]!
    2570:	46800100 	strmi	r0, [r0], r0, lsl #2
    2574:	02000000 	andeq	r0, r0, #0	; 0x0
    2578:	000b8000 	andeq	r8, fp, r0
    257c:	32010400 	andcc	r0, r1, #0	; 0x0
    2580:	9000000c 	andls	r0, r0, ip
    2584:	40300033 	eormis	r0, r0, r3, lsr r0
    2588:	6c300037 	ldcvs	0, cr0, [r0], #-220
    258c:	66316269 	ldrvst	r6, [r1], -r9, ror #4
    2590:	73636e75 	cmnvc	r3, #1872	; 0x750
    2594:	2f00532e 	swics	0x0000532e
    2598:	2f746e6d 	swics	0x00746e6d
    259c:	73666768 	cmnvc	r6, #27262976	; 0x1a00000
    25a0:	7973412f 	ldmvcdb	r3!, {r0, r1, r2, r3, r5, r8, lr}^
    25a4:	6f74706d 	swivs	0x0074706d
    25a8:	6c2f6574 	cfstr32vs	mvfx6, [pc], #-464
    25ac:	47006269 	strmi	r6, [r0, -r9, ror #4]
    25b0:	4120554e 	teqmi	r0, lr, asr #10
    25b4:	2e322053 	mrccs	0, 1, r2, cr2, cr3, {2}
    25b8:	01003531 	tsteq	r0, r1, lsr r5
    25bc:	00005280 	andeq	r5, r0, r0, lsl #5
    25c0:	94000200 	strls	r0, [r0], #-512
    25c4:	0400000b 	streq	r0, [r0], #-11
    25c8:	000cdf01 	andeq	sp, ip, r1, lsl #30
    25cc:	00374000 	eoreqs	r4, r7, r0
    25d0:	00374030 	eoreqs	r4, r7, r0, lsr r0
    25d4:	00000930 	andeq	r0, r0, r0, lsr r9
    25d8:	08da0100 	ldmeqia	sl, {r8}^
    25dc:	08e20000 	stmeqia	r2!, {}^
    25e0:	35020000 	strcc	r0, [r2]
    25e4:	3c000000 	stccc	0, cr0, [r0], {0}
    25e8:	03000000 	tsteq	r0, #0	; 0x0
    25ec:	00000035 	andeq	r0, r0, r5, lsr r0
    25f0:	1a0400ff 	bne	1029f4 <DISABLE_IRQ+0x102974>
    25f4:	04000009 	streq	r0, [r0], #-9
    25f8:	009e0407 	addeqs	r0, lr, r7, lsl #8
    25fc:	08010000 	stmeqda	r1, {}
    2600:	00010205 	andeq	r0, r1, r5, lsl #4
    2604:	25090100 	strcs	r0, [r9, #-256]
    2608:	01000000 	tsteq	r0, r0
    260c:	5df00305 	ldcpll	3, cr0, [r0, #20]!
    2610:	5f003000 	swipl	0x00003000
    2614:	02000001 	andeq	r0, r0, #1	; 0x1
    2618:	000bd600 	andeq	sp, fp, r0, lsl #12
    261c:	04010400 	streq	r0, [r1], #-1024
    2620:	9000000d 	andls	r0, r0, sp
    2624:	40300037 	eormis	r0, r0, r7, lsr r0
    2628:	09300037 	ldmeqdb	r0!, {r0, r1, r2, r4, r5}
    262c:	01000000 	tsteq	r0, r0
    2630:	00000953 	andeq	r0, r0, r3, asr r9
    2634:	000008e2 	andeq	r0, r0, r2, ror #17
    2638:	00009e02 	andeq	r9, r0, r2, lsl #28
    263c:	03080100 	tsteq	r8, #0	; 0x0
    2640:	0000093b 	andeq	r0, r0, fp, lsr r9
    2644:	00370802 	eoreqs	r0, r7, r2, lsl #16
    2648:	69040000 	stmvsdb	r4, {}
    264c:	0400746e 	streq	r7, [r0], #-1134
    2650:	093a0305 	ldmeqdb	sl!, {r0, r2, r8, r9}
    2654:	09020000 	stmeqdb	r2, {}
    2658:	00000049 	andeq	r0, r0, r9, asr #32
    265c:	00091a02 	andeq	r1, r9, r2, lsl #20
    2660:	03070400 	tsteq	r7, #0	; 0x0
    2664:	0000094c 	andeq	r0, r0, ip, asr #18
    2668:	005b0a02 	subeqs	r0, fp, r2, lsl #20
    266c:	2c020000 	stccs	0, cr0, [r2], {0}
    2670:	08000009 	stmeqda	r0, {r0, r3}
    2674:	09100205 	ldmeqdb	r0, {r0, r2, r9}
    2678:	07080000 	streq	r0, [r8, -r0]
    267c:	00009205 	andeq	r9, r0, r5, lsl #4
    2680:	00090200 	andeq	r0, r9, r0, lsl #4
    2684:	11020800 	tstne	r2, r0, lsl #16
    2688:	776f6c06 	strvcb	r6, [pc, -r6, lsl #24]!
    268c:	2c110200 	lfmcs	f0, 4, [r1], {0}
    2690:	02000000 	andeq	r0, r0, #0	; 0x0
    2694:	0b070023 	bleq	1c2728 <DISABLE_IRQ+0x1c26a8>
    2698:	02000009 	andeq	r0, r0, #9	; 0x9
    269c:	00002c11 	andeq	r2, r0, r1, lsl ip
    26a0:	04230200 	streqt	r0, [r3], #-512
    26a4:	00ae0800 	adceq	r0, lr, r0, lsl #16
    26a8:	02080000 	andeq	r0, r8, #0	; 0x0
    26ac:	00730918 	rsbeqs	r0, r3, r8, lsl r9
    26b0:	00691602 	rsbeq	r1, r9, r2, lsl #12
    26b4:	6c090000 	stcvs	0, cr0, [r9], {0}
    26b8:	1702006c 	strne	r0, [r2, -ip, rrx]
    26bc:	00000050 	andeq	r0, r0, r0, asr r0
    26c0:	08fa0300 	ldmeqia	sl!, {r8, r9}^
    26c4:	18020000 	stmneda	r2, {}
    26c8:	00000092 	muleq	r0, r2, r0
    26cc:	095c010a 	ldmeqdb	ip, {r1, r3, r8}^
    26d0:	40010000 	andmi	r0, r1, r0
    26d4:	00005001 	andeq	r5, r0, r1
    26d8:	00374000 	eoreqs	r4, r7, r0
    26dc:	00379030 	eoreqs	r9, r7, r0, lsr r0
    26e0:	0b5d0130 	bleq	1742ba8 <DISABLE_IRQ+0x1742b28>
    26e4:	3f010075 	swicc	0x00010075
    26e8:	00000050 	andeq	r0, r0, r0, asr r0
    26ec:	04935006 	ldreq	r5, [r3], #6
    26f0:	0b049351 	bleq	12743c <DISABLE_IRQ+0x1273bc>
    26f4:	3f010076 	swicc	0x00010076
    26f8:	00000050 	andeq	r0, r0, r0, asr r0
    26fc:	04935206 	ldreq	r5, [r3], #518
    2700:	0c049353 	stceq	3, cr9, [r4], {83}
    2704:	41010077 	tstmi	r1, r7, ror r0
    2708:	000000ae 	andeq	r0, r0, lr, lsr #1
    270c:	04935006 	ldreq	r5, [r3], #6
    2710:	0d049351 	stceq	3, cr9, [r4, #-324]
    2714:	01007575 	tsteq	r0, r5, ror r5
    2718:	0000ae42 	andeq	sl, r0, r2, asr #28
    271c:	76760d00 	ldrvcbt	r0, [r6], -r0, lsl #26
    2720:	ae420100 	dvfges	f0, f2, f0
    2724:	0e000000 	cdpeq	0, 0, cr0, cr0, cr0, {0}
    2728:	3000374c 	andcc	r3, r0, ip, asr #14
    272c:	30003780 	andcc	r3, r0, r0, lsl #15
    2730:	775f5f0c 	ldrvcb	r5, [pc, -ip, lsl #30]
    2734:	ae470100 	dvfges	f0, f7, f0
    2738:	06000000 	streq	r0, [r0], -r0
    273c:	55049354 	strpl	r9, [r4, #-852]
    2740:	4c0e0493 	cfstrsmi	mvf0, [lr], {147}
    2744:	80300037 	eorhis	r0, r0, r7, lsr r0
    2748:	0f300037 	swieq	0x00300037
    274c:	00000942 	andeq	r0, r0, r2, asr #18
    2750:	003e4701 	eoreqs	r4, lr, r1, lsl #14
    2754:	58010000 	stmplda	r1, {}
    2758:	0009470f 	andeq	r4, r9, pc, lsl #14
    275c:	3e470100 	dvfccs	f0, f7, f0
    2760:	01000000 	tsteq	r0, r0
    2764:	09270f57 	stmeqdb	r7!, {r0, r1, r2, r4, r6, r8, r9, sl, fp}
    2768:	47010000 	strmi	r0, [r1, -r0]
    276c:	0000003e 	andeq	r0, r0, lr, lsr r0
    2770:	00005601 	andeq	r5, r0, r1, lsl #12
    2774:	012e0000 	teqeq	lr, r0
    2778:	00020000 	andeq	r0, r2, r0
    277c:	00000cae 	andeq	r0, r0, lr, lsr #25
    2780:	0d710104 	ldfeqe	f0, [r1, #-16]!
    2784:	38400000 	stmccda	r0, {}^
    2788:	37903000 	ldrcc	r3, [r0, r0]
    278c:	00093000 	andeq	r3, r9, r0
    2790:	08010000 	stmeqda	r1, {}
    2794:	e200000b 	and	r0, r0, #11	; 0xb
    2798:	02000008 	andeq	r0, r0, #8	; 0x8
    279c:	0000091a 	andeq	r0, r0, sl, lsl r9
    27a0:	65030704 	strvs	r0, [r3, #-1796]
    27a4:	02000009 	andeq	r0, r0, #9	; 0x9
    27a8:	0000370e 	andeq	r3, r0, lr, lsl #14
    27ac:	3d040400 	cfstrscc	mvf0, [r4]
    27b0:	02000000 	andeq	r0, r0, #0	; 0x0
    27b4:	000000a7 	andeq	r0, r0, r7, lsr #1
    27b8:	92050801 	andls	r0, r5, #65536	; 0x10000
    27bc:	01000000 	tsteq	r0, r0
    27c0:	00000109 	andeq	r0, r0, r9, lsl #2
    27c4:	92011101 	andls	r1, r1, #1073741824	; 0x40000000
    27c8:	90000000 	andls	r0, r0, r0
    27cc:	e8300037 	ldmda	r0!, {r0, r1, r2, r4, r5}
    27d0:	01300037 	teqeq	r0, r7, lsr r0
    27d4:	6d66065d 	stcvsl	6, cr0, [r6, #-372]!
    27d8:	10010074 	andne	r0, r1, r4, ror r0
    27dc:	00000099 	muleq	r0, r9, r0
    27e0:	07109102 	ldreq	r9, [r0, -r2, lsl #2]
    27e4:	01006908 	tsteq	r0, r8, lsl #18
    27e8:	00009212 	andeq	r9, r0, r2, lsl r2
    27ec:	08540100 	ldmeqda	r4, {r8}^
    27f0:	006e656c 	rsbeq	r6, lr, ip, ror #10
    27f4:	00921301 	addeqs	r1, r2, r1, lsl #6
    27f8:	56010000 	strpl	r0, [r1], -r0
    27fc:	00023409 	andeq	r3, r2, r9, lsl #8
    2800:	2c140100 	ldfcss	f0, [r4], {0}
    2804:	00000000 	andeq	r0, r0, r0
    2808:	746e690a 	strvcbt	r6, [lr], #-2314
    280c:	04050400 	streq	r0, [r5], #-1024
    2810:	00009f04 	andeq	r9, r0, r4, lsl #30
    2814:	003d0b00 	eoreqs	r0, sp, r0, lsl #22
    2818:	f0050000 	andnv	r0, r5, r0
    281c:	01000000 	tsteq	r0, r0
    2820:	00000ae4 	andeq	r0, r0, r4, ror #21
    2824:	92012301 	andls	r2, r1, #67108864	; 0x4000000
    2828:	e8000000 	stmda	r0, {}
    282c:	40300037 	eormis	r0, r0, r7, lsr r0
    2830:	01300038 	teqeq	r0, r8, lsr r0
    2834:	6d66065d 	stcvsl	6, cr0, [r6, #-372]!
    2838:	22010074 	andcs	r0, r1, #116	; 0x74
    283c:	00000099 	muleq	r0, r9, r0
    2840:	070c9102 	streq	r9, [ip, -r2, lsl #2]
    2844:	01006908 	tsteq	r0, r8, lsl #18
    2848:	00009224 	andeq	r9, r0, r4, lsr #4
    284c:	08540100 	ldmeqda	r4, {r8}^
    2850:	25010063 	strcs	r0, [r1, #-99]
    2854:	000000f0 	streqd	r0, [r0], -r0
    2858:	34095001 	strcc	r5, [r9], #-1
    285c:	01000002 	tsteq	r0, r2
    2860:	00002c26 	andeq	r2, r0, r6, lsr #24
    2864:	9e020000 	cdpls	0, 0, cr0, cr2, cr0, {0}
    2868:	01000000 	tsteq	r0, r0
    286c:	01080c08 	tsteq	r8, r8, lsl #24
    2870:	00f00000 	rsceqs	r0, r0, r0
    2874:	080d0000 	stmeqda	sp, {}
    2878:	ff000001 	swinv	0x00000001
    287c:	1a020003 	bne	82890 <DISABLE_IRQ+0x82810>
    2880:	04000009 	streq	r0, [r0], #-9
    2884:	04400e07 	streqb	r0, [r0], #-3591
    2888:	0c010000 	stceq	0, cr0, [r1], {0}
    288c:	000000f7 	streqd	r0, [r0], -r7
    2890:	a6f40305 	ldrgebt	r0, [r4], r5, lsl #6
    2894:	4b0e3000 	blmi	38e89c <DISABLE_IRQ+0x38e81c>
    2898:	01000004 	tsteq	r0, r4
    289c:	0000f70d 	andeq	pc, r0, sp, lsl #14
    28a0:	f4030500 	strnv	r0, [r3], #-1280
    28a4:	003000aa 	eoreqs	r0, r0, sl, lsr #1
    28a8:	00000802 	andeq	r0, r0, r2, lsl #16
    28ac:	0d5f0002 	ldceql	0, cr0, [pc, #-8]
    28b0:	01040000 	tsteq	r4, r0
    28b4:	00000dd2 	ldreqd	r0, [r0], -r2
    28b8:	30003df8 	strccd	r3, [r0], -r8
    28bc:	30003840 	andcc	r3, r0, r0, asr #16
    28c0:	00000009 	andeq	r0, r0, r9
    28c4:	0009ae01 	andeq	sl, r9, r1, lsl #28
    28c8:	0008e200 	andeq	lr, r8, r0, lsl #4
    28cc:	09830200 	stmeqib	r3, {r9}
    28d0:	0b030000 	bleq	c28d8 <DISABLE_IRQ+0xc2858>
    28d4:	00000030 	andeq	r0, r0, r0, lsr r0
    28d8:	00091a03 	andeq	r1, r9, r3, lsl #20
    28dc:	04070400 	streq	r0, [r7], #-1024
    28e0:	000000be 	streqh	r0, [r0], -lr
    28e4:	000a2f01 	andeq	r2, sl, r1, lsl #30
    28e8:	011f0100 	tsteq	pc, r0, lsl #2
    28ec:	000000be 	streqh	r0, [r0], -lr
    28f0:	30003840 	andcc	r3, r0, r0, asr #16
    28f4:	300038cc 	andcc	r3, r0, ip, asr #17
    28f8:	73055d01 	tstvc	r5, #64	; 0x40
    28fc:	1e010031 	mcrne	0, 0, r0, cr1, cr1, {1}
    2900:	000000c5 	andeq	r0, r0, r5, asr #1
    2904:	73055701 	tstvc	r5, #262144	; 0x40000
    2908:	1e010032 	mcrne	0, 0, r0, cr1, cr2, {1}
    290c:	000000c5 	andeq	r0, r0, r5, asr #1
    2910:	6c055601 	stcvs	6, cr5, [r5], {1}
    2914:	01006e65 	tsteq	r0, r5, ror #28
    2918:	0000251e 	andeq	r2, r0, lr, lsl r5
    291c:	06520100 	ldreqb	r0, [r2], -r0, lsl #2
    2920:	01003163 	tsteq	r0, r3, ror #2
    2924:	0000d721 	andeq	sp, r0, r1, lsr #14
    2928:	065e0100 	ldreqb	r0, [lr], -r0, lsl #2
    292c:	01003263 	tsteq	r0, r3, ror #4
    2930:	0000d721 	andeq	sp, r0, r1, lsr #14
    2934:	075c0100 	ldreqb	r0, [ip, -r0, lsl #2]
    2938:	000000a8 	andeq	r0, r0, r8, lsr #1
    293c:	000000de 	ldreqd	r0, [r0], -lr
    2940:	30003864 	andcc	r3, r0, r4, ror #16
    2944:	30003868 	andcc	r3, r0, r8, ror #16
    2948:	0000ef08 	andeq	lr, r0, r8, lsl #30
    294c:	00510100 	subeqs	r0, r1, r0, lsl #2
    2950:	0000de09 	andeq	sp, r0, r9, lsl #28
    2954:	00387800 	eoreqs	r7, r8, r0, lsl #16
    2958:	00387c30 	eoreqs	r7, r8, r0, lsr ip
    295c:	00ef0830 	rsceq	r0, pc, r0, lsr r8
    2960:	54010000 	strpl	r0, [r1]
    2964:	690a0000 	stmvsdb	sl, {}
    2968:	0400746e 	streq	r7, [r0], #-1134
    296c:	cb040b05 	blgt	105588 <DISABLE_IRQ+0x105508>
    2970:	0c000000 	stceq	0, cr0, [r0], {0}
    2974:	000000d0 	ldreqd	r0, [r0], -r0
    2978:	0000a703 	andeq	sl, r0, r3, lsl #14
    297c:	03070100 	tsteq	r7, #0	; 0x0
    2980:	0000009e 	muleq	r0, lr, r0
    2984:	f90d0801 	stmnvdb	sp, {r0, fp}
    2988:	b7000000 	strlt	r0, [r0, -r0]
    298c:	02000009 	andeq	r0, r0, #9	; 0x9
    2990:	00d70123 	sbceqs	r0, r7, r3, lsr #2
    2994:	0e030000 	cdpeq	0, 0, cr0, cr3, cr0, {0}
    2998:	22020063 	andcs	r0, r2, #99	; 0x63
    299c:	000000d7 	ldreqd	r0, [r0], -r7
    29a0:	013c0400 	teqeq	ip, r0, lsl #8
    29a4:	d1010000 	tstle	r1, r0
    29a8:	01000009 	tsteq	r0, r9
    29ac:	013c0141 	teqeq	ip, r1, asr #2
    29b0:	38cc0000 	stmccia	ip, {}^
    29b4:	38e83000 	stmccia	r8!, {ip, sp}^
    29b8:	5d013000 	stcpl	0, cr3, [r1]
    29bc:	0002c10f 	andeq	ip, r2, pc, lsl #2
    29c0:	3c400100 	stfcce	f0, [r0], {0}
    29c4:	01000001 	tsteq	r0, r1
    29c8:	72730550 	rsbvcs	r0, r3, #335544320	; 0x14000000
    29cc:	40010063 	andmi	r0, r1, r3, rrx
    29d0:	000000c5 	andeq	r0, r0, r5, asr #1
    29d4:	74065101 	strvc	r5, [r6], #-257
    29d8:	0100706d 	tsteq	r0, sp, rrx
    29dc:	00013c42 	andeq	r3, r1, r2, asr #24
    29e0:	00520100 	subeqs	r0, r2, r0, lsl #2
    29e4:	00d0040b 	sbceqs	r0, r0, fp, lsl #8
    29e8:	92040000 	andls	r0, r4, #0	; 0x0
    29ec:	01000001 	tsteq	r0, r1
    29f0:	000009df 	ldreqd	r0, [r0], -pc
    29f4:	3c015601 	stccc	6, cr5, [r1], {1}
    29f8:	e8000001 	stmda	r0, {r0}
    29fc:	0c300038 	ldceq	0, cr0, [r0], #-224
    2a00:	01300039 	teqeq	r0, r9, lsr r0
    2a04:	02c10f5d 	sbceq	r0, r1, #372	; 0x174
    2a08:	55010000 	strpl	r0, [r1]
    2a0c:	0000013c 	andeq	r0, r0, ip, lsr r1
    2a10:	73055001 	tstvc	r5, #1	; 0x1
    2a14:	01006372 	tsteq	r0, r2, ror r3
    2a18:	0000c555 	andeq	ip, r0, r5, asr r5
    2a1c:	0f510100 	swieq	0x00510100
    2a20:	00000691 	muleq	r0, r1, r6
    2a24:	00255501 	eoreq	r5, r5, r1, lsl #10
    2a28:	52010000 	andpl	r0, r1, #0	; 0x0
    2a2c:	706d7406 	rsbvc	r7, sp, r6, lsl #8
    2a30:	3c570100 	ldfcce	f0, [r7], {0}
    2a34:	01000001 	tsteq	r0, r1
    2a38:	d504005c 	strle	r0, [r4, #-92]
    2a3c:	01000001 	tsteq	r0, r1
    2a40:	000009d8 	ldreqd	r0, [r0], -r8
    2a44:	3c016701 	stccc	7, cr6, [r1], {1}
    2a48:	0c000001 	stceq	0, cr0, [r0], {1}
    2a4c:	3c300039 	ldccc	0, cr0, [r0], #-228
    2a50:	01300039 	teqeq	r0, r9, lsr r0
    2a54:	02c10f5d 	sbceq	r0, r1, #372	; 0x174
    2a58:	66010000 	strvs	r0, [r1], -r0
    2a5c:	0000013c 	andeq	r0, r0, ip, lsr r1
    2a60:	73055001 	tstvc	r5, #1	; 0x1
    2a64:	01006372 	tsteq	r0, r2, ror r3
    2a68:	0000c566 	andeq	ip, r0, r6, ror #10
    2a6c:	06510100 	ldreqb	r0, [r1], -r0, lsl #2
    2a70:	00706d74 	rsbeqs	r6, r0, r4, ror sp
    2a74:	013c6801 	teqeq	ip, r1, lsl #16
    2a78:	52010000 	andpl	r0, r1, #0	; 0x0
    2a7c:	02250400 	eoreq	r0, r5, #0	; 0x0
    2a80:	f6010000 	strnv	r0, [r1], -r0
    2a84:	01000009 	tsteq	r0, r9
    2a88:	013c017e 	teqeq	ip, lr, ror r1
    2a8c:	393c0000 	ldmccdb	ip!, {}
    2a90:	39803000 	stmccib	r0, {ip, sp}
    2a94:	5d013000 	stcpl	0, cr3, [r1]
    2a98:	0002c10f 	andeq	ip, r2, pc, lsl #2
    2a9c:	3c7d0100 	ldfcce	f0, [sp]
    2aa0:	01000001 	tsteq	r0, r1
    2aa4:	72730550 	rsbvcs	r0, r3, #335544320	; 0x14000000
    2aa8:	7d010063 	stcvc	0, cr0, [r1, #-396]
    2aac:	000000c5 	andeq	r0, r0, r5, asr #1
    2ab0:	910f5101 	tstls	pc, r1, lsl #2
    2ab4:	01000006 	tsteq	r0, r6
    2ab8:	0000257d 	andeq	r2, r0, sp, ror r5
    2abc:	06520100 	ldreqb	r0, [r2], -r0, lsl #2
    2ac0:	00706d74 	rsbeqs	r6, r0, r4, ror sp
    2ac4:	013c7f01 	teqeq	ip, r1, lsl #30
    2ac8:	5c010000 	stcpl	0, cr0, [r1], {0}
    2acc:	02660400 	rsbeq	r0, r6, #0	; 0x0
    2ad0:	13010000 	tstne	r1, #0	; 0x0
    2ad4:	0100000a 	tsteq	r0, sl
    2ad8:	00be0197 	umlaleqs	r0, lr, r7, r1
    2adc:	39800000 	stmccib	r0, {}
    2ae0:	39b03000 	ldmccib	r0!, {ip, sp}
    2ae4:	5d013000 	stcpl	0, cr3, [r1]
    2ae8:	00736305 	rsbeqs	r6, r3, r5, lsl #6
    2aec:	00c59601 	sbceq	r9, r5, r1, lsl #12
    2af0:	50010000 	andpl	r0, r1, r0
    2af4:	00746305 	rsbeqs	r6, r4, r5, lsl #6
    2af8:	00c59601 	sbceq	r9, r5, r1, lsl #12
    2afc:	51010000 	tstpl	r1, r0
    2b00:	000a3810 	andeq	r3, sl, r0, lsl r8
    2b04:	66980100 	ldrvs	r0, [r8], r0, lsl #2
    2b08:	01000002 	tsteq	r0, r2
    2b0c:	a0030053 	andge	r0, r3, r3, asr r0
    2b10:	01000000 	tsteq	r0, r0
    2b14:	02bb0406 	adceqs	r0, fp, #100663296	; 0x6000000
    2b18:	3e010000 	cdpcc	0, 0, cr0, cr1, cr0, {0}
    2b1c:	0100000a 	tsteq	r0, sl
    2b20:	00be01ab 	adceqs	r0, lr, fp, lsr #3
    2b24:	39b00000 	ldmccib	r0!, {}
    2b28:	39f83000 	ldmccib	r8!, {ip, sp}^
    2b2c:	5d013000 	stcpl	0, cr3, [r1]
    2b30:	00736305 	rsbeqs	r6, r3, r5, lsl #6
    2b34:	00c5aa01 	sbceq	sl, r5, r1, lsl #20
    2b38:	50010000 	andpl	r0, r1, r0
    2b3c:	00746305 	rsbeqs	r6, r4, r5, lsl #6
    2b40:	00c5aa01 	sbceq	sl, r5, r1, lsl #20
    2b44:	51010000 	tstpl	r1, r0
    2b48:	0006910f 	andeq	r9, r6, pc, lsl #2
    2b4c:	25aa0100 	strcs	r0, [sl, #256]!
    2b50:	01000000 	tsteq	r0, r0
    2b54:	0a381052 	beq	e06ca4 <DISABLE_IRQ+0xe06c24>
    2b58:	ac010000 	stcge	0, cr0, [r1], {0}
    2b5c:	00000266 	andeq	r0, r0, r6, ror #4
    2b60:	04005301 	streq	r5, [r0], #-769
    2b64:	000002ed 	andeq	r0, r0, sp, ror #5
    2b68:	00098a01 	andeq	r8, r9, r1, lsl #20
    2b6c:	01bf0100 	moveqs	r0, r0, lsl #2
    2b70:	0000013c 	andeq	r0, r0, ip, lsr r1
    2b74:	300039f8 	strccd	r3, [r0], -r8
    2b78:	30003a2c 	andcc	r3, r0, ip, lsr #20
    2b7c:	73055d01 	tstvc	r5, #64	; 0x40
    2b80:	c5be0100 	ldrgt	r0, [lr, #256]!
    2b84:	01000000 	tsteq	r0, r0
    2b88:	00630553 	rsbeq	r0, r3, r3, asr r5
    2b8c:	00bebe01 	adceqs	fp, lr, r1, lsl #28
    2b90:	51010000 	tstpl	r1, r0
    2b94:	03200400 	teqeq	r0, #0	; 0x0
    2b98:	5d010000 	stcpl	0, cr0, [r1]
    2b9c:	01000000 	tsteq	r0, r0
    2ba0:	002501de 	ldreqd	r0, [r5], -lr
    2ba4:	3a2c0000 	bcc	b02bac <DISABLE_IRQ+0xb02b2c>
    2ba8:	3a503000 	bcc	140ebb0 <DISABLE_IRQ+0x140eb30>
    2bac:	5d013000 	stcpl	0, cr3, [r1]
    2bb0:	01007305 	tsteq	r0, r5, lsl #6
    2bb4:	0000c5dd 	ldreqd	ip, [r0], -sp
    2bb8:	06520100 	ldreqb	r0, [r2], -r0, lsl #2
    2bbc:	01006373 	tsteq	r0, r3, ror r3
    2bc0:	0000c5df 	ldreqd	ip, [r0], -pc
    2bc4:	00500100 	subeqs	r0, r0, r0, lsl #2
    2bc8:	00035d04 	andeq	r5, r3, r4, lsl #26
    2bcc:	0a460100 	beq	1182fd4 <DISABLE_IRQ+0x1182f54>
    2bd0:	ce010000 	cdpgt	0, 0, cr0, cr1, cr0, {0}
    2bd4:	00013c01 	andeq	r3, r1, r1, lsl #24
    2bd8:	003a5000 	eoreqs	r5, sl, r0
    2bdc:	003a8830 	eoreqs	r8, sl, r0, lsr r8
    2be0:	055d0130 	ldreqb	r0, [sp, #-304]
    2be4:	cd010073 	stcgt	0, cr0, [r1, #-460]
    2be8:	000000c5 	andeq	r0, r0, r5, asr #1
    2bec:	63055501 	tstvs	r5, #4194304	; 0x400000
    2bf0:	becd0100 	pollte	f0, f5, f0
    2bf4:	01000000 	tsteq	r0, r0
    2bf8:	00700654 	rsbeqs	r0, r0, r4, asr r6
    2bfc:	00c5cf01 	sbceq	ip, r5, r1, lsl #30
    2c00:	50010000 	andpl	r0, r1, r0
    2c04:	039d0400 	orreqs	r0, sp, #0	; 0x0
    2c08:	03010000 	tsteq	r1, #0	; 0x0
    2c0c:	0100000a 	tsteq	r0, sl
    2c10:	002501ee 	eoreq	r0, r5, lr, ror #3
    2c14:	3a880000 	bcc	fe202c1c <CLKDIVN+0xb2202c08>
    2c18:	3ac83000 	bcc	ff20ec20 <CLKDIVN+0xb320ec0c>
    2c1c:	5d013000 	stcpl	0, cr3, [r1]
    2c20:	01007305 	tsteq	r0, r5, lsl #6
    2c24:	0000c5ed 	andeq	ip, r0, sp, ror #11
    2c28:	0f520100 	swieq	0x00520100
    2c2c:	00000691 	muleq	r0, r1, r6
    2c30:	0025ed01 	eoreq	lr, r5, r1, lsl #26
    2c34:	51010000 	tstpl	r1, r0
    2c38:	00637306 	rsbeq	r7, r3, r6, lsl #6
    2c3c:	00c5ef01 	sbceq	lr, r5, r1, lsl #30
    2c40:	50010000 	andpl	r0, r1, r0
    2c44:	03f70400 	mvneqs	r0, #0	; 0x0
    2c48:	28010000 	stmcsda	r1, {}
    2c4c:	0100000a 	tsteq	r0, sl
    2c50:	002501ff 	streqd	r0, [r5], -pc
    2c54:	3ac80000 	bcc	ff202c5c <CLKDIVN+0xb3202c48>
    2c58:	3b3c3000 	blcc	f0ec60 <DISABLE_IRQ+0xf0ebe0>
    2c5c:	5d013000 	stcpl	0, cr3, [r1]
    2c60:	01007305 	tsteq	r0, r5, lsl #6
    2c64:	0000c5fe 	streqd	ip, [r0], -lr
    2c68:	0f500100 	swieq	0x00500100
    2c6c:	0000097c 	andeq	r0, r0, ip, ror r9
    2c70:	00c5fe01 	sbceq	pc, r5, r1, lsl #28
    2c74:	51010000 	tstpl	r1, r0
    2c78:	01007011 	tsteq	r0, r1, lsl r0
    2c7c:	00c50100 	sbceq	r0, r5, r0, lsl #2
    2c80:	50010000 	andpl	r0, r1, r0
    2c84:	01006111 	tsteq	r0, r1, lsl r1
    2c88:	00c50101 	sbceq	r0, r5, r1, lsl #2
    2c8c:	52010000 	andpl	r0, r1, #0	; 0x0
    2c90:	00069112 	andeq	r9, r6, r2, lsl r1
    2c94:	01020100 	tsteq	r2, r0, lsl #2
    2c98:	00000025 	andeq	r0, r0, r5, lsr #32
    2c9c:	13005e01 	tstne	r0, #16	; 0x10
    2ca0:	0000044a 	andeq	r0, r0, sl, asr #8
    2ca4:	0009ee01 	andeq	lr, r9, r1, lsl #28
    2ca8:	01190100 	tsteq	r9, r0, lsl #2
    2cac:	00013c01 	andeq	r3, r1, r1, lsl #24
    2cb0:	003b3c00 	eoreqs	r3, fp, r0, lsl #24
    2cb4:	003b8830 	eoreqs	r8, fp, r0, lsr r8
    2cb8:	145d0130 	ldrneb	r0, [sp], #-304
    2cbc:	01007363 	tsteq	r0, r3, ror #6
    2cc0:	00c50118 	sbceq	r0, r5, r8, lsl r1
    2cc4:	50010000 	andpl	r0, r1, r0
    2cc8:	00746314 	rsbeqs	r6, r4, r4, lsl r3
    2ccc:	c5011801 	strgt	r1, [r1, #-2049]
    2cd0:	01000000 	tsteq	r0, r0
    2cd4:	63731151 	cmnvs	r3, #1073741844	; 0x40000014
    2cd8:	1a010031 	bne	42da4 <DISABLE_IRQ+0x42d24>
    2cdc:	0000c501 	andeq	ip, r0, r1, lsl #10
    2ce0:	11500100 	cmpne	r0, r0, lsl #2
    2ce4:	00326373 	eoreqs	r6, r2, r3, ror r3
    2ce8:	c5011a01 	strgt	r1, [r1, #-2561]
    2cec:	01000000 	tsteq	r0, r0
    2cf0:	9c130052 	ldcls	0, cr0, [r3], {82}
    2cf4:	01000004 	tsteq	r0, r4
    2cf8:	000009c4 	andeq	r0, r0, r4, asr #19
    2cfc:	01012f01 	tsteq	r1, r1, lsl #30
    2d00:	0000013c 	andeq	r0, r0, ip, lsr r1
    2d04:	30003b88 	andcc	r3, r0, r8, lsl #23
    2d08:	30003c0c 	andcc	r3, r0, ip, lsl #24
    2d0c:	73145d01 	tstvc	r4, #64	; 0x40
    2d10:	012e0100 	teqeq	lr, r0, lsl #2
    2d14:	0000013c 	andeq	r0, r0, ip, lsr r1
    2d18:	63145001 	tstvs	r4, #1	; 0x1
    2d1c:	2e010074 	mcrcs	0, 0, r0, cr1, cr4, {3}
    2d20:	0000c501 	andeq	ip, r0, r1, lsl #10
    2d24:	12550100 	subnes	r0, r5, #0	; 0x0
    2d28:	00000a21 	andeq	r0, r0, r1, lsr #20
    2d2c:	3c013001 	stccc	0, cr3, [r1], {1}
    2d30:	01000001 	tsteq	r0, r1
    2d34:	09fe1254 	ldmeqib	lr!, {r2, r4, r6, r9, ip}^
    2d38:	30010000 	andcc	r0, r1, r0
    2d3c:	00013c01 	andeq	r3, r1, r1, lsl #24
    2d40:	00500100 	subeqs	r0, r0, r0, lsl #2
    2d44:	0004ee13 	andeq	lr, r4, r3, lsl lr
    2d48:	096d0100 	stmeqdb	sp!, {r8}^
    2d4c:	50010000 	andpl	r0, r1, r0
    2d50:	013c0101 	teqeq	ip, r1, lsl #2
    2d54:	3c0c0000 	stccc	0, cr0, [ip], {0}
    2d58:	3c443000 	marcc	acc0, r3, r4
    2d5c:	5d013000 	stcpl	0, cr3, [r1]
    2d60:	01007314 	tsteq	r0, r4, lsl r3
    2d64:	04ee014f 	streqbt	r0, [lr], #335
    2d68:	55010000 	strpl	r0, [r1]
    2d6c:	00746314 	rsbeqs	r6, r4, r4, lsl r3
    2d70:	c5014f01 	strgt	r4, [r1, #-3841]
    2d74:	01000000 	tsteq	r0, r0
    2d78:	0a211251 	beq	8476c4 <DISABLE_IRQ+0x847644>
    2d7c:	51010000 	tstpl	r1, r0
    2d80:	00013c01 	andeq	r3, r1, r1, lsl #24
    2d84:	11540100 	cmpne	r4, r0, lsl #2
    2d88:	00646e65 	rsbeq	r6, r4, r5, ror #28
    2d8c:	3c015101 	stfccs	f5, [r1], {1}
    2d90:	01000001 	tsteq	r0, r1
    2d94:	040b0050 	streq	r0, [fp], #-80
    2d98:	0000013c 	andeq	r0, r0, ip, lsr r1
    2d9c:	00054413 	andeq	r4, r5, r3, lsl r4
    2da0:	02410100 	subeq	r0, r1, #0	; 0x0
    2da4:	69010000 	stmvsdb	r1, {}
    2da8:	05440101 	streqb	r0, [r4, #-257]
    2dac:	3c440000 	marcc	acc0, r0, r4
    2db0:	3c683000 	stcccl	0, cr3, [r8]
    2db4:	5d013000 	stcpl	0, cr3, [r1]
    2db8:	01007314 	tsteq	r0, r4, lsl r3
    2dbc:	05440168 	streqb	r0, [r4, #-360]
    2dc0:	50010000 	andpl	r0, r1, r0
    2dc4:	01006314 	tsteq	r0, r4, lsl r3
    2dc8:	00be0168 	adceqs	r0, lr, r8, ror #2
    2dcc:	51010000 	tstpl	r1, r0
    2dd0:	00069115 	andeq	r9, r6, r5, lsl r1
    2dd4:	01680100 	cmneq	r8, r0, lsl #2
    2dd8:	00000025 	andeq	r0, r0, r5, lsr #32
    2ddc:	78115201 	ldmvcda	r1, {r0, r9, ip, lr}
    2de0:	6a010073 	bvs	42fb4 <DISABLE_IRQ+0x42f34>
    2de4:	00013c01 	andeq	r3, r1, r1, lsl #24
    2de8:	00530100 	subeqs	r0, r3, r0, lsl #2
    2dec:	a5170416 	ldrge	r0, [r7, #-1046]
    2df0:	01000005 	tsteq	r0, r5
    2df4:	000009cb 	andeq	r0, r0, fp, asr #19
    2df8:	01018101 	tsteq	r1, r1, lsl #2
    2dfc:	30003c68 	andcc	r3, r0, r8, ror #24
    2e00:	30003c88 	andcc	r3, r0, r8, lsl #25
    2e04:	73145d01 	tstvc	r4, #64	; 0x40
    2e08:	01006372 	tsteq	r0, r2, ror r3
    2e0c:	05a50180 	streq	r0, [r5, #384]!
    2e10:	50010000 	andpl	r0, r1, r0
    2e14:	0002c115 	andeq	ip, r2, r5, lsl r1
    2e18:	01800100 	orreq	r0, r0, r0, lsl #2
    2e1c:	00000544 	andeq	r0, r0, r4, asr #10
    2e20:	91155101 	tstls	r5, r1, lsl #2
    2e24:	01000006 	tsteq	r0, r6
    2e28:	00250180 	eoreq	r0, r5, r0, lsl #3
    2e2c:	52010000 	andpl	r0, r1, #0	; 0x0
    2e30:	000a0b12 	andeq	r0, sl, r2, lsl fp
    2e34:	01820100 	orreq	r0, r2, r0, lsl #2
    2e38:	0000013c 	andeq	r0, r0, ip, lsr r1
    2e3c:	e7125101 	ldr	r5, [r2, -r1, lsl #2]
    2e40:	01000009 	tsteq	r0, r9
    2e44:	013c0183 	teqeq	ip, r3, lsl #3
    2e48:	50010000 	andpl	r0, r1, r0
    2e4c:	ab040b00 	blge	105a54 <DISABLE_IRQ+0x1059d4>
    2e50:	18000005 	stmneda	r0, {r0, r2}
    2e54:	00060d13 	andeq	r0, r6, r3, lsl sp
    2e58:	0a1a0100 	beq	683260 <DISABLE_IRQ+0x6831e0>
    2e5c:	95010000 	strls	r0, [r1]
    2e60:	05440101 	streqb	r0, [r4, #-257]
    2e64:	3c880000 	stccc	0, cr0, [r8], {0}
    2e68:	3cb03000 	ldccc	0, cr3, [r0]
    2e6c:	5d013000 	stcpl	0, cr3, [r1]
    2e70:	0002c115 	andeq	ip, r2, r5, lsl r1
    2e74:	01940100 	orreqs	r0, r4, r0, lsl #2
    2e78:	00000544 	andeq	r0, r0, r4, asr #10
    2e7c:	73145001 	tstvc	r4, #1	; 0x1
    2e80:	01006372 	tsteq	r0, r2, ror r3
    2e84:	05a50194 	streq	r0, [r5, #404]!
    2e88:	51010000 	tstpl	r1, r0
    2e8c:	00069115 	andeq	r9, r6, r5, lsl r1
    2e90:	01940100 	orreqs	r0, r4, r0, lsl #2
    2e94:	00000025 	andeq	r0, r0, r5, lsr #32
    2e98:	74115201 	ldrvc	r5, [r1], #-513
    2e9c:	0100706d 	tsteq	r0, sp, rrx
    2ea0:	013c0196 	ldreqb	r0, [ip, -r6]!
    2ea4:	5c010000 	stcpl	0, cr0, [r1], {0}
    2ea8:	01007311 	tsteq	r0, r1, lsl r3
    2eac:	013c0196 	ldreqb	r0, [ip, -r6]!
    2eb0:	51010000 	tstpl	r1, r0
    2eb4:	066e1300 	streqbt	r1, [lr], -r0, lsl #6
    2eb8:	74010000 	strvc	r0, [r1]
    2ebc:	01000009 	tsteq	r0, r9
    2ec0:	440101a9 	strmi	r0, [r1], #-425
    2ec4:	b0000005 	andlt	r0, r0, r5
    2ec8:	0830003c 	ldmeqda	r0!, {r2, r3, r4, r5}
    2ecc:	0130003d 	teqeq	r0, sp, lsr r0
    2ed0:	02c1155d 	sbceq	r1, r1, #390070272	; 0x17400000
    2ed4:	a8010000 	stmgeda	r1, {}
    2ed8:	00054401 	andeq	r4, r5, r1, lsl #8
    2edc:	14500100 	ldrneb	r0, [r0], #-256
    2ee0:	00637273 	rsbeq	r7, r3, r3, ror r2
    2ee4:	a501a801 	strge	sl, [r1, #-2049]
    2ee8:	01000005 	tsteq	r0, r5
    2eec:	06911551 	undefined
    2ef0:	a8010000 	stmgeda	r1, {}
    2ef4:	00002501 	andeq	r2, r0, r1, lsl #10
    2ef8:	11520100 	cmpne	r2, r0, lsl #2
    2efc:	00706d74 	rsbeqs	r6, r0, r4, ror sp
    2f00:	3c01aa01 	stccc	10, cr10, [r1], {1}
    2f04:	01000001 	tsteq	r0, r1
    2f08:	0073115c 	rsbeqs	r1, r3, ip, asr r1
    2f0c:	3c01aa01 	stccc	10, cr10, [r1], {1}
    2f10:	01000001 	tsteq	r0, r1
    2f14:	dd130051 	ldcle	0, cr0, [r3, #-324]
    2f18:	01000006 	tsteq	r0, r6
    2f1c:	00000991 	muleq	r0, r1, r9
    2f20:	0101c501 	tsteq	r1, r1, lsl #10
    2f24:	000000be 	streqh	r0, [r0], -lr
    2f28:	30003d08 	andcc	r3, r0, r8, lsl #26
    2f2c:	30003d3c 	andcc	r3, r0, ip, lsr sp
    2f30:	63145d01 	tstvs	r4, #64	; 0x40
    2f34:	c4010073 	strgt	r0, [r1], #-115
    2f38:	0005a501 	andeq	sl, r5, r1, lsl #10
    2f3c:	14500100 	ldrneb	r0, [r0], #-256
    2f40:	01007463 	tsteq	r0, r3, ror #8
    2f44:	05a501c4 	streq	r0, [r5, #452]!
    2f48:	51010000 	tstpl	r1, r0
    2f4c:	00069115 	andeq	r9, r6, r5, lsl r1
    2f50:	01c40100 	biceq	r0, r4, r0, lsl #2
    2f54:	00000025 	andeq	r0, r0, r5, lsr #32
    2f58:	73115c01 	tstvc	r1, #256	; 0x100
    2f5c:	01003175 	tsteq	r0, r5, ror r1
    2f60:	06dd01c6 	ldreqb	r0, [sp], r6, asr #3
    2f64:	50010000 	andpl	r0, r1, r0
    2f68:	32757311 	rsbccs	r7, r5, #1140850688	; 0x44000000
    2f6c:	01c60100 	biceq	r0, r6, r0, lsl #2
    2f70:	000006dd 	ldreqd	r0, [r0], -sp
    2f74:	72115101 	andvcs	r5, r1, #1073741824	; 0x40000000
    2f78:	01007365 	tsteq	r0, r5, ror #6
    2f7c:	00be01c7 	adceqs	r0, lr, r7, asr #3
    2f80:	52010000 	andpl	r0, r1, #0	; 0x0
    2f84:	e3040b00 	tst	r4, #0	; 0x0
    2f88:	0c000006 	stceq	0, cr0, [r0], {6}
    2f8c:	000000d7 	ldreqd	r0, [r0], -r7
    2f90:	00073913 	andeq	r3, r7, r3, lsl r9
    2f94:	09a60100 	stmeqib	r6!, {r8}
    2f98:	db010000 	blle	42fa0 <DISABLE_IRQ+0x42f20>
    2f9c:	05440101 	streqb	r0, [r4, #-257]
    2fa0:	3d3c0000 	ldccc	0, cr0, [ip]
    2fa4:	3d603000 	stcccl	0, cr3, [r0]
    2fa8:	5d013000 	stcpl	0, cr3, [r1]
    2fac:	00025915 	andeq	r5, r2, r5, lsl r9
    2fb0:	01da0100 	biceqs	r0, sl, r0, lsl #2
    2fb4:	00000544 	andeq	r0, r0, r4, asr #10
    2fb8:	63145001 	tstvs	r4, #1	; 0x1
    2fbc:	01da0100 	biceqs	r0, sl, r0, lsl #2
    2fc0:	000000be 	streqh	r0, [r0], -lr
    2fc4:	6e155101 	mufvss	f5, f5, f1
    2fc8:	01000005 	tsteq	r0, r5
    2fcc:	002501da 	ldreqd	r0, [r5], -sl
    2fd0:	52010000 	andpl	r0, r1, #0	; 0x0
    2fd4:	01007011 	tsteq	r0, r1, lsl r0
    2fd8:	073901dc 	undefined
    2fdc:	50010000 	andpl	r0, r1, r0
    2fe0:	d7040b00 	strle	r0, [r4, -r0, lsl #22]
    2fe4:	13000000 	tstne	r0, #0	; 0x0
    2fe8:	0000078e 	andeq	r0, r0, lr, lsl #15
    2fec:	00099801 	andeq	r9, r9, r1, lsl #16
    2ff0:	01ef0100 	mvneq	r0, r0, lsl #2
    2ff4:	00013c01 	andeq	r3, r1, r1, lsl #24
    2ff8:	003d6000 	eoreqs	r6, sp, r0
    2ffc:	003dc830 	eoreqs	ip, sp, r0, lsr r8
    3000:	145d0130 	ldrneb	r0, [sp], #-304
    3004:	01003173 	tsteq	r0, r3, ror r1
    3008:	00c501ee 	sbceq	r0, r5, lr, ror #3
    300c:	55010000 	strpl	r0, [r1]
    3010:	00327314 	eoreqs	r7, r2, r4, lsl r3
    3014:	c501ee01 	strgt	lr, [r1, #-3585]
    3018:	01000000 	tsteq	r0, r0
    301c:	316c1157 	cmncc	ip, r7, asr r1
    3020:	01f00100 	mvneqs	r0, r0, lsl #2
    3024:	000000be 	streqh	r0, [r0], -lr
    3028:	6c195401 	cfldrsvs	mvf5, [r9], {1}
    302c:	f0010032 	andnv	r0, r1, r2, lsr r0
    3030:	0000be01 	andeq	fp, r0, r1, lsl #28
    3034:	db130000 	blle	4c303c <DISABLE_IRQ+0x4c2fbc>
    3038:	01000007 	tsteq	r0, r7
    303c:	0000099f 	muleq	r0, pc, r9
    3040:	01020b01 	tsteq	r2, r1, lsl #22
    3044:	00000544 	andeq	r0, r0, r4, asr #10
    3048:	30003dc8 	andcc	r3, r0, r8, asr #27
    304c:	30003df8 	strccd	r3, [r0], -r8
    3050:	73145d01 	tstvc	r4, #64	; 0x40
    3054:	020a0100 	andeq	r0, sl, #0	; 0x0
    3058:	000005a5 	andeq	r0, r0, r5, lsr #11
    305c:	63145001 	tstvs	r4, #1	; 0x1
    3060:	020a0100 	andeq	r0, sl, #0	; 0x0
    3064:	000000be 	streqh	r0, [r0], -lr
    3068:	6e145101 	mufvss	f5, f4, f1
    306c:	020a0100 	andeq	r0, sl, #0	; 0x0
    3070:	00000025 	andeq	r0, r0, r5, lsr #32
    3074:	70115201 	andvcs	r5, r1, r1, lsl #4
    3078:	020c0100 	andeq	r0, ip, #0	; 0x0
    307c:	000006dd 	ldreqd	r0, [r0], -sp
    3080:	1a005001 	bne	1708c <DISABLE_IRQ+0x1700c>
    3084:	000007e6 	andeq	r0, r0, r6, ror #15
    3088:	000000d7 	ldreqd	r0, [r0], -r7
    308c:	021c001b 	andeqs	r0, ip, #27	; 0x1b
    3090:	02000001 	andeq	r0, r0, #1	; 0x1
    3094:	0007db0f 	andeq	sp, r7, pc, lsl #22
    3098:	1d010100 	stfnes	f0, [r1]
    309c:	000009c1 	andeq	r0, r0, r1, asr #19
    30a0:	013c3801 	teqeq	ip, r1, lsl #16
    30a4:	05010000 	streq	r0, [r1]
    30a8:	00c49003 	sbceq	r9, r4, r3
    30ac:	097b0030 	ldmeqdb	fp!, {r4, r5}^
    30b0:	00020000 	andeq	r0, r2, r0
    30b4:	00000ef1 	streqd	r0, [r0], -r1
    30b8:	0f460104 	swieq	0x00460104
    30bc:	51b80000 	movpls	r0, r0
    30c0:	3df83000 	ldcccl	0, cr3, [r8]
    30c4:	00093000 	andeq	r3, r9, r0
    30c8:	06010000 	streq	r0, [r1], -r0
    30cc:	e200000b 	and	r0, r0, #11	; 0xb
    30d0:	02000008 	andeq	r0, r0, #8	; 0x8
    30d4:	00000983 	andeq	r0, r0, r3, lsl #19
    30d8:	00300b03 	eoreqs	r0, r0, r3, lsl #22
    30dc:	1a030000 	bne	c30e4 <DISABLE_IRQ+0xc3064>
    30e0:	04000009 	streq	r0, [r0], #-9
    30e4:	09650207 	stmeqdb	r5!, {r0, r1, r2, r9}^
    30e8:	0e040000 	cdpeq	0, 0, cr0, cr4, cr0, {0}
    30ec:	00000042 	andeq	r0, r0, r2, asr #32
    30f0:	00480404 	subeq	r0, r8, r4, lsl #8
    30f4:	a7030000 	strge	r0, [r3, -r0]
    30f8:	01000000 	tsteq	r0, r0
    30fc:	00f20508 	rsceqs	r0, r2, r8, lsl #10
    3100:	58010000 	stmplda	r1, {}
    3104:	0100000a 	tsteq	r0, sl
    3108:	00f20126 	rsceqs	r0, r2, r6, lsr #2
    310c:	3df80000 	ldcccl	0, cr0, [r8]
    3110:	3ef03000 	cdpcc	0, 15, cr3, cr0, cr0, {0}
    3114:	5d013000 	stcpl	0, cr3, [r1]
    3118:	00706306 	rsbeqs	r6, r0, r6, lsl #6
    311c:	00f92501 	rsceqs	r2, r9, r1, lsl #10
    3120:	50010000 	andpl	r0, r1, r0
    3124:	000aea07 	andeq	lr, sl, r7, lsl #20
    3128:	04250100 	streqt	r0, [r5], #-256
    312c:	01000001 	tsteq	r0, r1
    3130:	0aaf0754 	beq	febc4e88 <CLKDIVN+0xb2bc4e74>
    3134:	25010000 	strcs	r0, [r1]
    3138:	00000030 	andeq	r0, r0, r0, lsr r0
    313c:	0c085e01 	stceq	14, cr5, [r8], {1}
    3140:	01000007 	tsteq	r0, r7
    3144:	0000f227 	andeq	pc, r0, r7, lsr #4
    3148:	08510100 	ldmeqda	r1, {r8}^
    314c:	00000a74 	andeq	r0, r0, r4, ror sl
    3150:	00f22701 	rsceqs	r2, r2, r1, lsl #14
    3154:	5c010000 	stcpl	0, cr0, [r1], {0}
    3158:	0000c309 	andeq	ip, r0, r9, lsl #6
    315c:	00010a00 	andeq	r0, r1, r0, lsl #20
    3160:	003e2c00 	eoreqs	r2, lr, r0, lsl #24
    3164:	003e3830 	eoreqs	r3, lr, r0, lsr r8
    3168:	011b0a30 	tsteq	fp, r0, lsr sl
    316c:	53010000 	tstpl	r1, #0	; 0x0
    3170:	00dc0900 	sbceqs	r0, ip, r0, lsl #18
    3174:	010a0000 	tsteq	sl, r0
    3178:	3e880000 	cdpcc	0, 8, cr0, cr8, cr0, {0}
    317c:	3ea03000 	cdpcc	0, 10, cr3, cr0, cr0, {0}
    3180:	1b0a3000 	blne	28f188 <DISABLE_IRQ+0x28f108>
    3184:	01000001 	tsteq	r0, r1
    3188:	0a0b0052 	beq	2c32d8 <DISABLE_IRQ+0x2c3258>
    318c:	ac000001 	stcge	0, cr0, [r0], {1}
    3190:	c830003e 	ldmgtda	r0!, {r1, r2, r3, r4, r5}
    3194:	0a30003e 	beq	c03294 <DISABLE_IRQ+0xc03214>
    3198:	0000011b 	andeq	r0, r0, fp, lsl r1
    319c:	00005201 	andeq	r5, r0, r1, lsl #4
    31a0:	00091503 	andeq	r1, r9, r3, lsl #10
    31a4:	04070400 	streq	r0, [r7], #-1024
    31a8:	0000ff04 	andeq	pc, r0, r4, lsl #30
    31ac:	00480c00 	subeq	r0, r8, r0, lsl #24
    31b0:	04040000 	streq	r0, [r4]
    31b4:	00000042 	andeq	r0, r0, r2, asr #32
    31b8:	0001250d 	andeq	r2, r1, sp, lsl #10
    31bc:	000ab400 	andeq	fp, sl, r0, lsl #8
    31c0:	012a0200 	teqeq	sl, r0, lsl #4
    31c4:	00000125 	andeq	r0, r0, r5, lsr #2
    31c8:	00630e03 	rsbeq	r0, r3, r3, lsl #28
    31cc:	01252902 	teqeq	r5, r2, lsl #18
    31d0:	03000000 	tsteq	r0, #0	; 0x0
    31d4:	0000009e 	muleq	r0, lr, r0
    31d8:	6e050801 	cdpvs	8, 0, cr0, cr5, cr1, {0}
    31dc:	01000001 	tsteq	r0, r1
    31e0:	00000a7a 	andeq	r0, r0, sl, ror sl
    31e4:	6e014a01 	fmacsvs	s8, s2, s2
    31e8:	f0000001 	andnv	r0, r0, r1
    31ec:	1830003e 	ldmneda	r0!, {r1, r2, r3, r4, r5}
    31f0:	0130003f 	teqeq	r0, pc, lsr r0
    31f4:	7063065d 	rsbvc	r0, r3, sp, asr r6
    31f8:	f9490100 	stmnvdb	r9, {r8}^
    31fc:	01000000 	tsteq	r0, r0
    3200:	0aea075c 	beq	ffa84f78 <CLKDIVN+0xb3a84f64>
    3204:	49010000 	stmmidb	r1, {}
    3208:	00000104 	andeq	r0, r0, r4, lsl #2
    320c:	af075101 	swige	0x00075101
    3210:	0100000a 	tsteq	r0, sl
    3214:	00003049 	andeq	r3, r0, r9, asr #32
    3218:	00520100 	subeqs	r0, r2, r0, lsl #2
    321c:	00093103 	andeq	r3, r9, r3, lsl #2
    3220:	05050400 	streq	r0, [r5, #-1024]
    3224:	00000222 	andeq	r0, r0, r2, lsr #4
    3228:	000ac301 	andeq	ip, sl, r1, lsl #6
    322c:	01590100 	cmpeq	r9, r0, lsl #2
    3230:	00000222 	andeq	r0, r0, r2, lsr #4
    3234:	30003f18 	andcc	r3, r0, r8, lsl pc
    3238:	30004060 	andcc	r4, r0, r0, rrx
    323c:	63065d01 	tstvs	r6, #64	; 0x40
    3240:	58010070 	stmplda	r1, {r4, r5, r6}
    3244:	000000f9 	streqd	r0, [r0], -r9
    3248:	ea075801 	b	1d9254 <DISABLE_IRQ+0x1d91d4>
    324c:	0100000a 	tsteq	r0, sl
    3250:	00010458 	andeq	r0, r1, r8, asr r4
    3254:	07590100 	ldreqb	r0, [r9, -r0, lsl #2]
    3258:	00000aaf 	andeq	r0, r0, pc, lsr #21
    325c:	00305801 	eoreqs	r5, r0, r1, lsl #16
    3260:	5e010000 	cdppl	0, 0, cr0, cr1, cr0, {0}
    3264:	00070c08 	andeq	r0, r7, r8, lsl #24
    3268:	225a0100 	subcss	r0, sl, #0	; 0x0
    326c:	06000002 	streq	r0, [r0], -r2
    3270:	5b04935a 	blpl	127fe0 <DISABLE_IRQ+0x127f60>
    3274:	74080493 	strvc	r0, [r8], #-1171
    3278:	0100000a 	tsteq	r0, sl
    327c:	0002225a 	andeq	r2, r2, sl, asr r2
    3280:	93540600 	cmpls	r4, #0	; 0x0
    3284:	04935504 	ldreq	r5, [r3], #1284
    3288:	0001f309 	andeq	pc, r1, r9, lsl #6
    328c:	00010a00 	andeq	r0, r1, r0, lsl #20
    3290:	003f5800 	eoreqs	r5, pc, r0, lsl #16
    3294:	003f6030 	eoreqs	r6, pc, r0, lsr r0
    3298:	011b0a30 	tsteq	fp, r0, lsr sl
    329c:	53010000 	tstpl	r1, #0	; 0x0
    32a0:	020c0900 	andeq	r0, ip, #0	; 0x0
    32a4:	010a0000 	tsteq	sl, r0
    32a8:	3ff40000 	swicc	0x00f40000
    32ac:	400c3000 	andmi	r3, ip, r0
    32b0:	1b0a3000 	blne	28f2b8 <DISABLE_IRQ+0x28f238>
    32b4:	01000001 	tsteq	r0, r1
    32b8:	0a0b0052 	beq	2c3408 <DISABLE_IRQ+0x2c3388>
    32bc:	18000001 	stmneda	r0, {r0}
    32c0:	34300040 	ldrcct	r0, [r0], #-64
    32c4:	0a300040 	beq	c033cc <DISABLE_IRQ+0xc0334c>
    32c8:	0000011b 	andeq	r0, r0, fp, lsl r1
    32cc:	00005201 	andeq	r5, r0, r1, lsl #4
    32d0:	00091003 	andeq	r1, r9, r3
    32d4:	05070800 	streq	r0, [r7, #-2048]
    32d8:	0000026b 	andeq	r0, r0, fp, ror #4
    32dc:	000ad301 	andeq	sp, sl, r1, lsl #6
    32e0:	017d0100 	cmneq	sp, r0, lsl #2
    32e4:	0000026b 	andeq	r0, r0, fp, ror #4
    32e8:	30004060 	andcc	r4, r0, r0, rrx
    32ec:	3000408c 	andcc	r4, r0, ip, lsl #1
    32f0:	63065d01 	tstvs	r6, #64	; 0x40
    32f4:	7c010070 	stcvc	0, cr0, [r1], {112}
    32f8:	000000f9 	streqd	r0, [r0], -r9
    32fc:	ea075c01 	b	1da308 <DISABLE_IRQ+0x1da288>
    3300:	0100000a 	tsteq	r0, sl
    3304:	0001047c 	andeq	r0, r1, ip, ror r4
    3308:	07510100 	ldreqb	r0, [r1, -r0, lsl #2]
    330c:	00000aaf 	andeq	r0, r0, pc, lsr #21
    3310:	00307c01 	eoreqs	r7, r0, r1, lsl #24
    3314:	52010000 	andpl	r0, r1, #0	; 0x0
    3318:	092c0300 	stmeqdb	ip!, {r8, r9}
    331c:	05080000 	streq	r0, [r8]
    3320:	0002a30f 	andeq	sl, r2, pc, lsl #6
    3324:	000a8800 	andeq	r8, sl, r0, lsl #16
    3328:	01840100 	orreq	r0, r4, r0, lsl #2
    332c:	000002a3 	andeq	r0, r0, r3, lsr #5
    3330:	3000408c 	andcc	r4, r0, ip, lsl #1
    3334:	300040dc 	ldrccd	r4, [r0], -ip
    3338:	73065d01 	tstvc	r6, #64	; 0x40
    333c:	aa830100 	bge	fe0c3744 <CLKDIVN+0xb20c3730>
    3340:	01000002 	tsteq	r0, r2
    3344:	0069105e 	rsbeq	r1, r9, lr, asr r0
    3348:	02a38501 	adceq	r8, r3, #4194304	; 0x400000
    334c:	50010000 	andpl	r0, r1, r0
    3350:	6e691100 	powvse	f1, f1, f0
    3354:	05040074 	streq	r0, [r4, #-116]
    3358:	00f90404 	rsceqs	r0, r9, r4, lsl #8
    335c:	d60f0000 	strle	r0, [pc], -r0
    3360:	18000003 	stmneda	r0, {r0, r1}
    3364:	0100000b 	tsteq	r0, fp
    3368:	00420195 	umaaleq	r0, r2, r5, r1
    336c:	40dc0000 	sbcmis	r0, ip, r0
    3370:	43c43000 	bicmi	r3, r4, #0	; 0x0
    3374:	5d013000 	stcpl	0, cr3, [r1]
    3378:	66756206 	ldrvsbt	r6, [r5], -r6, lsl #4
    337c:	42940100 	addmis	r0, r4, #0	; 0x0
    3380:	01000000 	tsteq	r0, r0
    3384:	6e650655 	mcrvs	6, 3, r0, cr5, cr5, {2}
    3388:	94010064 	strls	r0, [r1], #-100
    338c:	00000042 	andeq	r0, r0, r2, asr #32
    3390:	6e065901 	cdpvs	9, 0, cr5, cr6, cr1, {0}
    3394:	01006d75 	tsteq	r0, r5, ror sp
    3398:	00022294 	muleq	r2, r4, r2
    339c:	93560600 	cmpls	r6, #0	; 0x0
    33a0:	04935704 	ldreq	r5, [r3], #1796
    33a4:	000aaf07 	andeq	sl, sl, r7, lsl #30
    33a8:	a3940100 	orrges	r0, r4, #0	; 0x0
    33ac:	03000002 	tsteq	r0, #2	; 0x2
    33b0:	0700f891 	undefined
    33b4:	0000056e 	andeq	r0, r0, lr, ror #10
    33b8:	02a39401 	adceq	r9, r3, #16777216	; 0x1000000
    33bc:	58010000 	stmplda	r1, {}
    33c0:	000b1f07 	andeq	r1, fp, r7, lsl #30
    33c4:	a3940100 	orrges	r0, r4, #0	; 0x0
    33c8:	01000002 	tsteq	r0, r2
    33cc:	094e075b 	stmeqdb	lr, {r0, r1, r3, r4, r6, r8, r9, sl}^
    33d0:	94010000 	strls	r0, [r1]
    33d4:	000002a3 	andeq	r0, r0, r3, lsr #5
    33d8:	01849103 	orreq	r9, r4, r3, lsl #2
    33dc:	01006310 	tsteq	r0, r0, lsl r3
    33e0:	00004896 	muleq	r0, r6, r8
    33e4:	0c910200 	lfmeq	f0, 4, [r1], {0}
    33e8:	000b3e08 	andeq	r3, fp, r8, lsl #28
    33ec:	48960100 	ldmmiia	r6, {r8}
    33f0:	02000000 	andeq	r0, r0, #0	; 0x0
    33f4:	74100891 	ldrvc	r0, [r0], #-2193
    33f8:	0100706d 	tsteq	r0, sp, rrx
    33fc:	0003d696 	muleq	r3, r6, r6
    3400:	10910200 	addnes	r0, r1, r0, lsl #4
    3404:	000a6d08 	andeq	r6, sl, r8, lsl #26
    3408:	f9970100 	ldmnvib	r7, {r8}
    340c:	02000000 	andeq	r0, r0, #0	; 0x0
    3410:	ef080491 	swi	0x00080491
    3414:	0100000a 	tsteq	r0, sl
    3418:	0003fd98 	muleq	r3, r8, sp
    341c:	b8030500 	stmltda	r3, {r8, sl}
    3420:	08300051 	ldmeqda	r0!, {r0, r4, r6}
    3424:	00000a67 	andeq	r0, r0, r7, ror #20
    3428:	04129901 	ldreq	r9, [r2], #-2305
    342c:	03050000 	tsteq	r5, #0	; 0x0
    3430:	300051e0 	andcc	r5, r0, r0, ror #3
    3434:	01006910 	tsteq	r0, r0, lsl r9
    3438:	0002a39a 	muleq	r2, sl, r3
    343c:	125a0100 	subnes	r0, sl, #0	; 0x0
    3440:	000000c8 	andeq	r0, r0, r8, asr #1
    3444:	000aad08 	andeq	sl, sl, r8, lsl #26
    3448:	30ba0100 	adcccs	r0, sl, r0, lsl #2
    344c:	01000000 	tsteq	r0, r0
    3450:	5f5f1054 	swipl	0x005f1054
    3454:	ba01006e 	blt	43614 <DISABLE_IRQ+0x43594>
    3458:	00000222 	andeq	r0, r0, r2, lsr #4
    345c:	04935006 	ldreq	r5, [r3], #6
    3460:	08049351 	stmeqda	r4, {r0, r4, r6, r8, r9, ip, pc}
    3464:	00000a38 	andeq	r0, r0, r8, lsr sl
    3468:	0222ba01 	eoreq	fp, r2, #4096	; 0x1000
    346c:	52060000 	andpl	r0, r6, #0	; 0x0
    3470:	93530493 	cmpls	r3, #-1828716544	; 0x93000000
    3474:	0b350804 	bleq	d4548c <DISABLE_IRQ+0xd4540c>
    3478:	ba010000 	blt	43480 <DISABLE_IRQ+0x43400>
    347c:	00000030 	andeq	r0, r0, r0, lsr r0
    3480:	00005101 	andeq	r5, r0, r1, lsl #2
    3484:	0003e613 	andeq	lr, r3, r3, lsl r6
    3488:	00004800 	andeq	r4, r0, r0, lsl #16
    348c:	03e61400 	mvneq	r1, #0	; 0x0
    3490:	00410000 	subeq	r0, r1, r0
    3494:	00091a03 	andeq	r1, r9, r3, lsl #20
    3498:	13070400 	tstne	r7, #0	; 0x0
    349c:	000003fd 	streqd	r0, [r0], -sp
    34a0:	000000ff 	streqd	r0, [r0], -pc
    34a4:	0003e614 	andeq	lr, r3, r4, lsl r6
    34a8:	0c002400 	cfstrseq	mvf2, [r0], {0}
    34ac:	000003ed 	andeq	r0, r0, sp, ror #7
    34b0:	00041213 	andeq	r1, r4, r3, lsl r2
    34b4:	0000ff00 	andeq	pc, r0, r0, lsl #30
    34b8:	03e61400 	mvneq	r1, #0	; 0x0
    34bc:	00240000 	eoreq	r0, r4, r0
    34c0:	0004020c 	andeq	r0, r4, ip, lsl #4
    34c4:	05541500 	ldreqb	r1, [r4, #-1280]
    34c8:	4e010000 	cdpmi	0, 0, cr0, cr1, cr0, {0}
    34cc:	0100000a 	tsteq	r0, sl
    34d0:	a3010104 	tstge	r1, #1	; 0x1
    34d4:	c4000002 	strgt	r0, [r0], #-2
    34d8:	f0300043 	eornvs	r0, r0, r3, asr #32
    34dc:	01300049 	teqeq	r0, r9, asr #32
    34e0:	7562165d 	strvcb	r1, [r2, #-1629]!
    34e4:	03010066 	tsteq	r1, #102	; 0x66
    34e8:	00004201 	andeq	r4, r0, r1, lsl #4
    34ec:	175a0100 	ldrneb	r0, [sl, -r0, lsl #2]
    34f0:	0000056e 	andeq	r0, r0, lr, ror #10
    34f4:	25010301 	strcs	r0, [r1, #-769]
    34f8:	02000000 	andeq	r0, r0, #0	; 0x0
    34fc:	66161091 	undefined
    3500:	0100746d 	tsteq	r0, sp, ror #8
    3504:	00f90103 	rsceqs	r0, r9, r3, lsl #2
    3508:	91020000 	tstls	r2, r0
    350c:	02341714 	eoreqs	r1, r4, #5242880	; 0x500000
    3510:	03010000 	tsteq	r1, #0	; 0x0
    3514:	00003701 	andeq	r3, r0, r1, lsl #14
    3518:	18590100 	ldmneda	r9, {r8}^
    351c:	006e656c 	rsbeq	r6, lr, ip, ror #10
    3520:	a3010501 	tstge	r1, #4194304	; 0x400000
    3524:	01000002 	tsteq	r0, r2
    3528:	756e1850 	strvcb	r1, [lr, #-2128]!
    352c:	0601006d 	streq	r0, [r1], -sp, rrx
    3530:	00022201 	andeq	r2, r2, r1, lsl #4
    3534:	93510600 	cmpls	r1, #0	; 0x0
    3538:	04935204 	ldreq	r5, [r3], #516
    353c:	01006918 	tsteq	r0, r8, lsl r9
    3540:	02a30107 	adceq	r0, r3, #-1073741823	; 0xc0000001
    3544:	52010000 	andpl	r0, r1, #0	; 0x0
    3548:	000aaf19 	andeq	sl, sl, r9, lsl pc
    354c:	01070100 	tsteq	r7, r0, lsl #2
    3550:	000002a3 	andeq	r0, r0, r3, lsr #5
    3554:	73185e01 	tstvc	r8, #16	; 0x10
    3558:	01007274 	tsteq	r0, r4, ror r2
    355c:	00420108 	subeq	r0, r2, r8, lsl #2
    3560:	54010000 	strpl	r0, [r1]
    3564:	646e6518 	strvsbt	r6, [lr], #-1304
    3568:	01080100 	tsteq	r8, r0, lsl #2
    356c:	00000042 	andeq	r0, r0, r2, asr #32
    3570:	63185701 	tstvs	r8, #262144	; 0x40000
    3574:	01080100 	tsteq	r8, r0, lsl #2
    3578:	00000048 	andeq	r0, r0, r8, asr #32
    357c:	73185301 	tstvc	r8, #67108864	; 0x4000000
    3580:	01090100 	tsteq	r9, r0, lsl #2
    3584:	000000f9 	streqd	r0, [r0], -r9
    3588:	c4195601 	ldrgt	r5, [r9], #-1537
    358c:	01000005 	tsteq	r0, r5
    3590:	02a3010b 	adceq	r0, r3, #-1073741822	; 0xc0000002
    3594:	55010000 	strpl	r0, [r1]
    3598:	000b2919 	andeq	r2, fp, r9, lsl r9
    359c:	010d0100 	tsteq	sp, r0, lsl #2
    35a0:	000002a3 	andeq	r0, r0, r3, lsr #5
    35a4:	1f195801 	swine	0x00195801
    35a8:	0100000b 	tsteq	r0, fp
    35ac:	02a3010e 	adceq	r0, r3, #-2147483645	; 0x80000003
    35b0:	5b010000 	blpl	435b8 <DISABLE_IRQ+0x43538>
    35b4:	000afc19 	andeq	pc, sl, r9, lsl ip
    35b8:	01100100 	tsteq	r0, r0, lsl #2
    35bc:	000002a3 	andeq	r0, r0, r3, lsr #5
    35c0:	111a5201 	tstne	sl, r1, lsl #4
    35c4:	0100000b 	tsteq	r0, fp
    35c8:	44980132 	ldrmi	r0, [r8], #306
    35cc:	3c1b3000 	ldccc	0, cr3, [fp], {0}
    35d0:	e0000005 	and	r0, r0, r5
    35d4:	19000000 	stmnedb	r0, {}
    35d8:	00000abe 	streqh	r0, [r0], -lr
    35dc:	a3011701 	tstge	r1, #262144	; 0x40000
    35e0:	05000002 	streq	r0, [r0, #-2]
    35e4:	005ef003 	subeqs	pc, lr, r3
    35e8:	381c0030 	ldmccda	ip, {r4, r5}
    35ec:	48300049 	ldmmida	r0!, {r0, r3, r6}
    35f0:	18300049 	ldmneda	r0!, {r0, r3, r6}
    35f4:	01007069 	tsteq	r0, r9, rrx
    35f8:	055401a8 	ldreqb	r0, [r4, #-424]
    35fc:	52010000 	andpl	r0, r1, #0	; 0x0
    3600:	04040000 	streq	r0, [r4]
    3604:	000002a3 	andeq	r0, r0, r3, lsr #5
    3608:	0005bb15 	andeq	fp, r5, r5, lsl fp
    360c:	0aa20100 	beq	fe883a14 <CLKDIVN+0xb2883a00>
    3610:	01010000 	tsteq	r1, r0
    3614:	02a30102 	adceq	r0, r3, #-2147483648	; 0x80000000
    3618:	49f00000 	ldmmiib	r0!, {}^
    361c:	4a103000 	bmi	40f624 <DISABLE_IRQ+0x40f5a4>
    3620:	5d013000 	stcpl	0, cr3, [r1]
    3624:	66756216 	undefined
    3628:	02000100 	andeq	r0, r0, #0	; 0x0
    362c:	00000042 	andeq	r0, r0, r2, asr #32
    3630:	6e175001 	wxorvs	wr5, wr7, wr1
    3634:	01000005 	tsteq	r0, r5
    3638:	00250200 	eoreq	r0, r5, r0, lsl #4
    363c:	54010000 	strpl	r0, [r1]
    3640:	746d6616 	strvcbt	r6, [sp], #-1558
    3644:	02000100 	andeq	r0, r0, #0	; 0x0
    3648:	000000f9 	streqd	r0, [r0], -r9
    364c:	34175201 	ldrcc	r5, [r7], #-513
    3650:	01000002 	tsteq	r0, r2
    3654:	00370200 	eoreqs	r0, r7, r0, lsl #4
    3658:	53010000 	tstpl	r1, #0	; 0x0
    365c:	01006918 	tsteq	r0, r8, lsl r9
    3660:	02a30202 	adceq	r0, r3, #536870912	; 0x20000000
    3664:	50010000 	andpl	r0, r1, r0
    3668:	061a1500 	ldreq	r1, [sl], -r0, lsl #10
    366c:	4f010000 	swimi	0x00010000
    3670:	0100000a 	tsteq	r0, sl
    3674:	a3010217 	tstge	r1, #1879048193	; 0x70000001
    3678:	10000002 	andne	r0, r0, r2
    367c:	3030004a 	eorccs	r0, r0, sl, asr #32
    3680:	0130004a 	teqeq	r0, sl, asr #32
    3684:	7562165d 	strvcb	r1, [r2, #-1629]!
    3688:	16010066 	strne	r0, [r1], -r6, rrx
    368c:	00004202 	andeq	r4, r0, r2, lsl #4
    3690:	17500100 	ldrneb	r0, [r0, -r0, lsl #2]
    3694:	0000056e 	andeq	r0, r0, lr, ror #10
    3698:	25021601 	strcs	r1, [r2, #-1537]
    369c:	01000000 	tsteq	r0, r0
    36a0:	6d661651 	stcvsl	6, cr1, [r6, #-324]!
    36a4:	16010074 	undefined
    36a8:	0000f902 	andeq	pc, r0, r2, lsl #18
    36ac:	04910200 	ldreq	r0, [r1], #512
    36b0:	02341e1d 	eoreqs	r1, r4, #464	; 0x1d0
    36b4:	18010000 	stmneda	r1, {}
    36b8:	00003702 	andeq	r3, r0, r2, lsl #14
    36bc:	00691f00 	rsbeq	r1, r9, r0, lsl #30
    36c0:	a3021901 	tstge	r2, #16384	; 0x4000
    36c4:	00000002 	andeq	r0, r0, r2
    36c8:	00067b15 	andeq	r7, r6, r5, lsl fp
    36cc:	0aa30100 	beq	fe8c3ad4 <CLKDIVN+0xb28c3ac0>
    36d0:	30010000 	andcc	r0, r1, r0
    36d4:	02a30102 	adceq	r0, r3, #-2147483648	; 0x80000000
    36d8:	4a300000 	bmi	c036e0 <DISABLE_IRQ+0xc03660>
    36dc:	4a643000 	bmi	190f6e4 <DISABLE_IRQ+0x190f664>
    36e0:	5d013000 	stcpl	0, cr3, [r1]
    36e4:	66756216 	undefined
    36e8:	022f0100 	eoreq	r0, pc, #0	; 0x0
    36ec:	00000042 	andeq	r0, r0, r2, asr #32
    36f0:	6e175001 	wxorvs	wr5, wr7, wr1
    36f4:	01000005 	tsteq	r0, r5
    36f8:	0025022f 	eoreq	r0, r5, pc, lsr #4
    36fc:	54010000 	strpl	r0, [r1]
    3700:	746d6616 	strvcbt	r6, [sp], #-1558
    3704:	022f0100 	eoreq	r0, pc, #0	; 0x0
    3708:	000000f9 	streqd	r0, [r0], -r9
    370c:	1d089102 	stfned	f1, [r8, #-8]
    3710:	0002341e 	andeq	r3, r2, lr, lsl r4
    3714:	02310100 	eoreqs	r0, r1, #0	; 0x0
    3718:	00000037 	andeq	r0, r0, r7, lsr r0
    371c:	01006918 	tsteq	r0, r8, lsl r9
    3720:	02a30232 	adceq	r0, r3, #536870915	; 0x20000003
    3724:	50010000 	andpl	r0, r1, r0
    3728:	06c21500 	streqb	r1, [r2], r0, lsl #10
    372c:	43010000 	tstmi	r1, #0	; 0x0
    3730:	0100000b 	tsteq	r0, fp
    3734:	a3010249 	tstge	r1, #-1879048188	; 0x90000004
    3738:	64000002 	strvs	r0, [r0], #-2
    373c:	7430004a 	ldrvct	r0, [r0], #-74
    3740:	0130004a 	teqeq	r0, sl, asr #32
    3744:	7562165d 	strvcb	r1, [r2, #-1629]!
    3748:	48010066 	stmmida	r1, {r1, r2, r5, r6}
    374c:	00004202 	andeq	r4, r0, r2, lsl #4
    3750:	16500100 	ldrneb	r0, [r0], -r0, lsl #2
    3754:	00746d66 	rsbeqs	r6, r4, r6, ror #26
    3758:	f9024801 	stmnvdb	r2, {r0, fp, lr}
    375c:	01000000 	tsteq	r0, r0
    3760:	02341751 	eoreqs	r1, r4, #21233664	; 0x1440000
    3764:	48010000 	stmmida	r1, {}
    3768:	00003702 	andeq	r3, r0, r2, lsl #14
    376c:	00530100 	subeqs	r0, r3, r0, lsl #2
    3770:	00071315 	andeq	r1, r7, r5, lsl r3
    3774:	0b440100 	bleq	1103b7c <DISABLE_IRQ+0x1103afc>
    3778:	5a010000 	bpl	43780 <DISABLE_IRQ+0x43700>
    377c:	02a30102 	adceq	r0, r3, #-2147483648	; 0x80000000
    3780:	4a740000 	bmi	1d03788 <DISABLE_IRQ+0x1d03708>
    3784:	4a943000 	bmi	fe50f78c <CLKDIVN+0xb250f778>
    3788:	5d013000 	stcpl	0, cr3, [r1]
    378c:	66756216 	undefined
    3790:	02590100 	subeqs	r0, r9, #0	; 0x0
    3794:	00000042 	andeq	r0, r0, r2, asr #32
    3798:	66165001 	ldrvs	r5, [r6], -r1
    379c:	0100746d 	tsteq	r0, sp, ror #8
    37a0:	00f90259 	rsceqs	r0, r9, r9, asr r2
    37a4:	91020000 	tstls	r2, r0
    37a8:	341e1d04 	ldrcc	r1, [lr], #-3332
    37ac:	01000002 	tsteq	r0, r2
    37b0:	0037025b 	eoreqs	r0, r7, fp, asr r2
    37b4:	691f0000 	ldmvsdb	pc, {}
    37b8:	025c0100 	subeqs	r0, ip, #0	; 0x0
    37bc:	000002a3 	andeq	r0, r0, r3, lsr #5
    37c0:	08d61500 	ldmeqia	r6, {r8, sl, ip}^
    37c4:	e2010000 	and	r0, r1, #0	; 0x0
    37c8:	0100000a 	tsteq	r0, sl
    37cc:	a3010275 	tstge	r1, #1342177287	; 0x50000007
    37d0:	94000002 	strls	r0, [r0], #-2
    37d4:	9830004a 	ldmlsda	r0!, {r1, r3, r6}
    37d8:	01300051 	teqeq	r0, r1, asr r0
    37dc:	7562165d 	strvcb	r1, [r2, #-1629]!
    37e0:	74010066 	strvc	r0, [r1], #-102
    37e4:	0000f902 	andeq	pc, r0, r2, lsl #18
    37e8:	16580100 	ldrneb	r0, [r8], -r0, lsl #2
    37ec:	00746d66 	rsbeqs	r6, r4, r6, ror #26
    37f0:	f9027401 	stmnvdb	r2, {r0, sl, ip, sp, lr}
    37f4:	02000000 	andeq	r0, r0, #0	; 0x0
    37f8:	34170491 	ldrcc	r0, [r7], #-1169
    37fc:	01000002 	tsteq	r0, r2
    3800:	00370274 	eoreqs	r0, r7, r4, ror r2
    3804:	55010000 	strpl	r0, [r1]
    3808:	72747318 	rsbvcs	r7, r4, #1610612736	; 0x60000000
    380c:	02760100 	rsbeqs	r0, r6, #0	; 0x0
    3810:	000000f9 	streqd	r0, [r0], -r9
    3814:	e2195401 	ands	r5, r9, #16777216	; 0x1000000
    3818:	01000000 	tsteq	r0, r0
    381c:	00420277 	subeq	r0, r2, r7, ror r2
    3820:	91020000 	tstls	r2, r0
    3824:	0a921900 	beq	fe489c2c <CLKDIVN+0xb2489c18>
    3828:	78010000 	stmvcda	r1, {}
    382c:	00004802 	andeq	r4, r0, r2, lsl #16
    3830:	18510100 	ldmneda	r1, {r8}^
    3834:	006d756e 	rsbeq	r7, sp, lr, ror #10
    3838:	a3027901 	tstge	r2, #16384	; 0x4000
    383c:	01000002 	tsteq	r0, r2
    3840:	0afc1957 	beq	fff09da4 <CLKDIVN+0xb3f09d90>
    3844:	7a010000 	bvc	4384c <DISABLE_IRQ+0x437cc>
    3848:	0002a302 	andeq	sl, r2, r2, lsl #6
    384c:	195e0100 	ldmnedb	lr, {r8}^
    3850:	00000aaf 	andeq	r0, r0, pc, lsr #21
    3854:	a3027b01 	tstge	r2, #1024	; 0x400
    3858:	01000002 	tsteq	r0, r2
    385c:	0b291952 	bleq	a49dac <DISABLE_IRQ+0xa49d2c>
    3860:	7c010000 	stcvc	0, cr0, [r1], {0}
    3864:	0002a302 	andeq	sl, r2, r2, lsl #6
    3868:	19500100 	ldmnedb	r0, {r8}^
    386c:	00000b3b 	andeq	r0, r0, fp, lsr fp
    3870:	a3027d01 	tstge	r2, #64	; 0x40
    3874:	01000002 	tsteq	r0, r2
    3878:	07e52056 	undefined
    387c:	4d540000 	ldcmil	0, cr0, [r4]
    3880:	4d643000 	stcmil	0, cr3, [r4]
    3884:	69183000 	ldmvsdb	r8, {ip, sp}
    3888:	03350100 	teqeq	r5, #0	; 0x0
    388c:	00000554 	andeq	r0, r0, r4, asr r5
    3890:	1b005401 	blne	1889c <DISABLE_IRQ+0x1881c>
    3894:	000007fb 	streqd	r0, [r0], -fp
    3898:	00000100 	andeq	r0, r0, r0, lsl #2
    389c:	01006918 	tsteq	r0, r8, lsl r9
    38a0:	08d60338 	ldmeqia	r6, {r3, r4, r5, r8, r9}^
    38a4:	54010000 	strpl	r0, [r1]
    38a8:	08111b00 	ldmeqda	r1, {r8, r9, fp, ip}
    38ac:	01180000 	tsteq	r8, r0
    38b0:	73180000 	tstvc	r8, #0	; 0x0
    38b4:	02c90100 	sbceq	r0, r9, #0	; 0x0
    38b8:	00000042 	andeq	r0, r0, r2, asr #32
    38bc:	20005c01 	andcs	r5, r0, r1, lsl #24
    38c0:	0000082b 	andeq	r0, r0, fp, lsr #16
    38c4:	30004fa4 	andcc	r4, r0, r4, lsr #31
    38c8:	30004fd8 	ldrccd	r4, [r0], -r8
    38cc:	01007318 	tsteq	r0, r8, lsl r3
    38d0:	004202be 	streqh	r0, [r2], #-46
    38d4:	53010000 	tstpl	r1, #0	; 0x0
    38d8:	08452000 	stmeqda	r5, {sp}^
    38dc:	4ffc0000 	swimi	0x00fc0000
    38e0:	500c3000 	andpl	r3, ip, r0
    38e4:	69183000 	ldmvsdb	r8, {ip, sp}
    38e8:	02db0100 	sbceqs	r0, fp, #0	; 0x0
    38ec:	00000554 	andeq	r0, r0, r4, asr r5
    38f0:	20005201 	andcs	r5, r0, r1, lsl #4
    38f4:	0000085f 	andeq	r0, r0, pc, asr r8
    38f8:	30005028 	andcc	r5, r0, r8, lsr #32
    38fc:	30005038 	andcc	r5, r0, r8, lsr r0
    3900:	01007318 	tsteq	r0, r8, lsl r3
    3904:	08dc0313 	ldmeqia	ip, {r0, r1, r4, r8, r9}^
    3908:	54010000 	strpl	r0, [r1]
    390c:	08751b00 	ldmeqda	r5!, {r8, r9, fp, ip}^
    3910:	01380000 	teqeq	r8, r0
    3914:	73180000 	tstvc	r8, #0	; 0x0
    3918:	03160100 	tsteq	r6, #0	; 0x0
    391c:	000008e9 	andeq	r0, r0, r9, ror #17
    3920:	20005401 	andcs	r5, r0, r1, lsl #8
    3924:	0000088f 	andeq	r0, r0, pc, lsl #17
    3928:	30005050 	andcc	r5, r0, r0, asr r0
    392c:	30005060 	andcc	r5, r0, r0, rrx
    3930:	01006c18 	tsteq	r0, r8, lsl ip
    3934:	08f60325 	ldmeqia	r6!, {r0, r2, r5, r8, r9}^
    3938:	54010000 	strpl	r0, [r1]
    393c:	08a51b00 	stmeqia	r5!, {r8, r9, fp, ip}
    3940:	01600000 	cmneq	r0, r0
    3944:	6c180000 	ldcvs	0, cr0, [r8], {0}
    3948:	03280100 	teqeq	r8, #0	; 0x0
    394c:	000008fc 	streqd	r0, [r0], -ip
    3950:	20005401 	andcs	r5, r0, r1, lsl #8
    3954:	000008bf 	streqh	r0, [r0], -pc
    3958:	30005070 	andcc	r5, r0, r0, ror r0
    395c:	30005080 	andcc	r5, r0, r0, lsl #1
    3960:	01007318 	tsteq	r0, r8, lsl r3
    3964:	0902030a 	stmeqdb	r2, {r1, r3, r8, r9}
    3968:	54010000 	strpl	r0, [r1]
    396c:	512c1c00 	teqpl	ip, r0, lsl #24
    3970:	513c3000 	teqpl	ip, r0
    3974:	73183000 	tstvc	r8, #0	; 0x0
    3978:	030d0100 	tsteq	sp, #0	; 0x0
    397c:	0000090f 	andeq	r0, r0, pc, lsl #18
    3980:	00005401 	andeq	r5, r0, r1, lsl #8
    3984:	00300404 	eoreqs	r0, r0, r4, lsl #8
    3988:	04040000 	streq	r0, [r4]
    398c:	000008e2 	andeq	r0, r0, r2, ror #17
    3990:	000a9803 	andeq	r9, sl, r3, lsl #16
    3994:	04050200 	streq	r0, [r5], #-512
    3998:	0008ef04 	andeq	lr, r8, r4, lsl #30
    399c:	031d0300 	tsteq	sp, #0	; 0x0
    39a0:	07020000 	streq	r0, [r2, -r0]
    39a4:	026b0404 	rsbeq	r0, fp, #67108864	; 0x4000000
    39a8:	04040000 	streq	r0, [r4]
    39ac:	00000222 	andeq	r0, r0, r2, lsr #4
    39b0:	09080404 	stmeqdb	r8, {r2, sl}
    39b4:	a0030000 	andge	r0, r3, r0
    39b8:	01000000 	tsteq	r0, r0
    39bc:	25040406 	strcs	r0, [r4, #-1030]
    39c0:	15000001 	strne	r0, [r0, #-1]
    39c4:	00000966 	andeq	r0, r0, r6, ror #18
    39c8:	000ae301 	andeq	lr, sl, r1, lsl #6
    39cc:	034f0100 	cmpeq	pc, #0	; 0x0
    39d0:	0002a301 	andeq	sl, r2, r1, lsl #6
    39d4:	00519800 	subeqs	r9, r1, r0, lsl #16
    39d8:	0051b830 	subeqs	fp, r1, r0, lsr r8
    39dc:	165d0130 	undefined
    39e0:	00667562 	rsbeq	r7, r6, r2, ror #10
    39e4:	f9034e01 	stmnvdb	r3, {r0, r9, sl, fp, lr}
    39e8:	01000000 	tsteq	r0, r0
    39ec:	6d661650 	stcvsl	6, cr1, [r6, #-320]!
    39f0:	4e010074 	mcrmi	0, 0, r0, cr1, cr4, {3}
    39f4:	0000f903 	andeq	pc, r0, r3, lsl #18
    39f8:	04910200 	ldreq	r0, [r1], #512
    39fc:	02341e1d 	eoreqs	r1, r4, #464	; 0x1d0
    3a00:	50010000 	andpl	r0, r1, r0
    3a04:	00003703 	andeq	r3, r0, r3, lsl #14
    3a08:	00691f00 	rsbeq	r1, r9, r0, lsl #30
    3a0c:	a3035101 	tstge	r3, #1073741824	; 0x40000000
    3a10:	00000002 	andeq	r0, r0, r2
    3a14:	00097113 	andeq	r7, r9, r3, lsl r1
    3a18:	00012500 	andeq	r2, r1, r0, lsl #10
    3a1c:	22002100 	andcs	r2, r0, #0	; 0x0
    3a20:	00000102 	andeq	r0, r0, r2, lsl #2
    3a24:	09660f02 	stmeqdb	r6!, {r1, r8, r9, sl, fp}^
    3a28:	01010000 	tsteq	r1, r0
	...
Disassembly of section .debug_abbrev:

00000000 <.debug_abbrev>:
       0:	10001101 	andne	r1, r0, r1, lsl #2
       4:	12011106 	andne	r1, r1, #-2147483647	; 0x80000001
       8:	1b080301 	blne	200c14 <DISABLE_IRQ+0x200b94>
       c:	13082508 	tstne	r8, #33554432	; 0x2000000
      10:	00000005 	andeq	r0, r0, r5
      14:	10011101 	andne	r1, r1, r1, lsl #2
      18:	11011206 	tstne	r1, r6, lsl #4
      1c:	130e2501 	tstne	lr, #4194304	; 0x400000
      20:	1b0e030b 	blne	380c54 <DISABLE_IRQ+0x380bd4>
      24:	0200000e 	andeq	r0, r0, #14	; 0xe
      28:	0c3f002e 	ldceq	0, cr0, [pc], #-184
      2c:	0b3a0e03 	bleq	e83840 <DISABLE_IRQ+0xe837c0>
      30:	01110b3b 	tsteq	r1, fp, lsr fp
      34:	0a400112 	beq	1000484 <DISABLE_IRQ+0x1000404>
      38:	2e030000 	cdpcs	0, 0, cr0, cr3, cr0, {0}
      3c:	3f130101 	swicc	0x00130101
      40:	3a0e030c 	bcc	380c78 <DISABLE_IRQ+0x380bf8>
      44:	270b3b0b 	strcs	r3, [fp, -fp, lsl #22]
      48:	1201110c 	andne	r1, r1, #3	; 0x3
      4c:	000a4001 	andeq	r4, sl, r1
      50:	00340400 	eoreqs	r0, r4, r0, lsl #8
      54:	0b3a0803 	bleq	e82068 <DISABLE_IRQ+0xe81fe8>
      58:	13490b3b 	cmpne	r9, #60416	; 0xec00
      5c:	00000a02 	andeq	r0, r0, r2, lsl #20
      60:	49003505 	stmmidb	r0, {r0, r2, r8, sl, ip, sp}
      64:	06000013 	undefined
      68:	0e030024 	cdpeq	0, 0, cr0, cr3, cr4, {1}
      6c:	0b3e0b0b 	bleq	f82ca0 <DISABLE_IRQ+0xf82c20>
      70:	2e070000 	cdpcs	0, 0, cr0, cr7, cr0, {0}
      74:	030c3f00 	tsteq	ip, #0	; 0x0
      78:	3b0b3a0e 	blcc	2ce8b8 <DISABLE_IRQ+0x2ce838>
      7c:	110c270b 	tstne	ip, fp, lsl #14
      80:	40011201 	andmi	r1, r1, r1, lsl #4
      84:	0000000a 	andeq	r0, r0, sl
      88:	10011101 	andne	r1, r1, r1, lsl #2
      8c:	11011206 	tstne	r1, r6, lsl #4
      90:	130e2501 	tstne	lr, #4194304	; 0x400000
      94:	1b0e030b 	blne	380cc8 <DISABLE_IRQ+0x380c48>
      98:	0200000e 	andeq	r0, r0, #14	; 0xe
      9c:	0e030024 	cdpeq	0, 0, cr0, cr3, cr4, {1}
      a0:	0b3e0b0b 	bleq	f82cd4 <DISABLE_IRQ+0xf82c54>
      a4:	13030000 	tstne	r3, #0	; 0x0
      a8:	03130101 	tsteq	r3, #1073741824	; 0x40000000
      ac:	3a0b0b0e 	bcc	2c2cec <DISABLE_IRQ+0x2c2c6c>
      b0:	000b3b0b 	andeq	r3, fp, fp, lsl #22
      b4:	000d0400 	andeq	r0, sp, r0, lsl #8
      b8:	0b3a0e03 	bleq	e838cc <DISABLE_IRQ+0xe8384c>
      bc:	13490b3b 	cmpne	r9, #60416	; 0xec00
      c0:	00000a38 	andeq	r0, r0, r8, lsr sl
      c4:	0b000f05 	bleq	3ce0 <DISABLE_IRQ+0x3c60>
      c8:	0013490b 	andeqs	r4, r3, fp, lsl #18
      cc:	00240600 	eoreq	r0, r4, r0, lsl #12
      d0:	0b0b0803 	bleq	2c20e4 <DISABLE_IRQ+0x2c2064>
      d4:	00000b3e 	andeq	r0, r0, lr, lsr fp
      d8:	01012e07 	tsteq	r1, r7, lsl #28
      dc:	030c3f13 	tsteq	ip, #76	; 0x4c
      e0:	3b0b3a0e 	blcc	2ce920 <DISABLE_IRQ+0x2ce8a0>
      e4:	110c270b 	tstne	ip, fp, lsl #14
      e8:	40011201 	andmi	r1, r1, r1, lsl #4
      ec:	0800000a 	stmeqda	r0, {r1, r3}
      f0:	08030034 	stmeqda	r3, {r2, r4, r5}
      f4:	0b3b0b3a 	bleq	ec2de4 <DISABLE_IRQ+0xec2d64>
      f8:	0a021349 	beq	84e24 <DISABLE_IRQ+0x84da4>
      fc:	0b090000 	bleq	240104 <DISABLE_IRQ+0x240084>
     100:	00065501 	andeq	r5, r6, r1, lsl #10
     104:	00340a00 	eoreqs	r0, r4, r0, lsl #20
     108:	0b3a0e03 	bleq	e8391c <DISABLE_IRQ+0xe8389c>
     10c:	13490b3b 	cmpne	r9, #60416	; 0xec00
     110:	00000a02 	andeq	r0, r0, r2, lsl #20
     114:	4900260b 	stmmidb	r0, {r0, r1, r3, r9, sl, sp}
     118:	0c000013 	stceq	0, cr0, [r0], {19}
     11c:	0c3f002e 	ldceq	0, cr0, [pc], #-184
     120:	0b3a0e03 	bleq	e83934 <DISABLE_IRQ+0xe838b4>
     124:	0c270b3b 	stceq	11, cr0, [r7], #-236
     128:	01120111 	tsteq	r2, r1, lsl r1
     12c:	00000a40 	andeq	r0, r0, r0, asr #20
     130:	0300050d 	tsteq	r0, #54525952	; 0x3400000
     134:	3b0b3a08 	blcc	2ce95c <DISABLE_IRQ+0x2ce8dc>
     138:	0213490b 	andeqs	r4, r3, #180224	; 0x2c000
     13c:	0e00000a 	cdpeq	0, 0, cr0, cr0, cr10, {0}
     140:	0b0b000f 	bleq	2c0184 <DISABLE_IRQ+0x2c0104>
     144:	050f0000 	streq	r0, [pc, #0]	; 14c <DISABLE_IRQ+0xcc>
     148:	3a0e0300 	bcc	380d50 <DISABLE_IRQ+0x380cd0>
     14c:	490b3b0b 	stmmidb	fp, {r0, r1, r3, r8, r9, fp, ip, sp}
     150:	000a0213 	andeq	r0, sl, r3, lsl r2
     154:	012e1000 	teqeq	lr, r0
     158:	0c3f1301 	ldceq	3, cr1, [pc], #-4
     15c:	0b3a0e03 	bleq	e83970 <DISABLE_IRQ+0xe838f0>
     160:	13490b3b 	cmpne	r9, #60416	; 0xec00
     164:	00000c3c 	andeq	r0, r0, ip, lsr ip
     168:	00001811 	andeq	r1, r0, r1, lsl r8
     16c:	010b1200 	tsteq	fp, r0, lsl #4
     170:	06551301 	ldreqb	r1, [r5], -r1, lsl #6
     174:	2e130000 	wxorcs	wr0, wr3, wr0
     178:	030c3f01 	tsteq	ip, #4	; 0x4
     17c:	3b0b3a0e 	blcc	2ce9bc <DISABLE_IRQ+0x2ce93c>
     180:	3c13490b 	ldccc	9, cr4, [r3], {11}
     184:	1400000c 	strne	r0, [r0], #-12
     188:	13010101 	tstne	r1, #1073741824	; 0x40000000
     18c:	00001349 	andeq	r1, r0, r9, asr #6
     190:	49002115 	stmmidb	r0, {r0, r2, r4, r8, sp}
     194:	000b2f13 	andeq	r2, fp, r3, lsl pc
     198:	010b1600 	tsteq	fp, r0, lsl #12
     19c:	01111301 	tsteq	r1, r1, lsl #6
     1a0:	00000112 	andeq	r0, r0, r2, lsl r1
     1a4:	11010b17 	tstne	r1, r7, lsl fp
     1a8:	00011201 	andeq	r1, r1, r1, lsl #4
     1ac:	00211800 	eoreq	r1, r1, r0, lsl #16
     1b0:	34190000 	ldrcc	r0, [r9]
     1b4:	3a0e0300 	bcc	380dbc <DISABLE_IRQ+0x380d3c>
     1b8:	490b3b0b 	stmmidb	fp, {r0, r1, r3, r8, r9, fp, ip, sp}
     1bc:	3c0c3f13 	stccc	15, cr3, [ip], {19}
     1c0:	1a00000c 	bne	1f8 <DISABLE_IRQ+0x178>
     1c4:	0e030034 	mcreq	0, 0, r0, cr3, cr4, {1}
     1c8:	0b3b0b3a 	bleq	ec2eb8 <DISABLE_IRQ+0xec2e38>
     1cc:	0c3f1349 	ldceq	3, cr1, [pc], #-292
     1d0:	00000a02 	andeq	r0, r0, r2, lsl #20
     1d4:	01110100 	tsteq	r1, r0, lsl #2
     1d8:	01120610 	tsteq	r2, r0, lsl r6
     1dc:	0e250111 	mcreq	1, 1, r0, cr5, cr1, {0}
     1e0:	0e030b13 	mcreq	11, 0, r0, cr3, cr3, {0}
     1e4:	00000e1b 	andeq	r0, r0, fp, lsl lr
     1e8:	03002402 	tsteq	r0, #33554432	; 0x2000000
     1ec:	3e0b0b0e 	fmacdcc	d0, d11, d14
     1f0:	0300000b 	tsteq	r0, #11	; 0xb
     1f4:	13010113 	tstne	r1, #-1073741820	; 0xc0000004
     1f8:	0b0b0e03 	bleq	2c3a0c <DISABLE_IRQ+0x2c398c>
     1fc:	0b3b0b3a 	bleq	ec2eec <DISABLE_IRQ+0xec2e6c>
     200:	0d040000 	stceq	0, cr0, [r4]
     204:	3a0e0300 	bcc	380e0c <DISABLE_IRQ+0x380d8c>
     208:	490b3b0b 	stmmidb	fp, {r0, r1, r3, r8, r9, fp, ip, sp}
     20c:	000a3813 	andeq	r3, sl, r3, lsl r8
     210:	000f0500 	andeq	r0, pc, r0, lsl #10
     214:	13490b0b 	cmpne	r9, #11264	; 0x2c00
     218:	24060000 	strcs	r0, [r6]
     21c:	0b080300 	bleq	200e24 <DISABLE_IRQ+0x200da4>
     220:	000b3e0b 	andeq	r3, fp, fp, lsl #28
     224:	01010700 	tsteq	r1, r0, lsl #14
     228:	13491301 	cmpne	r9, #67108864	; 0x4000000
     22c:	21080000 	tstcs	r8, r0
     230:	2f134900 	swics	0x00134900
     234:	0900000b 	stmeqdb	r0, {r0, r1, r3}
     238:	13010113 	tstne	r1, #-1073741820	; 0xc0000004
     23c:	050b0e03 	streq	r0, [fp, #-3587]
     240:	0b3b0b3a 	bleq	ec2f30 <DISABLE_IRQ+0xec2eb0>
     244:	0d0a0000 	stceq	0, cr0, [sl]
     248:	3a080300 	bcc	200e50 <DISABLE_IRQ+0x200dd0>
     24c:	490b3b0b 	stmmidb	fp, {r0, r1, r3, r8, r9, fp, ip, sp}
     250:	000a3813 	andeq	r3, sl, r3, lsl r8
     254:	012e0b00 	teqeq	lr, r0, lsl #22
     258:	0c3f1301 	ldceq	3, cr1, [pc], #-4
     25c:	0b3a0e03 	bleq	e83a70 <DISABLE_IRQ+0xe839f0>
     260:	0c270b3b 	stceq	11, cr0, [r7], #-236
     264:	01111349 	tsteq	r1, r9, asr #6
     268:	0a400112 	beq	10006b8 <DISABLE_IRQ+0x1000638>
     26c:	340c0000 	strcc	r0, [ip]
     270:	3a080300 	bcc	200e78 <DISABLE_IRQ+0x200df8>
     274:	490b3b0b 	stmmidb	fp, {r0, r1, r3, r8, r9, fp, ip, sp}
     278:	000a0213 	andeq	r0, sl, r3, lsl r2
     27c:	002e0d00 	eoreq	r0, lr, r0, lsl #26
     280:	0e030c3f 	mcreq	12, 0, r0, cr3, cr15, {1}
     284:	0b3b0b3a 	bleq	ec2f74 <DISABLE_IRQ+0xec2ef4>
     288:	01110c27 	tsteq	r1, r7, lsr #24
     28c:	0a400112 	beq	10006dc <DISABLE_IRQ+0x100065c>
     290:	0b0e0000 	bleq	380298 <DISABLE_IRQ+0x380218>
     294:	55130101 	ldrpl	r0, [r3, #-257]
     298:	0f000006 	swieq	0x00000006
     29c:	0e030034 	mcreq	0, 0, r0, cr3, cr4, {1}
     2a0:	0b3b0b3a 	bleq	ec2f90 <DISABLE_IRQ+0xec2f10>
     2a4:	0a021349 	beq	84fd0 <DISABLE_IRQ+0x84f50>
     2a8:	0b100000 	bleq	4002b0 <DISABLE_IRQ+0x400230>
     2ac:	00065501 	andeq	r5, r6, r1, lsl #10
     2b0:	000f1100 	andeq	r1, pc, r0, lsl #2
     2b4:	00000b0b 	andeq	r0, r0, fp, lsl #22
     2b8:	49002612 	stmmidb	r0, {r1, r4, r9, sl, sp}
     2bc:	13000013 	tstne	r0, #19	; 0x13
     2c0:	1301012e 	tstne	r1, #-2147483637	; 0x8000000b
     2c4:	0e030c3f 	mcreq	12, 0, r0, cr3, cr15, {1}
     2c8:	0b3b0b3a 	bleq	ec2fb8 <DISABLE_IRQ+0xec2f38>
     2cc:	01110c27 	tsteq	r1, r7, lsr #24
     2d0:	0a400112 	beq	1000720 <DISABLE_IRQ+0x10006a0>
     2d4:	05140000 	ldreq	r0, [r4]
     2d8:	3a0e0300 	bcc	380ee0 <DISABLE_IRQ+0x380e60>
     2dc:	490b3b0b 	stmmidb	fp, {r0, r1, r3, r8, r9, fp, ip, sp}
     2e0:	000a0213 	andeq	r0, sl, r3, lsl r2
     2e4:	00051500 	andeq	r1, r5, r0, lsl #10
     2e8:	0b3a0803 	bleq	e822fc <DISABLE_IRQ+0xe8227c>
     2ec:	13490b3b 	cmpne	r9, #60416	; 0xec00
     2f0:	00000a02 	andeq	r0, r0, r2, lsl #20
     2f4:	11010b16 	tstne	r1, r6, lsl fp
     2f8:	00011201 	andeq	r1, r1, r1, lsl #4
     2fc:	00211700 	eoreq	r1, r1, r0, lsl #14
     300:	34180000 	ldrcc	r0, [r8]
     304:	3a0e0300 	bcc	380f0c <DISABLE_IRQ+0x380e8c>
     308:	490b3b0b 	stmmidb	fp, {r0, r1, r3, r8, r9, fp, ip, sp}
     30c:	3c0c3f13 	stccc	15, cr3, [ip], {19}
     310:	1900000c 	stmnedb	r0, {r2, r3}
     314:	08030034 	stmeqda	r3, {r2, r4, r5}
     318:	0b3b0b3a 	bleq	ec3008 <DISABLE_IRQ+0xec2f88>
     31c:	0c3f1349 	ldceq	3, cr1, [pc], #-292
     320:	00000a02 	andeq	r0, r0, r2, lsl #20
     324:	01110100 	tsteq	r1, r0, lsl #2
     328:	01120610 	tsteq	r2, r0, lsl r6
     32c:	0e250111 	mcreq	1, 1, r0, cr5, cr1, {0}
     330:	0e030b13 	mcreq	11, 0, r0, cr3, cr3, {0}
     334:	00000e1b 	andeq	r0, r0, fp, lsl lr
     338:	03002402 	tsteq	r0, #33554432	; 0x2000000
     33c:	3e0b0b0e 	fmacdcc	d0, d11, d14
     340:	0300000b 	tsteq	r0, #11	; 0xb
     344:	13010113 	tstne	r1, #-1073741820	; 0xc0000004
     348:	0b0b0e03 	bleq	2c3b5c <DISABLE_IRQ+0x2c3adc>
     34c:	0b3b0b3a 	bleq	ec303c <DISABLE_IRQ+0xec2fbc>
     350:	0d040000 	stceq	0, cr0, [r4]
     354:	3a0e0300 	bcc	380f5c <DISABLE_IRQ+0x380edc>
     358:	490b3b0b 	stmmidb	fp, {r0, r1, r3, r8, r9, fp, ip, sp}
     35c:	000a3813 	andeq	r3, sl, r3, lsl r8
     360:	000f0500 	andeq	r0, pc, r0, lsl #10
     364:	13490b0b 	cmpne	r9, #11264	; 0x2c00
     368:	24060000 	strcs	r0, [r6]
     36c:	0b080300 	bleq	200f74 <DISABLE_IRQ+0x200ef4>
     370:	000b3e0b 	andeq	r3, fp, fp, lsl #28
     374:	01010700 	tsteq	r1, r0, lsl #14
     378:	13491301 	cmpne	r9, #67108864	; 0x4000000
     37c:	21080000 	tstcs	r8, r0
     380:	2f134900 	swics	0x00134900
     384:	0900000b 	stmeqdb	r0, {r0, r1, r3}
     388:	13010113 	tstne	r1, #-1073741820	; 0xc0000004
     38c:	050b0e03 	streq	r0, [fp, #-3587]
     390:	0b3b0b3a 	bleq	ec3080 <DISABLE_IRQ+0xec3000>
     394:	0d0a0000 	stceq	0, cr0, [sl]
     398:	3a080300 	bcc	200fa0 <DISABLE_IRQ+0x200f20>
     39c:	490b3b0b 	stmmidb	fp, {r0, r1, r3, r8, r9, fp, ip, sp}
     3a0:	000a3813 	andeq	r3, sl, r3, lsl r8
     3a4:	012e0b00 	teqeq	lr, r0, lsl #22
     3a8:	0c3f1301 	ldceq	3, cr1, [pc], #-4
     3ac:	0b3a0e03 	bleq	e83bc0 <DISABLE_IRQ+0xe83b40>
     3b0:	0c270b3b 	stceq	11, cr0, [r7], #-236
     3b4:	01111349 	tsteq	r1, r9, asr #6
     3b8:	0a400112 	beq	1000808 <DISABLE_IRQ+0x1000788>
     3bc:	340c0000 	strcc	r0, [ip]
     3c0:	3a0e0300 	bcc	380fc8 <DISABLE_IRQ+0x380f48>
     3c4:	490b3b0b 	stmmidb	fp, {r0, r1, r3, r8, r9, fp, ip, sp}
     3c8:	000a0213 	andeq	r0, sl, r3, lsl r2
     3cc:	00340d00 	eoreqs	r0, r4, r0, lsl #26
     3d0:	0b3a0803 	bleq	e823e4 <DISABLE_IRQ+0xe82364>
     3d4:	13490b3b 	cmpne	r9, #60416	; 0xec00
     3d8:	00000a02 	andeq	r0, r0, r2, lsl #20
     3dc:	0300050e 	tsteq	r0, #58720256	; 0x3800000
     3e0:	3b0b3a08 	blcc	2cec08 <DISABLE_IRQ+0x2ceb88>
     3e4:	0213490b 	andeqs	r4, r3, #180224	; 0x2c000
     3e8:	0f00000a 	swieq	0x0000000a
     3ec:	0e030005 	cdpeq	0, 0, cr0, cr3, cr5, {0}
     3f0:	0b3b0b3a 	bleq	ec30e0 <DISABLE_IRQ+0xec3060>
     3f4:	0a021349 	beq	85120 <DISABLE_IRQ+0x850a0>
     3f8:	34100000 	ldrcc	r0, [r0]
     3fc:	3a080300 	bcc	201004 <DISABLE_IRQ+0x200f84>
     400:	490b3b0b 	stmmidb	fp, {r0, r1, r3, r8, r9, fp, ip, sp}
     404:	11000013 	tstne	r0, r3, lsl r0
     408:	0c3f012e 	ldfeqs	f0, [pc], #-184
     40c:	0b3a0e03 	bleq	e83c20 <DISABLE_IRQ+0xe83ba0>
     410:	13490b3b 	cmpne	r9, #60416	; 0xec00
     414:	00000c3c 	andeq	r0, r0, ip, lsr ip
     418:	00001812 	andeq	r1, r0, r2, lsl r8
     41c:	01151300 	tsteq	r5, r0, lsl #6
     420:	0c271301 	stceq	3, cr1, [r7], #-4
     424:	05140000 	ldreq	r0, [r4]
     428:	00134900 	andeqs	r4, r3, r0, lsl #18
     42c:	000f1500 	andeq	r1, pc, r0, lsl #10
     430:	00000b0b 	andeq	r0, r0, fp, lsl #22
     434:	00002116 	andeq	r2, r0, r6, lsl r1
     438:	00341700 	eoreqs	r1, r4, r0, lsl #14
     43c:	0b3a0e03 	bleq	e83c50 <DISABLE_IRQ+0xe83bd0>
     440:	13490b3b 	cmpne	r9, #60416	; 0xec00
     444:	0c3c0c3f 	ldceq	12, cr0, [ip], #-252
     448:	01000000 	tsteq	r0, r0
     44c:	06100111 	undefined
     450:	01110112 	tsteq	r1, r2, lsl r1
     454:	0b130e25 	bleq	4c3cf0 <DISABLE_IRQ+0x4c3c70>
     458:	0e1b0e03 	cdpeq	14, 1, cr0, cr11, cr3, {0}
     45c:	2e020000 	cdpcs	0, 0, cr0, cr2, cr0, {0}
     460:	3f130101 	swicc	0x00130101
     464:	3a0e030c 	bcc	38109c <DISABLE_IRQ+0x38101c>
     468:	270b3b0b 	strcs	r3, [fp, -fp, lsl #22]
     46c:	1113490c 	tstne	r3, ip, lsl #18
     470:	40011201 	andmi	r1, r1, r1, lsl #4
     474:	0300000a 	tsteq	r0, #10	; 0xa
     478:	08030034 	stmeqda	r3, {r2, r4, r5}
     47c:	0b3b0b3a 	bleq	ec316c <DISABLE_IRQ+0xec30ec>
     480:	0a021349 	beq	851ac <DISABLE_IRQ+0x8512c>
     484:	0f040000 	swieq	0x00040000
     488:	490b0b00 	stmmidb	fp, {r8, r9, fp}
     48c:	05000013 	streq	r0, [r0, #-19]
     490:	0e030024 	cdpeq	0, 0, cr0, cr3, cr4, {1}
     494:	0b3e0b0b 	bleq	f830c8 <DISABLE_IRQ+0xf83048>
     498:	24060000 	strcs	r0, [r6]
     49c:	0b080300 	bleq	2010a4 <DISABLE_IRQ+0x201024>
     4a0:	000b3e0b 	andeq	r3, fp, fp, lsl #28
     4a4:	00050700 	andeq	r0, r5, r0, lsl #14
     4a8:	0b3a0e03 	bleq	e83cbc <DISABLE_IRQ+0xe83c3c>
     4ac:	13490b3b 	cmpne	r9, #60416	; 0xec00
     4b0:	00000a02 	andeq	r0, r0, r2, lsl #20
     4b4:	03003408 	tsteq	r0, #134217728	; 0x8000000
     4b8:	3b0b3a0e 	blcc	2cecf8 <DISABLE_IRQ+0x2cec78>
     4bc:	0213490b 	andeqs	r4, r3, #180224	; 0x2c000
     4c0:	0900000a 	stmeqdb	r0, {r1, r3}
     4c4:	13010101 	tstne	r1, #1073741824	; 0x40000000
     4c8:	00001349 	andeq	r1, r0, r9, asr #6
     4cc:	4900210a 	stmmidb	r0, {r1, r3, r8, sp}
     4d0:	00052f13 	andeq	r2, r5, r3, lsl pc
     4d4:	00340b00 	eoreqs	r0, r4, r0, lsl #22
     4d8:	0b3a0e03 	bleq	e83cec <DISABLE_IRQ+0xe83c6c>
     4dc:	13490b3b 	cmpne	r9, #60416	; 0xec00
     4e0:	0a020c3f 	beq	835e4 <DISABLE_IRQ+0x83564>
     4e4:	01000000 	tsteq	r0, r0
     4e8:	06100111 	undefined
     4ec:	01110112 	tsteq	r1, r2, lsl r1
     4f0:	0b130e25 	bleq	4c3d8c <DISABLE_IRQ+0x4c3d0c>
     4f4:	0e1b0e03 	cdpeq	14, 1, cr0, cr11, cr3, {0}
     4f8:	2e020000 	cdpcs	0, 0, cr0, cr2, cr0, {0}
     4fc:	3f130101 	swicc	0x00130101
     500:	3a0e030c 	bcc	381138 <DISABLE_IRQ+0x3810b8>
     504:	270b3b0b 	strcs	r3, [fp, -fp, lsl #22]
     508:	1113490c 	tstne	r3, ip, lsl #18
     50c:	40011201 	andmi	r1, r1, r1, lsl #4
     510:	0300000a 	tsteq	r0, #10	; 0xa
     514:	08030034 	stmeqda	r3, {r2, r4, r5}
     518:	0b3b0b3a 	bleq	ec3208 <DISABLE_IRQ+0xec3188>
     51c:	0a021349 	beq	85248 <DISABLE_IRQ+0x851c8>
     520:	24040000 	strcs	r0, [r4]
     524:	0b080300 	bleq	20112c <DISABLE_IRQ+0x2010ac>
     528:	000b3e0b 	andeq	r3, fp, fp, lsl #28
     52c:	000f0500 	andeq	r0, pc, r0, lsl #10
     530:	13490b0b 	cmpne	r9, #11264	; 0x2c00
     534:	35060000 	strcc	r0, [r6]
     538:	00134900 	andeqs	r4, r3, r0, lsl #18
     53c:	012e0700 	teqeq	lr, r0, lsl #14
     540:	0c3f1301 	ldceq	3, cr1, [pc], #-4
     544:	0b3a0e03 	bleq	e83d58 <DISABLE_IRQ+0xe83cd8>
     548:	0c270b3b 	stceq	11, cr0, [r7], #-236
     54c:	01120111 	tsteq	r2, r1, lsl r1
     550:	00000a40 	andeq	r0, r0, r0, asr #20
     554:	03003408 	tsteq	r0, #134217728	; 0x8000000
     558:	3b0b3a0e 	blcc	2ced98 <DISABLE_IRQ+0x2ced18>
     55c:	3f13490b 	swicc	0x0013490b
     560:	000c3c0c 	andeq	r3, ip, ip, lsl #24
     564:	002e0900 	eoreq	r0, lr, r0, lsl #18
     568:	0e030c3f 	mcreq	12, 0, r0, cr3, cr15, {1}
     56c:	0b3b0b3a 	bleq	ec325c <DISABLE_IRQ+0xec31dc>
     570:	01110c27 	tsteq	r1, r7, lsr #24
     574:	0a400112 	beq	10009c4 <DISABLE_IRQ+0x1000944>
     578:	050a0000 	streq	r0, [sl]
     57c:	3a080300 	bcc	201184 <DISABLE_IRQ+0x201104>
     580:	490b3b0b 	stmmidb	fp, {r0, r1, r3, r8, r9, fp, ip, sp}
     584:	000a0213 	andeq	r0, sl, r3, lsl r2
     588:	00240b00 	eoreq	r0, r4, r0, lsl #22
     58c:	0b0b0e03 	bleq	2c3da0 <DISABLE_IRQ+0x2c3d20>
     590:	00000b3e 	andeq	r0, r0, lr, lsr fp
     594:	0300050c 	tsteq	r0, #50331648	; 0x3000000
     598:	3b0b3a0e 	blcc	2cedd8 <DISABLE_IRQ+0x2ced58>
     59c:	0213490b 	andeqs	r4, r3, #180224	; 0x2c000
     5a0:	0d00000a 	stceq	0, cr0, [r0, #-40]
     5a4:	0e030034 	mcreq	0, 0, r0, cr3, cr4, {1}
     5a8:	0b3b0b3a 	bleq	ec3298 <DISABLE_IRQ+0xec3218>
     5ac:	0a021349 	beq	852d8 <DISABLE_IRQ+0x85258>
     5b0:	2e0e0000 	cdpcs	0, 0, cr0, cr14, cr0, {0}
     5b4:	030c3f00 	tsteq	ip, #0	; 0x0
     5b8:	3b0b3a0e 	blcc	2cedf8 <DISABLE_IRQ+0x2ced78>
     5bc:	490c270b 	stmmidb	ip, {r0, r1, r3, r8, r9, sl, sp}
     5c0:	12011113 	andne	r1, r1, #-1073741820	; 0xc0000004
     5c4:	000a4001 	andeq	r4, sl, r1
     5c8:	012e0f00 	teqeq	lr, r0, lsl #30
     5cc:	0e030c3f 	mcreq	12, 0, r0, cr3, cr15, {1}
     5d0:	0b3b0b3a 	bleq	ec32c0 <DISABLE_IRQ+0xec3240>
     5d4:	01110c27 	tsteq	r1, r7, lsr #24
     5d8:	0a400112 	beq	1000a28 <DISABLE_IRQ+0x10009a8>
     5dc:	01000000 	tsteq	r0, r0
     5e0:	06100111 	undefined
     5e4:	01110112 	tsteq	r1, r2, lsl r1
     5e8:	0b130e25 	bleq	4c3e84 <DISABLE_IRQ+0x4c3e04>
     5ec:	0e1b0e03 	cdpeq	14, 1, cr0, cr11, cr3, {0}
     5f0:	2e020000 	cdpcs	0, 0, cr0, cr2, cr0, {0}
     5f4:	030c3f00 	tsteq	ip, #0	; 0x0
     5f8:	3b0b3a0e 	blcc	2cee38 <DISABLE_IRQ+0x2cedb8>
     5fc:	1201110b 	andne	r1, r1, #-1073741822	; 0xc0000002
     600:	000a4001 	andeq	r4, sl, r1
     604:	012e0300 	teqeq	lr, r0, lsl #6
     608:	0c3f1301 	ldceq	3, cr1, [pc], #-4
     60c:	0b3a0e03 	bleq	e83e20 <DISABLE_IRQ+0xe83da0>
     610:	0c270b3b 	stceq	11, cr0, [r7], #-236
     614:	01120111 	tsteq	r2, r1, lsl r1
     618:	00000a40 	andeq	r0, r0, r0, asr #20
     61c:	03000504 	tsteq	r0, #16777216	; 0x1000000
     620:	3b0b3a08 	blcc	2cee48 <DISABLE_IRQ+0x2cedc8>
     624:	0213490b 	andeqs	r4, r3, #180224	; 0x2c000
     628:	0500000a 	streq	r0, [r0, #-10]
     62c:	0e030005 	cdpeq	0, 0, cr0, cr3, cr5, {0}
     630:	0b3b0b3a 	bleq	ec3320 <DISABLE_IRQ+0xec32a0>
     634:	0a021349 	beq	85360 <DISABLE_IRQ+0x852e0>
     638:	34060000 	strcc	r0, [r6]
     63c:	3a080300 	bcc	201244 <DISABLE_IRQ+0x2011c4>
     640:	490b3b0b 	stmmidb	fp, {r0, r1, r3, r8, r9, fp, ip, sp}
     644:	000a0213 	andeq	r0, sl, r3, lsl r2
     648:	00340700 	eoreqs	r0, r4, r0, lsl #14
     64c:	0b3a0e03 	bleq	e83e60 <DISABLE_IRQ+0xe83de0>
     650:	13490b3b 	cmpne	r9, #60416	; 0xec00
     654:	00000a02 	andeq	r0, r0, r2, lsl #20
     658:	03002408 	tsteq	r0, #134217728	; 0x8000000
     65c:	3e0b0b0e 	fmacdcc	d0, d11, d14
     660:	0900000b 	stmeqdb	r0, {r0, r1, r3}
     664:	0b0b000f 	bleq	2c06a8 <DISABLE_IRQ+0x2c0628>
     668:	00001349 	andeq	r1, r0, r9, asr #6
     66c:	0300340a 	tsteq	r0, #167772160	; 0xa000000
     670:	3b0b3a0e 	blcc	2ceeb0 <DISABLE_IRQ+0x2cee30>
     674:	3f13490b 	swicc	0x0013490b
     678:	000a020c 	andeq	r0, sl, ip, lsl #4
     67c:	11010000 	tstne	r1, r0
     680:	12061001 	andne	r1, r6, #1	; 0x1
     684:	25011101 	strcs	r1, [r1, #-257]
     688:	030b130e 	tsteq	fp, #939524096	; 0x38000000
     68c:	000e1b0e 	andeq	r1, lr, lr, lsl #22
     690:	00240200 	eoreq	r0, r4, r0, lsl #4
     694:	0b0b0e03 	bleq	2c3ea8 <DISABLE_IRQ+0x2c3e28>
     698:	00000b3e 	andeq	r0, r0, lr, lsr fp
     69c:	01011303 	tsteq	r1, r3, lsl #6
     6a0:	0b0e0313 	bleq	3812f4 <DISABLE_IRQ+0x381274>
     6a4:	3b0b3a0b 	blcc	2ceed8 <DISABLE_IRQ+0x2cee58>
     6a8:	0400000b 	streq	r0, [r0], #-11
     6ac:	0e03000d 	cdpeq	0, 0, cr0, cr3, cr13, {0}
     6b0:	0b3b0b3a 	bleq	ec33a0 <DISABLE_IRQ+0xec3320>
     6b4:	0a381349 	beq	e053e0 <DISABLE_IRQ+0xe05360>
     6b8:	0f050000 	swieq	0x00050000
     6bc:	490b0b00 	stmmidb	fp, {r8, r9, fp}
     6c0:	06000013 	undefined
     6c4:	08030024 	stmeqda	r3, {r2, r5}
     6c8:	0b3e0b0b 	bleq	f832fc <DISABLE_IRQ+0xf8327c>
     6cc:	2e070000 	cdpcs	0, 0, cr0, cr7, cr0, {0}
     6d0:	3f130101 	swicc	0x00130101
     6d4:	3a0e030c 	bcc	38130c <DISABLE_IRQ+0x38128c>
     6d8:	270b3b0b 	strcs	r3, [fp, -fp, lsl #22]
     6dc:	1201110c 	andne	r1, r1, #3	; 0x3
     6e0:	000a4001 	andeq	r4, sl, r1
     6e4:	00050800 	andeq	r0, r5, r0, lsl #16
     6e8:	0b3a0e03 	bleq	e83efc <DISABLE_IRQ+0xe83e7c>
     6ec:	13490b3b 	cmpne	r9, #60416	; 0xec00
     6f0:	00000a02 	andeq	r0, r0, r2, lsl #20
     6f4:	01012e09 	tsteq	r1, r9, lsl #28
     6f8:	030c3f13 	tsteq	ip, #76	; 0x4c
     6fc:	3b0b3a0e 	blcc	2cef3c <DISABLE_IRQ+0x2ceebc>
     700:	490c270b 	stmmidb	ip, {r0, r1, r3, r8, r9, sl, sp}
     704:	12011113 	andne	r1, r1, #-1073741820	; 0xc0000004
     708:	000a4001 	andeq	r4, sl, r1
     70c:	00050a00 	andeq	r0, r5, r0, lsl #20
     710:	0b3a0803 	bleq	e82724 <DISABLE_IRQ+0xe826a4>
     714:	13490b3b 	cmpne	r9, #60416	; 0xec00
     718:	00000a02 	andeq	r0, r0, r2, lsl #20
     71c:	0101010b 	tsteq	r1, fp, lsl #2
     720:	00134913 	andeqs	r4, r3, r3, lsl r9
     724:	00210c00 	eoreq	r0, r1, r0, lsl #24
     728:	340d0000 	strcc	r0, [sp]
     72c:	3a0e0300 	bcc	381334 <DISABLE_IRQ+0x3812b4>
     730:	490b3b0b 	stmmidb	fp, {r0, r1, r3, r8, r9, fp, ip, sp}
     734:	3c0c3f13 	stccc	15, cr3, [ip], {19}
     738:	0000000c 	andeq	r0, r0, ip
     73c:	10011101 	andne	r1, r1, r1, lsl #2
     740:	11011206 	tstne	r1, r6, lsl #4
     744:	130e2501 	tstne	lr, #4194304	; 0x400000
     748:	1b0e030b 	blne	38137c <DISABLE_IRQ+0x3812fc>
     74c:	0200000e 	andeq	r0, r0, #14	; 0xe
     750:	0c3f002e 	ldceq	0, cr0, [pc], #-184
     754:	0b3a0e03 	bleq	e83f68 <DISABLE_IRQ+0xe83ee8>
     758:	0c270b3b 	stceq	11, cr0, [r7], #-236
     75c:	01120111 	tsteq	r2, r1, lsl r1
     760:	00000a40 	andeq	r0, r0, r0, asr #20
     764:	01012e03 	tsteq	r1, r3, lsl #28
     768:	030c3f13 	tsteq	ip, #76	; 0x4c
     76c:	3b0b3a0e 	blcc	2cefac <DISABLE_IRQ+0x2cef2c>
     770:	110c270b 	tstne	ip, fp, lsl #14
     774:	40011201 	andmi	r1, r1, r1, lsl #4
     778:	0400000a 	streq	r0, [r0], #-10
     77c:	08030005 	stmeqda	r3, {r0, r2}
     780:	0b3b0b3a 	bleq	ec3470 <DISABLE_IRQ+0xec33f0>
     784:	0a021349 	beq	854b0 <DISABLE_IRQ+0x85430>
     788:	24050000 	strcs	r0, [r5]
     78c:	0b0e0300 	bleq	381394 <DISABLE_IRQ+0x381314>
     790:	000b3e0b 	andeq	r3, fp, fp, lsl #28
     794:	002e0600 	eoreq	r0, lr, r0, lsl #12
     798:	0e030c3f 	mcreq	12, 0, r0, cr3, cr15, {1}
     79c:	0b3b0b3a 	bleq	ec348c <DISABLE_IRQ+0xec340c>
     7a0:	13490c27 	cmpne	r9, #9984	; 0x2700
     7a4:	01120111 	tsteq	r2, r1, lsl r1
     7a8:	00000a40 	andeq	r0, r0, r0, asr #20
     7ac:	0b000f07 	bleq	43d0 <DISABLE_IRQ+0x4350>
     7b0:	0013490b 	andeqs	r4, r3, fp, lsl #18
     7b4:	012e0800 	teqeq	lr, r0, lsl #16
     7b8:	0c3f1301 	ldceq	3, cr1, [pc], #-4
     7bc:	0b3a0e03 	bleq	e83fd0 <DISABLE_IRQ+0xe83f50>
     7c0:	0c270b3b 	stceq	11, cr0, [r7], #-236
     7c4:	01111349 	tsteq	r1, r9, asr #6
     7c8:	0a400112 	beq	1000c18 <DISABLE_IRQ+0x1000b98>
     7cc:	01090000 	tsteq	r9, r0
     7d0:	49130101 	ldmmidb	r3, {r0, r8}
     7d4:	0a000013 	beq	828 <DISABLE_IRQ+0x7a8>
     7d8:	13490021 	cmpne	r9, #33	; 0x21
     7dc:	0000052f 	andeq	r0, r0, pc, lsr #10
     7e0:	0300340b 	tsteq	r0, #184549376	; 0xb000000
     7e4:	3b0b3a0e 	blcc	2cf024 <DISABLE_IRQ+0x2cefa4>
     7e8:	0213490b 	andeqs	r4, r3, #180224	; 0x2c000
     7ec:	0000000a 	andeq	r0, r0, sl
     7f0:	10011101 	andne	r1, r1, r1, lsl #2
     7f4:	11011206 	tstne	r1, r6, lsl #4
     7f8:	130e2501 	tstne	lr, #4194304	; 0x400000
     7fc:	1b0e030b 	blne	381430 <DISABLE_IRQ+0x3813b0>
     800:	0200000e 	andeq	r0, r0, #14	; 0xe
     804:	0e030024 	cdpeq	0, 0, cr0, cr3, cr4, {1}
     808:	0b3e0b0b 	bleq	f8343c <DISABLE_IRQ+0xf833bc>
     80c:	13030000 	tstne	r3, #0	; 0x0
     810:	03130101 	tsteq	r3, #1073741824	; 0x40000000
     814:	3a0b0b0e 	bcc	2c3454 <DISABLE_IRQ+0x2c33d4>
     818:	000b3b0b 	andeq	r3, fp, fp, lsl #22
     81c:	000d0400 	andeq	r0, sp, r0, lsl #8
     820:	0b3a0e03 	bleq	e84034 <DISABLE_IRQ+0xe83fb4>
     824:	13490b3b 	cmpne	r9, #60416	; 0xec00
     828:	00000a38 	andeq	r0, r0, r8, lsr sl
     82c:	03002405 	tsteq	r0, #83886080	; 0x5000000
     830:	3e0b0b08 	fmacdcc	d0, d11, d8
     834:	0600000b 	streq	r0, [r0], -fp
     838:	13010101 	tstne	r1, #1073741824	; 0x40000000
     83c:	00001349 	andeq	r1, r0, r9, asr #6
     840:	49002107 	stmmidb	r0, {r0, r1, r2, r8, sp}
     844:	000b2f13 	andeq	r2, fp, r3, lsl pc
     848:	000f0800 	andeq	r0, pc, r0, lsl #16
     84c:	13490b0b 	cmpne	r9, #11264	; 0x2c00
     850:	2e090000 	cdpcs	0, 0, cr0, cr9, cr0, {0}
     854:	3f130101 	swicc	0x00130101
     858:	3a0e030c 	bcc	381490 <DISABLE_IRQ+0x381410>
     85c:	270b3b0b 	strcs	r3, [fp, -fp, lsl #22]
     860:	1201110c 	andne	r1, r1, #3	; 0x3
     864:	000a4001 	andeq	r4, sl, r1
     868:	00050a00 	andeq	r0, r5, r0, lsl #20
     86c:	0b3a0803 	bleq	e82880 <DISABLE_IRQ+0xe82800>
     870:	13490b3b 	cmpne	r9, #60416	; 0xec00
     874:	00000a02 	andeq	r0, r0, r2, lsl #20
     878:	0300340b 	tsteq	r0, #184549376	; 0xb000000
     87c:	3b0b3a08 	blcc	2cf0a4 <DISABLE_IRQ+0x2cf024>
     880:	0213490b 	andeqs	r4, r3, #180224	; 0x2c000
     884:	0c00000a 	stceq	0, cr0, [r0], {10}
     888:	08030034 	stmeqda	r3, {r2, r4, r5}
     88c:	0b3b0b3a 	bleq	ec357c <DISABLE_IRQ+0xec34fc>
     890:	00001349 	andeq	r1, r0, r9, asr #6
     894:	0300340d 	tsteq	r0, #218103808	; 0xd000000
     898:	3b0b3a0e 	blcc	2cf0d8 <DISABLE_IRQ+0x2cf058>
     89c:	0213490b 	andeqs	r4, r3, #180224	; 0x2c000
     8a0:	0e00000a 	cdpeq	0, 0, cr0, cr0, cr10, {0}
     8a4:	0e030034 	mcreq	0, 0, r0, cr3, cr4, {1}
     8a8:	0b3b0b3a 	bleq	ec3598 <DISABLE_IRQ+0xec3518>
     8ac:	00001349 	andeq	r1, r0, r9, asr #6
     8b0:	4900210f 	stmmidb	r0, {r0, r1, r2, r3, r8, sp}
     8b4:	00052f13 	andeq	r2, r5, r3, lsl pc
     8b8:	012e1000 	teqeq	lr, r0
     8bc:	0c3f1301 	ldceq	3, cr1, [pc], #-4
     8c0:	0b3a0e03 	bleq	e840d4 <DISABLE_IRQ+0xe84054>
     8c4:	0c270b3b 	stceq	11, cr0, [r7], #-236
     8c8:	01111349 	tsteq	r1, r9, asr #6
     8cc:	0a400112 	beq	1000d1c <DISABLE_IRQ+0x1000c9c>
     8d0:	2e110000 	wxorcs	wr0, wr1, wr0
     8d4:	3f130101 	swicc	0x00130101
     8d8:	3a0e030c 	bcc	381510 <DISABLE_IRQ+0x381490>
     8dc:	27053b0b 	strcs	r3, [r5, -fp, lsl #22]
     8e0:	1113490c 	tstne	r3, ip, lsl #18
     8e4:	40011201 	andmi	r1, r1, r1, lsl #4
     8e8:	1200000a 	andne	r0, r0, #10	; 0xa
     8ec:	08030005 	stmeqda	r3, {r0, r2}
     8f0:	053b0b3a 	ldreq	r0, [fp, #-2874]!
     8f4:	0a021349 	beq	85620 <DISABLE_IRQ+0x855a0>
     8f8:	34130000 	ldrcc	r0, [r3]
     8fc:	3a080300 	bcc	201504 <DISABLE_IRQ+0x201484>
     900:	49053b0b 	stmmidb	r5, {r0, r1, r3, r8, r9, fp, ip, sp}
     904:	000a0213 	andeq	r0, sl, r3, lsl r2
     908:	00341400 	eoreqs	r1, r4, r0, lsl #8
     90c:	0b3a0803 	bleq	e82920 <DISABLE_IRQ+0xe828a0>
     910:	1349053b 	cmpne	r9, #247463936	; 0xec00000
     914:	34150000 	ldrcc	r0, [r5]
     918:	3a0e0300 	bcc	381520 <DISABLE_IRQ+0x3814a0>
     91c:	49053b0b 	stmmidb	r5, {r0, r1, r3, r8, r9, fp, ip, sp}
     920:	000a0213 	andeq	r0, sl, r3, lsl r2
     924:	012e1600 	teqeq	lr, r0, lsl #12
     928:	0c3f1301 	ldceq	3, cr1, [pc], #-4
     92c:	0b3a0e03 	bleq	e84140 <DISABLE_IRQ+0xe840c0>
     930:	0c27053b 	cfstr32eq	mvfx0, [r7], #-236
     934:	01120111 	tsteq	r2, r1, lsl r1
     938:	00000a40 	andeq	r0, r0, r0, asr #20
     93c:	03000517 	tsteq	r0, #96468992	; 0x5c00000
     940:	3b0b3a0e 	blcc	2cf180 <DISABLE_IRQ+0x2cf100>
     944:	02134905 	andeqs	r4, r3, #81920	; 0x14000
     948:	1800000a 	stmneda	r0, {r1, r3}
     94c:	13490026 	cmpne	r9, #38	; 0x26
     950:	34190000 	ldrcc	r0, [r9]
     954:	3a0e0300 	bcc	38155c <DISABLE_IRQ+0x3814dc>
     958:	49053b0b 	stmmidb	r5, {r0, r1, r3, r8, r9, fp, ip, sp}
     95c:	1a000013 	bne	9b0 <DISABLE_IRQ+0x930>
     960:	1301012e 	tstne	r1, #-2147483637	; 0x8000000b
     964:	08030c3f 	stmeqda	r3, {r0, r1, r2, r3, r4, r5, sl, fp}
     968:	053b0b3a 	ldreq	r0, [fp, #-2874]!
     96c:	13490c27 	cmpne	r9, #9984	; 0x2700
     970:	01120111 	tsteq	r2, r1, lsl r1
     974:	00000a40 	andeq	r0, r0, r0, asr #20
     978:	0b000f1b 	bleq	45ec <DISABLE_IRQ+0x456c>
     97c:	1c00000b 	stcne	0, cr0, [r0], {11}
     980:	0111010b 	tsteq	r1, fp, lsl #2
     984:	00000112 	andeq	r0, r0, r2, lsl r1
     988:	0000211d 	andeq	r2, r0, sp, lsl r1
     98c:	00341e00 	eoreqs	r1, r4, r0, lsl #28
     990:	0b3a0e03 	bleq	e841a4 <DISABLE_IRQ+0xe84124>
     994:	13490b3b 	cmpne	r9, #60416	; 0xec00
     998:	0c3c0c3f 	ldceq	12, cr0, [ip], #-252
     99c:	341f0000 	ldrcc	r0, [pc], #0	; 9a4 <DISABLE_IRQ+0x924>
     9a0:	3a080300 	bcc	2015a8 <DISABLE_IRQ+0x201528>
     9a4:	490b3b0b 	stmmidb	fp, {r0, r1, r3, r8, r9, fp, ip, sp}
     9a8:	020c3f13 	andeq	r3, ip, #76	; 0x4c
     9ac:	2000000a 	andcs	r0, r0, sl
     9b0:	0e030034 	mcreq	0, 0, r0, cr3, cr4, {1}
     9b4:	0b3b0b3a 	bleq	ec36a4 <DISABLE_IRQ+0xec3624>
     9b8:	0c3f1349 	ldceq	3, cr1, [pc], #-292
     9bc:	00000a02 	andeq	r0, r0, r2, lsl #20
     9c0:	01110100 	tsteq	r1, r0, lsl #2
     9c4:	01120610 	tsteq	r2, r0, lsl r6
     9c8:	0e250111 	mcreq	1, 1, r0, cr5, cr1, {0}
     9cc:	0e030b13 	mcreq	11, 0, r0, cr3, cr3, {0}
     9d0:	00000e1b 	andeq	r0, r0, fp, lsl lr
     9d4:	01011302 	tsteq	r1, r2, lsl #6
     9d8:	0b0e0313 	bleq	38162c <DISABLE_IRQ+0x3815ac>
     9dc:	3b0b3a0b 	blcc	2cf210 <DISABLE_IRQ+0x2cf190>
     9e0:	0300000b 	tsteq	r0, #11	; 0xb
     9e4:	0e03000d 	cdpeq	0, 0, cr0, cr3, cr13, {0}
     9e8:	0b3b0b3a 	bleq	ec36d8 <DISABLE_IRQ+0xec3658>
     9ec:	0a381349 	beq	e05718 <DISABLE_IRQ+0xe05698>
     9f0:	24040000 	strcs	r0, [r4]
     9f4:	0b0e0300 	bleq	3815fc <DISABLE_IRQ+0x38157c>
     9f8:	000b3e0b 	andeq	r3, fp, fp, lsl #28
     9fc:	01010500 	tsteq	r1, r0, lsl #10
     a00:	13491301 	cmpne	r9, #67108864	; 0x4000000
     a04:	21060000 	tstcs	r6, r0
     a08:	2f134900 	swics	0x00134900
     a0c:	0700000b 	streq	r0, [r0, -fp]
     a10:	1301012e 	tstne	r1, #-2147483637	; 0x8000000b
     a14:	0e030c3f 	mcreq	12, 0, r0, cr3, cr15, {1}
     a18:	0b3b0b3a 	bleq	ec3708 <DISABLE_IRQ+0xec3688>
     a1c:	13490c27 	cmpne	r9, #9984	; 0x2700
     a20:	01120111 	tsteq	r2, r1, lsl r1
     a24:	00000a40 	andeq	r0, r0, r0, asr #20
     a28:	03000508 	tsteq	r0, #33554432	; 0x2000000
     a2c:	3b0b3a08 	blcc	2cf254 <DISABLE_IRQ+0x2cf1d4>
     a30:	0213490b 	andeqs	r4, r3, #180224	; 0x2c000
     a34:	0900000a 	stmeqdb	r0, {r1, r3}
     a38:	0e030005 	cdpeq	0, 0, cr0, cr3, cr5, {0}
     a3c:	0b3b0b3a 	bleq	ec372c <DISABLE_IRQ+0xec36ac>
     a40:	0a021349 	beq	8576c <DISABLE_IRQ+0x856ec>
     a44:	340a0000 	strcc	r0, [sl]
     a48:	3a0e0300 	bcc	381650 <DISABLE_IRQ+0x3815d0>
     a4c:	490b3b0b 	stmmidb	fp, {r0, r1, r3, r8, r9, fp, ip, sp}
     a50:	000a0213 	andeq	r0, sl, r3, lsl r2
     a54:	010b0b00 	tsteq	fp, r0, lsl #22
     a58:	01111301 	tsteq	r1, r1, lsl #6
     a5c:	00000112 	andeq	r0, r0, r2, lsl r1
     a60:	3f012e0c 	swicc	0x00012e0c
     a64:	3a0e030c 	bcc	38169c <DISABLE_IRQ+0x38161c>
     a68:	490b3b0b 	stmmidb	fp, {r0, r1, r3, r8, r9, fp, ip, sp}
     a6c:	000c3c13 	andeq	r3, ip, r3, lsl ip
     a70:	00180d00 	andeqs	r0, r8, r0, lsl #26
     a74:	0b0e0000 	bleq	380a7c <DISABLE_IRQ+0x3809fc>
     a78:	12011101 	andne	r1, r1, #1073741824	; 0x40000000
     a7c:	0f000001 	swieq	0x00000001
     a80:	08030024 	stmeqda	r3, {r2, r5}
     a84:	0b3e0b0b 	bleq	f836b8 <DISABLE_IRQ+0xf83638>
     a88:	2e100000 	wxorcs	wr0, wr0, wr0
     a8c:	3f130101 	swicc	0x00130101
     a90:	3a0e030c 	bcc	3816c8 <DISABLE_IRQ+0x381648>
     a94:	27053b0b 	strcs	r3, [r5, -fp, lsl #22]
     a98:	1113490c 	tstne	r3, ip, lsl #18
     a9c:	40011201 	andmi	r1, r1, r1, lsl #4
     aa0:	1100000a 	tstne	r0, sl
     aa4:	0e030005 	cdpeq	0, 0, cr0, cr3, cr5, {0}
     aa8:	053b0b3a 	ldreq	r0, [fp, #-2874]!
     aac:	0a021349 	beq	857d8 <DISABLE_IRQ+0x85758>
     ab0:	0f120000 	swieq	0x00120000
     ab4:	490b0b00 	stmmidb	fp, {r8, r9, fp}
     ab8:	13000013 	tstne	r0, #19	; 0x13
     abc:	0c3f002e 	ldceq	0, cr0, [pc], #-184
     ac0:	0b3a0e03 	bleq	e842d4 <DISABLE_IRQ+0xe84254>
     ac4:	0c27053b 	cfstr32eq	mvfx0, [r7], #-236
     ac8:	01120111 	tsteq	r2, r1, lsl r1
     acc:	00000a40 	andeq	r0, r0, r0, asr #20
     ad0:	3f002e14 	swicc	0x00002e14
     ad4:	3a0e030c 	bcc	38170c <DISABLE_IRQ+0x38168c>
     ad8:	27053b0b 	strcs	r3, [r5, -fp, lsl #22]
     adc:	1113490c 	tstne	r3, ip, lsl #18
     ae0:	40011201 	andmi	r1, r1, r1, lsl #4
     ae4:	1500000a 	strne	r0, [r0, #-10]
     ae8:	08030034 	stmeqda	r3, {r2, r4, r5}
     aec:	053b0b3a 	ldreq	r0, [fp, #-2874]!
     af0:	0a021349 	beq	8581c <DISABLE_IRQ+0x8579c>
     af4:	05160000 	ldreq	r0, [r6]
     af8:	3a080300 	bcc	201700 <DISABLE_IRQ+0x201680>
     afc:	49053b0b 	stmmidb	r5, {r0, r1, r3, r8, r9, fp, ip, sp}
     b00:	000a0213 	andeq	r0, sl, r3, lsl r2
     b04:	00341700 	eoreqs	r1, r4, r0, lsl #14
     b08:	0b3a0e03 	bleq	e8431c <DISABLE_IRQ+0xe8429c>
     b0c:	1349053b 	cmpne	r9, #247463936	; 0xec00000
     b10:	00000a02 	andeq	r0, r0, r2, lsl #20
     b14:	01012e18 	tsteq	r1, r8, lsl lr
     b18:	030c3f13 	tsteq	ip, #76	; 0x4c
     b1c:	3b0b3a0e 	blcc	2cf35c <DISABLE_IRQ+0x2cf2dc>
     b20:	110c2705 	tstne	ip, r5, lsl #14
     b24:	40011201 	andmi	r1, r1, r1, lsl #4
     b28:	1900000a 	stmnedb	r0, {r1, r3}
     b2c:	1301012e 	tstne	r1, #-2147483637	; 0x8000000b
     b30:	0e030c3f 	mcreq	12, 0, r0, cr3, cr15, {1}
     b34:	0b3b0b3a 	bleq	ec3824 <DISABLE_IRQ+0xec37a4>
     b38:	01111349 	tsteq	r1, r9, asr #6
     b3c:	0a400112 	beq	1000f8c <DISABLE_IRQ+0x1000f0c>
     b40:	341a0000 	ldrcc	r0, [sl]
     b44:	3a080300 	bcc	20174c <DISABLE_IRQ+0x2016cc>
     b48:	490b3b0b 	stmmidb	fp, {r0, r1, r3, r8, r9, fp, ip, sp}
     b4c:	000a0213 	andeq	r0, sl, r3, lsl r2
     b50:	00211b00 	eoreq	r1, r1, r0, lsl #22
     b54:	052f1349 	streq	r1, [pc, #-841]!	; 813 <DISABLE_IRQ+0x793>
     b58:	341c0000 	ldrcc	r0, [ip]
     b5c:	3a0e0300 	bcc	381764 <DISABLE_IRQ+0x3816e4>
     b60:	490b3b0b 	stmmidb	fp, {r0, r1, r3, r8, r9, fp, ip, sp}
     b64:	020c3f13 	andeq	r3, ip, #76	; 0x4c
     b68:	0000000a 	andeq	r0, r0, sl
     b6c:	10001101 	andne	r1, r0, r1, lsl #2
     b70:	12011106 	andne	r1, r1, #-2147483647	; 0x80000001
     b74:	1b080301 	blne	201780 <DISABLE_IRQ+0x201700>
     b78:	13082508 	tstne	r8, #33554432	; 0x2000000
     b7c:	00000005 	andeq	r0, r0, r5
     b80:	10001101 	andne	r1, r0, r1, lsl #2
     b84:	12011106 	andne	r1, r1, #-2147483647	; 0x80000001
     b88:	1b080301 	blne	201794 <DISABLE_IRQ+0x201714>
     b8c:	13082508 	tstne	r8, #33554432	; 0x2000000
     b90:	00000005 	andeq	r0, r0, r5
     b94:	10011101 	andne	r1, r1, r1, lsl #2
     b98:	11011206 	tstne	r1, r6, lsl #4
     b9c:	130e2501 	tstne	lr, #4194304	; 0x400000
     ba0:	1b0e030b 	blne	3817d4 <DISABLE_IRQ+0x381754>
     ba4:	0200000e 	andeq	r0, r0, #14	; 0xe
     ba8:	13010101 	tstne	r1, #1073741824	; 0x40000000
     bac:	00001349 	andeq	r1, r0, r9, asr #6
     bb0:	49002103 	stmmidb	r0, {r0, r1, r8, sp}
     bb4:	000b2f13 	andeq	r2, fp, r3, lsl pc
     bb8:	00240400 	eoreq	r0, r4, r0, lsl #8
     bbc:	0b0b0e03 	bleq	2c43d0 <DISABLE_IRQ+0x2c4350>
     bc0:	00000b3e 	andeq	r0, r0, lr, lsr fp
     bc4:	03003405 	tsteq	r0, #83886080	; 0x5000000
     bc8:	3b0b3a0e 	blcc	2cf408 <DISABLE_IRQ+0x2cf388>
     bcc:	3f13490b 	swicc	0x0013490b
     bd0:	000a020c 	andeq	r0, sl, ip, lsl #4
     bd4:	11010000 	tstne	r1, r0
     bd8:	12061001 	andne	r1, r6, #1	; 0x1
     bdc:	25011101 	strcs	r1, [r1, #-257]
     be0:	030b130e 	tsteq	fp, #939524096	; 0x38000000
     be4:	000e1b0e 	andeq	r1, lr, lr, lsl #22
     be8:	00240200 	eoreq	r0, r4, r0, lsl #4
     bec:	0b0b0e03 	bleq	2c4400 <DISABLE_IRQ+0x2c4380>
     bf0:	00000b3e 	andeq	r0, r0, lr, lsr fp
     bf4:	03001603 	tsteq	r0, #3145728	; 0x300000
     bf8:	3b0b3a0e 	blcc	2cf438 <DISABLE_IRQ+0x2cf3b8>
     bfc:	0013490b 	andeqs	r4, r3, fp, lsl #18
     c00:	00240400 	eoreq	r0, r4, r0, lsl #8
     c04:	0b0b0803 	bleq	2c2c18 <DISABLE_IRQ+0x2c2b98>
     c08:	00000b3e 	andeq	r0, r0, lr, lsr fp
     c0c:	01011305 	tsteq	r1, r5, lsl #6
     c10:	0b0e0313 	bleq	381864 <DISABLE_IRQ+0x3817e4>
     c14:	3b0b3a0b 	blcc	2cf448 <DISABLE_IRQ+0x2cf3c8>
     c18:	0600000b 	streq	r0, [r0], -fp
     c1c:	0803000d 	stmeqda	r3, {r0, r2, r3}
     c20:	0b3b0b3a 	bleq	ec3910 <DISABLE_IRQ+0xec3890>
     c24:	0a381349 	beq	e05950 <DISABLE_IRQ+0xe058d0>
     c28:	0d070000 	stceq	0, cr0, [r7]
     c2c:	3a0e0300 	bcc	381834 <DISABLE_IRQ+0x3817b4>
     c30:	490b3b0b 	stmmidb	fp, {r0, r1, r3, r8, r9, fp, ip, sp}
     c34:	000a3813 	andeq	r3, sl, r3, lsl r8
     c38:	01170800 	tsteq	r7, r0, lsl #16
     c3c:	0b0b1301 	bleq	2c5848 <DISABLE_IRQ+0x2c57c8>
     c40:	0b3b0b3a 	bleq	ec3930 <DISABLE_IRQ+0xec38b0>
     c44:	0d090000 	stceq	0, cr0, [r9]
     c48:	3a080300 	bcc	201850 <DISABLE_IRQ+0x2017d0>
     c4c:	490b3b0b 	stmmidb	fp, {r0, r1, r3, r8, r9, fp, ip, sp}
     c50:	0a000013 	beq	ca4 <DISABLE_IRQ+0xc24>
     c54:	0c3f012e 	ldfeqs	f0, [pc], #-184
     c58:	0b3a0e03 	bleq	e8446c <DISABLE_IRQ+0xe843ec>
     c5c:	0c270b3b 	stceq	11, cr0, [r7], #-236
     c60:	01111349 	tsteq	r1, r9, asr #6
     c64:	0a400112 	beq	10010b4 <DISABLE_IRQ+0x1001034>
     c68:	050b0000 	streq	r0, [fp]
     c6c:	3a080300 	bcc	201874 <DISABLE_IRQ+0x2017f4>
     c70:	490b3b0b 	stmmidb	fp, {r0, r1, r3, r8, r9, fp, ip, sp}
     c74:	000a0213 	andeq	r0, sl, r3, lsl r2
     c78:	00340c00 	eoreqs	r0, r4, r0, lsl #24
     c7c:	0b3a0803 	bleq	e82c90 <DISABLE_IRQ+0xe82c10>
     c80:	13490b3b 	cmpne	r9, #60416	; 0xec00
     c84:	00000a02 	andeq	r0, r0, r2, lsl #20
     c88:	0300340d 	tsteq	r0, #218103808	; 0xd000000
     c8c:	3b0b3a08 	blcc	2cf4b4 <DISABLE_IRQ+0x2cf434>
     c90:	0013490b 	andeqs	r4, r3, fp, lsl #18
     c94:	010b0e00 	tsteq	fp, r0, lsl #28
     c98:	01120111 	tsteq	r2, r1, lsl r1
     c9c:	340f0000 	strcc	r0, [pc], #0	; ca4 <DISABLE_IRQ+0xc24>
     ca0:	3a0e0300 	bcc	3818a8 <DISABLE_IRQ+0x381828>
     ca4:	490b3b0b 	stmmidb	fp, {r0, r1, r3, r8, r9, fp, ip, sp}
     ca8:	000a0213 	andeq	r0, sl, r3, lsl r2
     cac:	11010000 	tstne	r1, r0
     cb0:	12061001 	andne	r1, r6, #1	; 0x1
     cb4:	25011101 	strcs	r1, [r1, #-257]
     cb8:	030b130e 	tsteq	fp, #939524096	; 0x38000000
     cbc:	000e1b0e 	andeq	r1, lr, lr, lsl #22
     cc0:	00240200 	eoreq	r0, r4, r0, lsl #4
     cc4:	0b0b0e03 	bleq	2c44d8 <DISABLE_IRQ+0x2c4458>
     cc8:	00000b3e 	andeq	r0, r0, lr, lsr fp
     ccc:	03001603 	tsteq	r0, #3145728	; 0x300000
     cd0:	3b0b3a0e 	blcc	2cf510 <DISABLE_IRQ+0x2cf490>
     cd4:	0013490b 	andeqs	r4, r3, fp, lsl #18
     cd8:	000f0400 	andeq	r0, pc, r0, lsl #8
     cdc:	13490b0b 	cmpne	r9, #11264	; 0x2c00
     ce0:	2e050000 	cdpcs	0, 0, cr0, cr5, cr0, {0}
     ce4:	3f130101 	swicc	0x00130101
     ce8:	3a0e030c 	bcc	381920 <DISABLE_IRQ+0x3818a0>
     cec:	270b3b0b 	strcs	r3, [fp, -fp, lsl #22]
     cf0:	1113490c 	tstne	r3, ip, lsl #18
     cf4:	40011201 	andmi	r1, r1, r1, lsl #4
     cf8:	0600000a 	streq	r0, [r0], -sl
     cfc:	08030005 	stmeqda	r3, {r0, r2}
     d00:	0b3b0b3a 	bleq	ec39f0 <DISABLE_IRQ+0xec3970>
     d04:	0a021349 	beq	85a30 <DISABLE_IRQ+0x859b0>
     d08:	18070000 	stmneda	r7, {}
     d0c:	08000000 	stmeqda	r0, {}
     d10:	08030034 	stmeqda	r3, {r2, r4, r5}
     d14:	0b3b0b3a 	bleq	ec3a04 <DISABLE_IRQ+0xec3984>
     d18:	0a021349 	beq	85a44 <DISABLE_IRQ+0x859c4>
     d1c:	34090000 	strcc	r0, [r9]
     d20:	3a0e0300 	bcc	381928 <DISABLE_IRQ+0x3818a8>
     d24:	490b3b0b 	stmmidb	fp, {r0, r1, r3, r8, r9, fp, ip, sp}
     d28:	0a000013 	beq	d7c <DISABLE_IRQ+0xcfc>
     d2c:	08030024 	stmeqda	r3, {r2, r5}
     d30:	0b3e0b0b 	bleq	f83964 <DISABLE_IRQ+0xf838e4>
     d34:	260b0000 	strcs	r0, [fp], -r0
     d38:	00134900 	andeqs	r4, r3, r0, lsl #18
     d3c:	01010c00 	tsteq	r1, r0, lsl #24
     d40:	13491301 	cmpne	r9, #67108864	; 0x4000000
     d44:	210d0000 	tstcs	sp, r0
     d48:	2f134900 	swics	0x00134900
     d4c:	0e000005 	cdpeq	0, 0, cr0, cr0, cr5, {0}
     d50:	0e030034 	mcreq	0, 0, r0, cr3, cr4, {1}
     d54:	0b3b0b3a 	bleq	ec3a44 <DISABLE_IRQ+0xec39c4>
     d58:	0a021349 	beq	85a84 <DISABLE_IRQ+0x85a04>
     d5c:	01000000 	tsteq	r0, r0
     d60:	06100111 	undefined
     d64:	01110112 	tsteq	r1, r2, lsl r1
     d68:	0b130e25 	bleq	4c4604 <DISABLE_IRQ+0x4c4584>
     d6c:	0e1b0e03 	cdpeq	14, 1, cr0, cr11, cr3, {0}
     d70:	16020000 	strne	r0, [r2], -r0
     d74:	3a0e0300 	bcc	38197c <DISABLE_IRQ+0x3818fc>
     d78:	490b3b0b 	stmmidb	fp, {r0, r1, r3, r8, r9, fp, ip, sp}
     d7c:	03000013 	tsteq	r0, #19	; 0x13
     d80:	0e030024 	cdpeq	0, 0, cr0, cr3, cr4, {1}
     d84:	0b3e0b0b 	bleq	f839b8 <DISABLE_IRQ+0xf83938>
     d88:	2e040000 	cdpcs	0, 0, cr0, cr4, cr0, {0}
     d8c:	3f130101 	swicc	0x00130101
     d90:	3a0e030c 	bcc	3819c8 <DISABLE_IRQ+0x381948>
     d94:	270b3b0b 	strcs	r3, [fp, -fp, lsl #22]
     d98:	1113490c 	tstne	r3, ip, lsl #18
     d9c:	40011201 	andmi	r1, r1, r1, lsl #4
     da0:	0500000a 	streq	r0, [r0, #-10]
     da4:	08030005 	stmeqda	r3, {r0, r2}
     da8:	0b3b0b3a 	bleq	ec3a98 <DISABLE_IRQ+0xec3a18>
     dac:	0a021349 	beq	85ad8 <DISABLE_IRQ+0x85a58>
     db0:	34060000 	strcc	r0, [r6]
     db4:	3a080300 	bcc	2019bc <DISABLE_IRQ+0x20193c>
     db8:	490b3b0b 	stmmidb	fp, {r0, r1, r3, r8, r9, fp, ip, sp}
     dbc:	000a0213 	andeq	r0, sl, r3, lsl r2
     dc0:	011d0700 	tsteq	sp, r0, lsl #14
     dc4:	13311301 	teqne	r1, #67108864	; 0x4000000
     dc8:	01120111 	tsteq	r2, r1, lsl r1
     dcc:	05080000 	streq	r0, [r8]
     dd0:	02133100 	andeqs	r3, r3, #0	; 0x0
     dd4:	0900000a 	stmeqdb	r0, {r1, r3}
     dd8:	1331011d 	teqne	r1, #1073741831	; 0x40000007
     ddc:	01120111 	tsteq	r2, r1, lsl r1
     de0:	240a0000 	strcs	r0, [sl]
     de4:	0b080300 	bleq	2019ec <DISABLE_IRQ+0x20196c>
     de8:	000b3e0b 	andeq	r3, fp, fp, lsl #28
     dec:	000f0b00 	andeq	r0, pc, r0, lsl #22
     df0:	13490b0b 	cmpne	r9, #11264	; 0x2c00
     df4:	260c0000 	strcs	r0, [ip], -r0
     df8:	00134900 	andeqs	r4, r3, r0, lsl #18
     dfc:	012e0d00 	teqeq	lr, r0, lsl #26
     e00:	0e031301 	cdpeq	3, 0, cr1, cr3, cr1, {0}
     e04:	0b3b0b3a 	bleq	ec3af4 <DISABLE_IRQ+0xec3a74>
     e08:	13490c27 	cmpne	r9, #9984	; 0x2700
     e0c:	00000b20 	andeq	r0, r0, r0, lsr #22
     e10:	0300050e 	tsteq	r0, #58720256	; 0x3800000
     e14:	3b0b3a08 	blcc	2cf63c <DISABLE_IRQ+0x2cf5bc>
     e18:	0013490b 	andeqs	r4, r3, fp, lsl #18
     e1c:	00050f00 	andeq	r0, r5, r0, lsl #30
     e20:	0b3a0e03 	bleq	e84634 <DISABLE_IRQ+0xe845b4>
     e24:	13490b3b 	cmpne	r9, #60416	; 0xec00
     e28:	00000a02 	andeq	r0, r0, r2, lsl #20
     e2c:	03003410 	tsteq	r0, #268435456	; 0x10000000
     e30:	3b0b3a0e 	blcc	2cf670 <DISABLE_IRQ+0x2cf5f0>
     e34:	0213490b 	andeqs	r4, r3, #180224	; 0x2c000
     e38:	1100000a 	tstne	r0, sl
     e3c:	08030034 	stmeqda	r3, {r2, r4, r5}
     e40:	053b0b3a 	ldreq	r0, [fp, #-2874]!
     e44:	0a021349 	beq	85b70 <DISABLE_IRQ+0x85af0>
     e48:	34120000 	ldrcc	r0, [r2]
     e4c:	3a0e0300 	bcc	381a54 <DISABLE_IRQ+0x3819d4>
     e50:	49053b0b 	stmmidb	r5, {r0, r1, r3, r8, r9, fp, ip, sp}
     e54:	000a0213 	andeq	r0, sl, r3, lsl r2
     e58:	012e1300 	teqeq	lr, r0, lsl #6
     e5c:	0c3f1301 	ldceq	3, cr1, [pc], #-4
     e60:	0b3a0e03 	bleq	e84674 <DISABLE_IRQ+0xe845f4>
     e64:	0c27053b 	cfstr32eq	mvfx0, [r7], #-236
     e68:	01111349 	tsteq	r1, r9, asr #6
     e6c:	0a400112 	beq	10012bc <DISABLE_IRQ+0x100123c>
     e70:	05140000 	ldreq	r0, [r4]
     e74:	3a080300 	bcc	201a7c <DISABLE_IRQ+0x2019fc>
     e78:	49053b0b 	stmmidb	r5, {r0, r1, r3, r8, r9, fp, ip, sp}
     e7c:	000a0213 	andeq	r0, sl, r3, lsl r2
     e80:	00051500 	andeq	r1, r5, r0, lsl #10
     e84:	0b3a0e03 	bleq	e84698 <DISABLE_IRQ+0xe84618>
     e88:	1349053b 	cmpne	r9, #247463936	; 0xec00000
     e8c:	00000a02 	andeq	r0, r0, r2, lsl #20
     e90:	0b000f16 	bleq	4af0 <DISABLE_IRQ+0x4a70>
     e94:	1700000b 	strne	r0, [r0, -fp]
     e98:	1301012e 	tstne	r1, #-2147483637	; 0x8000000b
     e9c:	0e030c3f 	mcreq	12, 0, r0, cr3, cr15, {1}
     ea0:	053b0b3a 	ldreq	r0, [fp, #-2874]!
     ea4:	01110c27 	tsteq	r1, r7, lsr #24
     ea8:	0a400112 	beq	10012f8 <DISABLE_IRQ+0x1001278>
     eac:	26180000 	ldrcs	r0, [r8], -r0
     eb0:	19000000 	stmnedb	r0, {}
     eb4:	08030034 	stmeqda	r3, {r2, r4, r5}
     eb8:	053b0b3a 	ldreq	r0, [fp, #-2874]!
     ebc:	00001349 	andeq	r1, r0, r9, asr #6
     ec0:	0101011a 	tsteq	r1, sl, lsl r1
     ec4:	00134913 	andeqs	r4, r3, r3, lsl r9
     ec8:	00211b00 	eoreq	r1, r1, r0, lsl #22
     ecc:	341c0000 	ldrcc	r0, [ip]
     ed0:	3a0e0300 	bcc	381ad8 <DISABLE_IRQ+0x381a58>
     ed4:	490b3b0b 	stmmidb	fp, {r0, r1, r3, r8, r9, fp, ip, sp}
     ed8:	3c0c3f13 	stccc	15, cr3, [ip], {19}
     edc:	1d00000c 	stcne	0, cr0, [r0, #-48]
     ee0:	0e030034 	mcreq	0, 0, r0, cr3, cr4, {1}
     ee4:	0b3b0b3a 	bleq	ec3bd4 <DISABLE_IRQ+0xec3b54>
     ee8:	0c3f1349 	ldceq	3, cr1, [pc], #-292
     eec:	00000a02 	andeq	r0, r0, r2, lsl #20
     ef0:	01110100 	tsteq	r1, r0, lsl #2
     ef4:	01120610 	tsteq	r2, r0, lsl r6
     ef8:	0e250111 	mcreq	1, 1, r0, cr5, cr1, {0}
     efc:	0e030b13 	mcreq	11, 0, r0, cr3, cr3, {0}
     f00:	00000e1b 	andeq	r0, r0, fp, lsl lr
     f04:	03001602 	tsteq	r0, #2097152	; 0x200000
     f08:	3b0b3a0e 	blcc	2cf748 <DISABLE_IRQ+0x2cf6c8>
     f0c:	0013490b 	andeqs	r4, r3, fp, lsl #18
     f10:	00240300 	eoreq	r0, r4, r0, lsl #6
     f14:	0b0b0e03 	bleq	2c4728 <DISABLE_IRQ+0x2c46a8>
     f18:	00000b3e 	andeq	r0, r0, lr, lsr fp
     f1c:	0b000f04 	bleq	4b34 <DISABLE_IRQ+0x4ab4>
     f20:	0013490b 	andeqs	r4, r3, fp, lsl #18
     f24:	012e0500 	teqeq	lr, r0, lsl #10
     f28:	0c3f1301 	ldceq	3, cr1, [pc], #-4
     f2c:	0b3a0e03 	bleq	e84740 <DISABLE_IRQ+0xe846c0>
     f30:	0c270b3b 	stceq	11, cr0, [r7], #-236
     f34:	01111349 	tsteq	r1, r9, asr #6
     f38:	0a400112 	beq	1001388 <DISABLE_IRQ+0x1001308>
     f3c:	05060000 	streq	r0, [r6]
     f40:	3a080300 	bcc	201b48 <DISABLE_IRQ+0x201ac8>
     f44:	490b3b0b 	stmmidb	fp, {r0, r1, r3, r8, r9, fp, ip, sp}
     f48:	000a0213 	andeq	r0, sl, r3, lsl r2
     f4c:	00050700 	andeq	r0, r5, r0, lsl #14
     f50:	0b3a0e03 	bleq	e84764 <DISABLE_IRQ+0xe846e4>
     f54:	13490b3b 	cmpne	r9, #60416	; 0xec00
     f58:	00000a02 	andeq	r0, r0, r2, lsl #20
     f5c:	03003408 	tsteq	r0, #134217728	; 0x8000000
     f60:	3b0b3a0e 	blcc	2cf7a0 <DISABLE_IRQ+0x2cf720>
     f64:	0213490b 	andeqs	r4, r3, #180224	; 0x2c000
     f68:	0900000a 	stmeqdb	r0, {r1, r3}
     f6c:	1301011d 	tstne	r1, #1073741831	; 0x40000007
     f70:	01111331 	tsteq	r1, r1, lsr r3
     f74:	00000112 	andeq	r0, r0, r2, lsl r1
     f78:	3100050a 	tstcc	r0, sl, lsl #10
     f7c:	000a0213 	andeq	r0, sl, r3, lsl r2
     f80:	011d0b00 	tsteq	sp, r0, lsl #22
     f84:	01111331 	tsteq	r1, r1, lsr r3
     f88:	00000112 	andeq	r0, r0, r2, lsl r1
     f8c:	4900260c 	stmmidb	r0, {r2, r3, r9, sl, sp}
     f90:	0d000013 	stceq	0, cr0, [r0, #-76]
     f94:	1301012e 	tstne	r1, #-2147483637	; 0x8000000b
     f98:	0b3a0e03 	bleq	e847ac <DISABLE_IRQ+0xe8472c>
     f9c:	0c270b3b 	stceq	11, cr0, [r7], #-236
     fa0:	0b201349 	bleq	805ccc <DISABLE_IRQ+0x805c4c>
     fa4:	050e0000 	streq	r0, [lr]
     fa8:	3a080300 	bcc	201bb0 <DISABLE_IRQ+0x201b30>
     fac:	490b3b0b 	stmmidb	fp, {r0, r1, r3, r8, r9, fp, ip, sp}
     fb0:	0f000013 	swieq	0x00000013
     fb4:	1301012e 	tstne	r1, #-2147483637	; 0x8000000b
     fb8:	0b3a0e03 	bleq	e847cc <DISABLE_IRQ+0xe8474c>
     fbc:	0c270b3b 	stceq	11, cr0, [r7], #-236
     fc0:	01111349 	tsteq	r1, r9, asr #6
     fc4:	0a400112 	beq	1001414 <DISABLE_IRQ+0x1001394>
     fc8:	34100000 	ldrcc	r0, [r0]
     fcc:	3a080300 	bcc	201bd4 <DISABLE_IRQ+0x201b54>
     fd0:	490b3b0b 	stmmidb	fp, {r0, r1, r3, r8, r9, fp, ip, sp}
     fd4:	000a0213 	andeq	r0, sl, r3, lsl r2
     fd8:	00241100 	eoreq	r1, r4, r0, lsl #2
     fdc:	0b0b0803 	bleq	2c2ff0 <DISABLE_IRQ+0x2c2f70>
     fe0:	00000b3e 	andeq	r0, r0, lr, lsr fp
     fe4:	55010b12 	strpl	r0, [r1, #-2834]
     fe8:	13000006 	tstne	r0, #6	; 0x6
     fec:	13010101 	tstne	r1, #1073741824	; 0x40000000
     ff0:	00001349 	andeq	r1, r0, r9, asr #6
     ff4:	49002114 	stmmidb	r0, {r2, r4, r8, sp}
     ff8:	000b2f13 	andeq	r2, fp, r3, lsl pc
     ffc:	012e1500 	teqeq	lr, r0, lsl #10
    1000:	0c3f1301 	ldceq	3, cr1, [pc], #-4
    1004:	0b3a0e03 	bleq	e84818 <DISABLE_IRQ+0xe84798>
    1008:	0c27053b 	cfstr32eq	mvfx0, [r7], #-236
    100c:	01111349 	tsteq	r1, r9, asr #6
    1010:	0a400112 	beq	1001460 <DISABLE_IRQ+0x10013e0>
    1014:	05160000 	ldreq	r0, [r6]
    1018:	3a080300 	bcc	201c20 <DISABLE_IRQ+0x201ba0>
    101c:	49053b0b 	stmmidb	r5, {r0, r1, r3, r8, r9, fp, ip, sp}
    1020:	000a0213 	andeq	r0, sl, r3, lsl r2
    1024:	00051700 	andeq	r1, r5, r0, lsl #14
    1028:	0b3a0e03 	bleq	e8483c <DISABLE_IRQ+0xe847bc>
    102c:	1349053b 	cmpne	r9, #247463936	; 0xec00000
    1030:	00000a02 	andeq	r0, r0, r2, lsl #20
    1034:	03003418 	tsteq	r0, #402653184	; 0x18000000
    1038:	3b0b3a08 	blcc	2cf860 <DISABLE_IRQ+0x2cf7e0>
    103c:	02134905 	andeqs	r4, r3, #81920	; 0x14000
    1040:	1900000a 	stmnedb	r0, {r1, r3}
    1044:	0e030034 	mcreq	0, 0, r0, cr3, cr4, {1}
    1048:	053b0b3a 	ldreq	r0, [fp, #-2874]!
    104c:	0a021349 	beq	85d78 <DISABLE_IRQ+0x85cf8>
    1050:	0a1a0000 	beq	681058 <DISABLE_IRQ+0x680fd8>
    1054:	3a0e0300 	bcc	381c5c <DISABLE_IRQ+0x381bdc>
    1058:	11053b0b 	tstne	r5, fp, lsl #22
    105c:	1b000001 	blne	1068 <DISABLE_IRQ+0xfe8>
    1060:	1301010b 	tstne	r1, #-1073741822	; 0xc0000002
    1064:	00000655 	andeq	r0, r0, r5, asr r6
    1068:	11010b1c 	tstne	r1, ip, lsl fp
    106c:	00011201 	andeq	r1, r1, r1, lsl #4
    1070:	00181d00 	andeqs	r1, r8, r0, lsl #26
    1074:	341e0000 	ldrcc	r0, [lr]
    1078:	3a0e0300 	bcc	381c80 <DISABLE_IRQ+0x381c00>
    107c:	49053b0b 	stmmidb	r5, {r0, r1, r3, r8, r9, fp, ip, sp}
    1080:	1f000013 	swine	0x00000013
    1084:	08030034 	stmeqda	r3, {r2, r4, r5}
    1088:	053b0b3a 	ldreq	r0, [fp, #-2874]!
    108c:	00001349 	andeq	r1, r0, r9, asr #6
    1090:	01010b20 	tsteq	r1, r0, lsr #22
    1094:	12011113 	andne	r1, r1, #-1073741820	; 0xc0000004
    1098:	21000001 	tstcs	r0, r1
    109c:	00000021 	andeq	r0, r0, r1, lsr #32
    10a0:	03003422 	tsteq	r0, #570425344	; 0x22000000
    10a4:	3b0b3a0e 	blcc	2cf8e4 <DISABLE_IRQ+0x2cf864>
    10a8:	3f13490b 	swicc	0x0013490b
    10ac:	000c3c0c 	andeq	r3, ip, ip, lsl #24
	...
Disassembly of section .debug_aranges:

00000000 <.debug_aranges>:
   0:	0000001c 	andeq	r0, r0, ip, lsl r0
   4:	00000002 	andeq	r0, r0, r2
   8:	00040000 	andeq	r0, r4, r0
   c:	00000000 	andeq	r0, r0, r0
  10:	30000000 	andcc	r0, r0, r0
  14:	0000021c 	andeq	r0, r0, ip, lsl r2
	...
  20:	0000001c 	andeq	r0, r0, ip, lsl r0
  24:	00410002 	subeq	r0, r1, r2
  28:	00040000 	andeq	r0, r4, r0
  2c:	00000000 	andeq	r0, r0, r0
  30:	30000220 	andcc	r0, r0, r0, lsr #4
  34:	00000130 	andeq	r0, r0, r0, lsr r1
	...
  40:	0000001c 	andeq	r0, r0, ip, lsl r0
  44:	00db0002 	sbceqs	r0, fp, r2
  48:	00040000 	andeq	r0, r4, r0
  4c:	00000000 	andeq	r0, r0, r0
  50:	30000350 	andcc	r0, r0, r0, asr r3
  54:	00000500 	andeq	r0, r0, r0, lsl #10
	...
  60:	0000001c 	andeq	r0, r0, ip, lsl r0
  64:	04520002 	ldreqb	r0, [r2], #-2
  68:	00040000 	andeq	r0, r4, r0
  6c:	00000000 	andeq	r0, r0, r0
  70:	30000850 	andcc	r0, r0, r0, asr r8
  74:	000000fc 	streqd	r0, [r0], -ip
	...
  80:	0000001c 	andeq	r0, r0, ip, lsl r0
  84:	07800002 	streq	r0, [r0, r2]
  88:	00040000 	andeq	r0, r4, r0
  8c:	00000000 	andeq	r0, r0, r0
  90:	3000094c 	andcc	r0, r0, ip, asr #18
  94:	000000e4 	andeq	r0, r0, r4, ror #1
	...
  a0:	0000001c 	andeq	r0, r0, ip, lsl r0
  a4:	0a5e0002 	beq	17800b4 <DISABLE_IRQ+0x1780034>
  a8:	00040000 	andeq	r0, r4, r0
  ac:	00000000 	andeq	r0, r0, r0
  b0:	30000a30 	andcc	r0, r0, r0, lsr sl
  b4:	00000078 	andeq	r0, r0, r8, ror r0
	...
  c0:	0000001c 	andeq	r0, r0, ip, lsl r0
  c4:	0b260002 	bleq	9800d4 <DISABLE_IRQ+0x980054>
  c8:	00040000 	andeq	r0, r4, r0
  cc:	00000000 	andeq	r0, r0, r0
  d0:	30000aa8 	andcc	r0, r0, r8, lsr #21
  d4:	0000031c 	andeq	r0, r0, ip, lsl r3
	...
  e0:	0000001c 	andeq	r0, r0, ip, lsl r0
  e4:	0d650002 	stceql	0, cr0, [r5, #-8]!
  e8:	00040000 	andeq	r0, r4, r0
  ec:	00000000 	andeq	r0, r0, r0
  f0:	30000dc4 	andcc	r0, r0, r4, asr #27
  f4:	00000284 	andeq	r0, r0, r4, lsl #5
	...
 100:	0000001c 	andeq	r0, r0, ip, lsl r0
 104:	0f610002 	swieq	0x00610002
 108:	00040000 	andeq	r0, r4, r0
 10c:	00000000 	andeq	r0, r0, r0
 110:	30001048 	andcc	r1, r0, r8, asr #32
 114:	0000005c 	andeq	r0, r0, ip, asr r0
	...
 120:	0000001c 	andeq	r0, r0, ip, lsl r0
 124:	11390002 	teqne	r9, r2
 128:	00040000 	andeq	r0, r4, r0
 12c:	00000000 	andeq	r0, r0, r0
 130:	300010a4 	andcc	r1, r0, r4, lsr #1
 134:	000000d4 	ldreqd	r0, [r0], -r4
	...
 140:	0000001c 	andeq	r0, r0, ip, lsl r0
 144:	123d0002 	eornes	r0, sp, #2	; 0x2
 148:	00040000 	andeq	r0, r4, r0
 14c:	00000000 	andeq	r0, r0, r0
 150:	30001178 	andcc	r1, r0, r8, ror r1
 154:	00001278 	andeq	r1, r0, r8, ror r2
	...
 160:	0000001c 	andeq	r0, r0, ip, lsl r0
 164:	1e1a0002 	wxorne	wr0, wr10, wr2
 168:	00040000 	andeq	r0, r4, r0
 16c:	00000000 	andeq	r0, r0, r0
 170:	300023f0 	strccd	r2, [r0], -r0
 174:	00000e70 	andeq	r0, r0, r0, ror lr
	...
 180:	0000001c 	andeq	r0, r0, ip, lsl r0
 184:	252d0002 	strcs	r0, [sp, #-2]!
 188:	00040000 	andeq	r0, r4, r0
 18c:	00000000 	andeq	r0, r0, r0
 190:	30003260 	andcc	r3, r0, r0, ror #4
 194:	0000012c 	andeq	r0, r0, ip, lsr #2
	...
 1a0:	0000001c 	andeq	r0, r0, ip, lsl r0
 1a4:	25730002 	ldrcsb	r0, [r3, #-2]!
 1a8:	00040000 	andeq	r0, r4, r0
 1ac:	00000000 	andeq	r0, r0, r0
 1b0:	30003390 	mulcc	r0, r0, r3
 1b4:	000003b0 	streqh	r0, [r0], -r0
	...
 1c0:	0000001c 	andeq	r0, r0, ip, lsl r0
 1c4:	26130002 	ldrcs	r0, [r3], -r2
 1c8:	00040000 	andeq	r0, r4, r0
 1cc:	00000000 	andeq	r0, r0, r0
 1d0:	30003740 	andcc	r3, r0, r0, asr #14
 1d4:	00000050 	andeq	r0, r0, r0, asr r0
	...
 1e0:	0000001c 	andeq	r0, r0, ip, lsl r0
 1e4:	27760002 	ldrcsb	r0, [r6, -r2]!
 1e8:	00040000 	andeq	r0, r4, r0
 1ec:	00000000 	andeq	r0, r0, r0
 1f0:	30003790 	mulcc	r0, r0, r7
 1f4:	000000b0 	streqh	r0, [r0], -r0
	...
 200:	0000001c 	andeq	r0, r0, ip, lsl r0
 204:	28a80002 	stmcsia	r8!, {r1}
 208:	00040000 	andeq	r0, r4, r0
 20c:	00000000 	andeq	r0, r0, r0
 210:	30003840 	andcc	r3, r0, r0, asr #16
 214:	000005b8 	streqh	r0, [r0], -r8
	...
 220:	0000001c 	andeq	r0, r0, ip, lsl r0
 224:	30ae0002 	adccc	r0, lr, r2
 228:	00040000 	andeq	r0, r4, r0
 22c:	00000000 	andeq	r0, r0, r0
 230:	30003df8 	strccd	r3, [r0], -r8
 234:	000013c0 	andeq	r1, r0, r0, asr #7
	...
Disassembly of section .debug_frame:

00000000 <.debug_frame>:
   0:	0000000c 	andeq	r0, r0, ip
   4:	ffffffff 	swinv	0x00ffffff
   8:	7c010001 	stcvc	0, cr0, [r1], {1}
   c:	000d0c0e 	andeq	r0, sp, lr, lsl #24
  10:	0000000c 	andeq	r0, r0, ip
  14:	00000000 	andeq	r0, r0, r0
  18:	30000220 	andcc	r0, r0, r0, lsr #4
  1c:	00000034 	andeq	r0, r0, r4, lsr r0
  20:	00000010 	andeq	r0, r0, r0, lsl r0
  24:	00000000 	andeq	r0, r0, r0
  28:	30000254 	andcc	r0, r0, r4, asr r2
  2c:	00000078 	andeq	r0, r0, r8, ror r0
  30:	00080e44 	andeq	r0, r8, r4, asr #28
  34:	0000000c 	andeq	r0, r0, ip
  38:	00000000 	andeq	r0, r0, r0
  3c:	300002cc 	andcc	r0, r0, ip, asr #5
  40:	00000048 	andeq	r0, r0, r8, asr #32
  44:	0000000c 	andeq	r0, r0, ip
  48:	00000000 	andeq	r0, r0, r0
  4c:	30000314 	andcc	r0, r0, r4, lsl r3
  50:	0000003c 	andeq	r0, r0, ip, lsr r0
  54:	0000000c 	andeq	r0, r0, ip
  58:	ffffffff 	swinv	0x00ffffff
  5c:	7c010001 	stcvc	0, cr0, [r1], {1}
  60:	000d0c0e 	andeq	r0, sp, lr, lsl #24
  64:	00000014 	andeq	r0, r0, r4, lsl r0
  68:	00000054 	andeq	r0, r0, r4, asr r0
  6c:	30000350 	andcc	r0, r0, r0, asr r3
  70:	00000088 	andeq	r0, r0, r8, lsl #1
  74:	68040e44 	stmvsda	r4, {r2, r6, r9, sl, fp}
  78:	018e080e 	orreq	r0, lr, lr, lsl #16
  7c:	0000000c 	andeq	r0, r0, ip
  80:	00000054 	andeq	r0, r0, r4, asr r0
  84:	300003d8 	ldrccd	r0, [r0], -r8
  88:	00000020 	andeq	r0, r0, r0, lsr #32
  8c:	00000018 	andeq	r0, r0, r8, lsl r0
  90:	00000054 	andeq	r0, r0, r4, asr r0
  94:	300003f8 	strccd	r0, [r0], -r8
  98:	00000060 	andeq	r0, r0, r0, rrx
  9c:	8e0c0e44 	cdphi	14, 0, cr0, cr12, cr4, {2}
  a0:	84028501 	strhi	r8, [r2], #-1281
  a4:	100e4803 	andne	r4, lr, r3, lsl #16
  a8:	0000001c 	andeq	r0, r0, ip, lsl r0
  ac:	00000054 	andeq	r0, r0, r4, asr r0
  b0:	30000458 	andcc	r0, r0, r8, asr r4
  b4:	00000084 	andeq	r0, r0, r4, lsl #1
  b8:	8e100e44 	cdphi	14, 1, cr0, cr0, cr4, {2}
  bc:	85028601 	strhi	r8, [r2, #-1537]
  c0:	50048403 	andpl	r8, r4, r3, lsl #8
  c4:	0000140e 	andeq	r1, r0, lr, lsl #8
  c8:	0000001c 	andeq	r0, r0, ip, lsl r0
  cc:	00000054 	andeq	r0, r0, r4, asr r0
  d0:	300004dc 	ldrccd	r0, [r0], -ip
  d4:	00000124 	andeq	r0, r0, r4, lsr #2
  d8:	8e140e44 	cdphi	14, 1, cr0, cr4, cr4, {2}
  dc:	86028701 	strhi	r8, [r2], -r1, lsl #14
  e0:	84048503 	strhi	r8, [r4], #-1283
  e4:	680e5005 	stmvsda	lr, {r0, r2, ip, lr}
  e8:	00000014 	andeq	r0, r0, r4, lsl r0
  ec:	00000054 	andeq	r0, r0, r4, asr r0
  f0:	30000600 	andcc	r0, r0, r0, lsl #12
  f4:	0000010c 	andeq	r0, r0, ip, lsl #2
  f8:	4c040e44 	stcmi	14, cr0, [r4], {68}
  fc:	018e080e 	orreq	r0, lr, lr, lsl #16
 100:	0000001c 	andeq	r0, r0, ip, lsl r0
 104:	00000054 	andeq	r0, r0, r4, asr r0
 108:	3000070c 	andcc	r0, r0, ip, lsl #14
 10c:	0000009c 	muleq	r0, ip, r0
 110:	48100e44 	ldmmida	r0, {r2, r6, r9, sl, fp}
 114:	018e300e 	orreq	r3, lr, lr
 118:	03850286 	orreq	r0, r5, #1610612744	; 0x60000008
 11c:	00000484 	andeq	r0, r0, r4, lsl #9
 120:	00000018 	andeq	r0, r0, r8, lsl r0
 124:	00000054 	andeq	r0, r0, r4, asr r0
 128:	300007a8 	andcc	r0, r0, r8, lsr #15
 12c:	000000a8 	andeq	r0, r0, r8, lsr #1
 130:	8e0c0e44 	cdphi	14, 0, cr0, cr12, cr4, {2}
 134:	84028501 	strhi	r8, [r2], #-1281
 138:	100e4c03 	andne	r4, lr, r3, lsl #24
 13c:	0000000c 	andeq	r0, r0, ip
 140:	ffffffff 	swinv	0x00ffffff
 144:	7c010001 	stcvc	0, cr0, [r1], {1}
 148:	000d0c0e 	andeq	r0, sp, lr, lsl #24
 14c:	0000000c 	andeq	r0, r0, ip
 150:	0000013c 	andeq	r0, r0, ip, lsr r1
 154:	30000850 	andcc	r0, r0, r0, asr r8
 158:	0000000c 	andeq	r0, r0, ip
 15c:	00000014 	andeq	r0, r0, r4, lsl r0
 160:	0000013c 	andeq	r0, r0, ip, lsr r1
 164:	3000085c 	andcc	r0, r0, ip, asr r8
 168:	00000014 	andeq	r0, r0, r4, lsl r0
 16c:	8e040e44 	cdphi	14, 0, cr0, cr4, cr4, {2}
 170:	00000001 	andeq	r0, r0, r1
 174:	00000014 	andeq	r0, r0, r4, lsl r0
 178:	0000013c 	andeq	r0, r0, ip, lsr r1
 17c:	30000870 	andcc	r0, r0, r0, ror r8
 180:	00000018 	andeq	r0, r0, r8, lsl r0
 184:	84040e44 	strhi	r0, [r4], #-3652
 188:	00000001 	andeq	r0, r0, r1
 18c:	00000014 	andeq	r0, r0, r4, lsl r0
 190:	0000013c 	andeq	r0, r0, ip, lsr r1
 194:	30000888 	andcc	r0, r0, r8, lsl #17
 198:	00000018 	andeq	r0, r0, r8, lsl r0
 19c:	84040e44 	strhi	r0, [r4], #-3652
 1a0:	00000001 	andeq	r0, r0, r1
 1a4:	00000014 	andeq	r0, r0, r4, lsl r0
 1a8:	0000013c 	andeq	r0, r0, ip, lsr r1
 1ac:	300008a0 	andcc	r0, r0, r0, lsr #17
 1b0:	0000002c 	andeq	r0, r0, ip, lsr #32
 1b4:	8e040e44 	cdphi	14, 0, cr0, cr4, cr4, {2}
 1b8:	00000001 	andeq	r0, r0, r1
 1bc:	0000000c 	andeq	r0, r0, ip
 1c0:	0000013c 	andeq	r0, r0, ip, lsr r1
 1c4:	300008cc 	andcc	r0, r0, ip, asr #17
 1c8:	00000004 	andeq	r0, r0, r4
 1cc:	0000000c 	andeq	r0, r0, ip
 1d0:	0000013c 	andeq	r0, r0, ip, lsr r1
 1d4:	300008d0 	ldrccd	r0, [r0], -r0
 1d8:	00000004 	andeq	r0, r0, r4
 1dc:	00000018 	andeq	r0, r0, r8, lsl r0
 1e0:	0000013c 	andeq	r0, r0, ip, lsr r1
 1e4:	300008d4 	ldrccd	r0, [r0], -r4
 1e8:	00000030 	andeq	r0, r0, r0, lsr r0
 1ec:	8e0c0e44 	cdphi	14, 0, cr0, cr12, cr4, {2}
 1f0:	84028501 	strhi	r8, [r2], #-1281
 1f4:	00000003 	andeq	r0, r0, r3
 1f8:	00000018 	andeq	r0, r0, r8, lsl r0
 1fc:	0000013c 	andeq	r0, r0, ip, lsr r1
 200:	30000904 	andcc	r0, r0, r4, lsl #18
 204:	00000048 	andeq	r0, r0, r8, asr #32
 208:	8e0c0e44 	cdphi	14, 0, cr0, cr12, cr4, {2}
 20c:	84028501 	strhi	r8, [r2], #-1281
 210:	00000003 	andeq	r0, r0, r3
 214:	0000000c 	andeq	r0, r0, ip
 218:	ffffffff 	swinv	0x00ffffff
 21c:	7c010001 	stcvc	0, cr0, [r1], {1}
 220:	000d0c0e 	andeq	r0, sp, lr, lsl #24
 224:	0000000c 	andeq	r0, r0, ip
 228:	00000214 	andeq	r0, r0, r4, lsl r2
 22c:	3000094c 	andcc	r0, r0, ip, asr #18
 230:	00000018 	andeq	r0, r0, r8, lsl r0
 234:	0000000c 	andeq	r0, r0, ip
 238:	00000214 	andeq	r0, r0, r4, lsl r2
 23c:	30000964 	andcc	r0, r0, r4, ror #18
 240:	00000008 	andeq	r0, r0, r8
 244:	0000001c 	andeq	r0, r0, ip, lsl r0
 248:	00000214 	andeq	r0, r0, r4, lsl r2
 24c:	3000096c 	andcc	r0, r0, ip, ror #18
 250:	0000009c 	muleq	r0, ip, r0
 254:	8e140e44 	cdphi	14, 1, cr0, cr4, cr4, {2}
 258:	86028701 	strhi	r8, [r2], -r1, lsl #14
 25c:	84048503 	strhi	r8, [r4], #-1283
 260:	00000005 	andeq	r0, r0, r5
 264:	00000018 	andeq	r0, r0, r8, lsl r0
 268:	00000214 	andeq	r0, r0, r4, lsl r2
 26c:	30000a08 	andcc	r0, r0, r8, lsl #20
 270:	00000028 	andeq	r0, r0, r8, lsr #32
 274:	8e0c0e44 	cdphi	14, 0, cr0, cr12, cr4, {2}
 278:	84028501 	strhi	r8, [r2], #-1281
 27c:	00000003 	andeq	r0, r0, r3
 280:	0000000c 	andeq	r0, r0, ip
 284:	ffffffff 	swinv	0x00ffffff
 288:	7c010001 	stcvc	0, cr0, [r1], {1}
 28c:	000d0c0e 	andeq	r0, sp, lr, lsl #24
 290:	0000000c 	andeq	r0, r0, ip
 294:	00000280 	andeq	r0, r0, r0, lsl #5
 298:	30000a30 	andcc	r0, r0, r0, lsr sl
 29c:	0000004c 	andeq	r0, r0, ip, asr #32
 2a0:	0000000c 	andeq	r0, r0, ip
 2a4:	00000280 	andeq	r0, r0, r0, lsl #5
 2a8:	30000a7c 	andcc	r0, r0, ip, ror sl
 2ac:	0000002c 	andeq	r0, r0, ip, lsr #32
 2b0:	0000000c 	andeq	r0, r0, ip
 2b4:	ffffffff 	swinv	0x00ffffff
 2b8:	7c010001 	stcvc	0, cr0, [r1], {1}
 2bc:	000d0c0e 	andeq	r0, sp, lr, lsl #24
 2c0:	0000000c 	andeq	r0, r0, ip
 2c4:	000002b0 	streqh	r0, [r0], -r0
 2c8:	30000aa8 	andcc	r0, r0, r8, lsr #21
 2cc:	0000002c 	andeq	r0, r0, ip, lsr #32
 2d0:	0000000c 	andeq	r0, r0, ip
 2d4:	000002b0 	streqh	r0, [r0], -r0
 2d8:	30000ad4 	ldrccd	r0, [r0], -r4
 2dc:	0000002c 	andeq	r0, r0, ip, lsr #32
 2e0:	0000000c 	andeq	r0, r0, ip
 2e4:	000002b0 	streqh	r0, [r0], -r0
 2e8:	30000b00 	andcc	r0, r0, r0, lsl #22
 2ec:	00000018 	andeq	r0, r0, r8, lsl r0
 2f0:	0000000c 	andeq	r0, r0, ip
 2f4:	000002b0 	streqh	r0, [r0], -r0
 2f8:	30000b18 	andcc	r0, r0, r8, lsl fp
 2fc:	00000014 	andeq	r0, r0, r4, lsl r0
 300:	0000000c 	andeq	r0, r0, ip
 304:	000002b0 	streqh	r0, [r0], -r0
 308:	30000b2c 	andcc	r0, r0, ip, lsr #22
 30c:	00000014 	andeq	r0, r0, r4, lsl r0
 310:	00000010 	andeq	r0, r0, r0, lsl r0
 314:	000002b0 	streqh	r0, [r0], -r0
 318:	30000b40 	andcc	r0, r0, r0, asr #22
 31c:	00000044 	andeq	r0, r0, r4, asr #32
 320:	00040e44 	andeq	r0, r4, r4, asr #28
 324:	00000010 	andeq	r0, r0, r0, lsl r0
 328:	000002b0 	streqh	r0, [r0], -r0
 32c:	30000b84 	andcc	r0, r0, r4, lsl #23
 330:	0000011c 	andeq	r0, r0, ip, lsl r1
 334:	00040e54 	andeq	r0, r4, r4, asr lr
 338:	0000000c 	andeq	r0, r0, ip
 33c:	000002b0 	streqh	r0, [r0], -r0
 340:	30000ca0 	andcc	r0, r0, r0, lsr #25
 344:	00000014 	andeq	r0, r0, r4, lsl r0
 348:	0000000c 	andeq	r0, r0, ip
 34c:	000002b0 	streqh	r0, [r0], -r0
 350:	30000cb4 	strcch	r0, [r0], -r4
 354:	0000000c 	andeq	r0, r0, ip
 358:	00000020 	andeq	r0, r0, r0, lsr #32
 35c:	000002b0 	streqh	r0, [r0], -r0
 360:	30000cc0 	andcc	r0, r0, r0, asr #25
 364:	000000b0 	streqh	r0, [r0], -r0
 368:	8e1c0e44 	cdphi	14, 1, cr0, cr12, cr4, {2}
 36c:	88028a01 	stmhida	r2, {r0, r9, fp, pc}
 370:	86048703 	strhi	r8, [r4], -r3, lsl #14
 374:	84068505 	strhi	r8, [r6], #-1285
 378:	00000007 	andeq	r0, r0, r7
 37c:	00000018 	andeq	r0, r0, r8, lsl r0
 380:	000002b0 	streqh	r0, [r0], -r0
 384:	30000d70 	andcc	r0, r0, r0, ror sp
 388:	00000054 	andeq	r0, r0, r4, asr r0
 38c:	8e100e44 	cdphi	14, 1, cr0, cr0, cr4, {2}
 390:	85028601 	strhi	r8, [r2, #-1537]
 394:	00048403 	andeq	r8, r4, r3, lsl #8
 398:	0000000c 	andeq	r0, r0, ip
 39c:	ffffffff 	swinv	0x00ffffff
 3a0:	7c010001 	stcvc	0, cr0, [r1], {1}
 3a4:	000d0c0e 	andeq	r0, sp, lr, lsl #24
 3a8:	0000000c 	andeq	r0, r0, ip
 3ac:	00000398 	muleq	r0, r8, r3
 3b0:	30000dc4 	andcc	r0, r0, r4, asr #27
 3b4:	0000004c 	andeq	r0, r0, ip, asr #32
 3b8:	00000014 	andeq	r0, r0, r4, lsl r0
 3bc:	00000398 	muleq	r0, r8, r3
 3c0:	30000e10 	andcc	r0, r0, r0, lsl lr
 3c4:	00000074 	andeq	r0, r0, r4, ror r0
 3c8:	8e080e44 	cdphi	14, 0, cr0, cr8, cr4, {2}
 3cc:	00028401 	andeq	r8, r2, r1, lsl #8
 3d0:	0000000c 	andeq	r0, r0, ip
 3d4:	00000398 	muleq	r0, r8, r3
 3d8:	30000e84 	andcc	r0, r0, r4, lsl #29
 3dc:	0000003c 	andeq	r0, r0, ip, lsr r0
 3e0:	0000000c 	andeq	r0, r0, ip
 3e4:	00000398 	muleq	r0, r8, r3
 3e8:	30000ec0 	andcc	r0, r0, r0, asr #29
 3ec:	00000024 	andeq	r0, r0, r4, lsr #32
 3f0:	0000000c 	andeq	r0, r0, ip
 3f4:	00000398 	muleq	r0, r8, r3
 3f8:	30000ee4 	andcc	r0, r0, r4, ror #29
 3fc:	00000028 	andeq	r0, r0, r8, lsr #32
 400:	00000014 	andeq	r0, r0, r4, lsl r0
 404:	00000398 	muleq	r0, r8, r3
 408:	30000f0c 	andcc	r0, r0, ip, lsl #30
 40c:	00000058 	andeq	r0, r0, r8, asr r0
 410:	8e040e44 	cdphi	14, 0, cr0, cr4, cr4, {2}
 414:	00000001 	andeq	r0, r0, r1
 418:	0000001c 	andeq	r0, r0, ip, lsl r0
 41c:	00000398 	muleq	r0, r8, r3
 420:	30000f64 	andcc	r0, r0, r4, ror #30
 424:	0000006c 	andeq	r0, r0, ip, rrx
 428:	8e180e44 	cdphi	14, 1, cr0, cr8, cr4, {2}
 42c:	87028801 	strhi	r8, [r2, -r1, lsl #16]
 430:	85048603 	strhi	r8, [r4, #-1539]
 434:	00068405 	andeq	r8, r6, r5, lsl #8
 438:	00000020 	andeq	r0, r0, r0, lsr #32
 43c:	00000398 	muleq	r0, r8, r3
 440:	30000fd0 	ldrccd	r0, [r0], -r0
 444:	00000058 	andeq	r0, r0, r8, asr r0
 448:	8e1c0e44 	cdphi	14, 1, cr0, cr12, cr4, {2}
 44c:	88028a01 	stmhida	r2, {r0, r9, fp, pc}
 450:	86048703 	strhi	r8, [r4], -r3, lsl #14
 454:	84068505 	strhi	r8, [r6], #-1285
 458:	00000007 	andeq	r0, r0, r7
 45c:	00000014 	andeq	r0, r0, r4, lsl r0
 460:	00000398 	muleq	r0, r8, r3
 464:	30001028 	andcc	r1, r0, r8, lsr #32
 468:	00000020 	andeq	r0, r0, r0, lsr #32
 46c:	8e040e44 	cdphi	14, 0, cr0, cr4, cr4, {2}
 470:	00000001 	andeq	r0, r0, r1
 474:	0000000c 	andeq	r0, r0, ip
 478:	ffffffff 	swinv	0x00ffffff
 47c:	7c010001 	stcvc	0, cr0, [r1], {1}
 480:	000d0c0e 	andeq	r0, sp, lr, lsl #24
 484:	0000000c 	andeq	r0, r0, ip
 488:	00000474 	andeq	r0, r0, r4, ror r4
 48c:	30001048 	andcc	r1, r0, r8, asr #32
 490:	0000000c 	andeq	r0, r0, ip
 494:	0000000c 	andeq	r0, r0, ip
 498:	00000474 	andeq	r0, r0, r4, ror r4
 49c:	30001054 	andcc	r1, r0, r4, asr r0
 4a0:	0000000c 	andeq	r0, r0, ip
 4a4:	0000000c 	andeq	r0, r0, ip
 4a8:	00000474 	andeq	r0, r0, r4, ror r4
 4ac:	30001060 	andcc	r1, r0, r0, rrx
 4b0:	00000008 	andeq	r0, r0, r8
 4b4:	0000000c 	andeq	r0, r0, ip
 4b8:	00000474 	andeq	r0, r0, r4, ror r4
 4bc:	30001068 	andcc	r1, r0, r8, rrx
 4c0:	00000014 	andeq	r0, r0, r4, lsl r0
 4c4:	0000000c 	andeq	r0, r0, ip
 4c8:	00000474 	andeq	r0, r0, r4, ror r4
 4cc:	3000107c 	andcc	r1, r0, ip, ror r0
 4d0:	00000014 	andeq	r0, r0, r4, lsl r0
 4d4:	0000000c 	andeq	r0, r0, ip
 4d8:	00000474 	andeq	r0, r0, r4, ror r4
 4dc:	30001090 	mulcc	r0, r0, r0
 4e0:	00000008 	andeq	r0, r0, r8
 4e4:	0000000c 	andeq	r0, r0, ip
 4e8:	00000474 	andeq	r0, r0, r4, ror r4
 4ec:	30001098 	mulcc	r0, r8, r0
 4f0:	0000000c 	andeq	r0, r0, ip
 4f4:	0000000c 	andeq	r0, r0, ip
 4f8:	ffffffff 	swinv	0x00ffffff
 4fc:	7c010001 	stcvc	0, cr0, [r1], {1}
 500:	000d0c0e 	andeq	r0, sp, lr, lsl #24
 504:	0000000c 	andeq	r0, r0, ip
 508:	000004f4 	streqd	r0, [r0], -r4
 50c:	300010a4 	andcc	r1, r0, r4, lsr #1
 510:	0000004c 	andeq	r0, r0, ip, asr #32
 514:	0000000c 	andeq	r0, r0, ip
 518:	000004f4 	streqd	r0, [r0], -r4
 51c:	300010f0 	strccd	r1, [r0], -r0
 520:	0000001c 	andeq	r0, r0, ip, lsl r0
 524:	0000000c 	andeq	r0, r0, ip
 528:	000004f4 	streqd	r0, [r0], -r4
 52c:	3000110c 	andcc	r1, r0, ip, lsl #2
 530:	00000018 	andeq	r0, r0, r8, lsl r0
 534:	00000014 	andeq	r0, r0, r4, lsl r0
 538:	000004f4 	streqd	r0, [r0], -r4
 53c:	30001124 	andcc	r1, r0, r4, lsr #2
 540:	00000028 	andeq	r0, r0, r8, lsr #32
 544:	8e080e44 	cdphi	14, 0, cr0, cr8, cr4, {2}
 548:	00028401 	andeq	r8, r2, r1, lsl #8
 54c:	00000014 	andeq	r0, r0, r4, lsl r0
 550:	000004f4 	streqd	r0, [r0], -r4
 554:	3000114c 	andcc	r1, r0, ip, asr #2
 558:	0000002c 	andeq	r0, r0, ip, lsr #32
 55c:	8e080e44 	cdphi	14, 0, cr0, cr8, cr4, {2}
 560:	00028401 	andeq	r8, r2, r1, lsl #8
 564:	0000000c 	andeq	r0, r0, ip
 568:	ffffffff 	swinv	0x00ffffff
 56c:	7c010001 	stcvc	0, cr0, [r1], {1}
 570:	000d0c0e 	andeq	r0, sp, lr, lsl #24
 574:	0000000c 	andeq	r0, r0, ip
 578:	00000564 	andeq	r0, r0, r4, ror #10
 57c:	30001178 	andcc	r1, r0, r8, ror r1
 580:	00000024 	andeq	r0, r0, r4, lsr #32
 584:	0000001c 	andeq	r0, r0, ip, lsl r0
 588:	00000564 	andeq	r0, r0, r4, ror #10
 58c:	3000119c 	mulcc	r0, ip, r1
 590:	00000288 	andeq	r0, r0, r8, lsl #5
 594:	8e100e44 	cdphi	14, 1, cr0, cr0, cr4, {2}
 598:	85028601 	strhi	r8, [r2, #-1537]
 59c:	54048403 	strpl	r8, [r4], #-1027
 5a0:	0004900e 	andeq	r9, r4, lr
 5a4:	0000001c 	andeq	r0, r0, ip, lsl r0
 5a8:	00000564 	andeq	r0, r0, r4, ror #10
 5ac:	30001424 	andcc	r1, r0, r4, lsr #8
 5b0:	000000b4 	streqh	r0, [r0], -r4
 5b4:	8e180e44 	cdphi	14, 1, cr0, cr8, cr4, {2}
 5b8:	87028801 	strhi	r8, [r2, -r1, lsl #16]
 5bc:	85048603 	strhi	r8, [r4, #-1539]
 5c0:	00068405 	andeq	r8, r6, r5, lsl #8
 5c4:	00000014 	andeq	r0, r0, r4, lsl r0
 5c8:	00000564 	andeq	r0, r0, r4, ror #10
 5cc:	300014d8 	ldrccd	r1, [r0], -r8
 5d0:	0000004c 	andeq	r0, r0, ip, asr #32
 5d4:	8e040e44 	cdphi	14, 0, cr0, cr4, cr4, {2}
 5d8:	00000001 	andeq	r0, r0, r1
 5dc:	00000020 	andeq	r0, r0, r0, lsr #32
 5e0:	00000564 	andeq	r0, r0, r4, ror #10
 5e4:	30001524 	andcc	r1, r0, r4, lsr #10
 5e8:	00000164 	andeq	r0, r0, r4, ror #2
 5ec:	8e1c0e44 	cdphi	14, 1, cr0, cr12, cr4, {2}
 5f0:	88028a01 	stmhida	r2, {r0, r9, fp, pc}
 5f4:	86048703 	strhi	r8, [r4], -r3, lsl #14
 5f8:	84068505 	strhi	r8, [r6], #-1285
 5fc:	00000007 	andeq	r0, r0, r7
 600:	0000000c 	andeq	r0, r0, ip
 604:	00000564 	andeq	r0, r0, r4, ror #10
 608:	30001688 	andcc	r1, r0, r8, lsl #13
 60c:	00000010 	andeq	r0, r0, r0, lsl r0
 610:	0000001c 	andeq	r0, r0, ip, lsl r0
 614:	00000564 	andeq	r0, r0, r4, ror #10
 618:	30001698 	mulcc	r0, r8, r6
 61c:	000000c8 	andeq	r0, r0, r8, asr #1
 620:	8e180e44 	cdphi	14, 1, cr0, cr8, cr4, {2}
 624:	87028801 	strhi	r8, [r2, -r1, lsl #16]
 628:	85048603 	strhi	r8, [r4, #-1539]
 62c:	00068405 	andeq	r8, r6, r5, lsl #8
 630:	00000014 	andeq	r0, r0, r4, lsl r0
 634:	00000564 	andeq	r0, r0, r4, ror #10
 638:	30001760 	andcc	r1, r0, r0, ror #14
 63c:	00000074 	andeq	r0, r0, r4, ror r0
 640:	8e040e48 	cdphi	14, 0, cr0, cr4, cr8, {2}
 644:	00000001 	andeq	r0, r0, r1
 648:	00000018 	andeq	r0, r0, r8, lsl r0
 64c:	00000564 	andeq	r0, r0, r4, ror #10
 650:	300017d4 	ldrccd	r1, [r0], -r4
 654:	000000e8 	andeq	r0, r0, r8, ror #1
 658:	8e100e44 	cdphi	14, 1, cr0, cr0, cr4, {2}
 65c:	85028601 	strhi	r8, [r2, #-1537]
 660:	00048403 	andeq	r8, r4, r3, lsl #8
 664:	00000020 	andeq	r0, r0, r0, lsr #32
 668:	00000564 	andeq	r0, r0, r4, ror #10
 66c:	300018bc 	strcch	r1, [r0], -ip
 670:	0000015c 	andeq	r0, r0, ip, asr r1
 674:	8e200e44 	cdphi	14, 2, cr0, cr0, cr4, {2}
 678:	89028a01 	stmhidb	r2, {r0, r9, fp, pc}
 67c:	87048803 	strhi	r8, [r4, -r3, lsl #16]
 680:	85068605 	strhi	r8, [r6, #-1541]
 684:	00088407 	andeq	r8, r8, r7, lsl #8
 688:	0000001c 	andeq	r0, r0, ip, lsl r0
 68c:	00000564 	andeq	r0, r0, r4, ror #10
 690:	30001a18 	andcc	r1, r0, r8, lsl sl
 694:	0000004c 	andeq	r0, r0, ip, asr #32
 698:	8e140e44 	cdphi	14, 1, cr0, cr4, cr4, {2}
 69c:	86028701 	strhi	r8, [r2], -r1, lsl #14
 6a0:	84048503 	strhi	r8, [r4], #-1283
 6a4:	00000005 	andeq	r0, r0, r5
 6a8:	00000024 	andeq	r0, r0, r4, lsr #32
 6ac:	00000564 	andeq	r0, r0, r4, ror #10
 6b0:	30001a64 	andcc	r1, r0, r4, ror #20
 6b4:	00000138 	andeq	r0, r0, r8, lsr r1
 6b8:	8e240e44 	cdphi	14, 2, cr0, cr4, cr4, {2}
 6bc:	8a028b01 	bhi	a32c8 <DISABLE_IRQ+0xa3248>
 6c0:	88048903 	stmhida	r4, {r0, r1, r8, fp, pc}
 6c4:	86068705 	strhi	r8, [r6], -r5, lsl #14
 6c8:	84088507 	strhi	r8, [r8], #-1287
 6cc:	2c0e6c09 	stccs	12, cr6, [lr], {9}
 6d0:	00000024 	andeq	r0, r0, r4, lsr #32
 6d4:	00000564 	andeq	r0, r0, r4, ror #10
 6d8:	30001b9c 	mulcc	r0, ip, fp
 6dc:	00000114 	andeq	r0, r0, r4, lsl r1
 6e0:	8e240e44 	cdphi	14, 2, cr0, cr4, cr4, {2}
 6e4:	8a028b01 	bhi	a32f0 <DISABLE_IRQ+0xa3270>
 6e8:	88048903 	stmhida	r4, {r0, r1, r8, fp, pc}
 6ec:	86068705 	strhi	r8, [r6], -r5, lsl #14
 6f0:	84088507 	strhi	r8, [r8], #-1287
 6f4:	340e5009 	strcc	r5, [lr], #-9
 6f8:	0000001c 	andeq	r0, r0, ip, lsl r0
 6fc:	00000564 	andeq	r0, r0, r4, ror #10
 700:	30001cb0 	strcch	r1, [r0], -r0
 704:	00000104 	andeq	r0, r0, r4, lsl #2
 708:	8e100e44 	cdphi	14, 1, cr0, cr0, cr4, {2}
 70c:	85028601 	strhi	r8, [r2, #-1537]
 710:	4c048403 	cfstrsmi	mvf8, [r4], {3}
 714:	0000200e 	andeq	r2, r0, lr
 718:	00000020 	andeq	r0, r0, r0, lsr #32
 71c:	00000564 	andeq	r0, r0, r4, ror #10
 720:	30001db4 	strcch	r1, [r0], -r4
 724:	00000140 	andeq	r0, r0, r0, asr #2
 728:	8e1c0e44 	cdphi	14, 1, cr0, cr12, cr4, {2}
 72c:	88028a01 	stmhida	r2, {r0, r9, fp, pc}
 730:	86048703 	strhi	r8, [r4], -r3, lsl #14
 734:	84068505 	strhi	r8, [r6], #-1285
 738:	2c0e5407 	cfstrscs	mvf5, [lr], {7}
 73c:	00000014 	andeq	r0, r0, r4, lsl r0
 740:	00000564 	andeq	r0, r0, r4, ror #10
 744:	30001ef4 	strccd	r1, [r0], -r4
 748:	00000188 	andeq	r0, r0, r8, lsl #3
 74c:	8e080e44 	cdphi	14, 0, cr0, cr8, cr4, {2}
 750:	00028401 	andeq	r8, r2, r1, lsl #8
 754:	00000018 	andeq	r0, r0, r8, lsl r0
 758:	00000564 	andeq	r0, r0, r4, ror #10
 75c:	3000207c 	andcc	r2, r0, ip, ror r0
 760:	00000048 	andeq	r0, r0, r8, asr #32
 764:	8e0c0e44 	cdphi	14, 0, cr0, cr12, cr4, {2}
 768:	84028501 	strhi	r8, [r2], #-1281
 76c:	00000003 	andeq	r0, r0, r3
 770:	0000000c 	andeq	r0, r0, ip
 774:	00000564 	andeq	r0, r0, r4, ror #10
 778:	300020c4 	andcc	r2, r0, r4, asr #1
 77c:	00000024 	andeq	r0, r0, r4, lsr #32
 780:	0000000c 	andeq	r0, r0, ip
 784:	00000564 	andeq	r0, r0, r4, ror #10
 788:	300020e8 	andcc	r2, r0, r8, ror #1
 78c:	0000000c 	andeq	r0, r0, ip
 790:	00000024 	andeq	r0, r0, r4, lsr #32
 794:	00000564 	andeq	r0, r0, r4, ror #10
 798:	300020f4 	strccd	r2, [r0], -r4
 79c:	000001f0 	streqd	r0, [r0], -r0
 7a0:	8e240e44 	cdphi	14, 2, cr0, cr4, cr4, {2}
 7a4:	8a028b01 	bhi	a33b0 <DISABLE_IRQ+0xa3330>
 7a8:	88048903 	stmhida	r4, {r0, r1, r8, fp, pc}
 7ac:	86068705 	strhi	r8, [r6], -r5, lsl #14
 7b0:	84088507 	strhi	r8, [r8], #-1287
 7b4:	340e5809 	strcc	r5, [lr], #-2057
 7b8:	0000000c 	andeq	r0, r0, ip
 7bc:	00000564 	andeq	r0, r0, r4, ror #10
 7c0:	300022e4 	andcc	r2, r0, r4, ror #5
 7c4:	00000008 	andeq	r0, r0, r8
 7c8:	0000000c 	andeq	r0, r0, ip
 7cc:	00000564 	andeq	r0, r0, r4, ror #10
 7d0:	300022ec 	andcc	r2, r0, ip, ror #5
 7d4:	00000008 	andeq	r0, r0, r8
 7d8:	00000018 	andeq	r0, r0, r8, lsl r0
 7dc:	00000564 	andeq	r0, r0, r4, ror #10
 7e0:	300022f4 	strccd	r2, [r0], -r4
 7e4:	000000fc 	streqd	r0, [r0], -ip
 7e8:	8e0c0e44 	cdphi	14, 0, cr0, cr12, cr4, {2}
 7ec:	84028501 	strhi	r8, [r2], #-1281
 7f0:	00000003 	andeq	r0, r0, r3
 7f4:	0000000c 	andeq	r0, r0, ip
 7f8:	ffffffff 	swinv	0x00ffffff
 7fc:	7c010001 	stcvc	0, cr0, [r1], {1}
 800:	000d0c0e 	andeq	r0, sp, lr, lsl #24
 804:	00000014 	andeq	r0, r0, r4, lsl r0
 808:	000007f4 	streqd	r0, [r0], -r4
 80c:	300023f0 	strccd	r2, [r0], -r0
 810:	00000104 	andeq	r0, r0, r4, lsl #2
 814:	8e080e48 	cdphi	14, 0, cr0, cr8, cr8, {2}
 818:	00028401 	andeq	r8, r2, r1, lsl #8
 81c:	00000014 	andeq	r0, r0, r4, lsl r0
 820:	000007f4 	streqd	r0, [r0], -r4
 824:	300024f4 	strccd	r2, [r0], -r4
 828:	00000048 	andeq	r0, r0, r8, asr #32
 82c:	8e080e48 	cdphi	14, 0, cr0, cr8, cr8, {2}
 830:	00028401 	andeq	r8, r2, r1, lsl #8
 834:	00000018 	andeq	r0, r0, r8, lsl r0
 838:	000007f4 	streqd	r0, [r0], -r4
 83c:	3000253c 	andcc	r2, r0, ip, lsr r5
 840:	0000005c 	andeq	r0, r0, ip, asr r0
 844:	8e0c0e48 	cdphi	14, 0, cr0, cr12, cr8, {2}
 848:	84028501 	strhi	r8, [r2], #-1281
 84c:	00000003 	andeq	r0, r0, r3
 850:	00000018 	andeq	r0, r0, r8, lsl r0
 854:	000007f4 	streqd	r0, [r0], -r4
 858:	30002598 	mulcc	r0, r8, r5
 85c:	00000084 	andeq	r0, r0, r4, lsl #1
 860:	8e100e48 	cdphi	14, 1, cr0, cr0, cr8, {2}
 864:	85028601 	strhi	r8, [r2, #-1537]
 868:	00048403 	andeq	r8, r4, r3, lsl #8
 86c:	00000018 	andeq	r0, r0, r8, lsl r0
 870:	000007f4 	streqd	r0, [r0], -r4
 874:	3000261c 	andcc	r2, r0, ip, lsl r6
 878:	000000f4 	streqd	r0, [r0], -r4
 87c:	8e0c0e48 	cdphi	14, 0, cr0, cr12, cr8, {2}
 880:	84028501 	strhi	r8, [r2], #-1281
 884:	00000003 	andeq	r0, r0, r3
 888:	00000014 	andeq	r0, r0, r4, lsl r0
 88c:	000007f4 	streqd	r0, [r0], -r4
 890:	30002710 	andcc	r2, r0, r0, lsl r7
 894:	00000030 	andeq	r0, r0, r0, lsr r0
 898:	8e080e44 	cdphi	14, 0, cr0, cr8, cr4, {2}
 89c:	00028401 	andeq	r8, r2, r1, lsl #8
 8a0:	00000014 	andeq	r0, r0, r4, lsl r0
 8a4:	000007f4 	streqd	r0, [r0], -r4
 8a8:	30002740 	andcc	r2, r0, r0, asr #14
 8ac:	00000058 	andeq	r0, r0, r8, asr r0
 8b0:	8e080e50 	mcrhi	14, 0, r0, cr8, cr0, {2}
 8b4:	00028401 	andeq	r8, r2, r1, lsl #8
 8b8:	00000014 	andeq	r0, r0, r4, lsl r0
 8bc:	000007f4 	streqd	r0, [r0], -r4
 8c0:	30002798 	mulcc	r0, r8, r7
 8c4:	0000002c 	andeq	r0, r0, ip, lsr #32
 8c8:	8e080e44 	cdphi	14, 0, cr0, cr8, cr4, {2}
 8cc:	00028401 	andeq	r8, r2, r1, lsl #8
 8d0:	00000018 	andeq	r0, r0, r8, lsl r0
 8d4:	000007f4 	streqd	r0, [r0], -r4
 8d8:	300027c4 	andcc	r2, r0, r4, asr #15
 8dc:	00000094 	muleq	r0, r4, r0
 8e0:	8e0c0e4c 	cdphi	14, 0, cr0, cr12, cr12, {2}
 8e4:	84028501 	strhi	r8, [r2], #-1281
 8e8:	00000003 	andeq	r0, r0, r3
 8ec:	00000014 	andeq	r0, r0, r4, lsl r0
 8f0:	000007f4 	streqd	r0, [r0], -r4
 8f4:	30002858 	andcc	r2, r0, r8, asr r8
 8f8:	00000020 	andeq	r0, r0, r0, lsr #32
 8fc:	8e040e48 	cdphi	14, 0, cr0, cr4, cr8, {2}
 900:	00000001 	andeq	r0, r0, r1
 904:	00000014 	andeq	r0, r0, r4, lsl r0
 908:	000007f4 	streqd	r0, [r0], -r4
 90c:	30002878 	andcc	r2, r0, r8, ror r8
 910:	00000038 	andeq	r0, r0, r8, lsr r0
 914:	8e080e44 	cdphi	14, 0, cr0, cr8, cr4, {2}
 918:	00028401 	andeq	r8, r2, r1, lsl #8
 91c:	00000014 	andeq	r0, r0, r4, lsl r0
 920:	000007f4 	streqd	r0, [r0], -r4
 924:	300028b0 	strcch	r2, [r0], -r0
 928:	00000034 	andeq	r0, r0, r4, lsr r0
 92c:	8e040e54 	mcrhi	14, 0, r0, cr4, cr4, {2}
 930:	00000001 	andeq	r0, r0, r1
 934:	00000014 	andeq	r0, r0, r4, lsl r0
 938:	000007f4 	streqd	r0, [r0], -r4
 93c:	300028e4 	andcc	r2, r0, r4, ror #17
 940:	00000034 	andeq	r0, r0, r4, lsr r0
 944:	8e040e54 	mcrhi	14, 0, r0, cr4, cr4, {2}
 948:	00000001 	andeq	r0, r0, r1
 94c:	00000020 	andeq	r0, r0, r0, lsr #32
 950:	000007f4 	streqd	r0, [r0], -r4
 954:	30002918 	andcc	r2, r0, r8, lsl r9
 958:	0000010c 	andeq	r0, r0, ip, lsl #2
 95c:	8e1c0e48 	cdphi	14, 1, cr0, cr12, cr8, {2}
 960:	88028a01 	stmhida	r2, {r0, r9, fp, pc}
 964:	86048703 	strhi	r8, [r4], -r3, lsl #14
 968:	84068505 	strhi	r8, [r6], #-1285
 96c:	00000007 	andeq	r0, r0, r7
 970:	00000014 	andeq	r0, r0, r4, lsl r0
 974:	000007f4 	streqd	r0, [r0], -r4
 978:	30002a24 	andcc	r2, r0, r4, lsr #20
 97c:	00000030 	andeq	r0, r0, r0, lsr r0
 980:	8e040e50 	mcrhi	14, 0, r0, cr4, cr0, {2}
 984:	00000001 	andeq	r0, r0, r1
 988:	00000014 	andeq	r0, r0, r4, lsl r0
 98c:	000007f4 	streqd	r0, [r0], -r4
 990:	30002a54 	andcc	r2, r0, r4, asr sl
 994:	00000034 	andeq	r0, r0, r4, lsr r0
 998:	8e040e54 	mcrhi	14, 0, r0, cr4, cr4, {2}
 99c:	00000001 	andeq	r0, r0, r1
 9a0:	00000020 	andeq	r0, r0, r0, lsr #32
 9a4:	000007f4 	streqd	r0, [r0], -r4
 9a8:	30002a88 	andcc	r2, r0, r8, lsl #21
 9ac:	000000ec 	andeq	r0, r0, ip, ror #1
 9b0:	8e1c0e44 	cdphi	14, 1, cr0, cr12, cr4, {2}
 9b4:	88028a01 	stmhida	r2, {r0, r9, fp, pc}
 9b8:	86048703 	strhi	r8, [r4], -r3, lsl #14
 9bc:	84068505 	strhi	r8, [r6], #-1285
 9c0:	00000007 	andeq	r0, r0, r7
 9c4:	00000014 	andeq	r0, r0, r4, lsl r0
 9c8:	000007f4 	streqd	r0, [r0], -r4
 9cc:	30002b74 	andcc	r2, r0, r4, ror fp
 9d0:	0000003c 	andeq	r0, r0, ip, lsr r0
 9d4:	8e080e48 	cdphi	14, 0, cr0, cr8, cr8, {2}
 9d8:	00028401 	andeq	r8, r2, r1, lsl #8
 9dc:	00000018 	andeq	r0, r0, r8, lsl r0
 9e0:	000007f4 	streqd	r0, [r0], -r4
 9e4:	30002bb0 	strcch	r2, [r0], -r0
 9e8:	0000006c 	andeq	r0, r0, ip, rrx
 9ec:	8e0c0e48 	cdphi	14, 0, cr0, cr12, cr8, {2}
 9f0:	84028501 	strhi	r8, [r2], #-1281
 9f4:	00000003 	andeq	r0, r0, r3
 9f8:	00000014 	andeq	r0, r0, r4, lsl r0
 9fc:	000007f4 	streqd	r0, [r0], -r4
 a00:	30002c1c 	andcc	r2, r0, ip, lsl ip
 a04:	00000038 	andeq	r0, r0, r8, lsr r0
 a08:	8e040e5c 	mcrhi	14, 0, r0, cr4, cr12, {2}
 a0c:	00000001 	andeq	r0, r0, r1
 a10:	00000014 	andeq	r0, r0, r4, lsl r0
 a14:	000007f4 	streqd	r0, [r0], -r4
 a18:	30002c54 	andcc	r2, r0, r4, asr ip
 a1c:	000000b8 	streqh	r0, [r0], -r8
 a20:	8e080e48 	cdphi	14, 0, cr0, cr8, cr8, {2}
 a24:	00028401 	andeq	r8, r2, r1, lsl #8
 a28:	0000000c 	andeq	r0, r0, ip
 a2c:	000007f4 	streqd	r0, [r0], -r4
 a30:	30002d0c 	andcc	r2, r0, ip, lsl #26
 a34:	0000000c 	andeq	r0, r0, ip
 a38:	0000001c 	andeq	r0, r0, ip, lsl r0
 a3c:	000007f4 	streqd	r0, [r0], -r4
 a40:	30002d18 	andcc	r2, r0, r8, lsl sp
 a44:	00000064 	andeq	r0, r0, r4, rrx
 a48:	8e140e44 	cdphi	14, 1, cr0, cr4, cr4, {2}
 a4c:	86028701 	strhi	r8, [r2], -r1, lsl #14
 a50:	84048503 	strhi	r8, [r4], #-1283
 a54:	00000005 	andeq	r0, r0, r5
 a58:	0000001c 	andeq	r0, r0, ip, lsl r0
 a5c:	000007f4 	streqd	r0, [r0], -r4
 a60:	30002d7c 	andcc	r2, r0, ip, ror sp
 a64:	000003a4 	andeq	r0, r0, r4, lsr #7
 a68:	8e180e44 	cdphi	14, 1, cr0, cr8, cr4, {2}
 a6c:	87028801 	strhi	r8, [r2, -r1, lsl #16]
 a70:	85048603 	strhi	r8, [r4, #-1539]
 a74:	00068405 	andeq	r8, r6, r5, lsl #8
 a78:	00000018 	andeq	r0, r0, r8, lsl r0
 a7c:	000007f4 	streqd	r0, [r0], -r4
 a80:	30003120 	andcc	r3, r0, r0, lsr #2
 a84:	00000140 	andeq	r0, r0, r0, asr #2
 a88:	8e100e44 	cdphi	14, 1, cr0, cr0, cr4, {2}
 a8c:	85028601 	strhi	r8, [r2, #-1537]
 a90:	00048403 	andeq	r8, r4, r3, lsl #8
 a94:	0000000c 	andeq	r0, r0, ip
 a98:	ffffffff 	swinv	0x00ffffff
 a9c:	7c010001 	stcvc	0, cr0, [r1], {1}
 aa0:	000d0c0e 	andeq	r0, sp, lr, lsl #24
 aa4:	0000001c 	andeq	r0, r0, ip, lsl r0
 aa8:	00000a94 	muleq	r0, r4, sl
 aac:	30003740 	andcc	r3, r0, r0, asr #14
 ab0:	00000050 	andeq	r0, r0, r0, asr r0
 ab4:	8e180e48 	cdphi	14, 1, cr0, cr8, cr8, {2}
 ab8:	87028801 	strhi	r8, [r2, -r1, lsl #16]
 abc:	85048603 	strhi	r8, [r4, #-1539]
 ac0:	00068405 	andeq	r8, r6, r5, lsl #8
 ac4:	0000000c 	andeq	r0, r0, ip
 ac8:	ffffffff 	swinv	0x00ffffff
 acc:	7c010001 	stcvc	0, cr0, [r1], {1}
 ad0:	000d0c0e 	andeq	r0, sp, lr, lsl #24
 ad4:	00000024 	andeq	r0, r0, r4, lsr #32
 ad8:	00000ac4 	andeq	r0, r0, r4, asr #21
 adc:	30003790 	mulcc	r0, r0, r7
 ae0:	00000058 	andeq	r0, r0, r8, asr r0
 ae4:	83100e44 	tsthi	r0, #1088	; 0x440
 ae8:	81028201 	tsthi	r2, r1, lsl #4
 aec:	48048003 	stmmida	r4, {r0, r1, pc}
 af0:	058e200e 	streq	r2, [lr, #14]
 af4:	07850686 	streq	r0, [r5, r6, lsl #13]
 af8:	00000884 	andeq	r0, r0, r4, lsl #17
 afc:	00000020 	andeq	r0, r0, r0, lsr #32
 b00:	00000ac4 	andeq	r0, r0, r4, asr #21
 b04:	300037e8 	andcc	r3, r0, r8, ror #15
 b08:	00000058 	andeq	r0, r0, r8, asr r0
 b0c:	44100e44 	ldrmi	r0, [r0], #-3652
 b10:	058e1c0e 	streq	r1, [lr, #3086]
 b14:	07840685 	streq	r0, [r4, r5, lsl #13]
 b18:	02820183 	addeq	r0, r2, #-1073741792	; 0xc0000020
 b1c:	04800381 	streq	r0, [r0], #897
 b20:	0000000c 	andeq	r0, r0, ip
 b24:	ffffffff 	swinv	0x00ffffff
 b28:	7c010001 	stcvc	0, cr0, [r1], {1}
 b2c:	000d0c0e 	andeq	r0, sp, lr, lsl #24
 b30:	0000001c 	andeq	r0, r0, ip, lsl r0
 b34:	00000b20 	andeq	r0, r0, r0, lsr #22
 b38:	30003840 	andcc	r3, r0, r0, asr #16
 b3c:	0000008c 	andeq	r0, r0, ip, lsl #1
 b40:	8e180e44 	cdphi	14, 1, cr0, cr8, cr4, {2}
 b44:	87028801 	strhi	r8, [r2, -r1, lsl #16]
 b48:	85048603 	strhi	r8, [r4, #-1539]
 b4c:	00068405 	andeq	r8, r6, r5, lsl #8
 b50:	0000000c 	andeq	r0, r0, ip
 b54:	00000b20 	andeq	r0, r0, r0, lsr #22
 b58:	300038cc 	andcc	r3, r0, ip, asr #17
 b5c:	0000001c 	andeq	r0, r0, ip, lsl r0
 b60:	0000000c 	andeq	r0, r0, ip
 b64:	00000b20 	andeq	r0, r0, r0, lsr #22
 b68:	300038e8 	andcc	r3, r0, r8, ror #17
 b6c:	00000024 	andeq	r0, r0, r4, lsr #32
 b70:	0000000c 	andeq	r0, r0, ip
 b74:	00000b20 	andeq	r0, r0, r0, lsr #22
 b78:	3000390c 	andcc	r3, r0, ip, lsl #18
 b7c:	00000030 	andeq	r0, r0, r0, lsr r0
 b80:	0000000c 	andeq	r0, r0, ip
 b84:	00000b20 	andeq	r0, r0, r0, lsr #22
 b88:	3000393c 	andcc	r3, r0, ip, lsr r9
 b8c:	00000044 	andeq	r0, r0, r4, asr #32
 b90:	0000000c 	andeq	r0, r0, ip
 b94:	00000b20 	andeq	r0, r0, r0, lsr #22
 b98:	30003980 	andcc	r3, r0, r0, lsl #19
 b9c:	00000030 	andeq	r0, r0, r0, lsr r0
 ba0:	00000014 	andeq	r0, r0, r4, lsl r0
 ba4:	00000b20 	andeq	r0, r0, r0, lsr #22
 ba8:	300039b0 	strcch	r3, [r0], -r0
 bac:	00000048 	andeq	r0, r0, r8, asr #32
 bb0:	8e040e48 	cdphi	14, 0, cr0, cr4, cr8, {2}
 bb4:	00000001 	andeq	r0, r0, r1
 bb8:	0000000c 	andeq	r0, r0, ip
 bbc:	00000b20 	andeq	r0, r0, r0, lsr #22
 bc0:	300039f8 	strccd	r3, [r0], -r8
 bc4:	00000034 	andeq	r0, r0, r4, lsr r0
 bc8:	0000000c 	andeq	r0, r0, ip
 bcc:	00000b20 	andeq	r0, r0, r0, lsr #22
 bd0:	30003a2c 	andcc	r3, r0, ip, lsr #20
 bd4:	00000024 	andeq	r0, r0, r4, lsr #32
 bd8:	00000018 	andeq	r0, r0, r8, lsl r0
 bdc:	00000b20 	andeq	r0, r0, r0, lsr #22
 be0:	30003a50 	andcc	r3, r0, r0, asr sl
 be4:	00000038 	andeq	r0, r0, r8, lsr r0
 be8:	8e0c0e44 	cdphi	14, 0, cr0, cr12, cr4, {2}
 bec:	84028501 	strhi	r8, [r2], #-1281
 bf0:	00000003 	andeq	r0, r0, r3
 bf4:	0000000c 	andeq	r0, r0, ip
 bf8:	00000b20 	andeq	r0, r0, r0, lsr #22
 bfc:	30003a88 	andcc	r3, r0, r8, lsl #21
 c00:	00000040 	andeq	r0, r0, r0, asr #32
 c04:	00000014 	andeq	r0, r0, r4, lsl r0
 c08:	00000b20 	andeq	r0, r0, r0, lsr #22
 c0c:	30003ac8 	andcc	r3, r0, r8, asr #21
 c10:	00000074 	andeq	r0, r0, r4, ror r0
 c14:	8e080e44 	cdphi	14, 0, cr0, cr8, cr4, {2}
 c18:	00028401 	andeq	r8, r2, r1, lsl #8
 c1c:	00000014 	andeq	r0, r0, r4, lsl r0
 c20:	00000b20 	andeq	r0, r0, r0, lsr #22
 c24:	30003b3c 	andcc	r3, r0, ip, lsr fp
 c28:	0000004c 	andeq	r0, r0, ip, asr #32
 c2c:	8e040e44 	cdphi	14, 0, cr0, cr4, cr4, {2}
 c30:	00000001 	andeq	r0, r0, r1
 c34:	00000018 	andeq	r0, r0, r8, lsl r0
 c38:	00000b20 	andeq	r0, r0, r0, lsr #22
 c3c:	30003b88 	andcc	r3, r0, r8, lsl #23
 c40:	00000084 	andeq	r0, r0, r4, lsl #1
 c44:	8e100e44 	cdphi	14, 1, cr0, cr0, cr4, {2}
 c48:	85028601 	strhi	r8, [r2, #-1537]
 c4c:	00048403 	andeq	r8, r4, r3, lsl #8
 c50:	00000018 	andeq	r0, r0, r8, lsl r0
 c54:	00000b20 	andeq	r0, r0, r0, lsr #22
 c58:	30003c0c 	andcc	r3, r0, ip, lsl #24
 c5c:	00000038 	andeq	r0, r0, r8, lsr r0
 c60:	8e0c0e44 	cdphi	14, 0, cr0, cr12, cr4, {2}
 c64:	84028501 	strhi	r8, [r2], #-1281
 c68:	00000003 	andeq	r0, r0, r3
 c6c:	0000000c 	andeq	r0, r0, ip
 c70:	00000b20 	andeq	r0, r0, r0, lsr #22
 c74:	30003c44 	andcc	r3, r0, r4, asr #24
 c78:	00000024 	andeq	r0, r0, r4, lsr #32
 c7c:	0000000c 	andeq	r0, r0, ip
 c80:	00000b20 	andeq	r0, r0, r0, lsr #22
 c84:	30003c68 	andcc	r3, r0, r8, ror #24
 c88:	00000020 	andeq	r0, r0, r0, lsr #32
 c8c:	0000000c 	andeq	r0, r0, ip
 c90:	00000b20 	andeq	r0, r0, r0, lsr #22
 c94:	30003c88 	andcc	r3, r0, r8, lsl #25
 c98:	00000028 	andeq	r0, r0, r8, lsr #32
 c9c:	0000000c 	andeq	r0, r0, ip
 ca0:	00000b20 	andeq	r0, r0, r0, lsr #22
 ca4:	30003cb0 	strcch	r3, [r0], -r0
 ca8:	00000058 	andeq	r0, r0, r8, asr r0
 cac:	0000000c 	andeq	r0, r0, ip
 cb0:	00000b20 	andeq	r0, r0, r0, lsr #22
 cb4:	30003d08 	andcc	r3, r0, r8, lsl #26
 cb8:	00000034 	andeq	r0, r0, r4, lsr r0
 cbc:	0000000c 	andeq	r0, r0, ip
 cc0:	00000b20 	andeq	r0, r0, r0, lsr #22
 cc4:	30003d3c 	andcc	r3, r0, ip, lsr sp
 cc8:	00000024 	andeq	r0, r0, r4, lsr #32
 ccc:	0000001c 	andeq	r0, r0, ip, lsl r0
 cd0:	00000b20 	andeq	r0, r0, r0, lsr #22
 cd4:	30003d60 	andcc	r3, r0, r0, ror #26
 cd8:	00000068 	andeq	r0, r0, r8, rrx
 cdc:	8e140e44 	cdphi	14, 1, cr0, cr4, cr4, {2}
 ce0:	86028701 	strhi	r8, [r2], -r1, lsl #14
 ce4:	84048503 	strhi	r8, [r4], #-1283
 ce8:	00000005 	andeq	r0, r0, r5
 cec:	0000000c 	andeq	r0, r0, ip
 cf0:	00000b20 	andeq	r0, r0, r0, lsr #22
 cf4:	30003dc8 	andcc	r3, r0, r8, asr #27
 cf8:	00000030 	andeq	r0, r0, r0, lsr r0
 cfc:	0000000c 	andeq	r0, r0, ip
 d00:	ffffffff 	swinv	0x00ffffff
 d04:	7c010001 	stcvc	0, cr0, [r1], {1}
 d08:	000d0c0e 	andeq	r0, sp, lr, lsl #24
 d0c:	00000018 	andeq	r0, r0, r8, lsl r0
 d10:	00000cfc 	streqd	r0, [r0], -ip
 d14:	30003df8 	strccd	r3, [r0], -r8
 d18:	000000f8 	streqd	r0, [r0], -r8
 d1c:	8e0c0e44 	cdphi	14, 0, cr0, cr12, cr4, {2}
 d20:	84028501 	strhi	r8, [r2], #-1281
 d24:	00000003 	andeq	r0, r0, r3
 d28:	00000014 	andeq	r0, r0, r4, lsl r0
 d2c:	00000cfc 	streqd	r0, [r0], -ip
 d30:	30003ef0 	strccd	r3, [r0], -r0
 d34:	00000028 	andeq	r0, r0, r8, lsr #32
 d38:	8e040e44 	cdphi	14, 0, cr0, cr4, cr4, {2}
 d3c:	00000001 	andeq	r0, r0, r1
 d40:	00000024 	andeq	r0, r0, r4, lsr #32
 d44:	00000cfc 	streqd	r0, [r0], -ip
 d48:	30003f18 	andcc	r3, r0, r8, lsl pc
 d4c:	00000148 	andeq	r0, r0, r8, asr #2
 d50:	8e240e44 	cdphi	14, 2, cr0, cr4, cr4, {2}
 d54:	8a028b01 	bhi	a3960 <DISABLE_IRQ+0xa38e0>
 d58:	88048903 	stmhida	r4, {r0, r1, r8, fp, pc}
 d5c:	86068705 	strhi	r8, [r6], -r5, lsl #14
 d60:	84088507 	strhi	r8, [r8], #-1287
 d64:	00000009 	andeq	r0, r0, r9
 d68:	00000014 	andeq	r0, r0, r4, lsl r0
 d6c:	00000cfc 	streqd	r0, [r0], -ip
 d70:	30004060 	andcc	r4, r0, r0, rrx
 d74:	0000002c 	andeq	r0, r0, ip, lsr #32
 d78:	8e040e44 	cdphi	14, 0, cr0, cr4, cr4, {2}
 d7c:	00000001 	andeq	r0, r0, r1
 d80:	00000014 	andeq	r0, r0, r4, lsl r0
 d84:	00000cfc 	streqd	r0, [r0], -ip
 d88:	3000408c 	andcc	r4, r0, ip, lsl #1
 d8c:	00000050 	andeq	r0, r0, r0, asr r0
 d90:	8e080e44 	cdphi	14, 0, cr0, cr8, cr4, {2}
 d94:	00028401 	andeq	r8, r2, r1, lsl #8
 d98:	00000024 	andeq	r0, r0, r4, lsr #32
 d9c:	00000cfc 	streqd	r0, [r0], -ip
 da0:	300040dc 	ldrccd	r4, [r0], -ip
 da4:	000002e8 	andeq	r0, r0, r8, ror #5
 da8:	8e240e44 	cdphi	14, 2, cr0, cr4, cr4, {2}
 dac:	8a028b01 	bhi	a39b8 <DISABLE_IRQ+0xa3938>
 db0:	88048903 	stmhida	r4, {r0, r1, r8, fp, pc}
 db4:	86068705 	strhi	r8, [r6], -r5, lsl #14
 db8:	84088507 	strhi	r8, [r8], #-1287
 dbc:	780e5809 	stmvcda	lr, {r0, r3, fp, ip, lr}
 dc0:	00000024 	andeq	r0, r0, r4, lsr #32
 dc4:	00000cfc 	streqd	r0, [r0], -ip
 dc8:	300043c4 	andcc	r4, r0, r4, asr #7
 dcc:	0000062c 	andeq	r0, r0, ip, lsr #12
 dd0:	8e240e44 	cdphi	14, 2, cr0, cr4, cr4, {2}
 dd4:	8a028b01 	bhi	a39e0 <DISABLE_IRQ+0xa3960>
 dd8:	88048903 	stmhida	r4, {r0, r1, r8, fp, pc}
 ddc:	86068705 	strhi	r8, [r6], -r5, lsl #14
 de0:	84088507 	strhi	r8, [r8], #-1287
 de4:	3c0e5809 	stccc	8, cr5, [lr], {9}
 de8:	00000014 	andeq	r0, r0, r4, lsl r0
 dec:	00000cfc 	streqd	r0, [r0], -ip
 df0:	300049f0 	strccd	r4, [r0], -r0
 df4:	00000020 	andeq	r0, r0, r0, lsr #32
 df8:	8e080e44 	cdphi	14, 0, cr0, cr8, cr4, {2}
 dfc:	00028401 	andeq	r8, r2, r1, lsl #8
 e00:	00000018 	andeq	r0, r0, r8, lsl r0
 e04:	00000cfc 	streqd	r0, [r0], -ip
 e08:	30004a10 	andcc	r4, r0, r0, lsl sl
 e0c:	00000020 	andeq	r0, r0, r0, lsr #32
 e10:	44080e44 	strmi	r0, [r8], #-3652
 e14:	038e0c0e 	orreq	r0, lr, #3584	; 0xe00
 e18:	02820183 	addeq	r0, r2, #-1073741792	; 0xc0000020
 e1c:	0000001c 	andeq	r0, r0, ip, lsl r0
 e20:	00000cfc 	streqd	r0, [r0], -ip
 e24:	30004a30 	andcc	r4, r0, r0, lsr sl
 e28:	00000034 	andeq	r0, r0, r4, lsr r0
 e2c:	44080e44 	strmi	r0, [r8], #-3652
 e30:	038e100e 	orreq	r1, lr, #14	; 0xe
 e34:	01830484 	orreq	r0, r3, r4, lsl #9
 e38:	00000282 	andeq	r0, r0, r2, lsl #5
 e3c:	0000000c 	andeq	r0, r0, ip
 e40:	00000cfc 	streqd	r0, [r0], -ip
 e44:	30004a64 	andcc	r4, r0, r4, ror #20
 e48:	00000010 	andeq	r0, r0, r0, lsl r0
 e4c:	0000001c 	andeq	r0, r0, ip, lsl r0
 e50:	00000cfc 	streqd	r0, [r0], -ip
 e54:	30004a74 	andcc	r4, r0, r4, ror sl
 e58:	00000020 	andeq	r0, r0, r0, lsr #32
 e5c:	440c0e44 	strmi	r0, [ip], #-3652
 e60:	048e100e 	streq	r1, [lr], #14
 e64:	02820183 	addeq	r0, r2, #-1073741792	; 0xc0000020
 e68:	00000381 	andeq	r0, r0, r1, lsl #7
 e6c:	00000020 	andeq	r0, r0, r0, lsr #32
 e70:	00000cfc 	streqd	r0, [r0], -ip
 e74:	30004a94 	mulcc	r0, r4, sl
 e78:	00000704 	andeq	r0, r0, r4, lsl #14
 e7c:	8e1c0e44 	cdphi	14, 1, cr0, cr12, cr4, {2}
 e80:	88028a01 	stmhida	r2, {r0, r9, fp, pc}
 e84:	86048703 	strhi	r8, [r4], -r3, lsl #14
 e88:	84068505 	strhi	r8, [r6], #-1285
 e8c:	240e5407 	strcs	r5, [lr], #-1031
 e90:	0000001c 	andeq	r0, r0, ip, lsl r0
 e94:	00000cfc 	streqd	r0, [r0], -ip
 e98:	30005198 	mulcc	r0, r8, r1
 e9c:	00000020 	andeq	r0, r0, r0, lsr #32
 ea0:	440c0e44 	strmi	r0, [ip], #-3652
 ea4:	048e100e 	streq	r1, [lr], #14
 ea8:	02820183 	addeq	r0, r2, #-1073741792	; 0xc0000020
 eac:	00000381 	andeq	r0, r0, r1, lsl #7
Disassembly of section .debug_pubnames:

00000000 <.debug_pubnames>:
   0:	00000042 	andeq	r0, r0, r2, asr #32
   4:	00410002 	subeq	r0, r1, r2
   8:	009a0000 	addeqs	r0, sl, r0
   c:	00250000 	eoreq	r0, r5, r0
  10:	656c0000 	strvsb	r0, [ip]!
  14:	6e695f64 	cdpvs	15, 6, cr5, cr9, cr4, {3}
  18:	37007469 	strcc	r7, [r0, -r9, ror #8]
  1c:	64000000 	strvs	r0, [r0]
  20:	79616c65 	stmvcdb	r1!, {r0, r2, r5, r6, sl, fp, sp, lr}^
  24:	00007300 	andeq	r7, r0, r0, lsl #6
  28:	6d697400 	cfstrdvs	mvd7, [r9]
  2c:	5f307265 	swipl	0x00307265
  30:	74696e69 	strvcbt	r6, [r9], #-3689
  34:	00008600 	andeq	r8, r0, r0, lsl #12
  38:	79656b00 	stmvcdb	r5!, {r8, r9, fp, sp, lr}^
  3c:	696e695f 	stmvsdb	lr!, {r0, r1, r2, r3, r4, r6, r8, fp, sp, lr}^
  40:	00000074 	andeq	r0, r0, r4, ror r0
  44:	008f0000 	addeq	r0, pc, r0
  48:	00020000 	andeq	r0, r2, r0
  4c:	000000db 	ldreqd	r0, [r0], -fp
  50:	00000377 	andeq	r0, r0, r7, ror r3
  54:	00000070 	andeq	r0, r0, r0, ror r0
  58:	5f717269 	swipl	0x00717269
  5c:	646e6168 	strvsbt	r6, [lr], #-360
  60:	0072656c 	rsbeqs	r6, r2, ip, ror #10
  64:	000000b2 	streqh	r0, [r0], -r2
  68:	61656c63 	cmnvs	r5, r3, ror #24
  6c:	72695f72 	rsbvc	r5, r9, #456	; 0x1c8
  70:	00c50071 	sbceq	r0, r5, r1, ror r0
  74:	75660000 	strvcb	r0, [r6]!
  78:	61745f6e 	cmnvs	r4, lr, ror #30
  7c:	00316b73 	eoreqs	r6, r1, r3, ror fp
  80:	000000ea 	andeq	r0, r0, sl, ror #1
  84:	5f6e7566 	swipl	0x006e7566
  88:	6b736174 	blvs	1cd8660 <DISABLE_IRQ+0x1cd85e0>
  8c:	011a0032 	tsteq	sl, r2, lsr r0
  90:	73660000 	cmnvc	r6, #0	; 0x0
  94:	7361745f 	cmnvc	r1, #1593835520	; 0x5f000000
  98:	01d3006b 	biceqs	r0, r3, fp, rrx
  9c:	75720000 	ldrvcb	r0, [r2]!
  a0:	6f635f6e 	swivs	0x00635f6e
  a4:	6e6f6d6d 	cdpvs	13, 6, cr6, cr15, cr13, {3}
  a8:	02620064 	rsbeq	r0, r2, #100	; 0x64
  ac:	75660000 	strvcb	r0, [r6]!
  b0:	61745f6e 	cmnvs	r4, lr, ror #30
  b4:	00336b73 	eoreqs	r6, r3, r3, ror fp
  b8:	000002f8 	streqd	r0, [r0], -r8
  bc:	74696e69 	strvcbt	r6, [r9], #-3689
  c0:	00036400 	andeq	r6, r3, r0, lsl #8
  c4:	69617700 	stmvsdb	r1!, {r8, r9, sl, ip, sp, lr}^
  c8:	75715f74 	ldrvcb	r5, [r1, #-3956]!
  cc:	5f657565 	swipl	0x00657565
  d0:	64616568 	strvsbt	r6, [r1], #-1384
  d4:	00000000 	andeq	r0, r0, r0
  d8:	00009d00 	andeq	r9, r0, r0, lsl #26
  dc:	52000200 	andpl	r0, r0, #0	; 0x0
  e0:	2e000004 	cdpcs	0, 0, cr0, cr0, cr4, {0}
  e4:	a4000003 	strge	r0, [r0], #-3
  e8:	67000001 	strvs	r0, [r0, -r1]
  ec:	635f7465 	cmpvs	pc, #1694498816	; 0x65000000
  f0:	65727275 	ldrvsb	r7, [r2, #-629]!
  f4:	d900746e 	stmledb	r0, {r1, r2, r3, r5, r6, sl, ip, sp, lr}
  f8:	74000001 	strvc	r0, [r0], #-1
  fc:	5f6b7361 	swipl	0x006b7361
 100:	74696e69 	strvcbt	r6, [r9], #-3689
 104:	0001ec00 	andeq	lr, r1, r0, lsl #24
 108:	616e6500 	cmnvs	lr, r0, lsl #10
 10c:	5f656c62 	swipl	0x00656c62
 110:	00717269 	rsbeqs	r7, r1, r9, ror #4
 114:	000001ff 	streqd	r0, [r0], -pc
 118:	61736964 	cmnvs	r3, r4, ror #18
 11c:	5f656c62 	swipl	0x00656c62
 120:	00717269 	rsbeqs	r7, r1, r9, ror #4
 124:	00000212 	andeq	r0, r0, r2, lsl r2
 128:	6f635f5f 	swivs	0x00635f5f
 12c:	6e6f6d6d 	cdpvs	13, 6, cr6, cr15, cr13, {3}
 130:	6863735f 	stmvsda	r3!, {r0, r1, r2, r3, r4, r6, r8, r9, ip, sp, lr}^
 134:	6c756465 	cfldrdvs	mvd6, [r5], #-404
 138:	02650065 	rsbeq	r0, r5, #101	; 0x65
 13c:	77730000 	ldrvcb	r0, [r3, -r0]!
 140:	68637469 	stmvsda	r3!, {r0, r3, r5, r6, sl, ip, sp, lr}^
 144:	006f745f 	rsbeq	r7, pc, pc, asr r4
 148:	0000028a 	andeq	r0, r0, sl, lsl #5
 14c:	65686373 	strvsb	r6, [r8, #-883]!
 150:	656c7564 	strvsb	r7, [ip, #-1380]!
 154:	00029d00 	andeq	r9, r2, r0, lsl #26
 158:	6b617700 	blvs	185dd60 <DISABLE_IRQ+0x185dce0>
 15c:	70755f65 	rsbvcs	r5, r5, r5, ror #30
 160:	0002d800 	andeq	sp, r2, r0, lsl #16
 164:	656c7300 	strvsb	r7, [ip, #-768]!
 168:	6f5f7065 	swivs	0x005f7065
 16c:	031b006e 	tsteq	fp, #110	; 0x6e
 170:	6d740000 	ldcvsl	0, cr0, [r4]
 174:	00000070 	andeq	r0, r0, r0, ror r0
 178:	00490000 	subeq	r0, r9, r0
 17c:	00020000 	andeq	r0, r2, r0
 180:	00000780 	andeq	r0, r0, r0, lsl #15
 184:	000002de 	ldreqd	r0, [r0], -lr
 188:	000001a4 	andeq	r0, r0, r4, lsr #3
 18c:	5f746567 	swipl	0x00746567
 190:	6b736174 	blvs	1cd8768 <DISABLE_IRQ+0x1cd86e8>
 194:	7274735f 	rsbvcs	r7, r4, #2080374785	; 0x7c000001
 198:	5f746375 	swipl	0x00746375
 19c:	72646461 	rsbvc	r6, r4, #1627389952	; 0x61000000
 1a0:	0001e400 	andeq	lr, r1, r0, lsl #8
 1a4:	74656700 	strvcbt	r6, [r5], #-1792
 1a8:	7370635f 	cmnvc	r0, #2080374785	; 0x7c000001
 1ac:	020b0072 	andeq	r0, fp, #114	; 0x72
 1b0:	6f640000 	swivs	0x00640000
 1b4:	726f665f 	rsbvc	r6, pc, #99614720	; 0x5f00000
 1b8:	027b006b 	rsbeqs	r0, fp, #107	; 0x6b
 1bc:	78650000 	stmvcda	r5!, {}^
 1c0:	00006365 	andeq	r6, r0, r5, ror #6
 1c4:	3a000000 	bcc	1cc <DISABLE_IRQ+0x14c>
 1c8:	02000000 	andeq	r0, r0, #0	; 0x0
 1cc:	000a5e00 	andeq	r5, sl, r0, lsl #28
 1d0:	0000c800 	andeq	ip, r0, r0, lsl #16
 1d4:	00002500 	andeq	r2, r0, r0, lsl #10
 1d8:	74656700 	strvcbt	r6, [r5], #-1792
 1dc:	6572665f 	ldrvsb	r6, [r2, #-1631]!
 1e0:	61705f65 	cmnvs	r0, r5, ror #30
 1e4:	60006567 	andvs	r6, r0, r7, ror #10
 1e8:	66000000 	strvs	r0, [r0], -r0
 1ec:	5f656572 	swipl	0x00656572
 1f0:	65676170 	strvsb	r6, [r7, #-368]!
 1f4:	0000b500 	andeq	fp, r0, r0, lsl #10
 1f8:	6d656d00 	stcvsl	13, cr6, [r5]
 1fc:	70616d5f 	rsbvc	r6, r1, pc, asr sp
 200:	00000000 	andeq	r0, r0, r0
 204:	0000c500 	andeq	ip, r0, r0, lsl #10
 208:	26000200 	strcs	r0, [r0], -r0, lsl #4
 20c:	3f00000b 	swicc	0x0000000b
 210:	25000002 	strcs	r0, [r0, #-2]
 214:	69000000 	stmvsdb	r0, {}
 218:	6f6f4273 	swivs	0x006f4273
 21c:	6f724674 	swivs	0x00724674
 220:	726f4e6d 	rsbvc	r4, pc, #1744	; 0x6d0
 224:	73616c46 	cmnvc	r1, #17920	; 0x4600
 228:	006b0068 	rsbeq	r0, fp, r8, rrx
 22c:	6c630000 	stcvsl	0, cr0, [r3]
 230:	5f726165 	swipl	0x00726165
 234:	00737362 	rsbeqs	r7, r3, r2, ror #6
 238:	000000ae 	andeq	r0, r0, lr, lsr #1
 23c:	646e616e 	strvsbt	r6, [lr], #-366
 240:	696e695f 	stmvsdb	lr!, {r0, r1, r2, r3, r4, r6, r8, fp, sp, lr}^
 244:	00c10074 	sbceq	r0, r1, r4, ror r0
 248:	616e0000 	cmnvs	lr, r0
 24c:	735f646e 	cmpvc	pc, #1845493760	; 0x6e000000
 250:	63656c65 	cmnvs	r5, #25856	; 0x6500
 254:	00d40074 	sbceqs	r0, r4, r4, ror r0
 258:	616e0000 	cmnvs	lr, r0
 25c:	645f646e 	ldrvsb	r6, [pc], #1134	; 264 <DISABLE_IRQ+0x1e4>
 260:	6c657365 	stcvsl	3, cr7, [r5], #-404
 264:	00746365 	rsbeqs	r6, r4, r5, ror #6
 268:	000000e7 	andeq	r0, r0, r7, ror #1
 26c:	646e616e 	strvsbt	r6, [lr], #-366
 270:	646d635f 	strvsbt	r6, [sp], #-863
 274:	00011f00 	andeq	r1, r1, r0, lsl #30
 278:	6e616e00 	cdpvs	14, 6, cr6, cr1, cr0, {0}
 27c:	64615f64 	strvsbt	r5, [r1], #-3940
 280:	71007264 	tstvc	r0, r4, ror #4
 284:	6e000001 	cdpvs	0, 0, cr0, cr0, cr1, {0}
 288:	5f646e61 	swipl	0x00646e61
 28c:	74696177 	strvcbt	r6, [r9], #-375
 290:	6165725f 	cmnvs	r5, pc, asr r2
 294:	84007964 	strhi	r7, [r0], #-2404
 298:	6e000001 	cdpvs	0, 0, cr0, cr0, cr1, {0}
 29c:	5f646e61 	swipl	0x00646e61
 2a0:	61746164 	cmnvs	r4, r4, ror #2
 2a4:	00019b00 	andeq	r9, r1, r0, lsl #22
 2a8:	6e616e00 	cdpvs	14, 6, cr6, cr1, cr0, {0}
 2ac:	65725f64 	ldrvsb	r5, [r2, #-3940]!
 2b0:	f8006461 	stmnvda	r0, {r0, r5, r6, sl, sp, lr}
 2b4:	63000001 	tstvs	r0, #1	; 0x1
 2b8:	5f79706f 	swipl	0x0079706f
 2bc:	65646f63 	strvsb	r6, [r4, #-3939]!
 2c0:	5f6f745f 	swipl	0x006f745f
 2c4:	61726473 	cmnvs	r2, r3, ror r4
 2c8:	0000006d 	andeq	r0, r0, sp, rrx
 2cc:	00cf0000 	sbceq	r0, pc, r0
 2d0:	00020000 	andeq	r0, r2, r0
 2d4:	00000d65 	andeq	r0, r0, r5, ror #26
 2d8:	000001fc 	streqd	r0, [r0], -ip
 2dc:	00000025 	andeq	r0, r0, r5, lsr #32
 2e0:	5f64636c 	swipl	0x0064636c
 2e4:	74726f70 	ldrvcbt	r6, [r2], #-3952
 2e8:	696e695f 	stmvsdb	lr!, {r0, r1, r2, r3, r4, r6, r8, fp, sp, lr}^
 2ec:	00370074 	eoreqs	r0, r7, r4, ror r0
 2f0:	636c0000 	cmnvs	ip, #0	; 0x0
 2f4:	6f635f64 	swivs	0x00635f64
 2f8:	6f72746e 	swivs	0x0072746e
 2fc:	5f72656c 	swipl	0x0072656c
 300:	74696e69 	strvcbt	r6, [r9], #-3689
 304:	00004900 	andeq	r4, r0, r0, lsl #18
 308:	64636c00 	strvsbt	r6, [r3], #-3072
 30c:	776f705f 	undefined
 310:	655f7265 	ldrvsb	r7, [pc, #-613]	; b3 <DISABLE_IRQ+0x33>
 314:	6c62616e 	stfvse	f6, [r2], #-440
 318:	005b0065 	subeqs	r0, fp, r5, rrx
 31c:	636c0000 	cmnvs	ip, #0	; 0x0
 320:	6e655f64 	cdpvs	15, 6, cr5, cr5, cr4, {3}
 324:	5f646976 	swipl	0x00646976
 328:	6d006e6f 	stcvs	14, cr6, [r0, #-444]
 32c:	6c000000 	stcvs	0, cr0, [r0], {0}
 330:	655f6463 	ldrvsb	r6, [pc, #-1123]	; fffffed5 <CLKDIVN+0xb3fffec1>
 334:	6469766e 	strvsbt	r7, [r9], #-1646
 338:	66666f5f 	uqsubaddxvs	r6, r6, pc
 33c:	00007f00 	andeq	r7, r0, r0, lsl #30
 340:	61726400 	cmnvs	r2, r0, lsl #8
 344:	69705f77 	ldmvsdb	r0!, {r0, r1, r2, r4, r5, r6, r8, r9, sl, fp, ip, lr}^
 348:	006c6578 	rsbeq	r6, ip, r8, ror r5
 34c:	00000109 	andeq	r0, r0, r9, lsl #2
 350:	61656c63 	cmnvs	r5, r3, ror #24
 354:	63735f72 	cmnvs	r3, #456	; 0x1c8
 358:	6e656572 	mcrvs	5, 3, r6, cr5, cr2, {3}
 35c:	00014400 	andeq	r4, r1, r0, lsl #8
 360:	61726400 	cmnvs	r2, r0, lsl #8
 364:	65725f77 	ldrvsb	r5, [r2, #-3959]!
 368:	b3007463 	tstlt	r0, #1660944384	; 0x63000000
 36c:	6c000001 	stcvs	0, cr0, [r0], {1}
 370:	695f6463 	ldmvsdb	pc, {r0, r1, r5, r6, sl, sp, lr}^
 374:	0074696e 	rsbeqs	r6, r4, lr, ror #18
 378:	000001c5 	andeq	r0, r0, r5, asr #3
 37c:	625f6266 	subvss	r6, pc, #1610612742	; 0x60000006
 380:	5f657361 	swipl	0x00657361
 384:	72646461 	rsbvc	r6, r4, #1627389952	; 0x61000000
 388:	0001d700 	andeq	sp, r1, r0, lsl #14
 38c:	69737800 	ldmvsdb	r3!, {fp, ip, sp, lr}^
 390:	e900657a 	stmdb	r0, {r1, r3, r4, r5, r6, r8, sl, sp, lr}
 394:	79000001 	stmvcdb	r0, {r0}
 398:	657a6973 	ldrvsb	r6, [sl, #-2419]!
 39c:	00000000 	andeq	r0, r0, r0
 3a0:	00007500 	andeq	r7, r0, r0, lsl #10
 3a4:	61000200 	tstvs	r0, r0, lsl #4
 3a8:	d800000f 	stmleda	r0, {r0, r1, r2, r3}
 3ac:	70000001 	andvc	r0, r0, r1
 3b0:	6c000000 	stcvs	0, cr0, [r0], {0}
 3b4:	5f747369 	swipl	0x00747369
 3b8:	74696e69 	strvcbt	r6, [r9], #-3689
 3bc:	00009500 	andeq	r9, r0, r0, lsl #10
 3c0:	6c5f5f00 	mrrcvs	15, 0, r5, pc, cr0
 3c4:	5f747369 	swipl	0x00747369
 3c8:	006c6564 	rsbeq	r6, ip, r4, ror #10
 3cc:	000000c7 	andeq	r0, r0, r7, asr #1
 3d0:	7473696c 	ldrvcbt	r6, [r3], #-2412
 3d4:	6c65645f 	cfstrdvs	mvd6, [r5], #-380
 3d8:	0000ec00 	andeq	lr, r0, r0, lsl #24
 3dc:	73696c00 	cmnvc	r9, #0	; 0x0
 3e0:	6d655f74 	stcvsl	15, cr5, [r5, #-464]!
 3e4:	00797470 	rsbeqs	r7, r9, r0, ror r4
 3e8:	00000115 	andeq	r0, r0, r5, lsl r1
 3ec:	696c5f5f 	stmvsdb	ip!, {r0, r1, r2, r3, r4, r6, r8, r9, sl, fp, ip, lr}^
 3f0:	615f7473 	cmpvs	pc, r3, ror r4
 3f4:	54006464 	strpl	r6, [r0], #-1124
 3f8:	6c000001 	stcvs	0, cr0, [r0], {1}
 3fc:	5f747369 	swipl	0x00747369
 400:	00646461 	rsbeq	r6, r4, r1, ror #8
 404:	00000186 	andeq	r0, r0, r6, lsl #3
 408:	7473696c 	ldrvcbt	r6, [r3], #-2412
 40c:	6464615f 	strvsbt	r6, [r4], #-351
 410:	6961745f 	stmvsdb	r1!, {r0, r1, r2, r3, r4, r6, sl, ip, sp, lr}^
 414:	0000006c 	andeq	r0, r0, ip, rrx
 418:	00410000 	subeq	r0, r1, r0
 41c:	00020000 	andeq	r0, r2, r0
 420:	00001139 	andeq	r1, r0, r9, lsr r1
 424:	00000104 	andeq	r0, r0, r4, lsl #2
 428:	00000025 	andeq	r0, r0, r5, lsr #32
 42c:	74726175 	ldrvcbt	r6, [r2], #-373
 430:	6e695f30 	mcrvs	15, 3, r5, cr9, cr0, {1}
 434:	38007469 	stmccda	r0, {r0, r3, r5, r6, sl, ip, sp, lr}
 438:	70000000 	andvc	r0, r0, r0
 43c:	00637475 	rsbeq	r7, r3, r5, ror r4
 440:	00000062 	andeq	r0, r0, r2, rrx
 444:	63746567 	cmnvs	r4, #432013312	; 0x19c00000
 448:	00007900 	andeq	r7, r0, r0, lsl #18
 44c:	74757000 	ldrvcbt	r7, [r5]
 450:	00a20073 	adceq	r0, r2, r3, ror r0
 454:	65670000 	strvsb	r0, [r7]!
 458:	00007374 	andeq	r7, r0, r4, ror r3
 45c:	9e000000 	cdpls	0, 0, cr0, cr0, cr0, {0}
 460:	02000001 	andeq	r0, r0, #1	; 0x1
 464:	00123d00 	andeqs	r3, r2, r0, lsl #26
 468:	000bdd00 	andeq	sp, fp, r0, lsl #26
 46c:	0001f900 	andeq	pc, r1, r0, lsl #18
 470:	66756200 	ldrvsbt	r6, [r5], -r0, lsl #4
 474:	7465735f 	strvcbt	r7, [r5], #-863
 478:	2f00305f 	swics	0x0000305f
 47c:	63000002 	tstvs	r0, #2	; 0x2
 480:	74616572 	strvcbt	r6, [r1], #-1394
 484:	73665f65 	cmnvc	r6, #404	; 0x194
 488:	0002c100 	andeq	ip, r2, r0, lsl #2
 48c:	61657200 	cmnvs	r5, r0, lsl #4
 490:	75735f64 	ldrvcb	r5, [r3, #-3940]!
 494:	5f726570 	swipl	0x00726570
 498:	636f6c62 	cmnvs	pc, #25088	; 0x6200
 49c:	02fc006b 	rsceqs	r0, ip, #107	; 0x6b
 4a0:	65670000 	strvsb	r0, [r7]!
 4a4:	75735f74 	ldrvcb	r5, [r3, #-3956]!
 4a8:	5f726570 	swipl	0x00726570
 4ac:	636f6c62 	cmnvs	pc, #25088	; 0x6200
 4b0:	0331006b 	teqeq	r1, #107	; 0x6b
 4b4:	65670000 	strvsb	r0, [r7]!
 4b8:	6e695f74 	mcrvs	15, 3, r5, cr9, cr4, {3}
 4bc:	0065646f 	rsbeq	r6, r5, pc, ror #8
 4c0:	000003a9 	andeq	r0, r0, r9, lsr #7
 4c4:	5f747570 	swipl	0x00747570
 4c8:	646f6e69 	strvsbt	r6, [pc], #3689	; 4d0 <DISABLE_IRQ+0x450>
 4cc:	03d00065 	biceqs	r0, r0, #101	; 0x65
 4d0:	79730000 	ldmvcdb	r3!, {}^
 4d4:	695f636e 	ldmvsdb	pc, {r1, r2, r3, r5, r6, r8, r9, sp, lr}^
 4d8:	65646f6e 	strvsb	r6, [r4, #-3950]!
 4dc:	00041c00 	andeq	r1, r4, r0, lsl #24
 4e0:	72747300 	rsbvcs	r7, r4, #0	; 0x0
 4e4:	705f7069 	subvcs	r7, pc, r9, rrx
 4e8:	00687461 	rsbeq	r7, r8, r1, ror #8
 4ec:	00000492 	muleq	r0, r2, r4
 4f0:	6f6c6c61 	swivs	0x006c6c61
 4f4:	6d695f63 	stcvsl	15, cr5, [r9, #-396]!
 4f8:	625f7061 	subvss	r7, pc, #97	; 0x61
 4fc:	04007469 	streq	r7, [r0], #-1129
 500:	61000005 	tstvs	r0, r5
 504:	636f6c6c 	cmnvs	pc, #27648	; 0x6c00
 508:	616d735f 	cmnvs	sp, pc, asr r3
 50c:	69625f70 	stmvsdb	r2!, {r4, r5, r6, r8, r9, sl, fp, ip, lr}^
 510:	058a0074 	streq	r0, [sl, #116]
 514:	656e0000 	strvsb	r0, [lr]!
 518:	6e695f77 	mcrvs	15, 3, r5, cr9, cr7, {3}
 51c:	0065646f 	rsbeq	r6, r5, pc, ror #8
 520:	000005df 	ldreqd	r0, [r0], -pc
 524:	5f77656e 	swipl	0x0077656e
 528:	5f726964 	swipl	0x00726964
 52c:	72746e65 	rsbvcs	r6, r4, #1616	; 0x650
 530:	068e0079 	sxtab16eq	r0, lr, r9
 534:	65730000 	ldrvsb	r0, [r3]!
 538:	68637261 	stmvsda	r3!, {r0, r5, r6, r9, ip, sp, lr}^
 53c:	6c69665f 	stcvsl	6, cr6, [r9], #-380
 540:	073f0065 	ldreq	r0, [pc, -r5, rrx]!
 544:	72630000 	rsbvc	r0, r3, #0	; 0x0
 548:	65746165 	ldrvsb	r6, [r4, #-357]!
 54c:	6c69665f 	stcvsl	6, cr6, [r9], #-380
 550:	07c00065 	streqb	r0, [r0, r5, rrx]
 554:	706f0000 	rsbvc	r0, pc, r0
 558:	58006e65 	stmplda	r0, {r0, r2, r5, r6, r9, sl, fp, sp, lr}
 55c:	69000008 	stmvsdb	r0, {r3}
 560:	5f74696e 	swipl	0x0074696e
 564:	7e007366 	cdpvc	3, 0, cr7, cr0, cr6, {3}
 568:	63000008 	tstvs	r0, #8	; 0x8
 56c:	65736f6c 	ldrvsb	r6, [r3, #-3948]!
 570:	0008a800 	andeq	sl, r8, r0, lsl #16
 574:	79687000 	stmvcdb	r8!, {ip, sp, lr}^
 578:	6f635f73 	swivs	0x00635f73
 57c:	f7007970 	smlsdxnv	r0, r0, r9, r7
 580:	6d000008 	stcvs	0, cr0, [r0, #-32]
 584:	2c006e69 	stccs	14, cr6, [r0], {105}
 588:	64000009 	strvs	r0, [r0], #-9
 58c:	64725f6f 	ldrvsbt	r5, [r2], #-3951
 590:	2b007477 	blcs	1d774 <DISABLE_IRQ+0x1d6f4>
 594:	7700000a 	strvc	r0, [r0, -sl]
 598:	65746972 	ldrvsb	r6, [r4, #-2418]!
 59c:	000a7100 	andeq	r7, sl, r0, lsl #2
 5a0:	61657200 	cmnvs	r5, r0, lsl #4
 5a4:	0ab70064 	beq	fedc073c <CLKDIVN+0xb2dc0728>
 5a8:	68730000 	ldmvsda	r3!, {}^
 5ac:	645f776f 	ldrvsb	r7, [pc], #1903	; 5b4 <DISABLE_IRQ+0x534>
 5b0:	655f7269 	ldrvsb	r7, [pc, #-617]	; 34f <DISABLE_IRQ+0x2cf>
 5b4:	7972746e 	ldmvcdb	r2!, {r1, r2, r3, r5, r6, sl, ip, sp, lr}^
 5b8:	000b5200 	andeq	r5, fp, r0, lsl #4
 5bc:	66756200 	ldrvsbt	r6, [r5], -r0, lsl #4
 5c0:	000b6400 	andeq	r6, fp, r0, lsl #8
 5c4:	6f6f7200 	swivs	0x006f7200
 5c8:	6e695f74 	mcrvs	15, 3, r5, cr9, cr4, {3}
 5cc:	0065646f 	rsbeq	r6, r5, pc, ror #8
 5d0:	00000b86 	andeq	r0, r0, r6, lsl #23
 5d4:	745f6466 	ldrvcb	r6, [pc], #1126	; 5dc <DISABLE_IRQ+0x55c>
 5d8:	656c6261 	strvsb	r6, [ip, #-609]!
 5dc:	000ba800 	andeq	sl, fp, r0, lsl #16
 5e0:	6f6e6900 	swivs	0x006e6900
 5e4:	745f6564 	ldrvcb	r6, [pc], #1380	; 5ec <DISABLE_IRQ+0x56c>
 5e8:	656c6261 	strvsb	r6, [ip, #-609]!
 5ec:	000bca00 	andeq	ip, fp, r0, lsl #20
 5f0:	70757300 	rsbvcs	r7, r5, r0, lsl #6
 5f4:	625f7265 	subvss	r7, pc, #1342177286	; 0x50000006
 5f8:	6b636f6c 	blvs	18dc3b0 <DISABLE_IRQ+0x18dc330>
 5fc:	00000000 	andeq	r0, r0, r0
 600:	00017200 	andeq	r7, r1, r0, lsl #4
 604:	1a000200 	bne	e0c <DISABLE_IRQ+0xd8c>
 608:	1300001e 	tstne	r0, #30	; 0x1e
 60c:	d0000007 	andle	r0, r0, r7
 610:	53000000 	tstpl	r0, #0	; 0x0
 614:	435f4944 	cmpmi	pc, #1114112	; 0x110000
 618:	6b636568 	blvs	18d9bc0 <DISABLE_IRQ+0x18d9b40>
 61c:	444d435f 	strmib	r4, [sp], #-863
 620:	646e455f 	strvsbt	r4, [lr], #-1375
 624:	00016d00 	andeq	r6, r1, r0, lsl #26
 628:	444d4300 	strmib	r4, [sp], #-768
 62c:	98003331 	stmlsda	r0, {r0, r4, r5, r8, r9, ip, sp}
 630:	43000001 	tstmi	r0, #1	; 0x1
 634:	0039444d 	eoreqs	r4, r9, sp, asr #8
 638:	000001d7 	ldreqd	r0, [r0], -r7
 63c:	33444d43 	cmpcc	r4, #4288	; 0x10c0
 640:	00021600 	andeq	r1, r2, r0, lsl #12
 644:	444d4300 	strmib	r4, [sp], #-768
 648:	02470032 	subeq	r0, r7, #50	; 0x32
 64c:	4d430000 	stcmil	0, cr0, [r3]
 650:	5b003044 	blpl	c768 <DISABLE_IRQ+0xc6e8>
 654:	43000002 	tstmi	r0, #2	; 0x2
 658:	0031444d 	eoreqs	r4, r1, sp, asr #8
 65c:	00000273 	andeq	r0, r0, r3, ror r2
 660:	5f494453 	swipl	0x00494453
 664:	5f434d4d 	swipl	0x00434d4d
 668:	0052434f 	subeqs	r4, r2, pc, asr #6
 66c:	0000029c 	muleq	r0, ip, r2
 670:	37444d43 	strccb	r4, [r4, -r3, asr #26]
 674:	0002d500 	andeq	sp, r2, r0, lsl #10
 678:	6c657300 	stcvsl	3, cr7, [r5]
 67c:	5f746365 	swipl	0x00746365
 680:	645f726f 	ldrvsb	r7, [pc], #623	; 688 <DISABLE_IRQ+0x608>
 684:	6c657365 	stcvsl	3, cr7, [r5], #-404
 688:	00746365 	rsbeqs	r6, r4, r5, ror #6
 68c:	0000030e 	andeq	r0, r0, lr, lsl #6
 690:	31444d43 	cmpcc	r4, r3, asr #26
 694:	03260032 	teqeq	r6, #50	; 0x32
 698:	4d430000 	stcmil	0, cr0, [r3]
 69c:	00373144 	eoreqs	r3, r7, r4, asr #2
 6a0:	00000351 	andeq	r0, r0, r1, asr r3
 6a4:	31444d43 	cmpcc	r4, r3, asr #26
 6a8:	037c0038 	cmneq	ip, #56	; 0x38
 6ac:	64730000 	ldrvsbt	r0, [r3]
 6b0:	6165725f 	cmnvs	r5, pc, asr r2
 6b4:	65735f64 	ldrvsb	r5, [r3, #-3940]!
 6b8:	726f7463 	rsbvc	r7, pc, #1660944384	; 0x63000000
 6bc:	0003dd00 	andeq	sp, r3, r0, lsl #26
 6c0:	444d4300 	strmib	r4, [sp], #-768
 6c4:	08003432 	stmeqda	r0, {r1, r4, r5, sl, ip, sp}
 6c8:	43000004 	tstmi	r0, #4	; 0x4
 6cc:	3532444d 	ldrcc	r4, [r2, #-1101]!
 6d0:	00043300 	andeq	r3, r4, r0, lsl #6
 6d4:	5f647300 	swipl	0x00647300
 6d8:	74697277 	strvcbt	r7, [r9], #-631
 6dc:	65735f65 	ldrvsb	r5, [r3, #-3941]!
 6e0:	726f7463 	rsbvc	r7, pc, #1660944384	; 0x63000000
 6e4:	00049400 	andeq	r9, r4, r0, lsl #8
 6e8:	444d4300 	strmib	r4, [sp], #-768
 6ec:	bf003535 	swilt	0x00003535
 6f0:	41000004 	tstmi	r0, r4
 6f4:	36444d43 	strccb	r4, [r4], -r3, asr #26
 6f8:	0004f800 	andeq	pc, r4, r0, lsl #16
 6fc:	74655300 	strvcbt	r5, [r5], #-768
 700:	7375625f 	cmnvc	r5, #-268435451	; 0xf0000005
 704:	6469575f 	strvsbt	r5, [r9], #-1887
 708:	3f006874 	swicc	0x00006874
 70c:	41000005 	tstmi	r0, r5
 710:	34444d43 	strccb	r4, [r4], #-3395
 714:	05780031 	ldreqb	r0, [r8, #-49]!
 718:	69660000 	stmvsdb	r6!, {}^
 71c:	645f656c 	ldrvsb	r6, [pc], #1388	; 724 <DISABLE_IRQ+0x6a4>
 720:	79616c65 	stmvcdb	r1!, {r0, r2, r5, r6, sl, fp, sp, lr}^
 724:	00059d00 	andeq	r9, r5, r0, lsl #26
 728:	49445300 	stmmidb	r4, {r8, r9, ip, lr}^
 72c:	5f44535f 	swipl	0x0044535f
 730:	0052434f 	subeqs	r4, r2, pc, asr #6
 734:	000005c6 	andeq	r0, r0, r6, asr #11
 738:	5f696473 	swipl	0x00696473
 73c:	74696e69 	strvcbt	r6, [r9], #-3689
 740:	0005fb00 	andeq	pc, r5, r0, lsl #22
 744:	69647300 	stmvsdb	r4!, {r8, r9, ip, sp, lr}^
 748:	7365745f 	cmnvc	r5, #1593835520	; 0x5f000000
 74c:	06dc0074 	undefined
 750:	65730000 	ldrvsb	r0, [r3]!
 754:	625f646e 	subvss	r6, pc, #1845493760	; 0x6e000000
 758:	ee006675 	cfmadd32	mvax3, mvfx6, mvfx0, mvfx5
 75c:	72000006 	andvc	r0, r0, #6	; 0x6
 760:	5f766365 	swipl	0x00766365
 764:	00667562 	rsbeq	r7, r6, r2, ror #10
 768:	00000700 	andeq	r0, r0, r0, lsl #14
 76c:	61434453 	cmpvs	r3, r3, asr r4
 770:	00006472 	andeq	r6, r0, r2, ror r4
 774:	19000000 	stmnedb	r0, {}
 778:	02000000 	andeq	r0, r0, #0	; 0x0
 77c:	0025bd00 	eoreq	fp, r5, r0, lsl #26
 780:	00005600 	andeq	r5, r0, r0, lsl #12
 784:	00004300 	andeq	r4, r0, r0, lsl #6
 788:	74635f00 	strvcbt	r5, [r3], #-3840
 78c:	00657079 	rsbeq	r7, r5, r9, ror r0
 790:	00000000 	andeq	r0, r0, r0
 794:	0000001b 	andeq	r0, r0, fp, lsl r0
 798:	26130002 	ldrcs	r0, [r3], -r2
 79c:	01630000 	cmneq	r3, r0
 7a0:	00b90000 	adceqs	r0, r9, r0
 7a4:	5f5f0000 	swipl	0x005f0000
 7a8:	646c756d 	strvsbt	r7, [ip], #-1389
 7ac:	00003369 	andeq	r3, r0, r9, ror #6
 7b0:	23000000 	tstcs	r0, #0	; 0x0
 7b4:	02000000 	andeq	r0, r0, #0	; 0x0
 7b8:	00277600 	eoreq	r7, r7, r0, lsl #12
 7bc:	00013200 	andeq	r3, r1, r0, lsl #4
 7c0:	00004400 	andeq	r4, r0, r0, lsl #8
 7c4:	69727000 	ldmvsdb	r2!, {ip, sp, lr}^
 7c8:	006b746e 	rsbeq	r7, fp, lr, ror #8
 7cc:	000000a4 	andeq	r0, r0, r4, lsr #1
 7d0:	6e616373 	mcrvs	3, 3, r6, cr1, cr3, {3}
 7d4:	00000066 	andeq	r0, r0, r6, rrx
 7d8:	01220000 	teqeq	r2, r0
 7dc:	00020000 	andeq	r0, r2, r0
 7e0:	000028a8 	andeq	r2, r0, r8, lsr #17
 7e4:	00000806 	andeq	r0, r0, r6, lsl #16
 7e8:	00000037 	andeq	r0, r0, r7, lsr r0
 7ec:	6e727473 	mrcvs	4, 3, r7, cr2, cr3, {3}
 7f0:	706d6369 	rsbvc	r6, sp, r9, ror #6
 7f4:	0000f900 	andeq	pc, r0, r0, lsl #18
 7f8:	72747300 	rsbvcs	r7, r4, #0	; 0x0
 7fc:	00797063 	rsbeqs	r7, r9, r3, rrx
 800:	00000142 	andeq	r0, r0, r2, asr #2
 804:	6e727473 	mrcvs	4, 3, r7, cr2, cr3, {3}
 808:	00797063 	rsbeqs	r7, r9, r3, rrx
 80c:	00000192 	muleq	r0, r2, r1
 810:	63727473 	cmnvs	r2, #1929379840	; 0x73000000
 814:	d5007461 	strle	r7, [r0, #-1121]
 818:	73000001 	tstvc	r0, #1	; 0x1
 81c:	636e7274 	cmnvs	lr, #1073741831	; 0x40000007
 820:	25007461 	strcs	r7, [r0, #-1121]
 824:	73000002 	tstvc	r0, #2	; 0x2
 828:	6d637274 	sfmvs	f7, 2, [r3, #-464]!
 82c:	026d0070 	rsbeq	r0, sp, #112	; 0x70
 830:	74730000 	ldrvcbt	r0, [r3]
 834:	6d636e72 	stcvsl	14, cr6, [r3, #-456]!
 838:	02bb0070 	adceqs	r0, fp, #112	; 0x70
 83c:	74730000 	ldrvcbt	r0, [r3]
 840:	72686372 	rsbvc	r6, r8, #-939524095	; 0xc8000001
 844:	0002ed00 	andeq	lr, r2, r0, lsl #26
 848:	72747300 	rsbvcs	r7, r4, #0	; 0x0
 84c:	006e656c 	rsbeq	r6, lr, ip, ror #10
 850:	00000320 	andeq	r0, r0, r0, lsr #6
 854:	72727473 	rsbvcs	r7, r2, #1929379840	; 0x73000000
 858:	00726863 	rsbeqs	r6, r2, r3, ror #16
 85c:	0000035d 	andeq	r0, r0, sp, asr r3
 860:	6e727473 	mrcvs	4, 3, r7, cr2, cr3, {3}
 864:	006e656c 	rsbeq	r6, lr, ip, ror #10
 868:	0000039d 	muleq	r0, sp, r3
 86c:	73727473 	cmnvc	r2, #1929379840	; 0x73000000
 870:	f7006e70 	smlsdxnv	r0, r0, lr, r6
 874:	73000003 	tstvc	r0, #3	; 0x3
 878:	62707274 	rsbvss	r7, r0, #1073741831	; 0x40000007
 87c:	4a006b72 	bmi	1b64c <DISABLE_IRQ+0x1b5cc>
 880:	73000004 	tstvc	r0, #4	; 0x4
 884:	6f747274 	swivs	0x00747274
 888:	049c006b 	ldreq	r0, [ip], #107
 88c:	74730000 	ldrvcbt	r0, [r3]
 890:	70657372 	rsbvc	r7, r5, r2, ror r3
 894:	0004f400 	andeq	pc, r4, r0, lsl #8
 898:	6d656d00 	stcvsl	13, cr6, [r5]
 89c:	00746573 	rsbeqs	r6, r4, r3, ror r5
 8a0:	00000546 	andeq	r0, r0, r6, asr #10
 8a4:	706f6362 	rsbvc	r6, pc, r2, ror #6
 8a8:	05ac0079 	streq	r0, [ip, #121]!
 8ac:	656d0000 	strvsb	r0, [sp]!
 8b0:	7970636d 	ldmvcdb	r0!, {r0, r2, r3, r5, r6, r8, r9, sp, lr}^
 8b4:	00060d00 	andeq	r0, r6, r0, lsl #26
 8b8:	6d656d00 	stcvsl	13, cr6, [r5]
 8bc:	65766f6d 	ldrvsb	r6, [r6, #-3949]!
 8c0:	00066e00 	andeq	r6, r6, r0, lsl #28
 8c4:	6d656d00 	stcvsl	13, cr6, [r5]
 8c8:	00706d63 	rsbeqs	r6, r0, r3, ror #26
 8cc:	000006e8 	andeq	r0, r0, r8, ror #13
 8d0:	736d656d 	cmnvc	sp, #457179136	; 0x1b400000
 8d4:	006e6163 	rsbeq	r6, lr, r3, ror #2
 8d8:	0000073f 	andeq	r0, r0, pc, lsr r7
 8dc:	73727473 	cmnvc	r2, #1929379840	; 0x73000000
 8e0:	8e007274 	mcrhi	2, 0, r7, cr0, cr4, {3}
 8e4:	6d000007 	stcvs	0, cr0, [r0, #-28]
 8e8:	68636d65 	stmvsda	r3!, {r0, r2, r5, r6, r8, sl, fp, sp, lr}^
 8ec:	07f30072 	undefined
 8f0:	5f5f0000 	swipl	0x005f0000
 8f4:	7274735f 	rsbvcs	r7, r4, #2080374785	; 0x7c000001
 8f8:	006b6f74 	rsbeq	r6, fp, r4, ror pc
 8fc:	00000000 	andeq	r0, r0, r0
 900:	000000c2 	andeq	r0, r0, r2, asr #1
 904:	30ae0002 	adccc	r0, lr, r2
 908:	097f0000 	ldmeqdb	pc!, {}^
 90c:	004f0000 	subeq	r0, pc, r0
 910:	69730000 	ldmvsdb	r3!, {}^
 914:	656c706d 	strvsb	r7, [ip, #-109]!
 918:	7274735f 	rsbvcs	r7, r4, #2080374785	; 0x7c000001
 91c:	6c756f74 	ldcvsl	15, cr6, [r5], #-464
 920:	00012c00 	andeq	r2, r1, r0, lsl #24
 924:	6d697300 	stcvsl	3, cr7, [r9]
 928:	5f656c70 	swipl	0x00656c70
 92c:	74727473 	ldrvcbt	r7, [r2], #-1139
 930:	75006c6f 	strvc	r6, [r0, #-3183]
 934:	73000001 	tstvc	r0, #1	; 0x1
 938:	6c706d69 	ldcvsl	13, cr6, [r0], #-420
 93c:	74735f65 	ldrvcbt	r5, [r3], #-3941
 940:	756f7472 	strvcb	r7, [pc, #-1138]!	; 4d6 <DISABLE_IRQ+0x456>
 944:	29006c6c 	stmcsdb	r0, {r2, r3, r5, r6, sl, fp, sp, lr}
 948:	73000002 	tstvc	r0, #2	; 0x2
 94c:	6c706d69 	ldcvsl	13, cr6, [r0], #-420
 950:	74735f65 	ldrvcbt	r5, [r3], #-3941
 954:	6c6f7472 	cfstrdvs	mvd7, [pc], #-456
 958:	0417006c 	ldreq	r0, [r7], #-108
 95c:	73760000 	cmnvc	r6, #0	; 0x0
 960:	6972706e 	ldmvsdb	r2!, {r1, r2, r3, r5, r6, ip, sp, lr}^
 964:	0066746e 	rsbeq	r7, r6, lr, ror #8
 968:	0000055a 	andeq	r0, r0, sl, asr r5
 96c:	6e637376 	mcrvs	3, 3, r7, cr3, cr6, {3}
 970:	6e697270 	mcrvs	2, 3, r7, cr9, cr0, {3}
 974:	bb006674 	bllt	1a34c <DISABLE_IRQ+0x1a2cc>
 978:	73000005 	tstvc	r0, #5	; 0x5
 97c:	6972706e 	ldmvsdb	r2!, {r1, r2, r3, r5, r6, ip, sp, lr}^
 980:	0066746e 	rsbeq	r7, r6, lr, ror #8
 984:	0000061a 	andeq	r0, r0, sl, lsl r6
 988:	706e6373 	rsbvc	r6, lr, r3, ror r3
 98c:	746e6972 	strvcbt	r6, [lr], #-2418
 990:	067b0066 	ldreqbt	r0, [fp], -r6, rrx
 994:	73760000 	cmnvc	r6, #0	; 0x0
 998:	6e697270 	mcrvs	2, 3, r7, cr9, cr0, {3}
 99c:	c2006674 	andgt	r6, r0, #121634816	; 0x7400000
 9a0:	73000006 	tstvc	r0, #6	; 0x6
 9a4:	6e697270 	mcrvs	2, 3, r7, cr9, cr0, {3}
 9a8:	13006674 	tstne	r0, #121634816	; 0x7400000
 9ac:	76000007 	strvc	r0, [r0], -r7
 9b0:	61637373 	cmnvs	r3, r3, ror r3
 9b4:	1500666e 	strne	r6, [r0, #-1646]
 9b8:	73000009 	tstvc	r0, #9	; 0x9
 9bc:	6e616373 	mcrvs	3, 3, r6, cr1, cr3, {3}
 9c0:	00000066 	andeq	r0, r0, r6, rrx
	...
Disassembly of section .debug_str:

00000000 <.debug_str>:
   0:	5f79656b 	swipl	0x0079656b
   4:	74696e69 	strvcbt	r6, [r9], #-3689
   8:	554e4700 	strplb	r4, [lr, #-1792]
   c:	33204320 	teqcc	r0, #-2147483648	; 0x80000000
  10:	352e342e 	strcc	r3, [lr, #-1070]!
  14:	6d697400 	cfstrdvs	mvd7, [r9]
  18:	5f307265 	swipl	0x00307265
  1c:	74696e69 	strvcbt	r6, [r9], #-3689
  20:	64656c00 	strvsbt	r6, [r5], #-3072
  24:	696e695f 	stmvsdb	lr!, {r0, r1, r2, r3, r4, r6, r8, fp, sp, lr}^
  28:	6e690074 	mcrvs	0, 3, r0, cr9, cr4, {3}
  2c:	632e7469 	teqvs	lr, #1761607680	; 0x69000000
  30:	6e6d2f00 	cdpvs	15, 6, cr2, cr13, cr0, {0}
  34:	67682f74 	undefined
  38:	412f7366 	teqmi	pc, r6, ror #6
  3c:	706d7973 	rsbvc	r7, sp, r3, ror r9
  40:	65746f74 	ldrvsb	r6, [r4, #-3956]!
  44:	66756200 	ldrvsbt	r6, [r5], -r0, lsl #4
  48:	6972775f 	ldmvsdb	r2!, {r0, r1, r2, r3, r4, r6, r8, r9, sl, ip, sp, lr}^
  4c:	67006574 	smlsdxvs	r0, r4, r5, r6
  50:	00637465 	rsbeq	r7, r3, r5, ror #8
  54:	5f667562 	swipl	0x00667562
  58:	64616572 	strvsbt	r6, [r1], #-1394
  5c:	72747300 	rsbvcs	r7, r4, #0	; 0x0
  60:	006e656c 	rsbeq	r6, lr, ip, ror #10
  64:	74696177 	strvcbt	r6, [r9], #-375
  68:	6575715f 	ldrvsb	r7, [r5, #-351]!
  6c:	685f6575 	ldmvsda	pc, {r0, r2, r4, r5, r6, r8, sl, sp, lr}^
  70:	00646165 	rsbeq	r6, r4, r5, ror #2
  74:	6d6d6f63 	stcvsl	15, cr6, [sp, #-396]!
  78:	72617000 	rsbvc	r7, r1, #0	; 0x0
  7c:	72006d61 	andvc	r6, r0, #6208	; 0x1840
  80:	635f6e75 	cmpvs	pc, #1872	; 0x750
  84:	6f6d6d6f 	swivs	0x006d6d6f
  88:	5f00646e 	swipl	0x0000646e
  8c:	74706d5f 	ldrvcbt	r6, [r0], #-3423
  90:	72690072 	rsbvc	r0, r9, #114	; 0x72
  94:	61685f71 	cmnvs	r8, r1, ror pc
  98:	656c646e 	strvsb	r6, [ip, #-1134]!
  9c:	6e750072 	mrcvs	0, 3, r0, cr5, cr2, {3}
  a0:	6e676973 	mcrvs	9, 3, r6, cr7, cr3, {3}
  a4:	63206465 	teqvs	r0, #1694498816	; 0x65000000
  a8:	00726168 	rsbeqs	r6, r2, r8, ror #2
  ac:	5f6e7566 	swipl	0x006e7566
  b0:	6b736174 	blvs	1cd8688 <DISABLE_IRQ+0x1cd8608>
  b4:	75660031 	strvcb	r0, [r6, #-49]!
  b8:	61745f6e 	cmnvs	r4, lr, ror #30
  bc:	00326b73 	eoreqs	r6, r2, r3, ror fp
  c0:	5f6e7566 	swipl	0x006e7566
  c4:	6b736174 	blvs	1cd869c <DISABLE_IRQ+0x1cd861c>
  c8:	73660033 	cmnvc	r6, #51	; 0x33
  cc:	7361745f 	cmnvc	r1, #1593835520	; 0x5f000000
  d0:	6175006b 	cmnvs	r5, fp, rrx
  d4:	5f307472 	swipl	0x00307472
  d8:	74696e69 	strvcbt	r6, [r9], #-3689
  dc:	616c6600 	cmnvs	ip, r0, lsl #12
  e0:	656e0067 	strvsb	r0, [lr, #-103]!
  e4:	6c007478 	cfstrsvs	mvf7, [r0], {120}
  e8:	5f747369 	swipl	0x00747369
  ec:	64616568 	strvsbt	r6, [r1], #-1384
  f0:	656c6300 	strvsb	r6, [ip, #-768]!
  f4:	695f7261 	ldmvsdb	pc, {r0, r5, r6, r9, ip, sp, lr}^
  f8:	6d007172 	stfvss	f7, [r0, #-456]
  fc:	2e6e6961 	cdpcs	9, 6, cr6, cr14, cr1, {3}
 100:	635f0063 	cmpvs	pc, #99	; 0x63
 104:	65707974 	ldrvsb	r7, [r0, #-2420]!
 108:	69727000 	ldmvsdb	r2!, {ip, sp, lr}^
 10c:	006b746e 	rsbeq	r7, fp, lr, ror #8
 110:	5f696473 	swipl	0x00696473
 114:	74696e69 	strvcbt	r6, [r9], #-3689
 118:	74757000 	ldrvcbt	r7, [r5]
 11c:	75700063 	ldrvcb	r0, [r0, #-99]!
 120:	70007374 	andvc	r7, r0, r4, ror r3
 124:	00766572 	rsbeqs	r6, r6, r2, ror r5
 128:	65645f69 	strvsb	r5, [r4, #-3945]!
 12c:	74730076 	ldrvcbt	r0, [r3], #-118
 130:	00657461 	rsbeq	r7, r5, r1, ror #8
 134:	5f746567 	swipl	0x00746567
 138:	72727563 	rsbvcs	r7, r2, #415236096	; 0x18c00000
 13c:	00746e65 	rsbeqs	r6, r4, r5, ror #28
 140:	6d5f6466 	cfldrdvs	mvd6, [pc, #-408]
 144:	0065646f 	rsbeq	r6, r5, pc, ror #8
 148:	65686373 	strvsb	r6, [r8, #-883]!
 14c:	00632e64 	rsbeq	r2, r3, r4, ror #28
 150:	6b736174 	blvs	1cd8728 <DISABLE_IRQ+0x1cd86a8>
 154:	696e695f 	stmvsdb	lr!, {r0, r1, r2, r3, r4, r6, r8, fp, sp, lr}^
 158:	64660074 	strvsbt	r0, [r6], #-116
 15c:	736f705f 	cmnvc	pc, #95	; 0x5f
 160:	73617400 	cmnvc	r1, #0	; 0x0
 164:	74735f6b 	ldrvcbt	r5, [r3], #-3947
 168:	74637572 	strvcbt	r7, [r3], #-1394
 16c:	5f646600 	swipl	0x00646600
 170:	646f6e69 	strvsbt	r6, [pc], #3689	; 178 <DISABLE_IRQ+0xf8>
 174:	74705f65 	ldrvcbt	r5, [r0], #-3941
 178:	5f690072 	swipl	0x00690072
 17c:	006d756e 	rsbeq	r7, sp, lr, ror #10
 180:	656b6177 	strvsb	r6, [fp, #-375]!
 184:	0070755f 	rsbeqs	r7, r0, pc, asr r5
 188:	74735f69 	ldrvcbt	r5, [r3], #-3945
 18c:	5f747261 	swipl	0x00747261
 190:	74636573 	strvcbt	r6, [r3], #-1395
 194:	755f6900 	ldrvcb	r6, [pc, #-2304]	; fffff89c <CLKDIVN+0xb3fff888>
 198:	6573756e 	ldrvsb	r7, [r3, #-1390]!
 19c:	5f690064 	swipl	0x00690064
 1a0:	65646f6d 	strvsb	r6, [r4, #-3949]!
 1a4:	745f6900 	ldrvcb	r6, [pc], #2304	; 1ac <DISABLE_IRQ+0x12c>
 1a8:	6c61746f 	cfstrdvs	mvd7, [r1], #-444
 1ac:	6365735f 	cmnvs	r5, #2080374785	; 0x7c000001
 1b0:	65007374 	strvs	r7, [r0, #-884]
 1b4:	6c62616e 	stfvse	f6, [r2], #-440
 1b8:	72695f65 	rsbvc	r5, r9, #404	; 0x194
 1bc:	69640071 	stmvsdb	r4!, {r0, r4, r5, r6}^
 1c0:	6c626173 	stfvse	f6, [r2], #-460
 1c4:	72695f65 	rsbvc	r5, r9, #404	; 0x194
 1c8:	69660071 	stmvsdb	r6!, {r0, r4, r5, r6}^
 1cc:	7300706c 	tstvc	r0, #108	; 0x6c
 1d0:	63746977 	cmnvs	r4, #1949696	; 0x1dc000
 1d4:	6f745f68 	swivs	0x00745f68
 1d8:	735f6900 	cmpvc	pc, #0	; 0x0
 1dc:	00657a69 	rsbeq	r7, r5, r9, ror #20
 1e0:	6e635f69 	cdpvs	15, 6, cr5, cr3, cr9, {3}
 1e4:	6c730074 	ldcvsl	0, cr0, [r3], #-464
 1e8:	5f706565 	swipl	0x00706565
 1ec:	5f006e6f 	swipl	0x00006e6f
 1f0:	6d6f635f 	stcvsl	3, cr6, [pc, #-380]!
 1f4:	5f6e6f6d 	swipl	0x006e6f6d
 1f8:	65686373 	strvsb	r6, [r8, #-883]!
 1fc:	656c7564 	strvsb	r7, [ip, #-1380]!
 200:	74656700 	strvcbt	r6, [r5], #-1792
 204:	7361745f 	cmnvc	r1, #1593835520	; 0x5f000000
 208:	74735f6b 	ldrvcbt	r5, [r3], #-3947
 20c:	74637572 	strvcbt	r7, [r3], #-1394
 210:	6464615f 	strvsbt	r6, [r4], #-351
 214:	61740072 	cmnvs	r4, r2, ror r0
 218:	735f6b73 	cmpvc	pc, #117760	; 0x1cc00
 21c:	6b636174 	blvs	18d87f4 <DISABLE_IRQ+0x18d8774>
 220:	6464615f 	strvsbt	r6, [r4], #-351
 224:	61625f72 	cmnvs	r2, r2, ror pc
 228:	67006573 	smlsdxvs	r0, r3, r5, r6
 22c:	635f7465 	cmpvs	pc, #1694498816	; 0x65000000
 230:	00727370 	rsbeqs	r7, r2, r0, ror r3
 234:	73677261 	cmnvc	r7, #268435462	; 0x10000006
 238:	5f6f6400 	swipl	0x006f6400
 23c:	6b726f66 	blvs	1c9bfdc <DISABLE_IRQ+0x1c9bf5c>
 240:	6d656d00 	stcvsl	13, cr6, [r5]
 244:	00746573 	rsbeqs	r6, r4, r3, ror r5
 248:	6b726f66 	blvs	1c9bfe8 <DISABLE_IRQ+0x1c9bf68>
 24c:	6500632e 	strvs	r6, [r0, #-814]
 250:	00636578 	rsbeq	r6, r3, r8, ror r5
 254:	646e616e 	strvsbt	r6, [lr], #-366
 258:	6464615f 	strvsbt	r6, [r4], #-351
 25c:	656d0072 	strvsb	r0, [sp, #-114]!
 260:	616d5f6d 	cmnvs	sp, sp, ror #30
 264:	656d0070 	strvsb	r0, [sp, #-112]!
 268:	00632e6d 	rsbeq	r2, r3, sp, ror #28
 26c:	5f746567 	swipl	0x00746567
 270:	65657266 	strvsb	r7, [r5, #-614]!
 274:	6761705f 	undefined
 278:	616e0065 	cmnvs	lr, r5, rrx
 27c:	695f646e 	ldmvsdb	pc, {r1, r2, r3, r5, r6, sl, sp, lr}^
 280:	0074696e 	rsbeqs	r6, r4, lr, ror #18
 284:	646e616e 	strvsbt	r6, [lr], #-366
 288:	7365645f 	cmnvc	r5, #1593835520	; 0x5f000000
 28c:	63656c65 	cmnvs	r5, #25856	; 0x6500
 290:	616e0074 	cmnvs	lr, r4, ror r0
 294:	775f646e 	ldrvcb	r6, [pc, -lr, ror #8]
 298:	5f746961 	swipl	0x00746961
 29c:	64616572 	strvsbt	r6, [r1], #-1394
 2a0:	5f5f0079 	swipl	0x005f0079
 2a4:	5f737362 	swipl	0x00737362
 2a8:	72617473 	rsbvc	r7, r1, #1929379840	; 0x73000000
 2ac:	73690074 	cmnvc	r9, #116	; 0x74
 2b0:	746f6f42 	strvcbt	r6, [pc], #3906	; 2b8 <DISABLE_IRQ+0x238>
 2b4:	6d6f7246 	sfmvs	f7, 2, [pc, #-280]!
 2b8:	46726f4e 	ldrmibt	r6, [r2], -lr, asr #30
 2bc:	6873616c 	ldmvsda	r3!, {r2, r3, r5, r6, r8, sp, lr}^
 2c0:	73656400 	cmnvc	r5, #0	; 0x0
 2c4:	5f5f0074 	swipl	0x005f0074
 2c8:	5f737362 	swipl	0x00737362
 2cc:	00646e65 	rsbeq	r6, r4, r5, ror #28
 2d0:	646e616e 	strvsbt	r6, [lr], #-366
 2d4:	7461645f 	strvcbt	r6, [r1], #-1119
 2d8:	616e0061 	cmnvs	lr, r1, rrx
 2dc:	725f646e 	subvcs	r6, pc, #1845493760	; 0x6e000000
 2e0:	00646165 	rsbeq	r6, r4, r5, ror #2
 2e4:	646e616e 	strvsbt	r6, [lr], #-366
 2e8:	6300632e 	tstvs	r0, #-1207959552	; 0xb8000000
 2ec:	7261656c 	rsbvc	r6, r1, #452984832	; 0x1b000000
 2f0:	7373625f 	cmnvc	r3, #-268435451	; 0xf0000005
 2f4:	6e616e00 	cdpvs	14, 6, cr6, cr1, cr0, {0}
 2f8:	65735f64 	ldrvsb	r5, [r3, #-3940]!
 2fc:	7463656c 	strvcbt	r6, [r3], #-1388
 300:	706f6300 	rsbvc	r6, pc, r0, lsl #6
 304:	6f635f79 	swivs	0x00635f79
 308:	745f6564 	ldrvcb	r6, [pc], #1380	; 310 <DISABLE_IRQ+0x290>
 30c:	64735f6f 	ldrvsbt	r5, [r3], #-3951
 310:	006d6172 	rsbeq	r6, sp, r2, ror r1
 314:	646e616e 	strvsbt	r6, [lr], #-366
 318:	646d635f 	strvsbt	r6, [sp], #-863
 31c:	6f687300 	swivs	0x00687300
 320:	75207472 	strvc	r7, [r0, #-1138]!
 324:	6769736e 	strvsb	r7, [r9, -lr, ror #6]!
 328:	2064656e 	rsbcs	r6, r4, lr, ror #10
 32c:	00746e69 	rsbeqs	r6, r4, r9, ror #28
 330:	65756c62 	ldrvsb	r6, [r5, #-3170]!
 334:	64636c00 	strvsbt	r6, [r3], #-3072
 338:	7900632e 	stmvcdb	r0, {r1, r2, r3, r5, r8, r9, sp, lr}
 33c:	657a6973 	ldrvsb	r6, [sl, #-2419]!
 340:	64636c00 	strvsbt	r6, [r3], #-3072
 344:	726f705f 	rsbvc	r7, pc, #95	; 0x5f
 348:	6e695f74 	mcrvs	15, 3, r5, cr9, cr4, {3}
 34c:	63007469 	tstvs	r0, #1761607680	; 0x69000000
 350:	726f6c6f 	rsbvc	r6, pc, #28416	; 0x6f00
 354:	65726700 	ldrvsb	r6, [r2, #-1792]!
 358:	6c006e65 	stcvs	14, cr6, [r0], {101}
 35c:	705f6463 	subvcs	r6, pc, r3, ror #8
 360:	7265776f 	rsbvc	r7, r5, #29097984	; 0x1bc0000
 364:	616e655f 	cmnvs	lr, pc, asr r5
 368:	00656c62 	rsbeq	r6, r5, r2, ror #24
 36c:	74735f78 	ldrvcbt	r5, [r3], #-3960
 370:	00747261 	rsbeqs	r7, r4, r1, ror #4
 374:	7a697378 	bvc	1a5d15c <DISABLE_IRQ+0x1a5d0dc>
 378:	636c0065 	cmnvs	ip, #101	; 0x65
 37c:	6e655f64 	cdpvs	15, 6, cr5, cr5, cr4, {3}
 380:	5f646976 	swipl	0x00646976
 384:	78006e6f 	stmvcda	r0, {r0, r1, r2, r3, r5, r6, r9, sl, fp, sp, lr}
 388:	646e655f 	strvsbt	r6, [lr], #-1375
 38c:	64636c00 	strvsbt	r6, [r3], #-3072
 390:	6e6f635f 	mcrvs	3, 3, r6, cr15, cr15, {2}
 394:	6c6f7274 	sfmvs	f7, 2, [pc], #-464
 398:	695f7265 	ldmvsdb	pc, {r0, r2, r5, r6, r9, ip, sp, lr}^
 39c:	0074696e 	rsbeqs	r6, r4, lr, ror #18
 3a0:	6e655f79 	mcrvs	15, 3, r5, cr5, cr9, {3}
 3a4:	72640064 	rsbvc	r0, r4, #100	; 0x64
 3a8:	705f7761 	subvcs	r7, pc, r1, ror #14
 3ac:	6c657869 	stcvsl	8, cr7, [r5], #-420
 3b0:	735f7900 	cmpvc	pc, #0	; 0x0
 3b4:	74726174 	ldrvcbt	r6, [r2], #-372
 3b8:	5f626600 	swipl	0x00626600
 3bc:	65736162 	ldrvsb	r6, [r3, #-354]!
 3c0:	6464615f 	strvsbt	r6, [r4], #-351
 3c4:	636c0072 	cmnvs	ip, #114	; 0x72
 3c8:	6e695f64 	cdpvs	15, 6, cr5, cr9, cr4, {3}
 3cc:	63007469 	tstvs	r0, #1761607680	; 0x69000000
 3d0:	7261656c 	rsbvc	r6, r1, #452984832	; 0x1b000000
 3d4:	7263735f 	rsbvc	r7, r3, #2080374785	; 0x7c000001
 3d8:	006e6565 	rsbeq	r6, lr, r5, ror #10
 3dc:	77617264 	strvcb	r7, [r1, -r4, ror #4]!
 3e0:	6365725f 	cmnvs	r5, #-268435451	; 0xf0000005
 3e4:	636c0074 	cmnvs	ip, #116	; 0x74
 3e8:	6e655f64 	cdpvs	15, 6, cr5, cr5, cr4, {3}
 3ec:	5f646976 	swipl	0x00646976
 3f0:	0066666f 	rsbeq	r6, r6, pc, ror #12
 3f4:	7473696c 	ldrvcbt	r6, [r3], #-2412
 3f8:	706d655f 	rsbvc	r6, sp, pc, asr r5
 3fc:	5f007974 	swipl	0x00007974
 400:	73696c5f 	cmnvc	r9, #24320	; 0x5f00
 404:	65645f74 	strvsb	r5, [r4, #-3956]!
 408:	696c006c 	stmvsdb	ip!, {r2, r3, r5, r6}^
 40c:	615f7473 	cmpvs	pc, r3, ror r4
 410:	745f6464 	ldrvcb	r6, [pc], #1124	; 418 <DISABLE_IRQ+0x398>
 414:	006c6961 	rsbeq	r6, ip, r1, ror #18
 418:	7473696c 	ldrvcbt	r6, [r3], #-2412
 41c:	5f00632e 	swipl	0x0000632e
 420:	73696c5f 	cmnvc	r9, #24320	; 0x5f00
 424:	64615f74 	strvsbt	r5, [r1], #-3956
 428:	696c0064 	stmvsdb	ip!, {r2, r5, r6}^
 42c:	695f7473 	ldmvsdb	pc, {r0, r1, r4, r5, r6, sl, ip, sp, lr}^
 430:	0074696e 	rsbeqs	r6, r4, lr, ror #18
 434:	73746567 	cmnvc	r4, #432013312	; 0x19c00000
 438:	72617500 	rsbvc	r7, r1, #0	; 0x0
 43c:	00632e74 	rsbeq	r2, r3, r4, ror lr
 440:	63705f67 	cmnvs	r0, #412	; 0x19c
 444:	4274754f 	rsbmis	r7, r4, #331350016	; 0x13c00000
 448:	67006675 	smlsdxvs	r0, r5, r6, r6
 44c:	4963705f 	stmmidb	r3!, {r0, r1, r2, r3, r4, r6, ip, sp, lr}^
 450:	6675426e 	ldrvsbt	r4, [r5], -lr, ror #4
 454:	6f6c6300 	swivs	0x006c6300
 458:	6e006573 	cfrshl64vs	mvdx0, mvdx3, r6
 45c:	69645f72 	stmvsdb	r4!, {r1, r4, r5, r6, r8, r9, sl, fp, ip, lr}^
 460:	6c625f72 	stcvsl	15, cr5, [r2], #-456
 464:	6400736b 	strvs	r7, [r0], #-875
 468:	64725f6f 	ldrvsbt	r5, [r2], #-3951
 46c:	63007477 	tstvs	r0, #1996488704	; 0x77000000
 470:	74616572 	strvcbt	r6, [r1], #-1394
 474:	69665f65 	stmvsdb	r6!, {r0, r2, r5, r6, r8, r9, sl, fp, ip, lr}^
 478:	6e00656c 	cfsh32vs	mvfx6, mvfx0, #60
 47c:	65735f72 	ldrvsb	r5, [r3, #-3954]!
 480:	5f737463 	swipl	0x00737463
 484:	615f6f74 	cmpvs	pc, r4, ror pc
 488:	636f6c6c 	cmnvs	pc, #27648	; 0x6c00
 48c:	6b6c6200 	blvs	1b18c94 <DISABLE_IRQ+0x1b18c14>
 490:	00726e5f 	rsbeqs	r6, r2, pc, asr lr
 494:	73746962 	cmnvc	r4, #1605632	; 0x188000
 498:	7265705f 	rsbvc	r7, r5, #95	; 0x5f
 49c:	6365735f 	cmnvs	r5, #2080374785	; 0x7c000001
 4a0:	65730074 	ldrvsb	r0, [r3, #-116]!
 4a4:	68637261 	stmvsda	r3!, {r0, r5, r6, r9, ip, sp, lr}^
 4a8:	6c69665f 	stcvsl	6, cr6, [r9], #-380
 4ac:	65720065 	ldrvsb	r0, [r2, #-101]!
 4b0:	735f6461 	cmpvc	pc, #1627389952	; 0x61000000
 4b4:	72657075 	rsbvc	r7, r5, #117	; 0x75
 4b8:	6f6c625f 	swivs	0x006c625f
 4bc:	5f006b63 	swipl	0x00006b63
 4c0:	5f32735f 	swipl	0x0032735f
 4c4:	006e656c 	rsbeq	r6, lr, ip, ror #10
 4c8:	656c6966 	strvsb	r6, [ip, #-2406]!
 4cc:	656d616e 	strvsb	r6, [sp, #-366]!
 4d0:	735f5f00 	cmpvc	pc, #0	; 0x0
 4d4:	6e690031 	mcrvs	0, 3, r0, cr9, cr1, {1}
 4d8:	5f65646f 	swipl	0x0065646f
 4dc:	006d756e 	rsbeq	r7, sp, lr, ror #10
 4e0:	5f746567 	swipl	0x00746567
 4e4:	65707573 	ldrvsb	r7, [r0, #-1395]!
 4e8:	6c625f72 	stcvsl	15, cr5, [r2], #-456
 4ec:	006b636f 	rsbeq	r6, fp, pc, ror #6
 4f0:	61746f74 	cmnvs	r4, r4, ror pc
 4f4:	6e695f6c 	cdpvs	15, 6, cr5, cr9, cr12, {3}
 4f8:	7365646f 	cmnvc	r5, #1862270976	; 0x6f000000
 4fc:	6f6e6900 	swivs	0x006e6900
 500:	6e5f6564 	cdpvs	5, 5, cr6, cr15, cr4, {3}
 504:	75700072 	ldrvcb	r0, [r0, #-114]!
 508:	6e695f74 	mcrvs	15, 3, r5, cr9, cr4, {3}
 50c:	0065646f 	rsbeq	r6, r5, pc, ror #8
 510:	31735f5f 	cmncc	r3, pc, asr pc
 514:	6e656c5f 	mcrvs	12, 3, r6, cr5, cr15, {2}
 518:	6d756e00 	ldcvsl	14, cr6, [r5]
 51c:	6f6f725f 	swivs	0x006f725f
 520:	6e695f74 	mcrvs	15, 3, r5, cr9, cr4, {3}
 524:	0065646f 	rsbeq	r6, r5, pc, ror #8
 528:	74696e69 	strvcbt	r6, [r9], #-3689
 52c:	0073665f 	rsbeqs	r6, r3, pc, asr r6
 530:	776f6873 	undefined
 534:	7269645f 	rsbvc	r6, r9, #1593835520	; 0x5f000000
 538:	746e655f 	strvcbt	r6, [lr], #-1375
 53c:	61007972 	tstvs	r0, r2, ror r9
 540:	636f6c6c 	cmnvs	pc, #27648	; 0x6c00
 544:	616d695f 	cmnvs	sp, pc, asr r9
 548:	69625f70 	stmvsdb	r2!, {r4, r5, r6, r8, r9, sl, fp, ip, lr}^
 54c:	6d690074 	stcvsl	0, cr0, [r9, #-464]!
 550:	0065646f 	rsbeq	r6, r5, pc, ror #8
 554:	70616d69 	rsbvc	r6, r1, r9, ror #26
 558:	6b6c625f 	blvs	1b18edc <DISABLE_IRQ+0x1b18e5c>
 55c:	726e5f30 	rsbvc	r5, lr, #192	; 0xc0
 560:	5f627300 	swipl	0x00627300
 564:	00766564 	rsbeqs	r6, r6, r4, ror #10
 568:	646f6e69 	strvsbt	r6, [pc], #3689	; 570 <DISABLE_IRQ+0x4f0>
 56c:	69735f65 	ldmvsdb	r3!, {r0, r2, r5, r6, r8, r9, sl, fp, ip, lr}^
 570:	6e00657a 	cfrshl64vs	mvdx0, mvdx10, r6
 574:	645f7765 	ldrvsb	r7, [pc], #1893	; 57c <DISABLE_IRQ+0x4fc>
 578:	655f7269 	ldrvsb	r7, [pc, #-617]	; 317 <DISABLE_IRQ+0x297>
 57c:	7972746e 	ldmvcdb	r2!, {r1, r2, r3, r5, r6, sl, ip, sp, lr}^
 580:	72696400 	rsbvc	r6, r9, #0	; 0x0
 584:	6f6e695f 	swivs	0x006e695f
 588:	72006564 	andvc	r6, r0, #419430400	; 0x19000000
 58c:	65735f77 	ldrvsb	r5, [r3, #-3959]!
 590:	6d5f7463 	cfldrdvs	mvd7, [pc, #-396]
 594:	6f006e69 	swivs	0x00006e69
 598:	006e6570 	rsbeq	r6, lr, r0, ror r5
 59c:	5f726964 	swipl	0x00726964
 5a0:	306b6c62 	rsbcc	r6, fp, r2, ror #24
 5a4:	00726e5f 	rsbeqs	r6, r2, pc, asr lr
 5a8:	725f7369 	subvcs	r7, pc, #-1543503871	; 0xa4000001
 5ac:	5f646165 	swipl	0x00646165
 5b0:	74697277 	strvcbt	r7, [r9], #-631
 5b4:	6d730065 	ldcvsl	0, cr0, [r3, #-404]!
 5b8:	625f7061 	subvss	r7, pc, #97	; 0x61
 5bc:	5f306b6c 	swipl	0x00306b6c
 5c0:	006d756e 	rsbeq	r7, sp, lr, ror #10
 5c4:	67616c66 	strvsb	r6, [r1, -r6, ror #24]!
 5c8:	72630073 	rsbvc	r0, r3, #115	; 0x73
 5cc:	65746165 	ldrvsb	r6, [r4, #-357]!
 5d0:	0073665f 	rsbeqs	r6, r3, pc, asr r6
 5d4:	6977656e 	ldmvsdb	r7!, {r1, r2, r3, r5, r6, r8, sl, sp, lr}^
 5d8:	65646f6e 	strvsb	r6, [r4, #-3950]!
 5dc:	5f646600 	swipl	0x00646600
 5e0:	6c626174 	stfvse	f6, [r2], #-464
 5e4:	69660065 	stmvsdb	r6!, {r0, r2, r5, r6}^
 5e8:	632e656c 	teqvs	lr, #452984832	; 0x1b000000
 5ec:	69707000 	ldmvsdb	r0!, {ip, sp, lr}^
 5f0:	65646f6e 	strvsb	r6, [r4, #-3950]!
 5f4:	7a697300 	bvc	1a5d1fc <DISABLE_IRQ+0x1a5d17c>
 5f8:	6d735f65 	ldcvsl	15, cr5, [r3, #-404]!
 5fc:	735f7061 	cmpvc	pc, #97	; 0x61
 600:	73746365 	cmnvc	r4, #-1811939327	; 0x94000001
 604:	7a697300 	bvc	1a5d20c <DISABLE_IRQ+0x1a5d18c>
 608:	6d695f65 	stcvsl	15, cr5, [r9, #-404]!
 60c:	735f7061 	cmpvc	pc, #97	; 0x61
 610:	73746365 	cmnvc	r4, #-1811939327	; 0x94000001
 614:	6d756e00 	ldcvsl	14, cr6, [r5]
 618:	6365735f 	cmnvs	r5, #2080374785	; 0x7c000001
 61c:	62007374 	andvs	r7, r0, #-805306367	; 0xd0000001
 620:	65666675 	strvsb	r6, [r6, #-1653]!
 624:	79730072 	ldmvcdb	r3!, {r1, r4, r5, r6}^
 628:	695f636e 	ldmvsdb	pc, {r1, r2, r3, r5, r6, r8, r9, sp, lr}^
 62c:	65646f6e 	strvsb	r6, [r4, #-3950]!
 630:	5f726e00 	swipl	0x00726e00
 634:	5f726964 	swipl	0x00726964
 638:	72746e65 	rsbvcs	r6, r4, #1616	; 0x650
 63c:	00736569 	rsbeqs	r6, r3, r9, ror #10
 640:	5f667562 	swipl	0x00667562
 644:	5f746573 	swipl	0x00746573
 648:	68700030 	ldmvsda	r0!, {r4, r5}^
 64c:	635f7379 	cmpvs	pc, #-469762047	; 0xe4000001
 650:	0079706f 	rsbeqs	r7, r9, pc, rrx
 654:	68746170 	ldmvsda	r4!, {r4, r5, r6, r8, sp, lr}^
 658:	656d616e 	strvsb	r6, [sp, #-366]!
 65c:	77656e00 	strvcb	r6, [r5, -r0, lsl #28]!
 660:	6f6e695f 	swivs	0x006e695f
 664:	73006564 	tstvc	r0, #419430400	; 0x19000000
 668:	5f657a69 	swipl	0x00657a69
 66c:	646f6e69 	strvsbt	r6, [pc], #3689	; 674 <DISABLE_IRQ+0x5f4>
 670:	65735f65 	ldrvsb	r5, [r3, #-3941]!
 674:	00737463 	rsbeqs	r7, r3, r3, ror #8
 678:	68746170 	ldmvsda	r4!, {r4, r5, r6, r8, sp, lr}^
 67c:	6d616e5f 	stcvsl	14, cr6, [r1, #-380]!
 680:	69640065 	stmvsdb	r4!, {r0, r2, r5, r6}^
 684:	6e655f72 	mcrvs	15, 3, r5, cr5, cr2, {3}
 688:	5f797274 	swipl	0x00797274
 68c:	657a6973 	ldrvsb	r6, [sl, #-2419]!
 690:	756f6300 	strvcb	r6, [pc, #-768]!	; 398 <DISABLE_IRQ+0x318>
 694:	6900746e 	stmvsdb	r0, {r1, r2, r3, r5, r6, sl, ip, sp, lr}
 698:	65646f6e 	strvsb	r6, [r4, #-3950]!
 69c:	6261745f 	rsbvs	r7, r1, #1593835520	; 0x5f000000
 6a0:	6200656c 	andvs	r6, r0, #452984832	; 0x1b000000
 6a4:	73657479 	cmnvc	r5, #2030043136	; 0x79000000
 6a8:	0077725f 	rsbeqs	r7, r7, pc, asr r2
 6ac:	6e756863 	cdpvs	8, 7, cr6, cr5, cr3, {3}
 6b0:	7266006b 	rsbvc	r0, r6, #107	; 0x6b
 6b4:	735f6565 	cmpvc	pc, #423624704	; 0x19400000
 6b8:	5f746365 	swipl	0x00746365
 6bc:	006d756e 	rsbeq	r7, sp, lr, ror #10
 6c0:	745f6273 	ldrvcb	r6, [pc], #627	; 6c8 <DISABLE_IRQ+0x648>
 6c4:	00706d65 	rsbeqs	r6, r0, r5, ror #26
 6c8:	65747962 	ldrvsb	r7, [r4, #-2402]!
 6cc:	756e0073 	strvcb	r0, [lr, #-115]!
 6d0:	73315f6d 	teqvc	r1, #436	; 0x1b4
 6d4:	65735f74 	ldrvsb	r5, [r3, #-3956]!
 6d8:	62007463 	andvs	r7, r0, #1660944384	; 0x63000000
 6dc:	73657479 	cmnvc	r5, #2030043136	; 0x79000000
 6e0:	66656c5f 	undefined
 6e4:	65670074 	strvsb	r0, [r7, #-116]!
 6e8:	6e695f74 	mcrvs	15, 3, r5, cr9, cr4, {3}
 6ec:	0065646f 	rsbeq	r6, r5, pc, ror #8
 6f0:	5f736f70 	swipl	0x00736f70
 6f4:	00646e65 	rsbeq	r6, r4, r5, ror #28
 6f8:	6967616d 	stmvsdb	r7!, {r0, r2, r3, r5, r6, r8, sp, lr}^
 6fc:	77720063 	ldrvcb	r0, [r2, -r3, rrx]!
 700:	6365735f 	cmnvs	r5, #2080374785	; 0x7c000001
 704:	616d5f74 	cmnvs	sp, r4, ror pc
 708:	5f5f0078 	swipl	0x005f0078
 70c:	75736572 	ldrvcb	r6, [r3, #-1394]!
 710:	6e00746c 	cdpvs	4, 0, cr7, cr0, cr12, {3}
 714:	645f7765 	ldrvsb	r7, [pc], #1893	; 71c <DISABLE_IRQ+0x69c>
 718:	74730065 	ldrvcbt	r0, [r3], #-101
 71c:	5f706972 	swipl	0x00706972
 720:	68746170 	ldmvsda	r4!, {r4, r5, r6, r8, sp, lr}^
 724:	6c6c6100 	stfvse	f6, [ip]
 728:	735f636f 	cmpvc	pc, #-1140850687	; 0xbc000001
 72c:	5f70616d 	swipl	0x0070616d
 730:	00746962 	rsbeqs	r6, r4, r2, ror #18
 734:	57696473 	undefined
 738:	00656469 	rsbeq	r6, r5, r9, ror #8
 73c:	7261436c 	rsbvc	r4, r1, #-1342177279	; 0xb0000001
 740:	7a695364 	bvc	1a554d8 <DISABLE_IRQ+0x1a55458>
 744:	43630065 	cmnmi	r3, #101	; 0x65
 748:	54647261 	strplbt	r7, [r4], #-609
 74c:	00657079 	rsbeq	r7, r5, r9, ror r0
 750:	696e6966 	stmvsdb	lr!, {r1, r2, r5, r6, r8, fp, sp, lr}^
 754:	00306873 	eoreqs	r6, r0, r3, ror r8
 758:	725f6473 	subvcs	r6, pc, #1929379840	; 0x73000000
 75c:	5f646165 	swipl	0x00646165
 760:	74636573 	strvcbt	r6, [r3], #-1395
 764:	6c00726f 	sfmvs	f7, 4, [r0], {111}
 768:	74636553 	strvcbt	r6, [r3], #-1363
 76c:	6953726f 	ldmvsdb	r3, {r0, r1, r2, r3, r5, r6, r9, ip, sp, lr}^
 770:	7300657a 	tstvc	r0, #511705088	; 0x1e800000
 774:	75746174 	ldrvcb	r6, [r4, #-372]!
 778:	64730073 	ldrvsbt	r0, [r3], #-115
 77c:	6972775f 	ldmvsdb	r2!, {r0, r1, r2, r3, r4, r6, r8, r9, sl, ip, sp, lr}^
 780:	735f6574 	cmpvc	pc, #486539264	; 0x1d000000
 784:	6f746365 	swivs	0x00746365
 788:	65730072 	ldrvsb	r0, [r3, #-114]!
 78c:	7463656c 	strvcbt	r6, [r3], #-1388
 790:	5f726f5f 	swipl	0x00726f5f
 794:	65736564 	ldrvsb	r6, [r3, #-1380]!
 798:	7463656c 	strvcbt	r6, [r3], #-1388
 79c:	69647300 	stmvsdb	r4!, {r8, r9, ip, sp, lr}^
 7a0:	65707954 	ldrvsb	r7, [r0, #-2388]!
 7a4:	5f647300 	swipl	0x00647300
 7a8:	6f666e69 	swivs	0x00666e69
 7ac:	49445300 	stmmidb	r4, {r8, r9, ip, lr}^
 7b0:	6568435f 	strvsb	r4, [r8, #-863]!
 7b4:	435f6b63 	cmpmi	pc, #101376	; 0x18c00
 7b8:	455f444d 	ldrmib	r4, [pc, #-1101]	; 373 <DISABLE_IRQ+0x2f3>
 7bc:	6300646e 	tstvs	r0, #1845493760	; 0x6e000000
 7c0:	57737542 	ldrplb	r7, [r3, -r2, asr #10]!
 7c4:	68746469 	ldmvsda	r4!, {r0, r3, r5, r6, sl, sp, lr}^
 7c8:	4d434100 	stfmie	f4, [r3]
 7cc:	6c003644 	stcvs	6, cr3, [r0], {68}
 7d0:	64726143 	ldrvsbt	r6, [r2], #-323
 7d4:	00445343 	subeq	r5, r4, r3, asr #6
 7d8:	31444d43 	cmpcc	r4, r3, asr #26
 7dc:	4d430032 	stcmil	0, cr0, [r3, #-200]
 7e0:	00333144 	eoreqs	r3, r3, r4, asr #2
 7e4:	72614369 	rsbvc	r4, r1, #-1543503871	; 0xa4000001
 7e8:	70795464 	rsbvcs	r5, r9, r4, ror #8
 7ec:	4d430065 	stcmil	0, cr0, [r3, #-404]
 7f0:	00373144 	eoreqs	r3, r7, r4, asr #2
 7f4:	31444d43 	cmpcc	r4, r3, asr #26
 7f8:	64730038 	ldrvsbt	r0, [r3], #-56
 7fc:	41435269 	cmpmi	r3, r9, ror #4
 800:	65526300 	ldrvsb	r6, [r2, #-768]
 804:	6e727574 	mrcvs	5, 3, r7, cr2, cr4, {3}
 808:	2e647300 	cdpcs	3, 6, cr7, cr4, cr0, {0}
 80c:	64730063 	ldrvsbt	r0, [r3], #-99
 810:	65745f69 	ldrvsb	r5, [r4, #-3945]!
 814:	43007473 	tstmi	r0, #1929379840	; 0x73000000
 818:	3535444d 	ldrcc	r4, [r5, #-1101]!
 81c:	6e657300 	cdpvs	3, 6, cr7, cr5, cr0, {0}
 820:	75625f64 	strvcb	r5, [r2, #-3940]!
 824:	53630066 	cmnpl	r3, #102	; 0x66
 828:	65446c65 	strvsb	r6, [r4, #-3173]
 82c:	006c6573 	rsbeq	r6, ip, r3, ror r5
 830:	76636572 	undefined
 834:	6675625f 	undefined
 838:	61436900 	cmpvs	r3, r0, lsl #18
 83c:	43526472 	cmpmi	r2, #1912602624	; 0x72000000
 840:	4d430041 	stcmil	0, cr0, [r3, #-260]
 844:	43003044 	tstmi	r0, #68	; 0x44
 848:	0031444d 	eoreqs	r4, r1, sp, asr #8
 84c:	32444d43 	subcc	r4, r4, #4288	; 0x10c0
 850:	444d4300 	strmib	r4, [sp], #-768
 854:	65620033 	strvsb	r0, [r2, #-51]!
 858:	7365725f 	cmnvc	r5, #-268435451	; 0xf0000005
 85c:	4d430070 	stcmil	0, cr0, [r3, #-448]
 860:	43003744 	tstmi	r0, #17825792	; 0x1100000
 864:	0039444d 	eoreqs	r4, r9, sp, asr #8
 868:	5f494453 	swipl	0x00494453
 86c:	5f434d4d 	swipl	0x00434d4d
 870:	0052434f 	subeqs	r4, r2, pc, asr #6
 874:	61434453 	cmpvs	r3, r3, asr r4
 878:	63006472 	tstvs	r0, #1912602624	; 0x72000000
 87c:	64726143 	ldrvsbt	r6, [r2], #-323
 880:	00444943 	subeq	r4, r4, r3, asr #18
 884:	5f494453 	swipl	0x00494453
 888:	4f5f4453 	swimi	0x005f4453
 88c:	63005243 	tstvs	r0, #805306372	; 0x30000004
 890:	44726f53 	ldrmibt	r6, [r2], #-3923
 894:	74655300 	strvcbt	r5, [r5], #-768
 898:	7375625f 	cmnvc	r5, #-268435451	; 0xf0000005
 89c:	6469575f 	strvsbt	r5, [r9], #-1887
 8a0:	41006874 	tstmi	r0, r4, ror r8
 8a4:	34444d43 	strccb	r4, [r4], #-3395
 8a8:	436c0031 	cmnmi	ip, #49	; 0x31
 8ac:	62004453 	andvs	r4, r0, #1392508928	; 0x53000000
 8b0:	6b636f6c 	blvs	18dc668 <DISABLE_IRQ+0x18dc5e8>
 8b4:	6d756e5f 	ldcvsl	14, cr6, [r5, #-380]!
 8b8:	444d4300 	strmib	r4, [sp], #-768
 8bc:	43003432 	tstmi	r0, #838860800	; 0x32000000
 8c0:	3532444d 	ldrcc	r4, [r2, #-1101]!
 8c4:	6c696600 	stcvsl	6, cr6, [r9]
 8c8:	65645f65 	strvsb	r5, [r4, #-3941]!
 8cc:	0079616c 	rsbeqs	r6, r9, ip, ror #2
 8d0:	44494363 	strmib	r4, [r9], #-867
 8d4:	666e495f 	undefined
 8d8:	7463006f 	strvcbt	r0, [r3], #-111
 8dc:	2e657079 	mcrcs	0, 3, r7, cr5, cr9, {3}
 8e0:	6d2f0063 	stcvs	0, cr0, [pc, #-396]!
 8e4:	682f746e 	stmvsda	pc!, {r1, r2, r3, r5, r6, sl, ip, sp, lr}
 8e8:	2f736667 	swics	0x00736667
 8ec:	6d797341 	ldcvsl	3, cr7, [r9, #-260]!
 8f0:	746f7470 	strvcbt	r7, [pc], #1136	; 8f8 <DISABLE_IRQ+0x878>
 8f4:	696c2f65 	stmvsdb	ip!, {r0, r2, r5, r6, r8, r9, sl, fp, sp}^
 8f8:	49440062 	stmmidb	r4, {r1, r5, r6}^
 8fc:	6f696e75 	swivs	0x00696e75
 900:	4944006e 	stmmidb	r4, {r1, r2, r3, r5, r6}^
 904:	75727473 	ldrvcb	r7, [r2, #-1139]!
 908:	68007463 	stmvsda	r0, {r0, r1, r5, r6, sl, ip, sp, lr}
 90c:	00686769 	rsbeq	r6, r8, r9, ror #14
 910:	676e6f6c 	strvsb	r6, [lr, -ip, ror #30]!
 914:	6e6f6c20 	cdpvs	12, 6, cr6, cr15, cr0, {1}
 918:	6e752067 	cdpvs	0, 7, cr2, cr5, cr7, {3}
 91c:	6e676973 	mcrvs	9, 3, r6, cr7, cr3, {3}
 920:	69206465 	stmvsdb	r0!, {r0, r2, r5, r6, sl, sp, lr}
 924:	5f00746e 	swipl	0x0000746e
 928:	0032745f 	eoreqs	r7, r2, pc, asr r4
 92c:	676e6f6c 	strvsb	r6, [lr, -ip, ror #30]!
 930:	6e6f6c20 	cdpvs	12, 6, cr6, cr15, cr0, {1}
 934:	6e692067 	cdpvs	0, 6, cr2, cr9, cr7, {3}
 938:	53550074 	cmppl	r5, #116	; 0x74
 93c:	70797449 	rsbvcs	r7, r9, r9, asr #8
 940:	5f5f0065 	swipl	0x005f0065
 944:	5f003074 	swipl	0x00003074
 948:	0031745f 	eoreqs	r7, r1, pc, asr r4
 94c:	79744944 	ldmvcdb	r4!, {r2, r6, r8, fp, lr}^
 950:	6d006570 	cfstr32vs	mvfx6, [r0, #-448]
 954:	69646c75 	stmvsdb	r4!, {r0, r2, r4, r5, r6, sl, fp, sp, lr}^
 958:	00632e33 	rsbeq	r2, r3, r3, lsr lr
 95c:	756d5f5f 	strvcb	r5, [sp, #-3935]!
 960:	3369646c 	cmncc	r9, #1811939328	; 0x6c000000
 964:	5f617600 	swipl	0x00617600
 968:	7473696c 	ldrvcbt	r6, [r3], #-2412
 96c:	72747300 	rsbvcs	r7, r4, #0	; 0x0
 970:	00706573 	rsbeqs	r6, r0, r3, ror r5
 974:	6d6d656d 	cfstr64vs	mvdx6, [sp, #-436]!
 978:	0065766f 	rsbeq	r7, r5, pc, ror #12
 97c:	65636361 	strvsb	r6, [r3, #-865]!
 980:	73007470 	tstvc	r0, #1879048192	; 0x70000000
 984:	5f657a69 	swipl	0x00657a69
 988:	74730074 	ldrvcbt	r0, [r3], #-116
 98c:	72686372 	rsbvc	r6, r8, #-939524095	; 0xc8000001
 990:	6d656d00 	stcvsl	13, cr6, [r5]
 994:	00706d63 	rsbeqs	r6, r0, r3, ror #26
 998:	73727473 	cmnvc	r2, #1929379840	; 0x73000000
 99c:	6d007274 	sfmvs	f7, 4, [r0, #-464]
 9a0:	68636d65 	stmvsda	r3!, {r0, r2, r5, r6, r8, sl, fp, sp, lr}^
 9a4:	656d0072 	strvsb	r0, [sp, #-114]!
 9a8:	6163736d 	cmnvs	r3, sp, ror #6
 9ac:	7473006e 	ldrvcbt	r0, [r3], #-110
 9b0:	676e6972 	undefined
 9b4:	5f00632e 	swipl	0x0000632e
 9b8:	6c6f745f 	cfstrdvs	mvd7, [pc], #-380
 9bc:	7265776f 	rsbvc	r7, r5, #29097984	; 0x1bc0000
 9c0:	5f5f5f00 	swipl	0x005f5f00
 9c4:	74727473 	ldrvcbt	r7, [r2], #-1139
 9c8:	62006b6f 	andvs	r6, r0, #113664	; 0x1bc00
 9cc:	79706f63 	ldmvcdb	r0!, {r0, r1, r5, r6, r8, r9, sl, fp, sp, lr}^
 9d0:	72747300 	rsbvcs	r7, r4, #0	; 0x0
 9d4:	00797063 	rsbeqs	r7, r9, r3, rrx
 9d8:	63727473 	cmnvs	r2, #1929379840	; 0x73000000
 9dc:	73007461 	tstvc	r0, #1627389952	; 0x61000000
 9e0:	636e7274 	cmnvs	lr, #1073741831	; 0x40000007
 9e4:	73007970 	tstvc	r0, #1835008	; 0x1c0000
 9e8:	6d546372 	ldcvsl	3, cr6, [r4, #-456]
 9ec:	74730070 	ldrvcbt	r0, [r3], #-112
 9f0:	72627072 	rsbvc	r7, r2, #114	; 0x72
 9f4:	7473006b 	ldrvcbt	r0, [r3], #-107
 9f8:	61636e72 	cmnvs	r3, r2, ror lr
 9fc:	65730074 	ldrvsb	r0, [r3, #-116]!
 a00:	7300646e 	tstvc	r0, #1845493760	; 0x6e000000
 a04:	6c6e7274 	sfmvs	f7, 2, [lr], #-464
 a08:	64006e65 	strvs	r6, [r0], #-3685
 a0c:	54747365 	ldrplbt	r7, [r4], #-869
 a10:	7300706d 	tstvc	r0, #109	; 0x6d
 a14:	6d637274 	sfmvs	f7, 2, [r3, #-464]!
 a18:	656d0070 	strvsb	r0, [sp, #-112]!
 a1c:	7970636d 	ldmvcdb	r0!, {r0, r2, r3, r5, r6, r8, r9, sp, lr}^
 a20:	65627300 	strvsb	r7, [r2, #-768]!
 a24:	006e6967 	rsbeq	r6, lr, r7, ror #18
 a28:	73727473 	cmnvc	r2, #1929379840	; 0x73000000
 a2c:	73006e70 	tstvc	r0, #1792	; 0x700
 a30:	696e7274 	stmvsdb	lr!, {r2, r4, r5, r6, r9, ip, sp, lr}^
 a34:	00706d63 	rsbeqs	r6, r0, r3, ror #26
 a38:	65725f5f 	ldrvsb	r5, [r2, #-3935]!
 a3c:	74730073 	ldrvcbt	r0, [r3], #-115
 a40:	6d636e72 	stcvsl	14, cr6, [r3, #-456]!
 a44:	74730070 	ldrvcbt	r0, [r3], #-112
 a48:	68637272 	stmvsda	r3!, {r1, r4, r5, r6, r9, ip, sp, lr}^
 a4c:	73760072 	cmnvc	r6, #114	; 0x72
 a50:	6972706e 	ldmvsdb	r2!, {r1, r2, r3, r5, r6, ip, sp, lr}^
 a54:	0066746e 	rsbeq	r7, r6, lr, ror #8
 a58:	706d6973 	rsbvc	r6, sp, r3, ror r9
 a5c:	735f656c 	cmpvc	pc, #452984832	; 0x1b000000
 a60:	6f747274 	swivs	0x00747274
 a64:	6c006c75 	stcvs	12, cr6, [r0], {117}
 a68:	65677261 	strvsb	r7, [r7, #-609]!
 a6c:	6769645f 	undefined
 a70:	00737469 	rsbeqs	r7, r3, r9, ror #8
 a74:	756c6176 	strvcb	r6, [ip, #-374]!
 a78:	69730065 	ldmvsdb	r3!, {r0, r2, r5, r6}^
 a7c:	656c706d 	strvsb	r7, [ip, #-109]!
 a80:	7274735f 	rsbvcs	r7, r4, #2080374785	; 0x7c000001
 a84:	006c6f74 	rsbeq	r6, ip, r4, ror pc
 a88:	70696b73 	rsbvc	r6, r9, r3, ror fp
 a8c:	6f74615f 	swivs	0x0074615f
 a90:	69640069 	stmvsdb	r4!, {r0, r3, r5, r6}^
 a94:	00746967 	rsbeqs	r6, r4, r7, ror #18
 a98:	726f6873 	rsbvc	r6, pc, #7536640	; 0x730000
 a9c:	6e692074 	mcrvs	0, 3, r2, cr9, cr4, {3}
 aa0:	73760074 	cmnvc	r6, #116	; 0x74
 aa4:	72706e63 	rsbvcs	r6, r0, #1584	; 0x630
 aa8:	66746e69 	ldrvsbt	r6, [r4], -r9, ror #28
 aac:	625f5f00 	subvss	r5, pc, #0	; 0x0
 ab0:	00657361 	rsbeq	r7, r5, r1, ror #6
 ab4:	6f745f5f 	swivs	0x00745f5f
 ab8:	65707075 	ldrvsb	r7, [r0, #-117]!
 abc:	61770072 	cmnvs	r7, r2, ror r0
 ac0:	73006e72 	tstvc	r0, #1824	; 0x720
 ac4:	6c706d69 	ldcvsl	13, cr6, [r0], #-420
 ac8:	74735f65 	ldrvcbt	r5, [r3], #-3941
 acc:	756f7472 	strvcb	r7, [pc, #-1138]!	; 662 <DISABLE_IRQ+0x5e2>
 ad0:	73006c6c 	tstvc	r0, #27648	; 0x6c00
 ad4:	6c706d69 	ldcvsl	13, cr6, [r0], #-420
 ad8:	74735f65 	ldrvcbt	r5, [r3], #-3941
 adc:	6c6f7472 	cfstrdvs	mvd7, [pc], #-456
 ae0:	7376006c 	cmnvc	r6, #108	; 0x6c
 ae4:	6e616373 	mcrvs	3, 3, r6, cr1, cr3, {3}
 ae8:	6e650066 	cdpvs	0, 6, cr0, cr5, cr6, {3}
 aec:	73007064 	tstvc	r0, #100	; 0x64
 af0:	6c6c616d 	stfvse	f6, [ip], #-436
 af4:	6769645f 	undefined
 af8:	00737469 	rsbeqs	r7, r3, r9, ror #8
 afc:	6c617571 	cfstr64vs	mvdx7, [r1], #-452
 b00:	65696669 	strvsb	r6, [r9, #-1641]!
 b04:	73760072 	cmnvc	r6, #114	; 0x72
 b08:	6e697270 	mcrvs	2, 3, r7, cr9, cr0, {3}
 b0c:	632e6674 	teqvs	lr, #121634816	; 0x7400000
 b10:	70657200 	rsbvc	r7, r5, r0, lsl #4
 b14:	00746165 	rsbeqs	r6, r4, r5, ror #2
 b18:	626d756e 	rsbvs	r7, sp, #461373440	; 0x1b800000
 b1c:	70007265 	andvc	r7, r0, r5, ror #4
 b20:	69636572 	stmvsdb	r3!, {r1, r4, r5, r6, r8, sl, sp, lr}^
 b24:	6e6f6973 	mcrvs	9, 3, r6, cr15, cr3, {3}
 b28:	65696600 	strvsb	r6, [r9, #-1536]!
 b2c:	775f646c 	ldrvcb	r6, [pc, -ip, ror #8]
 b30:	68746469 	ldmvsda	r4!, {r0, r3, r5, r6, sl, sp, lr}^
 b34:	725f5f00 	subvcs	r5, pc, #0	; 0x0
 b38:	69006d65 	stmvsdb	r0, {r0, r2, r5, r6, r8, sl, fp, sp, lr}
 b3c:	69735f73 	ldmvsdb	r3!, {r0, r1, r4, r5, r6, r8, r9, sl, fp, ip, lr}^
 b40:	76006e67 	strvc	r6, [r0], -r7, ror #28
 b44:	69727073 	ldmvsdb	r2!, {r0, r1, r4, r5, r6, ip, sp, lr}^
 b48:	0066746e 	rsbeq	r7, r6, lr, ror #8
Disassembly of section .comment:

00000000 <.comment>:
   0:	43434700 	cmpmi	r3, #0	; 0x0
   4:	4728203a 	undefined
   8:	2029554e 	eorcs	r5, r9, lr, asr #10
   c:	2e342e33 	mrccs	14, 1, r2, cr4, cr3, {1}
  10:	47000035 	smladxmi	r0, r5, r0, r0
  14:	203a4343 	eorcss	r4, sl, r3, asr #6
  18:	554e4728 	strplb	r4, [lr, #-1832]
  1c:	2e332029 	cdpcs	0, 3, cr2, cr3, cr9, {1}
  20:	00352e34 	eoreqs	r2, r5, r4, lsr lr
  24:	43434700 	cmpmi	r3, #0	; 0x0
  28:	4728203a 	undefined
  2c:	2029554e 	eorcs	r5, r9, lr, asr #10
  30:	2e342e33 	mrccs	14, 1, r2, cr4, cr3, {1}
  34:	47000035 	smladxmi	r0, r5, r0, r0
  38:	203a4343 	eorcss	r4, sl, r3, asr #6
  3c:	554e4728 	strplb	r4, [lr, #-1832]
  40:	2e332029 	cdpcs	0, 3, cr2, cr3, cr9, {1}
  44:	00352e34 	eoreqs	r2, r5, r4, lsr lr
  48:	43434700 	cmpmi	r3, #0	; 0x0
  4c:	4728203a 	undefined
  50:	2029554e 	eorcs	r5, r9, lr, asr #10
  54:	2e342e33 	mrccs	14, 1, r2, cr4, cr3, {1}
  58:	47000035 	smladxmi	r0, r5, r0, r0
  5c:	203a4343 	eorcss	r4, sl, r3, asr #6
  60:	554e4728 	strplb	r4, [lr, #-1832]
  64:	2e332029 	cdpcs	0, 3, cr2, cr3, cr9, {1}
  68:	00352e34 	eoreqs	r2, r5, r4, lsr lr
  6c:	43434700 	cmpmi	r3, #0	; 0x0
  70:	4728203a 	undefined
  74:	2029554e 	eorcs	r5, r9, lr, asr #10
  78:	2e342e33 	mrccs	14, 1, r2, cr4, cr3, {1}
  7c:	47000035 	smladxmi	r0, r5, r0, r0
  80:	203a4343 	eorcss	r4, sl, r3, asr #6
  84:	554e4728 	strplb	r4, [lr, #-1832]
  88:	2e332029 	cdpcs	0, 3, cr2, cr3, cr9, {1}
  8c:	00352e34 	eoreqs	r2, r5, r4, lsr lr
  90:	43434700 	cmpmi	r3, #0	; 0x0
  94:	4728203a 	undefined
  98:	2029554e 	eorcs	r5, r9, lr, asr #10
  9c:	2e342e33 	mrccs	14, 1, r2, cr4, cr3, {1}
  a0:	47000035 	smladxmi	r0, r5, r0, r0
  a4:	203a4343 	eorcss	r4, sl, r3, asr #6
  a8:	554e4728 	strplb	r4, [lr, #-1832]
  ac:	2e332029 	cdpcs	0, 3, cr2, cr3, cr9, {1}
  b0:	00352e34 	eoreqs	r2, r5, r4, lsr lr
  b4:	43434700 	cmpmi	r3, #0	; 0x0
  b8:	4728203a 	undefined
  bc:	2029554e 	eorcs	r5, r9, lr, asr #10
  c0:	2e342e33 	mrccs	14, 1, r2, cr4, cr3, {1}
  c4:	47000035 	smladxmi	r0, r5, r0, r0
  c8:	203a4343 	eorcss	r4, sl, r3, asr #6
  cc:	554e4728 	strplb	r4, [lr, #-1832]
  d0:	2e332029 	cdpcs	0, 3, cr2, cr3, cr9, {1}
  d4:	00352e34 	eoreqs	r2, r5, r4, lsr lr
  d8:	43434700 	cmpmi	r3, #0	; 0x0
  dc:	4728203a 	undefined
  e0:	2029554e 	eorcs	r5, r9, lr, asr #10
  e4:	2e342e33 	mrccs	14, 1, r2, cr4, cr3, {1}
  e8:	47000035 	smladxmi	r0, r5, r0, r0
  ec:	203a4343 	eorcss	r4, sl, r3, asr #6
  f0:	554e4728 	strplb	r4, [lr, #-1832]
  f4:	2e332029 	cdpcs	0, 3, cr2, cr3, cr9, {1}
  f8:	00352e34 	eoreqs	r2, r5, r4, lsr lr
  fc:	43434700 	cmpmi	r3, #0	; 0x0
 100:	4728203a 	undefined
 104:	2029554e 	eorcs	r5, r9, lr, asr #10
 108:	2e342e33 	mrccs	14, 1, r2, cr4, cr3, {1}
 10c:	47000035 	smladxmi	r0, r5, r0, r0
 110:	203a4343 	eorcss	r4, sl, r3, asr #6
 114:	554e4728 	strplb	r4, [lr, #-1832]
 118:	2e332029 	cdpcs	0, 3, cr2, cr3, cr9, {1}
 11c:	00352e34 	eoreqs	r2, r5, r4, lsr lr
Disassembly of section .debug_ranges:

00000000 <.debug_ranges>:
   0:	00000004 	andeq	r0, r0, r4
   4:	00000008 	andeq	r0, r0, r8
   8:	00000018 	andeq	r0, r0, r8, lsl r0
   c:	00000020 	andeq	r0, r0, r0, lsr #32
	...
  18:	000001cc 	andeq	r0, r0, ip, asr #3
  1c:	000001d4 	ldreqd	r0, [r0], -r4
  20:	000001d8 	ldreqd	r0, [r0], -r8
  24:	0000020c 	andeq	r0, r0, ip, lsl #4
	...
  30:	00000220 	andeq	r0, r0, r0, lsr #4
  34:	0000022c 	andeq	r0, r0, ip, lsr #4
  38:	00000230 	andeq	r0, r0, r0, lsr r2
  3c:	00000270 	andeq	r0, r0, r0, ror r2
	...
  48:	000002d4 	ldreqd	r0, [r0], -r4
  4c:	000002dc 	ldreqd	r0, [r0], -ip
  50:	000002e4 	andeq	r0, r0, r4, ror #5
  54:	000002e8 	andeq	r0, r0, r8, ror #5
	...
  60:	000002f4 	streqd	r0, [r0], -r4
  64:	00000304 	andeq	r0, r0, r4, lsl #6
  68:	0000030c 	andeq	r0, r0, ip, lsl #6
  6c:	00000310 	andeq	r0, r0, r0, lsl r3
	...
  78:	0000033c 	andeq	r0, r0, ip, lsr r3
  7c:	0000034c 	andeq	r0, r0, ip, asr #6
  80:	00000398 	muleq	r0, r8, r3
  84:	000003bc 	streqh	r0, [r0], -ip
	...
  90:	00000060 	andeq	r0, r0, r0, rrx
  94:	00000064 	andeq	r0, r0, r4, rrx
  98:	00000070 	andeq	r0, r0, r0, ror r0
  9c:	00000074 	andeq	r0, r0, r4, ror r0
  a0:	00000068 	andeq	r0, r0, r8, rrx
  a4:	0000006c 	andeq	r0, r0, ip, rrx
	...
  b0:	00000064 	andeq	r0, r0, r4, rrx
  b4:	00000068 	andeq	r0, r0, r8, rrx
  b8:	0000006c 	andeq	r0, r0, ip, rrx
  bc:	00000070 	andeq	r0, r0, r0, ror r0
	...
  c8:	000003ac 	andeq	r0, r0, ip, lsr #7
  cc:	000003c0 	andeq	r0, r0, r0, asr #7
  d0:	000003d8 	ldreqd	r0, [r0], -r8
  d4:	000003dc 	ldreqd	r0, [r0], -ip
	...
  e0:	000005d8 	ldreqd	r0, [r0], -r8
  e4:	000005dc 	ldreqd	r0, [r0], -ip
  e8:	000005f8 	streqd	r0, [r0], -r8
  ec:	000005fc 	streqd	r0, [r0], -ip
  f0:	000005ec 	andeq	r0, r0, ip, ror #11
  f4:	000005f4 	streqd	r0, [r0], -r4
	...
 100:	00000f6c 	andeq	r0, r0, ip, ror #30
 104:	00000f70 	andeq	r0, r0, r0, ror pc
 108:	00001214 	andeq	r1, r0, r4, lsl r2
 10c:	00001228 	andeq	r1, r0, r8, lsr #4
	...
 118:	00001178 	andeq	r1, r0, r8, ror r1
 11c:	000011ac 	andeq	r1, r0, ip, lsr #3
 120:	000012d0 	ldreqd	r1, [r0], -r0
 124:	00001334 	andeq	r1, r0, r4, lsr r3
 128:	000011e0 	andeq	r1, r0, r0, ror #3
 12c:	000011e8 	andeq	r1, r0, r8, ror #3
	...
 138:	00001240 	andeq	r1, r0, r0, asr #4
 13c:	00001250 	andeq	r1, r0, r0, asr r2
 140:	00001360 	andeq	r1, r0, r0, ror #6
 144:	00001374 	andeq	r1, r0, r4, ror r3
 148:	00001344 	andeq	r1, r0, r4, asr #6
 14c:	0000134c 	andeq	r1, r0, ip, asr #6
 150:	00001288 	andeq	r1, r0, r8, lsl #5
 154:	00001290 	muleq	r0, r0, r2
	...
 160:	00001268 	andeq	r1, r0, r8, ror #4
 164:	00001270 	andeq	r1, r0, r0, ror r2
 168:	0000134c 	andeq	r1, r0, ip, asr #6
 16c:	00001360 	andeq	r1, r0, r0, ror #6
	...
