
start.elf:     file format elf32-littlearm

Disassembly of section .text:

30000000 <_start>:
30000000:	ea000006 	b	30000020 <Reset>

30000004 <HandleUndef>:
30000004:	eafffffe 	b	30000004 <HandleUndef>

30000008 <HandleSvc>:
30000008:	eafffffe 	b	30000008 <HandleSvc>

3000000c <HandlePrefetchAbort>:
3000000c:	eafffffe 	b	3000000c <HandlePrefetchAbort>

30000010 <HandleDataAbort>:
30000010:	eafffffe 	b	30000010 <HandleDataAbort>

30000014 <HandleNotUsed>:
30000014:	eafffffe 	b	30000014 <HandleNotUsed>
30000018:	ea000012 	b	30000068 <HandleIRQ>

3000001c <HandleFIQ>:
3000001c:	eafffffe 	b	3000001c <HandleFIQ>

30000020 <Reset>:
30000020:	e3a0da01 	mov	sp, #4096	; 0x1000
30000024:	eb000043 	bl	30000138 <disable_watch_dog>
30000028:	eb000046 	bl	30000148 <clock_init>
3000002c:	eb00004f 	bl	30000170 <sdram_init>
30000030:	eb000281 	bl	30000a3c <nand_init>
30000034:	e3a01203 	mov	r1, #805306368	; 0x30000000
30000038:	e3a00000 	mov	r0, #0	; 0x0
3000003c:	e3a02b1e 	mov	r2, #30720	; 0x7800
30000040:	eb0002ed 	bl	30000bfc <nand_read>
30000044:	e59ff1a8 	ldr	pc, [pc, #424]	; 300001f4 <mem_cfg_val+0x34>

30000048 <on_sdram>:
30000048:	e321f0d2 	msr	CPSR_c, #210	; 0xd2
3000004c:	e3a0d433 	mov	sp, #855638016	; 0x33000000
30000050:	e321f0df 	msr	CPSR_c, #223	; 0xdf
30000054:	e3a0d30d 	mov	sp, #872415232	; 0x34000000
30000058:	e321f05f 	msr	CPSR_c, #95	; 0x5f
3000005c:	e59fe194 	ldr	lr, [pc, #404]	; 300001f8 <mem_cfg_val+0x38>
30000060:	e59ff194 	ldr	pc, [pc, #404]	; 300001fc <mem_cfg_val+0x3c>

30000064 <loop>:
30000064:	eafffffe 	b	30000064 <loop>

30000068 <HandleIRQ>:
30000068:	e24ee004 	sub	lr, lr, #4	; 0x4
3000006c:	e92d5fff 	stmdb	sp!, {r0, r1, r2, r3, r4, r5, r6, r7, r8, r9, sl, fp, ip, lr}
30000070:	e59f0188 	ldr	r0, [pc, #392]	; 30000200 <mem_cfg_val+0x40>
30000074:	e5901000 	ldr	r1, [r0]
30000078:	e3a0200a 	mov	r2, #10	; 0xa
3000007c:	e1510002 	cmp	r1, r2
30000080:	0a00000b 	beq	300000b4 <timer0_irq>
30000084:	e59fe178 	ldr	lr, [pc, #376]	; 30000204 <mem_cfg_val+0x44>
30000088:	e59ff178 	ldr	pc, [pc, #376]	; 30000208 <mem_cfg_val+0x48>

3000008c <ret>:
3000008c:	e92d000e 	stmdb	sp!, {r1, r2, r3}
30000090:	e3a0244a 	mov	r2, #1241513984	; 0x4a000000
30000094:	e2821010 	add	r1, r2, #16	; 0x10
30000098:	e5910000 	ldr	r0, [r1]
3000009c:	e5923000 	ldr	r3, [r2]
300000a0:	e1833001 	orr	r3, r3, r1
300000a4:	e5823000 	str	r3, [r2]
300000a8:	e5810000 	str	r0, [r1]
300000ac:	e8bd000e 	ldmia	sp!, {r1, r2, r3}
300000b0:	e8fd9fff 	ldmia	sp!, {r0, r1, r2, r3, r4, r5, r6, r7, r8, r9, sl, fp, ip, pc}^

300000b4 <timer0_irq>:
300000b4:	e8bd5fff 	ldmia	sp!, {r0, r1, r2, r3, r4, r5, r6, r7, r8, r9, sl, fp, ip, lr}
300000b8:	e92d0001 	stmdb	sp!, {r0}
300000bc:	e92d000e 	stmdb	sp!, {r1, r2, r3}
300000c0:	e3a0244a 	mov	r2, #1241513984	; 0x4a000000
300000c4:	e2821010 	add	r1, r2, #16	; 0x10
300000c8:	e5910000 	ldr	r0, [r1]
300000cc:	e5923000 	ldr	r3, [r2]
300000d0:	e1833001 	orr	r3, r3, r1
300000d4:	e5823000 	str	r3, [r2]
300000d8:	e5810000 	str	r0, [r1]
300000dc:	e8bd000e 	ldmia	sp!, {r1, r2, r3}
300000e0:	e1a0000e 	mov	r0, lr
300000e4:	e321f0df 	msr	CPSR_c, #223	; 0xdf
300000e8:	e92d0001 	stmdb	sp!, {r0}
300000ec:	e92d4000 	stmdb	sp!, {lr}
300000f0:	e321f0d2 	msr	CPSR_c, #210	; 0xd2
300000f4:	e8bd0001 	ldmia	sp!, {r0}
300000f8:	e59fe10c 	ldr	lr, [pc, #268]	; 3000020c <mem_cfg_val+0x4c>
300000fc:	e92d4000 	stmdb	sp!, {lr}
30000100:	e8fd8000 	ldmia	sp!, {pc}^

30000104 <__asm_schedule>:
30000104:	e92d1fff 	stmdb	sp!, {r0, r1, r2, r3, r4, r5, r6, r7, r8, r9, sl, fp, ip}
30000108:	e10f1000 	mrs	r1, CPSR
3000010c:	e92d0002 	stmdb	sp!, {r1}
30000110:	e1a0100d 	mov	r1, sp
30000114:	e3c11eff 	bic	r1, r1, #4080	; 0xff0
30000118:	e3c1100f 	bic	r1, r1, #15	; 0xf
3000011c:	e1a0000d 	mov	r0, sp
30000120:	e5810000 	str	r0, [r1]

30000124 <__switch_to>:
30000124:	eb0001ac 	bl	300007dc <__common_schedule>
30000128:	e590d000 	ldr	sp, [r0]
3000012c:	e8bd0002 	ldmia	sp!, {r1}
30000130:	e12ff001 	msr	CPSR_fsxc, r1
30000134:	e8bddfff 	ldmia	sp!, {r0, r1, r2, r3, r4, r5, r6, r7, r8, r9, sl, fp, ip, lr, pc}

30000138 <disable_watch_dog>:
30000138:	e3a00453 	mov	r0, #1392508928	; 0x53000000
3000013c:	e3a01000 	mov	r1, #0	; 0x0
30000140:	e5801000 	str	r1, [r0]
30000144:	e1a0f00e 	mov	pc, lr

30000148 <clock_init>:
30000148:	e59f00c0 	ldr	r0, [pc, #192]	; 30000210 <mem_cfg_val+0x50>
3000014c:	e3a01003 	mov	r1, #3	; 0x3
30000150:	e5801000 	str	r1, [r0]
30000154:	ee111f10 	mrc	15, 0, r1, cr1, cr0, {0}
30000158:	e3811103 	orr	r1, r1, #-1073741824	; 0xc0000000
3000015c:	ee011f10 	mcr	15, 0, r1, cr1, cr0, {0}
30000160:	e59f00ac 	ldr	r0, [pc, #172]	; 30000214 <mem_cfg_val+0x54>
30000164:	e59f10ac 	ldr	r1, [pc, #172]	; 30000218 <mem_cfg_val+0x58>
30000168:	e5801000 	str	r1, [r0]
3000016c:	e1a0f00e 	mov	pc, lr

30000170 <sdram_init>:
30000170:	e3a01312 	mov	r1, #1207959552	; 0x48000000
30000174:	e28f2044 	add	r2, pc, #68	; 0x44
30000178:	e1a00000 	nop			(mov r0,r0)
3000017c:	e2813034 	add	r3, r1, #52	; 0x34
30000180:	e4924004 	ldr	r4, [r2], #4
30000184:	e4814004 	str	r4, [r1], #4
30000188:	e1510003 	cmp	r1, r3
3000018c:	1afffffb 	bne	30000180 <sdram_init+0x10>
30000190:	e1a0f00e 	mov	pc, lr

30000194 <copy_steppingstone_to_sdram>:
30000194:	e3a01000 	mov	r1, #0	; 0x0
30000198:	e3a02203 	mov	r2, #805306368	; 0x30000000
3000019c:	e3a03a01 	mov	r3, #4096	; 0x1000
300001a0:	e4914004 	ldr	r4, [r1], #4
300001a4:	e4824004 	str	r4, [r2], #4
300001a8:	e1510003 	cmp	r1, r3
300001ac:	1afffffb 	bne	300001a0 <copy_steppingstone_to_sdram+0xc>
300001b0:	e1a0f00e 	mov	pc, lr
	...

300001c0 <mem_cfg_val>:
300001c0:	22011110 	andcs	r1, r1, #4	; 0x4
300001c4:	00000700 	andeq	r0, r0, r0, lsl #14
300001c8:	00000700 	andeq	r0, r0, r0, lsl #14
300001cc:	00000700 	andeq	r0, r0, r0, lsl #14
300001d0:	00000700 	andeq	r0, r0, r0, lsl #14
300001d4:	00000700 	andeq	r0, r0, r0, lsl #14
300001d8:	00000700 	andeq	r0, r0, r0, lsl #14
300001dc:	00018005 	andeq	r8, r1, r5
300001e0:	00018005 	andeq	r8, r1, r5
300001e4:	008c07a3 	addeq	r0, ip, r3, lsr #15
300001e8:	000000b1 	streqh	r0, [r0], -r1
300001ec:	00000030 	andeq	r0, r0, r0, lsr r0
300001f0:	00000030 	andeq	r0, r0, r0, lsr r0
300001f4:	30000048 	andcc	r0, r0, r8, asr #32
300001f8:	30000064 	andcc	r0, r0, r4, rrx
300001fc:	300006f8 	strccd	r0, [r0], -r8
30000200:	4a000014 	bmi	30000258 <delay+0x4>
30000204:	3000008c 	andcc	r0, r0, ip, lsl #1
30000208:	30000350 	andcc	r0, r0, r0, asr r3
3000020c:	30000104 	andcc	r0, r0, r4, lsl #2
30000210:	4c000014 	stcmi	0, cr0, [r0], {20}
30000214:	4c000004 	stcmi	0, cr0, [r0], {4}
30000218:	0005c012 	andeq	ip, r5, r2, lsl r0
3000021c:	e1a00000 	nop			(mov r0,r0)

30000220 <led_init>:
30000220:	e3a01456 	mov	r1, #1442840576	; 0x56000000
30000224:	e5913050 	ldr	r3, [r1, #80]
30000228:	e3833c01 	orr	r3, r3, #256	; 0x100
3000022c:	e5813050 	str	r3, [r1, #80]
30000230:	e5912050 	ldr	r2, [r1, #80]
30000234:	e3822b01 	orr	r2, r2, #1024	; 0x400
30000238:	e5812050 	str	r2, [r1, #80]
3000023c:	e3a020ff 	mov	r2, #255	; 0xff
30000240:	e5913050 	ldr	r3, [r1, #80]
30000244:	e3833a01 	orr	r3, r3, #4096	; 0x1000
30000248:	e5813050 	str	r3, [r1, #80]
3000024c:	e5812054 	str	r2, [r1, #84]
30000250:	e1a0f00e 	mov	pc, lr

30000254 <delay>:
30000254:	e24dd008 	sub	sp, sp, #8	; 0x8
30000258:	e3a02000 	mov	r2, #0	; 0x0
3000025c:	e58d2004 	str	r2, [sp, #4]
30000260:	e59d3004 	ldr	r3, [sp, #4]
30000264:	e3a01f4a 	mov	r1, #296	; 0x128
30000268:	e2811003 	add	r1, r1, #3	; 0x3
3000026c:	e1530001 	cmp	r3, r1
30000270:	8a000013 	bhi	300002c4 <delay+0x70>
30000274:	e1a0c002 	mov	ip, r2
30000278:	e1a00001 	mov	r0, r1
3000027c:	e58dc000 	str	ip, [sp]
30000280:	e59d3000 	ldr	r3, [sp]
30000284:	e1530001 	cmp	r3, r1
30000288:	8a000005 	bhi	300002a4 <delay+0x50>
3000028c:	e59d3000 	ldr	r3, [sp]
30000290:	e2833001 	add	r3, r3, #1	; 0x1
30000294:	e58d3000 	str	r3, [sp]
30000298:	e59d2000 	ldr	r2, [sp]
3000029c:	e1520000 	cmp	r2, r0
300002a0:	9afffff9 	bls	3000028c <delay+0x38>
300002a4:	e59d3004 	ldr	r3, [sp, #4]
300002a8:	e2833001 	add	r3, r3, #1	; 0x1
300002ac:	e58d3004 	str	r3, [sp, #4]
300002b0:	e59d2004 	ldr	r2, [sp, #4]
300002b4:	e3a01f4a 	mov	r1, #296	; 0x128
300002b8:	e2811003 	add	r1, r1, #3	; 0x3
300002bc:	e1520001 	cmp	r2, r1
300002c0:	9affffed 	bls	3000027c <delay+0x28>
300002c4:	e28dd008 	add	sp, sp, #8	; 0x8
300002c8:	e1a0f00e 	mov	pc, lr

300002cc <timer0_init>:
300002cc:	e3a01451 	mov	r1, #1358954496	; 0x51000000
300002d0:	e3a03063 	mov	r3, #99	; 0x63
300002d4:	e3a02d61 	mov	r2, #6208	; 0x1840
300002d8:	e5813000 	str	r3, [r1]
300002dc:	e282202a 	add	r2, r2, #42	; 0x2a
300002e0:	e2433060 	sub	r3, r3, #96	; 0x60
300002e4:	e3a0044a 	mov	r0, #1241513984	; 0x4a000000
300002e8:	e5813004 	str	r3, [r1, #4]
300002ec:	e581200c 	str	r2, [r1, #12]
300002f0:	e3a02009 	mov	r2, #9	; 0x9
300002f4:	e5913008 	ldr	r3, [r1, #8]
300002f8:	e3833002 	orr	r3, r3, #2	; 0x2
300002fc:	e5813008 	str	r3, [r1, #8]
30000300:	e5812008 	str	r2, [r1, #8]
30000304:	e5903008 	ldr	r3, [r0, #8]
30000308:	e3c33b01 	bic	r3, r3, #1024	; 0x400
3000030c:	e5803008 	str	r3, [r0, #8]
30000310:	e1a0f00e 	mov	pc, lr

30000314 <key_init>:
30000314:	e3a01456 	mov	r1, #1442840576	; 0x56000000
30000318:	e5913050 	ldr	r3, [r1, #80]
3000031c:	e3c33033 	bic	r3, r3, #51	; 0x33
30000320:	e5813050 	str	r3, [r1, #80]
30000324:	e3a0044a 	mov	r0, #1241513984	; 0x4a000000
30000328:	e5913050 	ldr	r3, [r1, #80]
3000032c:	e3833022 	orr	r3, r3, #34	; 0x22
30000330:	e5813050 	str	r3, [r1, #80]
30000334:	e590200c 	ldr	r2, [r0, #12]
30000338:	e3c22001 	bic	r2, r2, #1	; 0x1
3000033c:	e580200c 	str	r2, [r0, #12]
30000340:	e5903008 	ldr	r3, [r0, #8]
30000344:	e3c33005 	bic	r3, r3, #5	; 0x5
30000348:	e5803008 	str	r3, [r0, #8]
3000034c:	e1a0f00e 	mov	pc, lr

30000350 <irq_handler>:
30000350:	e52de004 	str	lr, [sp, #-4]!
30000354:	e59f3078 	ldr	r3, [pc, #120]	; 300003d4 <.text+0x3d4>
30000358:	e3a02000 	mov	r2, #0	; 0x0
3000035c:	e3a01203 	mov	r1, #805306368	; 0x30000000
30000360:	e2811603 	add	r1, r1, #3145728	; 0x300000
30000364:	e2811f43 	add	r1, r1, #268	; 0x10c
30000368:	e5930004 	ldr	r0, [r3, #4]
3000036c:	e2403f43 	sub	r3, r0, #268	; 0x10c
30000370:	e5832008 	str	r2, [r3, #8]
30000374:	e3a03456 	mov	r3, #1442840576	; 0x56000000
30000378:	e24dd004 	sub	sp, sp, #4	; 0x4
3000037c:	e5832054 	str	r2, [r3, #84]
30000380:	eb000311 	bl	30000fcc <list_add>
30000384:	ebffffb2 	bl	30000254 <delay>
30000388:	e3a000c8 	mov	r0, #200	; 0xc8
3000038c:	e3a020fa 	mov	r2, #250	; 0xfa
30000390:	e3a0c8ff 	mov	ip, #16711680	; 0xff0000
30000394:	e28cccff 	add	ip, ip, #65280	; 0xff00
30000398:	e1a01000 	mov	r1, r0
3000039c:	e1a03002 	mov	r3, r2
300003a0:	e58dc000 	str	ip, [sp]
300003a4:	eb0002d8 	bl	30000f0c <draw_rect>
300003a8:	ebffffa9 	bl	30000254 <delay>
300003ac:	e3a000c8 	mov	r0, #200	; 0xc8
300003b0:	e3a020fa 	mov	r2, #250	; 0xfa
300003b4:	e3e0c4ff 	mvn	ip, #-16777216	; 0xff000000
300003b8:	e1a01000 	mov	r1, r0
300003bc:	e1a03002 	mov	r3, r2
300003c0:	e58dc000 	str	ip, [sp]
300003c4:	eb0002d0 	bl	30000f0c <draw_rect>
300003c8:	e28dd004 	add	sp, sp, #4	; 0x4
300003cc:	e49de004 	ldr	lr, [sp], #4
300003d0:	eaffff9f 	b	30000254 <delay>
300003d4:	30009c1c 	andcc	r9, r0, ip, lsl ip

300003d8 <clear_irq>:
300003d8:	e3a0144a 	mov	r1, #1241513984	; 0x4a000000
300003dc:	e5912014 	ldr	r2, [r1, #20]
300003e0:	e3a03001 	mov	r3, #1	; 0x1
300003e4:	e1a03213 	mov	r3, r3, lsl r2
300003e8:	e5813000 	str	r3, [r1]
300003ec:	e5912010 	ldr	r2, [r1, #16]
300003f0:	e5812010 	str	r2, [r1, #16]
300003f4:	e1a0f00e 	mov	pc, lr

300003f8 <lcd_task>:
300003f8:	e92d4070 	stmdb	sp!, {r4, r5, r6, lr}
300003fc:	e59f0074 	ldr	r0, [pc, #116]	; 30000478 <.text+0x478>
30000400:	e3a06000 	mov	r6, #0	; 0x0
30000404:	e3a05456 	mov	r5, #1442840576	; 0x56000000
30000408:	e24dd004 	sub	sp, sp, #4	; 0x4
3000040c:	eb0002dc 	bl	30000f84 <list_init>
30000410:	e3a00096 	mov	r0, #150	; 0x96
30000414:	e3a020be 	mov	r2, #190	; 0xbe
30000418:	e3e0c040 	mvn	ip, #64	; 0x40
3000041c:	e1a01000 	mov	r1, r0
30000420:	e1a03002 	mov	r3, r2
30000424:	e585c054 	str	ip, [r5, #84]
30000428:	e3a048ff 	mov	r4, #16711680	; 0xff0000
3000042c:	e58d4000 	str	r4, [sp]
30000430:	eb0002b5 	bl	30000f0c <draw_rect>
30000434:	ebffff86 	bl	30000254 <delay>
30000438:	e3a00096 	mov	r0, #150	; 0x96
3000043c:	e3a020be 	mov	r2, #190	; 0xbe
30000440:	e3a0c0ff 	mov	ip, #255	; 0xff
30000444:	e1a01000 	mov	r1, r0
30000448:	e585c054 	str	ip, [r5, #84]
3000044c:	e1a03002 	mov	r3, r2
30000450:	e3e044ff 	mvn	r4, #-16777216	; 0xff000000
30000454:	e58d4000 	str	r4, [sp]
30000458:	eb0002ab 	bl	30000f0c <draw_rect>
3000045c:	ebffff7c 	bl	30000254 <delay>
30000460:	e3560000 	cmp	r6, #0	; 0x0
30000464:	e59f000c 	ldr	r0, [pc, #12]	; 30000478 <.text+0x478>
30000468:	1affffe8 	bne	30000410 <lcd_task+0x18>
3000046c:	eb0000f3 	bl	30000840 <sleep_on>
30000470:	e2866001 	add	r6, r6, #1	; 0x1
30000474:	eaffffe5 	b	30000410 <lcd_task+0x18>
30000478:	30009c1c 	andcc	r9, r0, ip, lsl ip

3000047c <fs_task>:
3000047c:	e92d40f0 	stmdb	sp!, {r4, r5, r6, r7, lr}
30000480:	e59f10c8 	ldr	r1, [pc, #200]	; 30000550 <.text+0x550>
30000484:	e3a0204f 	mov	r2, #79	; 0x4f
30000488:	e1a04000 	mov	r4, r0
3000048c:	e24dd050 	sub	sp, sp, #80	; 0x50
30000490:	e1a0000d 	mov	r0, sp
30000494:	eb000a83 	bl	30002ea8 <memcpy>
30000498:	e59f00b4 	ldr	r0, [pc, #180]	; 30000554 <.text+0x554>
3000049c:	eb000943 	bl	300029b0 <printk>
300004a0:	e1a00004 	mov	r0, r4
300004a4:	e3a01000 	mov	r1, #0	; 0x0
300004a8:	eb0003d1 	bl	300013f4 <open>
300004ac:	e3700001 	cmn	r0, #1	; 0x1
300004b0:	e1a0500d 	mov	r5, sp
300004b4:	e1a06000 	mov	r6, r0
300004b8:	0a000020 	beq	30000540 <fs_task+0xc4>
300004bc:	e1a02004 	mov	r2, r4
300004c0:	e1a01000 	mov	r1, r0
300004c4:	e59f008c 	ldr	r0, [pc, #140]	; 30000558 <.text+0x558>
300004c8:	eb000938 	bl	300029b0 <printk>
300004cc:	e1a0000d 	mov	r0, sp
300004d0:	eb0009dd 	bl	30002c4c <strlen>
300004d4:	e59f7080 	ldr	r7, [pc, #128]	; 3000055c <.text+0x55c>
300004d8:	e1a02000 	mov	r2, r0
300004dc:	e5971000 	ldr	r1, [r7]
300004e0:	e1a00006 	mov	r0, r6
300004e4:	eb0003e2 	bl	30001474 <read>
300004e8:	e3a04000 	mov	r4, #0	; 0x0
300004ec:	e1a05000 	mov	r5, r0
300004f0:	e1a01000 	mov	r1, r0
300004f4:	e59f0064 	ldr	r0, [pc, #100]	; 30000560 <.text+0x560>
300004f8:	eb00092c 	bl	300029b0 <printk>
300004fc:	e1540005 	cmp	r4, r5
30000500:	aa000006 	bge	30000520 <fs_task+0xa4>
30000504:	e5973000 	ldr	r3, [r7]
30000508:	e59f0054 	ldr	r0, [pc, #84]	; 30000564 <.text+0x564>
3000050c:	e7d31004 	ldrb	r1, [r3, r4]
30000510:	e2844001 	add	r4, r4, #1	; 0x1
30000514:	eb000925 	bl	300029b0 <printk>
30000518:	e1540005 	cmp	r4, r5
3000051c:	bafffff8 	blt	30000504 <fs_task+0x88>
30000520:	e59f0040 	ldr	r0, [pc, #64]	; 30000568 <.text+0x568>
30000524:	eb000921 	bl	300029b0 <printk>
30000528:	e1a00006 	mov	r0, r6
3000052c:	eb0003f5 	bl	30001508 <close>
30000530:	e59f0034 	ldr	r0, [pc, #52]	; 3000056c <.text+0x56c>
30000534:	eb00091d 	bl	300029b0 <printk>
30000538:	e28dd050 	add	sp, sp, #80	; 0x50
3000053c:	e8bd80f0 	ldmia	sp!, {r4, r5, r6, r7, pc}
30000540:	e1a01004 	mov	r1, r4
30000544:	e59f0024 	ldr	r0, [pc, #36]	; 30000570 <.text+0x570>
30000548:	eb000918 	bl	300029b0 <printk>
3000054c:	eafffff9 	b	30000538 <fs_task+0xbc>
30000550:	30004440 	andcc	r4, r0, r0, asr #8
30000554:	30004490 	mulcc	r0, r0, r4
30000558:	300044a4 	andcc	r4, r0, r4, lsr #9
3000055c:	30004b04 	andcc	r4, r0, r4, lsl #22
30000560:	300044c0 	andcc	r4, r0, r0, asr #9
30000564:	300044d4 	ldrccd	r4, [r0], -r4
30000568:	30004a00 	andcc	r4, r0, r0, lsl #20
3000056c:	300044d8 	ldrccd	r4, [r0], -r8
30000570:	300044ec 	andcc	r4, r0, ip, ror #9

30000574 <execv>:
30000574:	e92d4030 	stmdb	sp!, {r4, r5, lr}
30000578:	e59f4058 	ldr	r4, [pc, #88]	; 300005d8 <.text+0x5d8>
3000057c:	e1a05000 	mov	r5, r0
30000580:	e59f0054 	ldr	r0, [pc, #84]	; 300005dc <.text+0x5dc>
30000584:	e5941000 	ldr	r1, [r4]
30000588:	eb000908 	bl	300029b0 <printk>
3000058c:	e3a02e5d 	mov	r2, #1488	; 0x5d0
30000590:	e5941000 	ldr	r1, [r4]
30000594:	e1a00005 	mov	r0, r5
30000598:	e282200c 	add	r2, r2, #12	; 0xc
3000059c:	eb000a41 	bl	30002ea8 <memcpy>
300005a0:	e3a04000 	mov	r4, #0	; 0x0
300005a4:	e7d51004 	ldrb	r1, [r5, r4]
300005a8:	e59f0030 	ldr	r0, [pc, #48]	; 300005e0 <.text+0x5e0>
300005ac:	e2844001 	add	r4, r4, #1	; 0x1
300005b0:	eb0008fe 	bl	300029b0 <printk>
300005b4:	e3540013 	cmp	r4, #19	; 0x13
300005b8:	dafffff9 	ble	300005a4 <execv+0x30>
300005bc:	e59f0020 	ldr	r0, [pc, #32]	; 300005e4 <.text+0x5e4>
300005c0:	eb0008fa 	bl	300029b0 <printk>
300005c4:	e1a00005 	mov	r0, r5
300005c8:	e3a01001 	mov	r1, #1	; 0x1
300005cc:	eb0000b5 	bl	300008a8 <do_fork>
300005d0:	e3a00000 	mov	r0, #0	; 0x0
300005d4:	e8bd8030 	ldmia	sp!, {r4, r5, pc}
300005d8:	30004b04 	andcc	r4, r0, r4, lsl #22
300005dc:	30004500 	andcc	r4, r0, r0, lsl #10
300005e0:	3000451c 	andcc	r4, r0, ip, lsl r5
300005e4:	30004a00 	andcc	r4, r0, r0, lsl #20

300005e8 <run_commond>:
300005e8:	e92d4010 	stmdb	sp!, {r4, lr}
300005ec:	e59f1080 	ldr	r1, [pc, #128]	; 30000674 <.text+0x674>
300005f0:	e1a04000 	mov	r4, r0
300005f4:	eb000969 	bl	30002ba0 <strcmp>
300005f8:	e3500000 	cmp	r0, #0	; 0x0
300005fc:	e59f1074 	ldr	r1, [pc, #116]	; 30000678 <.text+0x678>
30000600:	e1a00004 	mov	r0, r4
30000604:	1a000001 	bne	30000610 <run_commond+0x28>
30000608:	e8bd4010 	ldmia	sp!, {r4, lr}
3000060c:	ea0003ca 	b	3000153c <show_dir_entry>
30000610:	eb000962 	bl	30002ba0 <strcmp>
30000614:	e3500000 	cmp	r0, #0	; 0x0
30000618:	e59f105c 	ldr	r1, [pc, #92]	; 3000067c <.text+0x67c>
3000061c:	e1a00004 	mov	r0, r4
30000620:	1a000001 	bne	3000062c <run_commond+0x44>
30000624:	e8bd4010 	ldmia	sp!, {r4, lr}
30000628:	eaffff93 	b	3000047c <fs_task>
3000062c:	eb00095b 	bl	30002ba0 <strcmp>
30000630:	e3500000 	cmp	r0, #0	; 0x0
30000634:	e59f1044 	ldr	r1, [pc, #68]	; 30000680 <.text+0x680>
30000638:	e1a00004 	mov	r0, r4
3000063c:	1a000004 	bne	30000654 <run_commond+0x6c>
30000640:	ebffff8d 	bl	3000047c <fs_task>
30000644:	e3a005cd 	mov	r0, #859832320	; 0x33400000
30000648:	e2800601 	add	r0, r0, #1048576	; 0x100000
3000064c:	e8bd4010 	ldmia	sp!, {r4, lr}
30000650:	eaffffc7 	b	30000574 <execv>
30000654:	e1a00004 	mov	r0, r4
30000658:	eb000950 	bl	30002ba0 <strcmp>
3000065c:	e3500000 	cmp	r0, #0	; 0x0
30000660:	e1a01004 	mov	r1, r4
30000664:	e59f0018 	ldr	r0, [pc, #24]	; 30000684 <.text+0x684>
30000668:	08bd8010 	ldmeqia	sp!, {r4, pc}
3000066c:	e8bd4010 	ldmia	sp!, {r4, lr}
30000670:	ea0008ce 	b	300029b0 <printk>
30000674:	30004520 	andcc	r4, r0, r0, lsr #10
30000678:	30004524 	andcc	r4, r0, r4, lsr #10
3000067c:	3000452c 	andcc	r4, r0, ip, lsr #10
30000680:	30004a18 	andcc	r4, r0, r8, lsl sl
30000684:	30004428 	andcc	r4, r0, r8, lsr #8

30000688 <shell>:
30000688:	e92d4070 	stmdb	sp!, {r4, r5, r6, lr}
3000068c:	e24dd020 	sub	sp, sp, #32	; 0x20
30000690:	e1a0600d 	mov	r6, sp
30000694:	e59f0054 	ldr	r0, [pc, #84]	; 300006f0 <.text+0x6f0>
30000698:	eb0008c4 	bl	300029b0 <printk>
3000069c:	e3a05000 	mov	r5, #0	; 0x0
300006a0:	ea000004 	b	300006b8 <shell+0x30>
300006a4:	eb000260 	bl	3000102c <putc>
300006a8:	e28d2020 	add	r2, sp, #32	; 0x20
300006ac:	e0853002 	add	r3, r5, r2
300006b0:	e5434020 	strb	r4, [r3, #-32]
300006b4:	e2855001 	add	r5, r5, #1	; 0x1
300006b8:	eb000262 	bl	30001048 <getc>
300006bc:	e20040ff 	and	r4, r0, #255	; 0xff
300006c0:	e354000d 	cmp	r4, #13	; 0xd
300006c4:	e1a00004 	mov	r0, r4
300006c8:	1afffff5 	bne	300006a4 <shell+0x1c>
300006cc:	e28d3020 	add	r3, sp, #32	; 0x20
300006d0:	e0832005 	add	r2, r3, r5
300006d4:	e3a03000 	mov	r3, #0	; 0x0
300006d8:	e5423020 	strb	r3, [r2, #-32]
300006dc:	e59f0010 	ldr	r0, [pc, #16]	; 300006f4 <.text+0x6f4>
300006e0:	eb0008b2 	bl	300029b0 <printk>
300006e4:	e1a00006 	mov	r0, r6
300006e8:	ebffffbe 	bl	300005e8 <run_commond>
300006ec:	eaffffe8 	b	30000694 <shell+0xc>
300006f0:	30004538 	andcc	r4, r0, r8, lsr r5
300006f4:	30004a00 	andcc	r4, r0, r0, lsl #20

300006f8 <init>:
300006f8:	e92d4030 	stmdb	sp!, {r4, r5, lr}
300006fc:	e3a05456 	mov	r5, #1442840576	; 0x56000000
30000700:	e3a040ff 	mov	r4, #255	; 0xff
30000704:	e24dd004 	sub	sp, sp, #4	; 0x4
30000708:	ebffff01 	bl	30000314 <key_init>
3000070c:	eb000233 	bl	30000fe0 <uart0_init>
30000710:	ebfffec2 	bl	30000220 <led_init>
30000714:	eb000212 	bl	30000f64 <lcd_init>
30000718:	eb00001e 	bl	30000798 <task_init>
3000071c:	eb00061c 	bl	30001f94 <sdi_init>
30000720:	ebfffee9 	bl	300002cc <timer0_init>
30000724:	e3a01003 	mov	r1, #3	; 0x3
30000728:	e59f0054 	ldr	r0, [pc, #84]	; 30000784 <.text+0x784>
3000072c:	eb00005d 	bl	300008a8 <do_fork>
30000730:	e59f0050 	ldr	r0, [pc, #80]	; 30000788 <.text+0x788>
30000734:	eb000249 	bl	30001060 <puts>
30000738:	e3a0000a 	mov	r0, #10	; 0xa
3000073c:	e3a02032 	mov	r2, #50	; 0x32
30000740:	e3e0c010 	mvn	ip, #16	; 0x10
30000744:	e585c054 	str	ip, [r5, #84]
30000748:	e1a01000 	mov	r1, r0
3000074c:	e1a03002 	mov	r3, r2
30000750:	e58d4000 	str	r4, [sp]
30000754:	eb0001ec 	bl	30000f0c <draw_rect>
30000758:	ebfffebd 	bl	30000254 <delay>
3000075c:	e3a0000a 	mov	r0, #10	; 0xa
30000760:	e3a02032 	mov	r2, #50	; 0x32
30000764:	e3e0c4ff 	mvn	ip, #-16777216	; 0xff000000
30000768:	e1a01000 	mov	r1, r0
3000076c:	e1a03002 	mov	r3, r2
30000770:	e5854054 	str	r4, [r5, #84]
30000774:	e58dc000 	str	ip, [sp]
30000778:	eb0001e3 	bl	30000f0c <draw_rect>
3000077c:	ebfffeb4 	bl	30000254 <delay>
30000780:	eaffffec 	b	30000738 <init+0x40>
30000784:	30000688 	andcc	r0, r0, r8, lsl #13
30000788:	3000454c 	andcc	r4, r0, ip, asr #10

3000078c <get_current>:
3000078c:	e3cd0eff 	bic	r0, sp, #4080	; 0xff0
30000790:	e3c0000f 	bic	r0, r0, #15	; 0xf
30000794:	e1a0f00e 	mov	pc, lr

30000798 <task_init>:
30000798:	e52de004 	str	lr, [sp, #-4]!
3000079c:	ebfffffa 	bl	3000078c <get_current>
300007a0:	e2800f43 	add	r0, r0, #268	; 0x10c
300007a4:	e49de004 	ldr	lr, [sp], #4
300007a8:	ea0001f5 	b	30000f84 <list_init>

300007ac <enable_irq>:
300007ac:	e52d4004 	str	r4, [sp, #-4]!
300007b0:	e10f4000 	mrs	r4, CPSR
300007b4:	e3c44080 	bic	r4, r4, #128	; 0x80
300007b8:	e129f004 	msr	CPSR_fc, r4
300007bc:	e8bd0010 	ldmia	sp!, {r4}
300007c0:	e1a0f00e 	mov	pc, lr

300007c4 <disable_irq>:
300007c4:	e52d4004 	str	r4, [sp, #-4]!
300007c8:	e10f4000 	mrs	r4, CPSR
300007cc:	e3844080 	orr	r4, r4, #128	; 0x80
300007d0:	e129f004 	msr	CPSR_fc, r4
300007d4:	e8bd0010 	ldmia	sp!, {r4}
300007d8:	e1a0f00e 	mov	pc, lr

300007dc <__common_schedule>:
300007dc:	e52de004 	str	lr, [sp, #-4]!
300007e0:	ebffffe9 	bl	3000078c <get_current>
300007e4:	e5903008 	ldr	r3, [r0, #8]
300007e8:	e3530000 	cmp	r3, #0	; 0x0
300007ec:	159f3010 	ldrne	r3, [pc, #16]	; 30000804 <.text+0x804>
300007f0:	05903110 	ldreq	r3, [r0, #272]
300007f4:	15932000 	ldrne	r2, [r3]
300007f8:	02430f43 	subeq	r0, r3, #268	; 0x10c
300007fc:	12420f43 	subne	r0, r2, #268	; 0x10c
30000800:	e49df004 	ldr	pc, [sp], #4
30000804:	30009c24 	andcc	r9, r0, r4, lsr #24

30000808 <switch_to>:
30000808:	e1a0f00e 	mov	pc, lr

3000080c <schedule>:
3000080c:	e1a0f00e 	mov	pc, lr

30000810 <wake_up>:
30000810:	e92d4030 	stmdb	sp!, {r4, r5, lr}
30000814:	e1a04000 	mov	r4, r0
30000818:	ebffffe9 	bl	300007c4 <disable_irq>
3000081c:	e5945004 	ldr	r5, [r4, #4]
30000820:	e3a03000 	mov	r3, #0	; 0x0
30000824:	e5053104 	str	r3, [r5, #-260]
30000828:	ebffffd7 	bl	3000078c <get_current>
3000082c:	e2801f43 	add	r1, r0, #268	; 0x10c
30000830:	e1a00005 	mov	r0, r5
30000834:	eb0001e4 	bl	30000fcc <list_add>
30000838:	e8bd4030 	ldmia	sp!, {r4, r5, lr}
3000083c:	eaffffda 	b	300007ac <enable_irq>

30000840 <sleep_on>:
30000840:	e92d4030 	stmdb	sp!, {r4, r5, lr}
30000844:	e1a05000 	mov	r5, r0
30000848:	ebffffcf 	bl	3000078c <get_current>
3000084c:	e3a03001 	mov	r3, #1	; 0x1
30000850:	e5902110 	ldr	r2, [r0, #272]
30000854:	e5803008 	str	r3, [r0, #8]
30000858:	e59f3024 	ldr	r3, [pc, #36]	; 30000884 <.text+0x884>
3000085c:	e2804f43 	add	r4, r0, #268	; 0x10c
30000860:	e5832000 	str	r2, [r3]
30000864:	ebffffd6 	bl	300007c4 <disable_irq>
30000868:	e1a00004 	mov	r0, r4
3000086c:	eb0001ca 	bl	30000f9c <list_del>
30000870:	e1a00004 	mov	r0, r4
30000874:	e1a01005 	mov	r1, r5
30000878:	eb0001d3 	bl	30000fcc <list_add>
3000087c:	e8bd4030 	ldmia	sp!, {r4, r5, lr}
30000880:	eaffffc9 	b	300007ac <enable_irq>
30000884:	30009c24 	andcc	r9, r0, r4, lsr #24

30000888 <get_task_struct_addr>:
30000888:	e59f300c 	ldr	r3, [pc, #12]	; 3000089c <.text+0x89c>
3000088c:	e5930000 	ldr	r0, [r3]
30000890:	e2802a01 	add	r2, r0, #4096	; 0x1000
30000894:	e5832000 	str	r2, [r3]
30000898:	e1a0f00e 	mov	pc, lr
3000089c:	30004b08 	andcc	r4, r0, r8, lsl #22

300008a0 <get_cpsr>:
300008a0:	e10f0000 	mrs	r0, CPSR
300008a4:	e1a0f00e 	mov	pc, lr

300008a8 <do_fork>:
300008a8:	e92d40f0 	stmdb	sp!, {r4, r5, r6, r7, lr}
300008ac:	e1a07001 	mov	r7, r1
300008b0:	e1a04000 	mov	r4, r0
300008b4:	ebfffff3 	bl	30000888 <get_task_struct_addr>
300008b8:	e3a06000 	mov	r6, #0	; 0x0
300008bc:	e2505000 	subs	r5, r0, #0	; 0x0
300008c0:	e3a02f45 	mov	r2, #276	; 0x114
300008c4:	e1a01006 	mov	r1, r6
300008c8:	e3e03000 	mvn	r3, #0	; 0x0
300008cc:	0a00001a 	beq	3000093c <do_fork+0x94>
300008d0:	eb000963 	bl	30002e64 <memset>
300008d4:	e2853eff 	add	r3, r5, #4080	; 0xff0
300008d8:	e283300c 	add	r3, r3, #12	; 0xc
300008dc:	e2432004 	sub	r2, r3, #4	; 0x4
300008e0:	e5852000 	str	r2, [r5]
300008e4:	e5854ffc 	str	r4, [r5, #4092]
300008e8:	e5036004 	str	r6, [r3, #-4]
300008ec:	e5952000 	ldr	r2, [r5]
300008f0:	e2423034 	sub	r3, r2, #52	; 0x34
300008f4:	e5853000 	str	r3, [r5]
300008f8:	e5027034 	str	r7, [r2, #-52]
300008fc:	e5954000 	ldr	r4, [r5]
30000900:	e2443004 	sub	r3, r4, #4	; 0x4
30000904:	e5853000 	str	r3, [r5]
30000908:	ebffffe4 	bl	300008a0 <get_cpsr>
3000090c:	e200001f 	and	r0, r0, #31	; 0x1f
30000910:	e5040004 	str	r0, [r4, #-4]
30000914:	e5856008 	str	r6, [r5, #8]
30000918:	ebffff9b 	bl	3000078c <get_current>
3000091c:	e5806008 	str	r6, [r0, #8]
30000920:	ebffffa7 	bl	300007c4 <disable_irq>
30000924:	ebffff98 	bl	3000078c <get_current>
30000928:	e2801f43 	add	r1, r0, #268	; 0x10c
3000092c:	e2850f43 	add	r0, r5, #268	; 0x10c
30000930:	eb0001a7 	bl	30000fd4 <list_add_tail>
30000934:	ebffff9c 	bl	300007ac <enable_irq>
30000938:	e1a03006 	mov	r3, r6
3000093c:	e1a00003 	mov	r0, r3
30000940:	e8bd80f0 	ldmia	sp!, {r4, r5, r6, r7, pc}

30000944 <exec>:
30000944:	e92d4030 	stmdb	sp!, {r4, r5, lr}
30000948:	e1a04000 	mov	r4, r0
3000094c:	eb000006 	bl	3000096c <get_free_page>
30000950:	e1a05000 	mov	r5, r0
30000954:	e1a01005 	mov	r1, r5
30000958:	e1a00004 	mov	r0, r4
3000095c:	e3a02a01 	mov	r2, #4096	; 0x1000
30000960:	eb0000a5 	bl	30000bfc <nand_read>
30000964:	e1a00005 	mov	r0, r5
30000968:	e8bd8030 	ldmia	sp!, {r4, r5, pc}

3000096c <get_free_page>:
3000096c:	e3a01dff 	mov	r1, #16320	; 0x3fc0
30000970:	e59fc03c 	ldr	ip, [pc, #60]	; 300009b4 <.text+0x9b4>
30000974:	e281103f 	add	r1, r1, #63	; 0x3f
30000978:	e3a02000 	mov	r2, #0	; 0x0
3000097c:	e3a00432 	mov	r0, #838860800	; 0x32000000
30000980:	ea000003 	b	30000994 <get_free_page+0x28>
30000984:	e2822001 	add	r2, r2, #1	; 0x1
30000988:	e1520001 	cmp	r2, r1
3000098c:	e2800a01 	add	r0, r0, #4096	; 0x1000
30000990:	ca000005 	bgt	300009ac <get_free_page+0x40>
30000994:	e7dc3002 	ldrb	r3, [ip, r2]
30000998:	e3530000 	cmp	r3, #0	; 0x0
3000099c:	1afffff8 	bne	30000984 <get_free_page+0x18>
300009a0:	e2833001 	add	r3, r3, #1	; 0x1
300009a4:	e7cc3002 	strb	r3, [ip, r2]
300009a8:	e1a0f00e 	mov	pc, lr
300009ac:	e3e00000 	mvn	r0, #0	; 0x0
300009b0:	e1a0f00e 	mov	pc, lr
300009b4:	30004c1c 	andcc	r4, r0, ip, lsl ip

300009b8 <free_page>:
300009b8:	e1a03fc0 	mov	r3, r0, asr #31
300009bc:	e59f201c 	ldr	r2, [pc, #28]	; 300009e0 <.text+0x9e0>
300009c0:	e0800a23 	add	r0, r0, r3, lsr #20
300009c4:	e1a00640 	mov	r0, r0, asr #12
300009c8:	e7d23000 	ldrb	r3, [r2, r0]
300009cc:	e3530000 	cmp	r3, #0	; 0x0
300009d0:	13a03000 	movne	r3, #0	; 0x0
300009d4:	17c23000 	strneb	r3, [r2, r0]
300009d8:	e3a00000 	mov	r0, #0	; 0x0
300009dc:	e1a0f00e 	mov	pc, lr
300009e0:	30004c1c 	andcc	r4, r0, ip, lsl ip

300009e4 <isBootFromNorFlash>:
300009e4:	e59f2020 	ldr	r2, [pc, #32]	; 30000a0c <.text+0xa0c>
300009e8:	e3a01000 	mov	r1, #0	; 0x0
300009ec:	e591c000 	ldr	ip, [r1]
300009f0:	e5812000 	str	r2, [r1]
300009f4:	e1a00001 	mov	r0, r1
300009f8:	e5913000 	ldr	r3, [r1]
300009fc:	e1530002 	cmp	r3, r2
30000a00:	13a00001 	movne	r0, #1	; 0x1
30000a04:	0581c000 	streq	ip, [r1]
30000a08:	e1a0f00e 	mov	pc, lr
30000a0c:	12345678 	eornes	r5, r4, #125829120	; 0x7800000

30000a10 <clear_bss>:
30000a10:	e59f301c 	ldr	r3, [pc, #28]	; 30000a34 <.text+0xa34>
30000a14:	e59f101c 	ldr	r1, [pc, #28]	; 30000a38 <.text+0xa38>
30000a18:	e1530001 	cmp	r3, r1
30000a1c:	21a0f00e 	movcs	pc, lr
30000a20:	e3a02000 	mov	r2, #0	; 0x0
30000a24:	e4832004 	str	r2, [r3], #4
30000a28:	e1530001 	cmp	r3, r1
30000a2c:	3afffffc 	bcc	30000a24 <clear_bss+0x14>
30000a30:	e1a0f00e 	mov	pc, lr
30000a34:	30004c1c 	andcc	r4, r0, ip, lsl ip
30000a38:	3000a0e8 	andcc	sl, r0, r8, ror #1

30000a3c <nand_init>:
30000a3c:	e3a0344e 	mov	r3, #1308622848	; 0x4e000000
30000a40:	e3a02c01 	mov	r2, #256	; 0x100
30000a44:	e3a01013 	mov	r1, #19	; 0x13
30000a48:	e5832000 	str	r2, [r3]
30000a4c:	e5831004 	str	r1, [r3, #4]
30000a50:	e1a0f00e 	mov	pc, lr

30000a54 <nand_select>:
30000a54:	e3a0244e 	mov	r2, #1308622848	; 0x4e000000
30000a58:	e5923004 	ldr	r3, [r2, #4]
30000a5c:	e3c33002 	bic	r3, r3, #2	; 0x2
30000a60:	e5823004 	str	r3, [r2, #4]
30000a64:	e1a0f00e 	mov	pc, lr

30000a68 <nand_deselect>:
30000a68:	e3a0244e 	mov	r2, #1308622848	; 0x4e000000
30000a6c:	e5923004 	ldr	r3, [r2, #4]
30000a70:	e3833002 	orr	r3, r3, #2	; 0x2
30000a74:	e5823004 	str	r3, [r2, #4]
30000a78:	e1a0f00e 	mov	pc, lr

30000a7c <nand_cmd>:
30000a7c:	e24dd004 	sub	sp, sp, #4	; 0x4
30000a80:	e3a0344e 	mov	r3, #1308622848	; 0x4e000000
30000a84:	e20000ff 	and	r0, r0, #255	; 0xff
30000a88:	e3a02000 	mov	r2, #0	; 0x0
30000a8c:	e5c30008 	strb	r0, [r3, #8]
30000a90:	e58d2000 	str	r2, [sp]
30000a94:	e59d3000 	ldr	r3, [sp]
30000a98:	e3530009 	cmp	r3, #9	; 0x9
30000a9c:	ca000005 	bgt	30000ab8 <nand_cmd+0x3c>
30000aa0:	e59d3000 	ldr	r3, [sp]
30000aa4:	e2833001 	add	r3, r3, #1	; 0x1
30000aa8:	e58d3000 	str	r3, [sp]
30000aac:	e59d2000 	ldr	r2, [sp]
30000ab0:	e3520009 	cmp	r2, #9	; 0x9
30000ab4:	dafffff9 	ble	30000aa0 <nand_cmd+0x24>
30000ab8:	e28dd004 	add	sp, sp, #4	; 0x4
30000abc:	e1a0f00e 	mov	pc, lr

30000ac0 <nand_addr>:
30000ac0:	e1a01a80 	mov	r1, r0, lsl #21
30000ac4:	e3a0344e 	mov	r3, #1308622848	; 0x4e000000
30000ac8:	e1a01aa1 	mov	r1, r1, lsr #21
30000acc:	e5c3100c 	strb	r1, [r3, #12]
30000ad0:	e24dd004 	sub	sp, sp, #4	; 0x4
30000ad4:	e1a005a0 	mov	r0, r0, lsr #11
30000ad8:	e28334b2 	add	r3, r3, #-1308622848	; 0xb2000000
30000adc:	ea000001 	b	30000ae8 <nand_addr+0x28>
30000ae0:	e59d3000 	ldr	r3, [sp]
30000ae4:	e2833001 	add	r3, r3, #1	; 0x1
30000ae8:	e58d3000 	str	r3, [sp]
30000aec:	e59d2000 	ldr	r2, [sp]
30000af0:	e3520009 	cmp	r2, #9	; 0x9
30000af4:	dafffff9 	ble	30000ae0 <nand_addr+0x20>
30000af8:	e3a0344e 	mov	r3, #1308622848	; 0x4e000000
30000afc:	e1a01421 	mov	r1, r1, lsr #8
30000b00:	e3a02000 	mov	r2, #0	; 0x0
30000b04:	e5c3100c 	strb	r1, [r3, #12]
30000b08:	e58d2000 	str	r2, [sp]
30000b0c:	e59d3000 	ldr	r3, [sp]
30000b10:	e3530009 	cmp	r3, #9	; 0x9
30000b14:	ca000005 	bgt	30000b30 <nand_addr+0x70>
30000b18:	e59d3000 	ldr	r3, [sp]
30000b1c:	e2833001 	add	r3, r3, #1	; 0x1
30000b20:	e58d3000 	str	r3, [sp]
30000b24:	e59d2000 	ldr	r2, [sp]
30000b28:	e3520009 	cmp	r2, #9	; 0x9
30000b2c:	dafffff9 	ble	30000b18 <nand_addr+0x58>
30000b30:	e3a0344e 	mov	r3, #1308622848	; 0x4e000000
30000b34:	e3a02000 	mov	r2, #0	; 0x0
30000b38:	e5c3000c 	strb	r0, [r3, #12]
30000b3c:	e58d2000 	str	r2, [sp]
30000b40:	e59d3000 	ldr	r3, [sp]
30000b44:	e3530009 	cmp	r3, #9	; 0x9
30000b48:	ca000005 	bgt	30000b64 <nand_addr+0xa4>
30000b4c:	e59d3000 	ldr	r3, [sp]
30000b50:	e2833001 	add	r3, r3, #1	; 0x1
30000b54:	e58d3000 	str	r3, [sp]
30000b58:	e59d2000 	ldr	r2, [sp]
30000b5c:	e3520009 	cmp	r2, #9	; 0x9
30000b60:	dafffff9 	ble	30000b4c <nand_addr+0x8c>
30000b64:	e3a0344e 	mov	r3, #1308622848	; 0x4e000000
30000b68:	e1a01420 	mov	r1, r0, lsr #8
30000b6c:	e3a02000 	mov	r2, #0	; 0x0
30000b70:	e5c3100c 	strb	r1, [r3, #12]
30000b74:	e58d2000 	str	r2, [sp]
30000b78:	e59d3000 	ldr	r3, [sp]
30000b7c:	e3530009 	cmp	r3, #9	; 0x9
30000b80:	ca000005 	bgt	30000b9c <nand_addr+0xdc>
30000b84:	e59d3000 	ldr	r3, [sp]
30000b88:	e2833001 	add	r3, r3, #1	; 0x1
30000b8c:	e58d3000 	str	r3, [sp]
30000b90:	e59d2000 	ldr	r2, [sp]
30000b94:	e3520009 	cmp	r2, #9	; 0x9
30000b98:	dafffff9 	ble	30000b84 <nand_addr+0xc4>
30000b9c:	e3a0344e 	mov	r3, #1308622848	; 0x4e000000
30000ba0:	e1a01820 	mov	r1, r0, lsr #16
30000ba4:	e3a02000 	mov	r2, #0	; 0x0
30000ba8:	e5c3100c 	strb	r1, [r3, #12]
30000bac:	e58d2000 	str	r2, [sp]
30000bb0:	e59d3000 	ldr	r3, [sp]
30000bb4:	e3530009 	cmp	r3, #9	; 0x9
30000bb8:	ca000005 	bgt	30000bd4 <nand_addr+0x114>
30000bbc:	e59d3000 	ldr	r3, [sp]
30000bc0:	e2833001 	add	r3, r3, #1	; 0x1
30000bc4:	e58d3000 	str	r3, [sp]
30000bc8:	e59d2000 	ldr	r2, [sp]
30000bcc:	e3520009 	cmp	r2, #9	; 0x9
30000bd0:	dafffff9 	ble	30000bbc <nand_addr+0xfc>
30000bd4:	e28dd004 	add	sp, sp, #4	; 0x4
30000bd8:	e1a0f00e 	mov	pc, lr

30000bdc <nand_wait_ready>:
30000bdc:	e3a0244e 	mov	r2, #1308622848	; 0x4e000000
30000be0:	e5d23020 	ldrb	r3, [r2, #32]
30000be4:	e3130001 	tst	r3, #1	; 0x1
30000be8:	0afffffc 	beq	30000be0 <nand_wait_ready+0x4>
30000bec:	e1a0f00e 	mov	pc, lr

30000bf0 <nand_data>:
30000bf0:	e3a0344e 	mov	r3, #1308622848	; 0x4e000000
30000bf4:	e5d30010 	ldrb	r0, [r3, #16]
30000bf8:	e1a0f00e 	mov	pc, lr

30000bfc <nand_read>:
30000bfc:	e92d45f0 	stmdb	sp!, {r4, r5, r6, r7, r8, sl, lr}
30000c00:	e1a06000 	mov	r6, r0
30000c04:	e1a07002 	mov	r7, r2
30000c08:	e3a05000 	mov	r5, #0	; 0x0
30000c0c:	e1a0a001 	mov	sl, r1
30000c10:	e1a04a86 	mov	r4, r6, lsl #21
30000c14:	ebffff8e 	bl	30000a54 <nand_select>
30000c18:	e1550007 	cmp	r5, r7
30000c1c:	e1a04aa4 	mov	r4, r4, lsr #21
30000c20:	2a00001f 	bcs	30000ca4 <nand_read+0xa8>
30000c24:	e3a00000 	mov	r0, #0	; 0x0
30000c28:	ebffff93 	bl	30000a7c <nand_cmd>
30000c2c:	e1a00006 	mov	r0, r6
30000c30:	ebffffa2 	bl	30000ac0 <nand_addr>
30000c34:	e3a00030 	mov	r0, #48	; 0x30
30000c38:	ebffff8f 	bl	30000a7c <nand_cmd>
30000c3c:	ebffffe6 	bl	30000bdc <nand_wait_ready>
30000c40:	e3a02e7f 	mov	r2, #2032	; 0x7f0
30000c44:	e282200f 	add	r2, r2, #15	; 0xf
30000c48:	e1540002 	cmp	r4, r2
30000c4c:	c3a03000 	movgt	r3, #0	; 0x0
30000c50:	d3a03001 	movle	r3, #1	; 0x1
30000c54:	e1550007 	cmp	r5, r7
30000c58:	23a03000 	movcs	r3, #0	; 0x0
30000c5c:	e3530000 	cmp	r3, #0	; 0x0
30000c60:	0a00000c 	beq	30000c98 <nand_read+0x9c>
30000c64:	e1a08002 	mov	r8, r2
30000c68:	ebffffe0 	bl	30000bf0 <nand_data>
30000c6c:	e2844001 	add	r4, r4, #1	; 0x1
30000c70:	e7ca0005 	strb	r0, [sl, r5]
30000c74:	e2855001 	add	r5, r5, #1	; 0x1
30000c78:	e1540008 	cmp	r4, r8
30000c7c:	c3a03000 	movgt	r3, #0	; 0x0
30000c80:	d3a03001 	movle	r3, #1	; 0x1
30000c84:	e1550007 	cmp	r5, r7
30000c88:	23a03000 	movcs	r3, #0	; 0x0
30000c8c:	e3530000 	cmp	r3, #0	; 0x0
30000c90:	e2866001 	add	r6, r6, #1	; 0x1
30000c94:	1afffff3 	bne	30000c68 <nand_read+0x6c>
30000c98:	e1550007 	cmp	r5, r7
30000c9c:	e3a04000 	mov	r4, #0	; 0x0
30000ca0:	3affffdf 	bcc	30000c24 <nand_read+0x28>
30000ca4:	e8bd45f0 	ldmia	sp!, {r4, r5, r6, r7, r8, sl, lr}
30000ca8:	eaffff6e 	b	30000a68 <nand_deselect>

30000cac <copy_code_to_sdram>:
30000cac:	e92d4070 	stmdb	sp!, {r4, r5, r6, lr}
30000cb0:	e1a04002 	mov	r4, r2
30000cb4:	e1a05000 	mov	r5, r0
30000cb8:	e1a06001 	mov	r6, r1
30000cbc:	ebffff48 	bl	300009e4 <isBootFromNorFlash>
30000cc0:	e3500000 	cmp	r0, #0	; 0x0
30000cc4:	e3a02000 	mov	r2, #0	; 0x0
30000cc8:	0a000007 	beq	30000cec <copy_code_to_sdram+0x40>
30000ccc:	e1520004 	cmp	r2, r4
30000cd0:	28bd8070 	ldmcsia	sp!, {r4, r5, r6, pc}
30000cd4:	e7d53002 	ldrb	r3, [r5, r2]
30000cd8:	e7c63002 	strb	r3, [r6, r2]
30000cdc:	e2822001 	add	r2, r2, #1	; 0x1
30000ce0:	e1520004 	cmp	r2, r4
30000ce4:	3afffffa 	bcc	30000cd4 <copy_code_to_sdram+0x28>
30000ce8:	e8bd8070 	ldmia	sp!, {r4, r5, r6, pc}
30000cec:	e1a00005 	mov	r0, r5
30000cf0:	e1a01006 	mov	r1, r6
30000cf4:	e1a02004 	mov	r2, r4
30000cf8:	e8bd4070 	ldmia	sp!, {r4, r5, r6, lr}
30000cfc:	eaffffbe 	b	30000bfc <nand_read>

30000d00 <lcd_port_init>:
30000d00:	e3a02caa 	mov	r2, #43520	; 0xaa00
30000d04:	e28220aa 	add	r2, r2, #170	; 0xaa
30000d08:	e3a01456 	mov	r1, #1442840576	; 0x56000000
30000d0c:	e1822802 	orr	r2, r2, r2, lsl #16
30000d10:	e3e03000 	mvn	r3, #0	; 0x0
30000d14:	e5813028 	str	r3, [r1, #40]
30000d18:	e5812020 	str	r2, [r1, #32]
30000d1c:	e5813038 	str	r3, [r1, #56]
30000d20:	e5812030 	str	r2, [r1, #48]
30000d24:	e5913010 	ldr	r3, [r1, #16]
30000d28:	e3c33003 	bic	r3, r3, #3	; 0x3
30000d2c:	e5813010 	str	r3, [r1, #16]
30000d30:	e5912010 	ldr	r2, [r1, #16]
30000d34:	e3822001 	orr	r2, r2, #1	; 0x1
30000d38:	e5812010 	str	r2, [r1, #16]
30000d3c:	e5913014 	ldr	r3, [r1, #20]
30000d40:	e3c33001 	bic	r3, r3, #1	; 0x1
30000d44:	e5813014 	str	r3, [r1, #20]
30000d48:	e1a0f00e 	mov	pc, lr

30000d4c <lcd_controler_init>:
30000d4c:	e92d4010 	stmdb	sp!, {r4, lr}
30000d50:	e3a02505 	mov	r2, #20971520	; 0x1400000
30000d54:	e3a01a9d 	mov	r1, #643072	; 0x9d000
30000d58:	e282290f 	add	r2, r2, #245760	; 0x3c000
30000d5c:	e3a00e47 	mov	r0, #1136	; 0x470
30000d60:	e3a0344d 	mov	r3, #1291845632	; 0x4d000000
30000d64:	e2822049 	add	r2, r2, #73	; 0x49
30000d68:	e2811c0f 	add	r1, r1, #3840	; 0xf00
30000d6c:	e2800008 	add	r0, r0, #8	; 0x8
30000d70:	e2811001 	add	r1, r1, #1	; 0x1
30000d74:	e3a0cc0b 	mov	ip, #2816	; 0xb00
30000d78:	e5830000 	str	r0, [r3]
30000d7c:	e3a0e306 	mov	lr, #402653184	; 0x18000000
30000d80:	e3a04b7f 	mov	r4, #130048	; 0x1fc00
30000d84:	e28cc002 	add	ip, ip, #2	; 0x2
30000d88:	e28ee602 	add	lr, lr, #2097152	; 0x200000
30000d8c:	e5832004 	str	r2, [r3, #4]
30000d90:	e3a02028 	mov	r2, #40	; 0x28
30000d94:	e2844c02 	add	r4, r4, #512	; 0x200
30000d98:	e5831008 	str	r1, [r3, #8]
30000d9c:	e3a01000 	mov	r1, #0	; 0x0
30000da0:	e583200c 	str	r2, [r3, #12]
30000da4:	e2822f6e 	add	r2, r2, #440	; 0x1b8
30000da8:	e583c010 	str	ip, [r3, #16]
30000dac:	e583e014 	str	lr, [r3, #20]
30000db0:	e5834018 	str	r4, [r3, #24]
30000db4:	e583201c 	str	r2, [r3, #28]
30000db8:	e5831050 	str	r1, [r3, #80]
30000dbc:	e8bd8010 	ldmia	sp!, {r4, pc}

30000dc0 <lcd_power_enable>:
30000dc0:	e3a01456 	mov	r1, #1442840576	; 0x56000000
30000dc4:	e5913060 	ldr	r3, [r1, #96]
30000dc8:	e3833c03 	orr	r3, r3, #768	; 0x300
30000dcc:	e5813060 	str	r3, [r1, #96]
30000dd0:	e3a0044d 	mov	r0, #1291845632	; 0x4d000000
30000dd4:	e5913068 	ldr	r3, [r1, #104]
30000dd8:	e3833010 	orr	r3, r3, #16	; 0x10
30000ddc:	e5813068 	str	r3, [r1, #104]
30000de0:	e5902010 	ldr	r2, [r0, #16]
30000de4:	e3c22020 	bic	r2, r2, #32	; 0x20
30000de8:	e5802010 	str	r2, [r0, #16]
30000dec:	e5903010 	ldr	r3, [r0, #16]
30000df0:	e3833008 	orr	r3, r3, #8	; 0x8
30000df4:	e5803010 	str	r3, [r0, #16]
30000df8:	e1a0f00e 	mov	pc, lr

30000dfc <lcd_envid_on>:
30000dfc:	e3a0244d 	mov	r2, #1291845632	; 0x4d000000
30000e00:	e5923000 	ldr	r3, [r2]
30000e04:	e3833001 	orr	r3, r3, #1	; 0x1
30000e08:	e5823000 	str	r3, [r2]
30000e0c:	e3a01456 	mov	r1, #1442840576	; 0x56000000
30000e10:	e5913014 	ldr	r3, [r1, #20]
30000e14:	e3833001 	orr	r3, r3, #1	; 0x1
30000e18:	e5813014 	str	r3, [r1, #20]
30000e1c:	e1a0f00e 	mov	pc, lr

30000e20 <lcd_envid_off>:
30000e20:	e3a0144d 	mov	r1, #1291845632	; 0x4d000000
30000e24:	e5913000 	ldr	r3, [r1]
30000e28:	e3c3337f 	bic	r3, r3, #-67108863	; 0xfc000001
30000e2c:	e3c337ff 	bic	r3, r3, #66846720	; 0x3fc0000
30000e30:	e5813000 	str	r3, [r1]
30000e34:	e3a02456 	mov	r2, #1442840576	; 0x56000000
30000e38:	e5923014 	ldr	r3, [r2, #20]
30000e3c:	e3c33001 	bic	r3, r3, #1	; 0x1
30000e40:	e5823014 	str	r3, [r2, #20]
30000e44:	e1a0f00e 	mov	pc, lr

30000e48 <draw_pixel>:
30000e48:	e52de004 	str	lr, [sp, #-4]!
30000e4c:	e59f3044 	ldr	r3, [pc, #68]	; 30000e98 <.text+0xe98>
30000e50:	e593c000 	ldr	ip, [r3]
30000e54:	e02e019c 	mla	lr, ip, r1, r0
30000e58:	e1a032a2 	mov	r3, r2, lsr #5
30000e5c:	e1a0c002 	mov	ip, r2
30000e60:	e1a01422 	mov	r1, r2, lsr #8
30000e64:	e59f2030 	ldr	r2, [pc, #48]	; 30000e9c <.text+0xe9c>
30000e68:	e2033e7e 	and	r3, r3, #2016	; 0x7e0
30000e6c:	e2011b3e 	and	r1, r1, #63488	; 0xf800
30000e70:	e5920000 	ldr	r0, [r2]
30000e74:	e1811003 	orr	r1, r1, r3
30000e78:	e1a03c0c 	mov	r3, ip, lsl #24
30000e7c:	e181cda3 	orr	ip, r1, r3, lsr #27
30000e80:	e1a0e08e 	mov	lr, lr, lsl #1
30000e84:	e1a0244c 	mov	r2, ip, asr #8
30000e88:	e08e3000 	add	r3, lr, r0
30000e8c:	e7cec000 	strb	ip, [lr, r0]
30000e90:	e5c32001 	strb	r2, [r3, #1]
30000e94:	e49df004 	ldr	pc, [sp], #4
30000e98:	30004b10 	andcc	r4, r0, r0, lsl fp
30000e9c:	30004b14 	andcc	r4, r0, r4, lsl fp

30000ea0 <clear_screen>:
30000ea0:	e92d41f0 	stmdb	sp!, {r4, r5, r6, r7, r8, lr}
30000ea4:	e59f8058 	ldr	r8, [pc, #88]	; 30000f04 <.text+0xf04>
30000ea8:	e5983000 	ldr	r3, [r8]
30000eac:	e3a05000 	mov	r5, #0	; 0x0
30000eb0:	e1550003 	cmp	r5, r3
30000eb4:	e1a06000 	mov	r6, r0
30000eb8:	28bd81f0 	ldmcsia	sp!, {r4, r5, r6, r7, r8, pc}
30000ebc:	e59f7044 	ldr	r7, [pc, #68]	; 30000f08 <.text+0xf08>
30000ec0:	e5973000 	ldr	r3, [r7]
30000ec4:	e3a04000 	mov	r4, #0	; 0x0
30000ec8:	e1540003 	cmp	r4, r3
30000ecc:	2a000007 	bcs	30000ef0 <clear_screen+0x50>
30000ed0:	e1a00004 	mov	r0, r4
30000ed4:	e1a01005 	mov	r1, r5
30000ed8:	e1a02006 	mov	r2, r6
30000edc:	ebffffd9 	bl	30000e48 <draw_pixel>
30000ee0:	e2844001 	add	r4, r4, #1	; 0x1
30000ee4:	e5973000 	ldr	r3, [r7]
30000ee8:	e1540003 	cmp	r4, r3
30000eec:	3afffff7 	bcc	30000ed0 <clear_screen+0x30>
30000ef0:	e5983000 	ldr	r3, [r8]
30000ef4:	e2855001 	add	r5, r5, #1	; 0x1
30000ef8:	e1550003 	cmp	r5, r3
30000efc:	3affffef 	bcc	30000ec0 <clear_screen+0x20>
30000f00:	e8bd81f0 	ldmia	sp!, {r4, r5, r6, r7, r8, pc}
30000f04:	30004b0c 	andcc	r4, r0, ip, lsl #22
30000f08:	30004b10 	andcc	r4, r0, r0, lsl fp

30000f0c <draw_rect>:
30000f0c:	e92d45f0 	stmdb	sp!, {r4, r5, r6, r7, r8, sl, lr}
30000f10:	e1510003 	cmp	r1, r3
30000f14:	e1a0a003 	mov	sl, r3
30000f18:	e1a05001 	mov	r5, r1
30000f1c:	e1a08000 	mov	r8, r0
30000f20:	e1a06002 	mov	r6, r2
30000f24:	e59d701c 	ldr	r7, [sp, #28]
30000f28:	28bd85f0 	ldmcsia	sp!, {r4, r5, r6, r7, r8, sl, pc}
30000f2c:	e1a04008 	mov	r4, r8
30000f30:	e1540006 	cmp	r4, r6
30000f34:	2a000006 	bcs	30000f54 <draw_rect+0x48>
30000f38:	e1a00004 	mov	r0, r4
30000f3c:	e1a01005 	mov	r1, r5
30000f40:	e1a02007 	mov	r2, r7
30000f44:	e2844001 	add	r4, r4, #1	; 0x1
30000f48:	ebffffbe 	bl	30000e48 <draw_pixel>
30000f4c:	e1540006 	cmp	r4, r6
30000f50:	3afffff8 	bcc	30000f38 <draw_rect+0x2c>
30000f54:	e2855001 	add	r5, r5, #1	; 0x1
30000f58:	e155000a 	cmp	r5, sl
30000f5c:	3afffff2 	bcc	30000f2c <draw_rect+0x20>
30000f60:	e8bd85f0 	ldmia	sp!, {r4, r5, r6, r7, r8, sl, pc}

30000f64 <lcd_init>:
30000f64:	e52de004 	str	lr, [sp, #-4]!
30000f68:	ebffff64 	bl	30000d00 <lcd_port_init>
30000f6c:	ebffff76 	bl	30000d4c <lcd_controler_init>
30000f70:	ebffff92 	bl	30000dc0 <lcd_power_enable>
30000f74:	e3e004ff 	mvn	r0, #-16777216	; 0xff000000
30000f78:	ebffffc8 	bl	30000ea0 <clear_screen>
30000f7c:	e49de004 	ldr	lr, [sp], #4
30000f80:	eaffff9d 	b	30000dfc <lcd_envid_on>

30000f84 <list_init>:
30000f84:	e5800004 	str	r0, [r0, #4]
30000f88:	e5800000 	str	r0, [r0]
30000f8c:	e1a0f00e 	mov	pc, lr

30000f90 <__list_del>:
30000f90:	e5801004 	str	r1, [r0, #4]
30000f94:	e5810000 	str	r0, [r1]
30000f98:	e1a0f00e 	mov	pc, lr

30000f9c <list_del>:
30000f9c:	e8900003 	ldmia	r0, {r0, r1}
30000fa0:	eafffffa 	b	30000f90 <__list_del>

30000fa4 <list_empty>:
30000fa4:	e5903004 	ldr	r3, [r0, #4]
30000fa8:	e1530000 	cmp	r3, r0
30000fac:	13a00000 	movne	r0, #0	; 0x0
30000fb0:	03a00001 	moveq	r0, #1	; 0x1
30000fb4:	e1a0f00e 	mov	pc, lr

30000fb8 <__list_add>:
30000fb8:	e5802004 	str	r2, [r0, #4]
30000fbc:	e5820000 	str	r0, [r2]
30000fc0:	e5810004 	str	r0, [r1, #4]
30000fc4:	e5801000 	str	r1, [r0]
30000fc8:	e1a0f00e 	mov	pc, lr

30000fcc <list_add>:
30000fcc:	e5912004 	ldr	r2, [r1, #4]
30000fd0:	eafffff8 	b	30000fb8 <__list_add>

30000fd4 <list_add_tail>:
30000fd4:	e1a02001 	mov	r2, r1
30000fd8:	e5911000 	ldr	r1, [r1]
30000fdc:	eafffff5 	b	30000fb8 <__list_add>

30000fe0 <uart0_init>:
30000fe0:	e3a01456 	mov	r1, #1442840576	; 0x56000000
30000fe4:	e5913070 	ldr	r3, [r1, #112]
30000fe8:	e38330a0 	orr	r3, r3, #160	; 0xa0
30000fec:	e5813070 	str	r3, [r1, #112]
30000ff0:	e3a0c205 	mov	ip, #1342177280	; 0x50000000
30000ff4:	e3a0200c 	mov	r2, #12	; 0xc
30000ff8:	e3a03003 	mov	r3, #3	; 0x3
30000ffc:	e3a00000 	mov	r0, #0	; 0x0
30001000:	e5812078 	str	r2, [r1, #120]
30001004:	e242224b 	sub	r2, r2, #-1342177276	; 0xb0000004
30001008:	e3a01005 	mov	r1, #5	; 0x5
3000100c:	e58c3000 	str	r3, [ip]
30001010:	e2833215 	add	r3, r3, #1342177281	; 0x50000001
30001014:	e4831008 	str	r1, [r3], #8
30001018:	e5820000 	str	r0, [r2]
3000101c:	e3a0201a 	mov	r2, #26	; 0x1a
30001020:	e5830000 	str	r0, [r3]
30001024:	e58c2028 	str	r2, [ip, #40]
30001028:	e1a0f00e 	mov	pc, lr

3000102c <putc>:
3000102c:	e20000ff 	and	r0, r0, #255	; 0xff
30001030:	e3a02205 	mov	r2, #1342177280	; 0x50000000
30001034:	e5923010 	ldr	r3, [r2, #16]
30001038:	e3130004 	tst	r3, #4	; 0x4
3000103c:	0afffffc 	beq	30001034 <putc+0x8>
30001040:	e5c20020 	strb	r0, [r2, #32]
30001044:	e1a0f00e 	mov	pc, lr

30001048 <getc>:
30001048:	e3a02205 	mov	r2, #1342177280	; 0x50000000
3000104c:	e5923010 	ldr	r3, [r2, #16]
30001050:	e3130001 	tst	r3, #1	; 0x1
30001054:	0afffffc 	beq	3000104c <getc+0x4>
30001058:	e5d20024 	ldrb	r0, [r2, #36]
3000105c:	e1a0f00e 	mov	pc, lr

30001060 <puts>:
30001060:	e92d4010 	stmdb	sp!, {r4, lr}
30001064:	e1a04000 	mov	r4, r0
30001068:	e5d00000 	ldrb	r0, [r0]
3000106c:	e3500000 	cmp	r0, #0	; 0x0
30001070:	08bd8010 	ldmeqia	sp!, {r4, pc}
30001074:	ebffffec 	bl	3000102c <putc>
30001078:	e5f40001 	ldrb	r0, [r4, #1]!
3000107c:	e3500000 	cmp	r0, #0	; 0x0
30001080:	1afffffb 	bne	30001074 <puts+0x14>
30001084:	e8bd8010 	ldmia	sp!, {r4, pc}

30001088 <gets>:
30001088:	e92d4010 	stmdb	sp!, {r4, lr}
3000108c:	e1a04000 	mov	r4, r0
30001090:	e5d03000 	ldrb	r3, [r0]
30001094:	ea000002 	b	300010a4 <gets+0x1c>
30001098:	ebffffea 	bl	30001048 <getc>
3000109c:	e5c40000 	strb	r0, [r4]
300010a0:	e5f43001 	ldrb	r3, [r4, #1]!
300010a4:	e353000d 	cmp	r3, #13	; 0xd
300010a8:	1afffffa 	bne	30001098 <gets+0x10>
300010ac:	e1a00004 	mov	r0, r4
300010b0:	e8bd8010 	ldmia	sp!, {r4, pc}

300010b4 <bmap>:
300010b4:	e92d4070 	stmdb	sp!, {r4, r5, r6, lr}
300010b8:	e1a04001 	mov	r4, r1
300010bc:	e1a06000 	mov	r6, r0
300010c0:	e3a0102f 	mov	r1, #47	; 0x2f
300010c4:	e1a00004 	mov	r0, r4
300010c8:	eb0006d2 	bl	30002c18 <strchr>
300010cc:	e2505000 	subs	r5, r0, #0	; 0x0
300010d0:	e1a01004 	mov	r1, r4
300010d4:	e1a00006 	mov	r0, r6
300010d8:	e0642005 	rsb	r2, r4, r5
300010dc:	0a000006 	beq	300010fc <bmap+0x48>
300010e0:	e3520080 	cmp	r2, #128	; 0x80
300010e4:	23a02080 	movcs	r2, #128	; 0x80
300010e8:	e1a00006 	mov	r0, r6
300010ec:	e1a01004 	mov	r1, r4
300010f0:	eb000684 	bl	30002b08 <strncpy>
300010f4:	e2850001 	add	r0, r5, #1	; 0x1
300010f8:	e8bd8070 	ldmia	sp!, {r4, r5, r6, pc}
300010fc:	eb00067a 	bl	30002aec <strcpy>
30001100:	e1a00005 	mov	r0, r5
30001104:	e8bd8070 	ldmia	sp!, {r4, r5, r6, pc}

30001108 <romfs_get_daddr>:
30001108:	e92d4030 	stmdb	sp!, {r4, r5, lr}
3000110c:	e1a04000 	mov	r4, r0
30001110:	eb0006cd 	bl	30002c4c <strlen>
30001114:	e1a05000 	mov	r5, r0
30001118:	e59f0024 	ldr	r0, [pc, #36]	; 30001144 <.text+0x1144>
3000111c:	eb000623 	bl	300029b0 <printk>
30001120:	e1a01005 	mov	r1, r5
30001124:	e59f001c 	ldr	r0, [pc, #28]	; 30001148 <.text+0x1148>
30001128:	eb000620 	bl	300029b0 <printk>
3000112c:	e2855010 	add	r5, r5, #16	; 0x10
30001130:	e594303c 	ldr	r3, [r4, #60]
30001134:	e3c5500f 	bic	r5, r5, #15	; 0xf
30001138:	e0855003 	add	r5, r5, r3
3000113c:	e2850010 	add	r0, r5, #16	; 0x10
30001140:	e8bd8030 	ldmia	sp!, {r4, r5, pc}
30001144:	30004568 	andcc	r4, r0, r8, ror #10
30001148:	30004584 	andcc	r4, r0, r4, lsl #11

3000114c <simple_romfs_namei>:
3000114c:	e92d4ff0 	stmdb	sp!, {r4, r5, r6, r7, r8, r9, sl, fp, lr}
30001150:	e1a08002 	mov	r8, r2
30001154:	e1a0b000 	mov	fp, r0
30001158:	e59f0254 	ldr	r0, [pc, #596]	; 300013b4 <.text+0x13b4>
3000115c:	e59f7254 	ldr	r7, [pc, #596]	; 300013b8 <.text+0x13b8>
30001160:	e24ddf41 	sub	sp, sp, #260	; 0x104
30001164:	eb000611 	bl	300029b0 <printk>
30001168:	e5d83000 	ldrb	r3, [r8]
3000116c:	e3530000 	cmp	r3, #0	; 0x0
30001170:	e28d9004 	add	r9, sp, #4	; 0x4
30001174:	e1a02008 	mov	r2, r8
30001178:	e3a0c000 	mov	ip, #0	; 0x0
3000117c:	0a000006 	beq	3000119c <simple_romfs_namei+0x50>
30001180:	e353002f 	cmp	r3, #47	; 0x2f
30001184:	17c9300c 	strneb	r3, [r9, ip]
30001188:	03a0c000 	moveq	ip, #0	; 0x0
3000118c:	128cc001 	addne	ip, ip, #1	; 0x1
30001190:	e5f23001 	ldrb	r3, [r2, #1]!
30001194:	e3530000 	cmp	r3, #0	; 0x0
30001198:	1afffff8 	bne	30001180 <simple_romfs_namei+0x34>
3000119c:	e28da084 	add	sl, sp, #132	; 0x84
300011a0:	e1a01008 	mov	r1, r8
300011a4:	e3a04000 	mov	r4, #0	; 0x0
300011a8:	e1a0000a 	mov	r0, sl
300011ac:	e7c9400c 	strb	r4, [r9, ip]
300011b0:	ebffffbf 	bl	300010b4 <bmap>
300011b4:	e1a0300a 	mov	r3, sl
300011b8:	e1a01000 	mov	r1, r0
300011bc:	e1a02009 	mov	r2, r9
300011c0:	e1a08000 	mov	r8, r0
300011c4:	e59f01f0 	ldr	r0, [pc, #496]	; 300013bc <.text+0x13bc>
300011c8:	eb0005f8 	bl	300029b0 <printk>
300011cc:	e1a01004 	mov	r1, r4
300011d0:	e3a02001 	mov	r2, #1	; 0x1
300011d4:	e59f01e4 	ldr	r0, [pc, #484]	; 300013c0 <.text+0x13c0>
300011d8:	eb00024d 	bl	30001b14 <sd_read_sector>
300011dc:	e59f01e0 	ldr	r0, [pc, #480]	; 300013c4 <.text+0x13c4>
300011e0:	eb000699 	bl	30002c4c <strlen>
300011e4:	e2800020 	add	r0, r0, #32	; 0x20
300011e8:	e3c0000f 	bic	r0, r0, #15	; 0xf
300011ec:	e1a04c00 	mov	r4, r0, lsl #24
300011f0:	e59f01d0 	ldr	r0, [pc, #464]	; 300013c8 <.text+0x13c8>
300011f4:	eb0005ed 	bl	300029b0 <printk>
300011f8:	e2043cff 	and	r3, r4, #65280	; 0xff00
300011fc:	e1a03403 	mov	r3, r3, lsl #8
30001200:	e20428ff 	and	r2, r4, #16711680	; 0xff0000
30001204:	e1833c04 	orr	r3, r3, r4, lsl #24
30001208:	e1833422 	orr	r3, r3, r2, lsr #8
3000120c:	e1833c24 	orr	r3, r3, r4, lsr #24
30001210:	e3c3600f 	bic	r6, r3, #15	; 0xf
30001214:	e1a01006 	mov	r1, r6
30001218:	e1a02006 	mov	r2, r6
3000121c:	e1a03004 	mov	r3, r4
30001220:	e59f01a4 	ldr	r0, [pc, #420]	; 300013cc <.text+0x13cc>
30001224:	e1a054a6 	mov	r5, r6, lsr #9
30001228:	e58d4000 	str	r4, [sp]
3000122c:	eb0005df 	bl	300029b0 <printk>
30001230:	e3560000 	cmp	r6, #0	; 0x0
30001234:	e3a02001 	mov	r2, #1	; 0x1
30001238:	e1a01005 	mov	r1, r5
3000123c:	e1a00007 	mov	r0, r7
30001240:	0a000044 	beq	30001358 <simple_romfs_namei+0x20c>
30001244:	eb000232 	bl	30001b14 <sd_read_sector>
30001248:	e0873006 	add	r3, r7, r6
3000124c:	e1a07003 	mov	r7, r3
30001250:	e7371485 	ldr	r1, [r7, -r5, lsl #9]!
30001254:	e59f0174 	ldr	r0, [pc, #372]	; 300013d0 <.text+0x13d0>
30001258:	eb0005d4 	bl	300029b0 <printk>
3000125c:	e5971004 	ldr	r1, [r7, #4]
30001260:	e59f016c 	ldr	r0, [pc, #364]	; 300013d4 <.text+0x13d4>
30001264:	eb0005d1 	bl	300029b0 <printk>
30001268:	e5971008 	ldr	r1, [r7, #8]
3000126c:	e59f0164 	ldr	r0, [pc, #356]	; 300013d8 <.text+0x13d8>
30001270:	eb0005ce 	bl	300029b0 <printk>
30001274:	e2874010 	add	r4, r7, #16	; 0x10
30001278:	e597100c 	ldr	r1, [r7, #12]
3000127c:	e59f0158 	ldr	r0, [pc, #344]	; 300013dc <.text+0x13dc>
30001280:	eb0005ca 	bl	300029b0 <printk>
30001284:	e1a01004 	mov	r1, r4
30001288:	e59f0150 	ldr	r0, [pc, #336]	; 300013e0 <.text+0x13e0>
3000128c:	eb0005c7 	bl	300029b0 <printk>
30001290:	e1a00004 	mov	r0, r4
30001294:	e1a0100a 	mov	r1, sl
30001298:	eb000640 	bl	30002ba0 <strcmp>
3000129c:	e3500000 	cmp	r0, #0	; 0x0
300012a0:	e1a01009 	mov	r1, r9
300012a4:	e1a0000a 	mov	r0, sl
300012a8:	15974000 	ldrne	r4, [r7]
300012ac:	1affffcf 	bne	300011f0 <simple_romfs_namei+0xa4>
300012b0:	eb00063a 	bl	30002ba0 <strcmp>
300012b4:	e3500000 	cmp	r0, #0	; 0x0
300012b8:	e1a01008 	mov	r1, r8
300012bc:	e1a0000a 	mov	r0, sl
300012c0:	0a000026 	beq	30001360 <simple_romfs_namei+0x214>
300012c4:	ebffff7a 	bl	300010b4 <bmap>
300012c8:	e1a02009 	mov	r2, r9
300012cc:	e1a08000 	mov	r8, r0
300012d0:	e1a01000 	mov	r1, r0
300012d4:	e1a0300a 	mov	r3, sl
300012d8:	e59f00dc 	ldr	r0, [pc, #220]	; 300013bc <.text+0x13bc>
300012dc:	eb0005b3 	bl	300029b0 <printk>
300012e0:	e3580000 	cmp	r8, #0	; 0x0
300012e4:	e5974004 	ldr	r4, [r7, #4]
300012e8:	1affffc0 	bne	300011f0 <simple_romfs_namei+0xa4>
300012ec:	e59f00f0 	ldr	r0, [pc, #240]	; 300013e4 <.text+0x13e4>
300012f0:	eb0005ae 	bl	300029b0 <printk>
300012f4:	ea000009 	b	30001320 <simple_romfs_namei+0x1d4>
300012f8:	eb000205 	bl	30001b14 <sd_read_sector>
300012fc:	e0843007 	add	r3, r4, r7
30001300:	e0834006 	add	r4, r3, r6
30001304:	e284000f 	add	r0, r4, #15	; 0xf
30001308:	e1a0100a 	mov	r1, sl
3000130c:	eb000623 	bl	30002ba0 <strcmp>
30001310:	e3500000 	cmp	r0, #0	; 0x0
30001314:	e2447001 	sub	r7, r4, #1	; 0x1
30001318:	0a000023 	beq	300013ac <simple_romfs_namei+0x260>
3000131c:	e5144001 	ldr	r4, [r4, #-1]
30001320:	e59f00c0 	ldr	r0, [pc, #192]	; 300013e8 <.text+0x13e8>
30001324:	eb0005a1 	bl	300029b0 <printk>
30001328:	e2043cff 	and	r3, r4, #65280	; 0xff00
3000132c:	e1a03403 	mov	r3, r3, lsl #8
30001330:	e20418ff 	and	r1, r4, #16711680	; 0xff0000
30001334:	e1833c04 	orr	r3, r3, r4, lsl #24
30001338:	e1833421 	orr	r3, r3, r1, lsr #8
3000133c:	e1833c24 	orr	r3, r3, r4, lsr #24
30001340:	e3d3600f 	bics	r6, r3, #15	; 0xf
30001344:	e1a044a6 	mov	r4, r6, lsr #9
30001348:	e3a02001 	mov	r2, #1	; 0x1
3000134c:	e1a00007 	mov	r0, r7
30001350:	e1a01004 	mov	r1, r4
30001354:	1affffe7 	bne	300012f8 <simple_romfs_namei+0x1ac>
30001358:	e28ddf41 	add	sp, sp, #260	; 0x104
3000135c:	e8bd8ff0 	ldmia	sp!, {r4, r5, r6, r7, r8, r9, sl, fp, pc}
30001360:	e59f0084 	ldr	r0, [pc, #132]	; 300013ec <.text+0x13ec>
30001364:	eb000591 	bl	300029b0 <printk>
30001368:	e59f0080 	ldr	r0, [pc, #128]	; 300013f0 <.text+0x13f0>
3000136c:	eb00058f 	bl	300029b0 <printk>
30001370:	e1a00004 	mov	r0, r4
30001374:	eb000634 	bl	30002c4c <strlen>
30001378:	e1a01004 	mov	r1, r4
3000137c:	e1a0000b 	mov	r0, fp
30001380:	eb0005d9 	bl	30002aec <strcpy>
30001384:	e5973008 	ldr	r3, [r7, #8]
30001388:	e2032cff 	and	r2, r3, #65280	; 0xff00
3000138c:	e1a02402 	mov	r2, r2, lsl #8
30001390:	e1822c03 	orr	r2, r2, r3, lsl #24
30001394:	e20318ff 	and	r1, r3, #16711680	; 0xff0000
30001398:	e1822421 	orr	r2, r2, r1, lsr #8
3000139c:	e1822c23 	orr	r2, r2, r3, lsr #24
300013a0:	e58b603c 	str	r6, [fp, #60]
300013a4:	e58b2038 	str	r2, [fp, #56]
300013a8:	eaffffea 	b	30001358 <simple_romfs_namei+0x20c>
300013ac:	e284400f 	add	r4, r4, #15	; 0xf
300013b0:	eaffffec 	b	30001368 <simple_romfs_namei+0x21c>
300013b4:	300045a8 	andcc	r4, r0, r8, lsr #11
300013b8:	30009c98 	mulcc	r0, r8, ip
300013bc:	300045c8 	andcc	r4, r0, r8, asr #11
300013c0:	30009c44 	andcc	r9, r0, r4, asr #24
300013c4:	30009c54 	andcc	r9, r0, r4, asr ip
300013c8:	30004600 	andcc	r4, r0, r0, lsl #12
300013cc:	30004628 	andcc	r4, r0, r8, lsr #12
300013d0:	3000465c 	andcc	r4, r0, ip, asr r6
300013d4:	30004684 	andcc	r4, r0, r4, lsl #13
300013d8:	300046ac 	andcc	r4, r0, ip, lsr #13
300013dc:	300046d4 	ldrccd	r4, [r0], -r4
300013e0:	30004700 	andcc	r4, r0, r0, lsl #14
300013e4:	30004728 	andcc	r4, r0, r8, lsr #14
300013e8:	30004750 	andcc	r4, r0, r0, asr r7
300013ec:	30004778 	andcc	r4, r0, r8, ror r7
300013f0:	3000479c 	mulcc	r0, ip, r7

300013f4 <open>:
300013f4:	e92d40f0 	stmdb	sp!, {r4, r5, r6, r7, lr}
300013f8:	e1a06000 	mov	r6, r0
300013fc:	e1a07001 	mov	r7, r1
30001400:	e3e05000 	mvn	r5, #0	; 0x0
30001404:	e3a04000 	mov	r4, #0	; 0x0
30001408:	ea000002 	b	30001418 <open+0x24>
3000140c:	e2844001 	add	r4, r4, #1	; 0x1
30001410:	e354003f 	cmp	r4, #63	; 0x3f
30001414:	ca000005 	bgt	30001430 <open+0x3c>
30001418:	ebfffcdb 	bl	3000078c <get_current>
3000141c:	e0800104 	add	r0, r0, r4, lsl #2
30001420:	e590300c 	ldr	r3, [r0, #12]
30001424:	e3530000 	cmp	r3, #0	; 0x0
30001428:	1afffff7 	bne	3000140c <open+0x18>
3000142c:	e1a05004 	mov	r5, r4
30001430:	e59f4034 	ldr	r4, [pc, #52]	; 3000146c <.text+0x146c>
30001434:	e1a02006 	mov	r2, r6
30001438:	e1a00004 	mov	r0, r4
3000143c:	e3a01000 	mov	r1, #0	; 0x0
30001440:	ebffff41 	bl	3000114c <simple_romfs_namei>
30001444:	ebfffcd0 	bl	3000078c <get_current>
30001448:	e59f2020 	ldr	r2, [pc, #32]	; 30001470 <.text+0x1470>
3000144c:	e0801105 	add	r1, r0, r5, lsl #2
30001450:	e3a03000 	mov	r3, #0	; 0x0
30001454:	e1a00005 	mov	r0, r5
30001458:	e5823004 	str	r3, [r2, #4]
3000145c:	e581200c 	str	r2, [r1, #12]
30001460:	e5824008 	str	r4, [r2, #8]
30001464:	e5827000 	str	r7, [r2]
30001468:	e8bd80f0 	ldmia	sp!, {r4, r5, r6, r7, pc}
3000146c:	30009c54 	andcc	r9, r0, r4, asr ip
30001470:	30009c38 	andcc	r9, r0, r8, lsr ip

30001474 <read>:
30001474:	e92d41f0 	stmdb	sp!, {r4, r5, r6, r7, r8, lr}
30001478:	e1a08001 	mov	r8, r1
3000147c:	e1a04000 	mov	r4, r0
30001480:	ebfffcc1 	bl	3000078c <get_current>
30001484:	e0800104 	add	r0, r0, r4, lsl #2
30001488:	e590300c 	ldr	r3, [r0, #12]
3000148c:	e5937008 	ldr	r7, [r3, #8]
30001490:	e59f0064 	ldr	r0, [pc, #100]	; 300014fc <.text+0x14fc>
30001494:	eb000545 	bl	300029b0 <printk>
30001498:	e1a00007 	mov	r0, r7
3000149c:	ebffff19 	bl	30001108 <romfs_get_daddr>
300014a0:	e1a05000 	mov	r5, r0
300014a4:	e1a01000 	mov	r1, r0
300014a8:	e59f0050 	ldr	r0, [pc, #80]	; 30001500 <.text+0x1500>
300014ac:	eb00053f 	bl	300029b0 <printk>
300014b0:	e5971038 	ldr	r1, [r7, #56]
300014b4:	e59f0048 	ldr	r0, [pc, #72]	; 30001504 <.text+0x1504>
300014b8:	eb00053c 	bl	300029b0 <printk>
300014bc:	e5972038 	ldr	r2, [r7, #56]
300014c0:	e3a045cd 	mov	r4, #859832320	; 0x33400000
300014c4:	e1a064a5 	mov	r6, r5, lsr #9
300014c8:	e2844602 	add	r4, r4, #2097152	; 0x200000
300014cc:	e1a024a2 	mov	r2, r2, lsr #9
300014d0:	e1a01006 	mov	r1, r6
300014d4:	e2822002 	add	r2, r2, #2	; 0x2
300014d8:	e1a00004 	mov	r0, r4
300014dc:	e0855004 	add	r5, r5, r4
300014e0:	eb00018b 	bl	30001b14 <sd_read_sector>
300014e4:	e0451486 	sub	r1, r5, r6, lsl #9
300014e8:	e1a00008 	mov	r0, r8
300014ec:	e5972038 	ldr	r2, [r7, #56]
300014f0:	eb00066c 	bl	30002ea8 <memcpy>
300014f4:	e5970038 	ldr	r0, [r7, #56]
300014f8:	e8bd81f0 	ldmia	sp!, {r4, r5, r6, r7, r8, pc}
300014fc:	300047c0 	andcc	r4, r0, r0, asr #15
30001500:	300047d0 	ldrccd	r4, [r0], -r0
30001504:	300047f0 	strccd	r4, [r0], -r0

30001508 <close>:
30001508:	e92d4030 	stmdb	sp!, {r4, r5, lr}
3000150c:	e1a05000 	mov	r5, r0
30001510:	ebfffc9d 	bl	3000078c <get_current>
30001514:	e1a05105 	mov	r5, r5, lsl #2
30001518:	e0850000 	add	r0, r5, r0
3000151c:	e590300c 	ldr	r3, [r0, #12]
30001520:	e3a04000 	mov	r4, #0	; 0x0
30001524:	e5834008 	str	r4, [r3, #8]
30001528:	ebfffc97 	bl	3000078c <get_current>
3000152c:	e0855000 	add	r5, r5, r0
30001530:	e1a00004 	mov	r0, r4
30001534:	e585400c 	str	r4, [r5, #12]
30001538:	e8bd8030 	ldmia	sp!, {r4, r5, pc}

3000153c <show_dir_entry>:
3000153c:	e92d4070 	stmdb	sp!, {r4, r5, r6, lr}
30001540:	e59f008c 	ldr	r0, [pc, #140]	; 300015d4 <.text+0x15d4>
30001544:	e59f608c 	ldr	r6, [pc, #140]	; 300015d8 <.text+0x15d8>
30001548:	e24ddc01 	sub	sp, sp, #256	; 0x100
3000154c:	eb000517 	bl	300029b0 <printk>
30001550:	e3a01000 	mov	r1, #0	; 0x0
30001554:	e3a02001 	mov	r2, #1	; 0x1
30001558:	e59f007c 	ldr	r0, [pc, #124]	; 300015dc <.text+0x15dc>
3000155c:	eb00016c 	bl	30001b14 <sd_read_sector>
30001560:	e59f0078 	ldr	r0, [pc, #120]	; 300015e0 <.text+0x15e0>
30001564:	eb0005b8 	bl	30002c4c <strlen>
30001568:	e2800020 	add	r0, r0, #32	; 0x20
3000156c:	e3c0000f 	bic	r0, r0, #15	; 0xf
30001570:	e1a0cc00 	mov	ip, r0, lsl #24
30001574:	ea000008 	b	3000159c <show_dir_entry+0x60>
30001578:	eb000165 	bl	30001b14 <sd_read_sector>
3000157c:	e0863004 	add	r3, r6, r4
30001580:	e0436485 	sub	r6, r3, r5, lsl #9
30001584:	e2861010 	add	r1, r6, #16	; 0x10
30001588:	e59f0054 	ldr	r0, [pc, #84]	; 300015e4 <.text+0x15e4>
3000158c:	eb000507 	bl	300029b0 <printk>
30001590:	e59f0050 	ldr	r0, [pc, #80]	; 300015e8 <.text+0x15e8>
30001594:	eb000505 	bl	300029b0 <printk>
30001598:	e596c000 	ldr	ip, [r6]
3000159c:	e20c3cff 	and	r3, ip, #65280	; 0xff00
300015a0:	e1a03403 	mov	r3, r3, lsl #8
300015a4:	e20c18ff 	and	r1, ip, #16711680	; 0xff0000
300015a8:	e1833c0c 	orr	r3, r3, ip, lsl #24
300015ac:	e1833421 	orr	r3, r3, r1, lsr #8
300015b0:	e1833c2c 	orr	r3, r3, ip, lsr #24
300015b4:	e3d3400f 	bics	r4, r3, #15	; 0xf
300015b8:	e1a054a4 	mov	r5, r4, lsr #9
300015bc:	e3a02001 	mov	r2, #1	; 0x1
300015c0:	e1a00006 	mov	r0, r6
300015c4:	e1a01005 	mov	r1, r5
300015c8:	1affffea 	bne	30001578 <show_dir_entry+0x3c>
300015cc:	e28ddc01 	add	sp, sp, #256	; 0x100
300015d0:	e8bd8070 	ldmia	sp!, {r4, r5, r6, pc}
300015d4:	3000480c 	andcc	r4, r0, ip, lsl #16
300015d8:	30009c28 	andcc	r9, r0, r8, lsr #24
300015dc:	30009ca8 	andcc	r9, r0, r8, lsr #25
300015e0:	30009cb8 	strcch	r9, [r0], -r8
300015e4:	30004828 	andcc	r4, r0, r8, lsr #16
300015e8:	30004a00 	andcc	r4, r0, r0, lsl #20

300015ec <SDI_Check_CMD_End>:
300015ec:	e3510000 	cmp	r1, #0	; 0x0
300015f0:	e92d4010 	stmdb	sp!, {r4, lr}
300015f4:	1a00000a 	bne	30001624 <SDI_Check_CMD_End+0x38>
300015f8:	e3a0345a 	mov	r3, #1509949440	; 0x5a000000
300015fc:	e5932010 	ldr	r2, [r3, #16]
30001600:	e3120b02 	tst	r2, #2048	; 0x800
30001604:	0afffffc 	beq	300015fc <SDI_Check_CMD_End+0x10>
30001608:	e3a0345a 	mov	r3, #1509949440	; 0x5a000000
3000160c:	e1a01002 	mov	r1, r2
30001610:	e59f00d0 	ldr	r0, [pc, #208]	; 300016e8 <.text+0x16e8>
30001614:	e5832010 	str	r2, [r3, #16]
30001618:	eb0004e4 	bl	300029b0 <printk>
3000161c:	e3a00001 	mov	r0, #1	; 0x1
30001620:	e8bd8010 	ldmia	sp!, {r4, pc}
30001624:	e3a0145a 	mov	r1, #1509949440	; 0x5a000000
30001628:	e5912010 	ldr	r2, [r1, #16]
3000162c:	e1a03522 	mov	r3, r2, lsr #10
30001630:	e18334a2 	orr	r3, r3, r2, lsr #9
30001634:	e3130001 	tst	r3, #1	; 0x1
30001638:	1a000005 	bne	30001654 <SDI_Check_CMD_End+0x68>
3000163c:	e1a0c001 	mov	ip, r1
30001640:	e59c2010 	ldr	r2, [ip, #16]
30001644:	e1a03522 	mov	r3, r2, lsr #10
30001648:	e18334a2 	orr	r3, r3, r2, lsr #9
3000164c:	e3130001 	tst	r3, #1	; 0x1
30001650:	0afffffa 	beq	30001640 <SDI_Check_CMD_End+0x54>
30001654:	e3500029 	cmp	r0, #41	; 0x29
30001658:	13500009 	cmpne	r0, #9	; 0x9
3000165c:	13a03000 	movne	r3, #0	; 0x0
30001660:	03a03001 	moveq	r3, #1	; 0x1
30001664:	e3500001 	cmp	r0, #1	; 0x1
30001668:	11a04003 	movne	r4, r3
3000166c:	03834001 	orreq	r4, r3, #1	; 0x1
30001670:	e3540000 	cmp	r4, #0	; 0x0
30001674:	0a00000b 	beq	300016a8 <SDI_Check_CMD_End+0xbc>
30001678:	e2023c0f 	and	r3, r2, #3840	; 0xf00
3000167c:	e3530c0a 	cmp	r3, #2560	; 0xa00
30001680:	0a00000f 	beq	300016c4 <SDI_Check_CMD_End+0xd8>
30001684:	e3a0345a 	mov	r3, #1509949440	; 0x5a000000
30001688:	e3120b01 	tst	r2, #1024	; 0x400
3000168c:	e5832010 	str	r2, [r3, #16]
30001690:	0a00000b 	beq	300016c4 <SDI_Check_CMD_End+0xd8>
30001694:	e1a01000 	mov	r1, r0
30001698:	e59f004c 	ldr	r0, [pc, #76]	; 300016ec <.text+0x16ec>
3000169c:	eb0004c3 	bl	300029b0 <printk>
300016a0:	e3a00000 	mov	r0, #0	; 0x0
300016a4:	e8bd8010 	ldmia	sp!, {r4, pc}
300016a8:	e2023c1f 	and	r3, r2, #7936	; 0x1f00
300016ac:	e3530c0a 	cmp	r3, #2560	; 0xa00
300016b0:	0a000003 	beq	300016c4 <SDI_Check_CMD_End+0xd8>
300016b4:	e3a0345a 	mov	r3, #1509949440	; 0x5a000000
300016b8:	e3120b01 	tst	r2, #1024	; 0x400
300016bc:	e5832010 	str	r2, [r3, #16]
300016c0:	1a000003 	bne	300016d4 <SDI_Check_CMD_End+0xe8>
300016c4:	e3a0345a 	mov	r3, #1509949440	; 0x5a000000
300016c8:	e3a00001 	mov	r0, #1	; 0x1
300016cc:	e5832010 	str	r2, [r3, #16]
300016d0:	e8bd8010 	ldmia	sp!, {r4, pc}
300016d4:	e1a01000 	mov	r1, r0
300016d8:	e59f000c 	ldr	r0, [pc, #12]	; 300016ec <.text+0x16ec>
300016dc:	eb0004b3 	bl	300029b0 <printk>
300016e0:	e1a00004 	mov	r0, r4
300016e4:	e8bd8010 	ldmia	sp!, {r4, pc}
300016e8:	300046a4 	andcc	r4, r0, r4, lsr #13
300016ec:	3000484c 	andcc	r4, r0, ip, asr #16

300016f0 <CMD13>:
300016f0:	e3a03fd3 	mov	r3, #844	; 0x34c
300016f4:	e92d4010 	stmdb	sp!, {r4, lr}
300016f8:	e1a02800 	mov	r2, r0, lsl #16
300016fc:	e2833001 	add	r3, r3, #1	; 0x1
30001700:	e3a0445a 	mov	r4, #1509949440	; 0x5a000000
30001704:	e3a01001 	mov	r1, #1	; 0x1
30001708:	e3a0000d 	mov	r0, #13	; 0xd
3000170c:	e5842008 	str	r2, [r4, #8]
30001710:	e584300c 	str	r3, [r4, #12]
30001714:	ebffffb4 	bl	300015ec <SDI_Check_CMD_End>
30001718:	e3500000 	cmp	r0, #0	; 0x0
3000171c:	08bd8010 	ldmeqia	sp!, {r4, pc}
30001720:	e3a02c0a 	mov	r2, #2560	; 0xa00
30001724:	e5842010 	str	r2, [r4, #16]
30001728:	e5943014 	ldr	r3, [r4, #20]
3000172c:	e1a03803 	mov	r3, r3, lsl #16
30001730:	e1a00823 	mov	r0, r3, lsr #16
30001734:	e8bd8010 	ldmia	sp!, {r4, pc}

30001738 <CMD9>:
30001738:	e3a03d1d 	mov	r3, #1856	; 0x740
3000173c:	e92d4030 	stmdb	sp!, {r4, r5, lr}
30001740:	e1a02800 	mov	r2, r0, lsl #16
30001744:	e2833009 	add	r3, r3, #9	; 0x9
30001748:	e3a0445a 	mov	r4, #1509949440	; 0x5a000000
3000174c:	e1a05001 	mov	r5, r1
30001750:	e3a00009 	mov	r0, #9	; 0x9
30001754:	e3a01001 	mov	r1, #1	; 0x1
30001758:	e5842008 	str	r2, [r4, #8]
3000175c:	e584300c 	str	r3, [r4, #12]
30001760:	ebffffa1 	bl	300015ec <SDI_Check_CMD_End>
30001764:	e3500000 	cmp	r0, #0	; 0x0
30001768:	08bd8030 	ldmeqia	sp!, {r4, r5, pc}
3000176c:	e5943014 	ldr	r3, [r4, #20]
30001770:	e5853000 	str	r3, [r5]
30001774:	e3a00001 	mov	r0, #1	; 0x1
30001778:	e5943018 	ldr	r3, [r4, #24]
3000177c:	e5853004 	str	r3, [r5, #4]
30001780:	e594201c 	ldr	r2, [r4, #28]
30001784:	e5852008 	str	r2, [r5, #8]
30001788:	e5943020 	ldr	r3, [r4, #32]
3000178c:	e585300c 	str	r3, [r5, #12]
30001790:	e8bd8030 	ldmia	sp!, {r4, r5, pc}

30001794 <CMD3>:
30001794:	e1a00800 	mov	r0, r0, lsl #16
30001798:	e92d4070 	stmdb	sp!, {r4, r5, r6, lr}
3000179c:	e3a03d0d 	mov	r3, #832	; 0x340
300017a0:	e1a06820 	mov	r6, r0, lsr #16
300017a4:	e2833003 	add	r3, r3, #3	; 0x3
300017a8:	e3a0445a 	mov	r4, #1509949440	; 0x5a000000
300017ac:	e1a02806 	mov	r2, r6, lsl #16
300017b0:	e1a05001 	mov	r5, r1
300017b4:	e3a00003 	mov	r0, #3	; 0x3
300017b8:	e3a01001 	mov	r1, #1	; 0x1
300017bc:	e5842008 	str	r2, [r4, #8]
300017c0:	e584300c 	str	r3, [r4, #12]
300017c4:	ebffff88 	bl	300015ec <SDI_Check_CMD_End>
300017c8:	e3500000 	cmp	r0, #0	; 0x0
300017cc:	08bd8070 	ldmeqia	sp!, {r4, r5, r6, pc}
300017d0:	e3a03c0a 	mov	r3, #2560	; 0xa00
300017d4:	e5843010 	str	r3, [r4, #16]
300017d8:	e3560000 	cmp	r6, #0	; 0x0
300017dc:	12433c0a 	subne	r3, r3, #2560	; 0xa00
300017e0:	13a02001 	movne	r2, #1	; 0x1
300017e4:	05943014 	ldreq	r3, [r4, #20]
300017e8:	01a03823 	moveq	r3, r3, lsr #16
300017ec:	01a02443 	moveq	r2, r3, asr #8
300017f0:	15c53001 	strneb	r3, [r5, #1]
300017f4:	05c53000 	streqb	r3, [r5]
300017f8:	e3a0345a 	mov	r3, #1509949440	; 0x5a000000
300017fc:	15c52000 	strneb	r2, [r5]
30001800:	05c52001 	streqb	r2, [r5, #1]
30001804:	e5932014 	ldr	r2, [r3, #20]
30001808:	e3120001 	tst	r2, #1	; 0x1
3000180c:	13a00000 	movne	r0, #0	; 0x0
30001810:	03a00001 	moveq	r0, #1	; 0x1
30001814:	e8bd8070 	ldmia	sp!, {r4, r5, r6, pc}

30001818 <CMD2>:
30001818:	e3a03d1d 	mov	r3, #1856	; 0x740
3000181c:	e92d4030 	stmdb	sp!, {r4, r5, lr}
30001820:	e2833002 	add	r3, r3, #2	; 0x2
30001824:	e3a0545a 	mov	r5, #1509949440	; 0x5a000000
30001828:	e3a02000 	mov	r2, #0	; 0x0
3000182c:	e1a04000 	mov	r4, r0
30001830:	e3a01001 	mov	r1, #1	; 0x1
30001834:	e3a00002 	mov	r0, #2	; 0x2
30001838:	e5852008 	str	r2, [r5, #8]
3000183c:	e585300c 	str	r3, [r5, #12]
30001840:	ebffff69 	bl	300015ec <SDI_Check_CMD_End>
30001844:	e3500000 	cmp	r0, #0	; 0x0
30001848:	08bd8030 	ldmeqia	sp!, {r4, r5, pc}
3000184c:	e5953014 	ldr	r3, [r5, #20]
30001850:	e1a03c23 	mov	r3, r3, lsr #24
30001854:	e5c43000 	strb	r3, [r4]
30001858:	e3a00001 	mov	r0, #1	; 0x1
3000185c:	e5953014 	ldr	r3, [r5, #20]
30001860:	e1a03823 	mov	r3, r3, lsr #16
30001864:	e5c43001 	strb	r3, [r4, #1]
30001868:	e5952014 	ldr	r2, [r5, #20]
3000186c:	e1a02422 	mov	r2, r2, lsr #8
30001870:	e5c42002 	strb	r2, [r4, #2]
30001874:	e5951014 	ldr	r1, [r5, #20]
30001878:	e5c41003 	strb	r1, [r4, #3]
3000187c:	e5953018 	ldr	r3, [r5, #24]
30001880:	e1a03c23 	mov	r3, r3, lsr #24
30001884:	e5c43004 	strb	r3, [r4, #4]
30001888:	e5952018 	ldr	r2, [r5, #24]
3000188c:	e1a02822 	mov	r2, r2, lsr #16
30001890:	e5c42005 	strb	r2, [r4, #5]
30001894:	e5953018 	ldr	r3, [r5, #24]
30001898:	e1a03423 	mov	r3, r3, lsr #8
3000189c:	e5c43006 	strb	r3, [r4, #6]
300018a0:	e5952018 	ldr	r2, [r5, #24]
300018a4:	e5c42007 	strb	r2, [r4, #7]
300018a8:	e595301c 	ldr	r3, [r5, #28]
300018ac:	e1a03c23 	mov	r3, r3, lsr #24
300018b0:	e5c43008 	strb	r3, [r4, #8]
300018b4:	e595201c 	ldr	r2, [r5, #28]
300018b8:	e1a02822 	mov	r2, r2, lsr #16
300018bc:	e5c42009 	strb	r2, [r4, #9]
300018c0:	e595301c 	ldr	r3, [r5, #28]
300018c4:	e1a03423 	mov	r3, r3, lsr #8
300018c8:	e5c4300a 	strb	r3, [r4, #10]
300018cc:	e595201c 	ldr	r2, [r5, #28]
300018d0:	e5c4200b 	strb	r2, [r4, #11]
300018d4:	e5953020 	ldr	r3, [r5, #32]
300018d8:	e1a03c23 	mov	r3, r3, lsr #24
300018dc:	e5c4300c 	strb	r3, [r4, #12]
300018e0:	e5952020 	ldr	r2, [r5, #32]
300018e4:	e1a02822 	mov	r2, r2, lsr #16
300018e8:	e5c4200d 	strb	r2, [r4, #13]
300018ec:	e5953020 	ldr	r3, [r5, #32]
300018f0:	e1a03423 	mov	r3, r3, lsr #8
300018f4:	e5c4300e 	strb	r3, [r4, #14]
300018f8:	e3a03c0a 	mov	r3, #2560	; 0xa00
300018fc:	e5952020 	ldr	r2, [r5, #32]
30001900:	e5c4200f 	strb	r2, [r4, #15]
30001904:	e5853010 	str	r3, [r5, #16]
30001908:	e8bd8030 	ldmia	sp!, {r4, r5, pc}

3000190c <CMD0>:
3000190c:	e92d4010 	stmdb	sp!, {r4, lr}
30001910:	e3a02000 	mov	r2, #0	; 0x0
30001914:	e3a0445a 	mov	r4, #1509949440	; 0x5a000000
30001918:	e3a03d05 	mov	r3, #320	; 0x140
3000191c:	e1a00002 	mov	r0, r2
30001920:	e1a01002 	mov	r1, r2
30001924:	e5842008 	str	r2, [r4, #8]
30001928:	e584300c 	str	r3, [r4, #12]
3000192c:	ebffff2e 	bl	300015ec <SDI_Check_CMD_End>
30001930:	e3a03b02 	mov	r3, #2048	; 0x800
30001934:	e5843010 	str	r3, [r4, #16]
30001938:	e8bd8010 	ldmia	sp!, {r4, pc}

3000193c <CMD1>:
3000193c:	e3a00001 	mov	r0, #1	; 0x1
30001940:	e3a038ff 	mov	r3, #16711680	; 0xff0000
30001944:	e3a02d0d 	mov	r2, #832	; 0x340
30001948:	e92d4010 	stmdb	sp!, {r4, lr}
3000194c:	e0822000 	add	r2, r2, r0
30001950:	e2833902 	add	r3, r3, #32768	; 0x8000
30001954:	e3a0445a 	mov	r4, #1509949440	; 0x5a000000
30001958:	e1a01000 	mov	r1, r0
3000195c:	e5843008 	str	r3, [r4, #8]
30001960:	e584200c 	str	r2, [r4, #12]
30001964:	ebffff20 	bl	300015ec <SDI_Check_CMD_End>
30001968:	e3a02902 	mov	r2, #32768	; 0x8000
3000196c:	e3500000 	cmp	r0, #0	; 0x0
30001970:	e28220ff 	add	r2, r2, #255	; 0xff
30001974:	08bd8010 	ldmeqia	sp!, {r4, pc}
30001978:	e5943014 	ldr	r3, [r4, #20]
3000197c:	e1520823 	cmp	r2, r3, lsr #16
30001980:	e3a00001 	mov	r0, #1	; 0x1
30001984:	03a03c0a 	moveq	r3, #2560	; 0xa00
30001988:	13a00000 	movne	r0, #0	; 0x0
3000198c:	05843010 	streq	r3, [r4, #16]
30001990:	e8bd8010 	ldmia	sp!, {r4, pc}

30001994 <SDI_MMC_OCR>:
30001994:	e92d4010 	stmdb	sp!, {r4, lr}
30001998:	e3a04000 	mov	r4, #0	; 0x0
3000199c:	ebffffe6 	bl	3000193c <CMD1>
300019a0:	e21000ff 	ands	r0, r0, #255	; 0xff
300019a4:	e2844001 	add	r4, r4, #1	; 0x1
300019a8:	1a000002 	bne	300019b8 <SDI_MMC_OCR+0x24>
300019ac:	e3540009 	cmp	r4, #9	; 0x9
300019b0:	dafffff9 	ble	3000199c <SDI_MMC_OCR+0x8>
300019b4:	e8bd8010 	ldmia	sp!, {r4, pc}
300019b8:	e3a00001 	mov	r0, #1	; 0x1
300019bc:	e8bd8010 	ldmia	sp!, {r4, pc}

300019c0 <CMD7>:
300019c0:	e1a02000 	mov	r2, r0
300019c4:	e1a03801 	mov	r3, r1, lsl #16
300019c8:	e92d4030 	stmdb	sp!, {r4, r5, lr}
300019cc:	e3a0cf51 	mov	ip, #324	; 0x144
300019d0:	e3a0efd1 	mov	lr, #836	; 0x344
300019d4:	e3a0445a 	mov	r4, #1509949440	; 0x5a000000
300019d8:	e21220ff 	ands	r2, r2, #255	; 0xff
300019dc:	e1a03823 	mov	r3, r3, lsr #16
300019e0:	e28ee003 	add	lr, lr, #3	; 0x3
300019e4:	e28cc003 	add	ip, ip, #3	; 0x3
300019e8:	e1a05004 	mov	r5, r4
300019ec:	e3a00007 	mov	r0, #7	; 0x7
300019f0:	e1a01002 	mov	r1, r2
300019f4:	e1a03803 	mov	r3, r3, lsl #16
300019f8:	0a00000c 	beq	30001a30 <CMD7+0x70>
300019fc:	e5843008 	str	r3, [r4, #8]
30001a00:	e3a01001 	mov	r1, #1	; 0x1
30001a04:	e584e00c 	str	lr, [r4, #12]
30001a08:	ebfffef7 	bl	300015ec <SDI_Check_CMD_End>
30001a0c:	e3500000 	cmp	r0, #0	; 0x0
30001a10:	08bd8030 	ldmeqia	sp!, {r4, r5, pc}
30001a14:	e3a03c0a 	mov	r3, #2560	; 0xa00
30001a18:	e5843010 	str	r3, [r4, #16]
30001a1c:	e5942014 	ldr	r2, [r4, #20]
30001a20:	e3120001 	tst	r2, #1	; 0x1
30001a24:	13a00000 	movne	r0, #0	; 0x0
30001a28:	03a00001 	moveq	r0, #1	; 0x1
30001a2c:	e8bd8030 	ldmia	sp!, {r4, r5, pc}
30001a30:	e5842008 	str	r2, [r4, #8]
30001a34:	e3a00007 	mov	r0, #7	; 0x7
30001a38:	e584c00c 	str	ip, [r4, #12]
30001a3c:	ebfffeea 	bl	300015ec <SDI_Check_CMD_End>
30001a40:	e3500000 	cmp	r0, #0	; 0x0
30001a44:	13a03b02 	movne	r3, #2048	; 0x800
30001a48:	13a00001 	movne	r0, #1	; 0x1
30001a4c:	15843010 	strne	r3, [r4, #16]
30001a50:	e8bd8030 	ldmia	sp!, {r4, r5, pc}

30001a54 <select_or_deselect>:
30001a54:	e1a01801 	mov	r1, r1, lsl #16
30001a58:	e52de004 	str	lr, [sp, #-4]!
30001a5c:	e1a01821 	mov	r1, r1, lsr #16
30001a60:	e20000ff 	and	r0, r0, #255	; 0xff
30001a64:	ebffffd5 	bl	300019c0 <CMD7>
30001a68:	e21000ff 	ands	r0, r0, #255	; 0xff
30001a6c:	13a00001 	movne	r0, #1	; 0x1
30001a70:	e49df004 	ldr	pc, [sp], #4

30001a74 <CMD12>:
30001a74:	e92d4010 	stmdb	sp!, {r4, lr}
30001a78:	e3a03000 	mov	r3, #0	; 0x0
30001a7c:	e3a0445a 	mov	r4, #1509949440	; 0x5a000000
30001a80:	e3a02fd3 	mov	r2, #844	; 0x34c
30001a84:	e3a01001 	mov	r1, #1	; 0x1
30001a88:	e3a0000c 	mov	r0, #12	; 0xc
30001a8c:	e5843008 	str	r3, [r4, #8]
30001a90:	e584200c 	str	r2, [r4, #12]
30001a94:	ebfffed4 	bl	300015ec <SDI_Check_CMD_End>
30001a98:	e3500000 	cmp	r0, #0	; 0x0
30001a9c:	13a03c0a 	movne	r3, #2560	; 0xa00
30001aa0:	13a00001 	movne	r0, #1	; 0x1
30001aa4:	15843010 	strne	r3, [r4, #16]
30001aa8:	e8bd8010 	ldmia	sp!, {r4, pc}

30001aac <CMD17>:
30001aac:	e3a03e35 	mov	r3, #848	; 0x350
30001ab0:	e1a0c000 	mov	ip, r0
30001ab4:	e3a0245a 	mov	r2, #1509949440	; 0x5a000000
30001ab8:	e2833001 	add	r3, r3, #1	; 0x1
30001abc:	e52de004 	str	lr, [sp, #-4]!
30001ac0:	e3a01001 	mov	r1, #1	; 0x1
30001ac4:	e3a00011 	mov	r0, #17	; 0x11
30001ac8:	e582c008 	str	ip, [r2, #8]
30001acc:	e582300c 	str	r3, [r2, #12]
30001ad0:	ebfffec5 	bl	300015ec <SDI_Check_CMD_End>
30001ad4:	e2500000 	subs	r0, r0, #0	; 0x0
30001ad8:	13a00001 	movne	r0, #1	; 0x1
30001adc:	e49df004 	ldr	pc, [sp], #4

30001ae0 <CMD18>:
30001ae0:	e3a03e35 	mov	r3, #848	; 0x350
30001ae4:	e1a0c000 	mov	ip, r0
30001ae8:	e3a0245a 	mov	r2, #1509949440	; 0x5a000000
30001aec:	e2833002 	add	r3, r3, #2	; 0x2
30001af0:	e52de004 	str	lr, [sp, #-4]!
30001af4:	e3a01001 	mov	r1, #1	; 0x1
30001af8:	e3a00012 	mov	r0, #18	; 0x12
30001afc:	e582c008 	str	ip, [r2, #8]
30001b00:	e582300c 	str	r3, [r2, #12]
30001b04:	ebfffeb8 	bl	300015ec <SDI_Check_CMD_End>
30001b08:	e2500000 	subs	r0, r0, #0	; 0x0
30001b0c:	13a00001 	movne	r0, #1	; 0x1
30001b10:	e49df004 	ldr	pc, [sp], #4

30001b14 <sd_read_sector>:
30001b14:	e92d45f0 	stmdb	sp!, {r4, r5, r6, r7, r8, sl, lr}
30001b18:	e3e034ff 	mvn	r3, #-16777216	; 0xff000000
30001b1c:	e3a0445a 	mov	r4, #1509949440	; 0x5a000000
30001b20:	e2433502 	sub	r3, r3, #8388608	; 0x800000
30001b24:	e59fc10c 	ldr	ip, [pc, #268]	; 30001c38 <.text+0x1c38>
30001b28:	e1a06004 	mov	r6, r4
30001b2c:	e1a08002 	mov	r8, r2
30001b30:	e1a0a000 	mov	sl, r0
30001b34:	e1a05001 	mov	r5, r1
30001b38:	e3a07000 	mov	r7, #0	; 0x0
30001b3c:	e5843024 	str	r3, [r4, #36]
30001b40:	e3a03c02 	mov	r3, #512	; 0x200
30001b44:	e5dce000 	ldrb	lr, [ip]
30001b48:	e5843028 	str	r3, [r4, #40]
30001b4c:	e182e80e 	orr	lr, r2, lr, lsl #16
30001b50:	e38ee88a 	orr	lr, lr, #9043968	; 0x8a0000
30001b54:	e38eea06 	orr	lr, lr, #24576	; 0x6000
30001b58:	e5943038 	ldr	r3, [r4, #56]
30001b5c:	e3833801 	orr	r3, r3, #65536	; 0x10000
30001b60:	e5843038 	str	r3, [r4, #56]
30001b64:	e584e02c 	str	lr, [r4, #44]
30001b68:	e3a04c1e 	mov	r4, #7680	; 0x1e00
30001b6c:	ea000000 	b	30001b74 <sd_read_sector+0x60>
30001b70:	e5864010 	str	r4, [r6, #16]
30001b74:	e1a00005 	mov	r0, r5
30001b78:	ebffffd8 	bl	30001ae0 <CMD18>
30001b7c:	e20000ff 	and	r0, r0, #255	; 0xff
30001b80:	e3500001 	cmp	r0, #1	; 0x1
30001b84:	1afffff9 	bne	30001b70 <sd_read_sector+0x5c>
30001b88:	e1a00388 	mov	r0, r8, lsl #7
30001b8c:	e3500000 	cmp	r0, #0	; 0x0
30001b90:	9a000011 	bls	30001bdc <sd_read_sector+0xc8>
30001b94:	e3a0c45a 	mov	ip, #1509949440	; 0x5a000000
30001b98:	e59c3034 	ldr	r3, [ip, #52]
30001b9c:	e3130060 	tst	r3, #96	; 0x60
30001ba0:	1a000020 	bne	30001c28 <sd_read_sector+0x114>
30001ba4:	e59c3038 	ldr	r3, [ip, #56]
30001ba8:	e3130a01 	tst	r3, #4096	; 0x1000
30001bac:	0a000008 	beq	30001bd4 <sd_read_sector+0xc0>
30001bb0:	e59c3040 	ldr	r3, [ip, #64]
30001bb4:	e2032cff 	and	r2, r3, #65280	; 0xff00
30001bb8:	e1a02402 	mov	r2, r2, lsl #8
30001bbc:	e1822c03 	orr	r2, r2, r3, lsl #24
30001bc0:	e20318ff 	and	r1, r3, #16711680	; 0xff0000
30001bc4:	e1822421 	orr	r2, r2, r1, lsr #8
30001bc8:	e1822c23 	orr	r2, r2, r3, lsr #24
30001bcc:	e48a2004 	str	r2, [sl], #4
30001bd0:	e2877001 	add	r7, r7, #1	; 0x1
30001bd4:	e1500007 	cmp	r0, r7
30001bd8:	8affffee 	bhi	30001b98 <sd_read_sector+0x84>
30001bdc:	e3a0145a 	mov	r1, #1509949440	; 0x5a000000
30001be0:	e591302c 	ldr	r3, [r1, #44]
30001be4:	e3c33a07 	bic	r3, r3, #28672	; 0x7000
30001be8:	e581302c 	str	r3, [r1, #44]
30001bec:	e3a02010 	mov	r2, #16	; 0x10
30001bf0:	e1a05001 	mov	r5, r1
30001bf4:	e3a04c1e 	mov	r4, #7680	; 0x1e00
30001bf8:	e5913038 	ldr	r3, [r1, #56]
30001bfc:	e2033c02 	and	r3, r3, #512	; 0x200
30001c00:	e5813038 	str	r3, [r1, #56]
30001c04:	e5812034 	str	r2, [r1, #52]
30001c08:	ea000000 	b	30001c10 <sd_read_sector+0xfc>
30001c0c:	e5854010 	str	r4, [r5, #16]
30001c10:	ebffff97 	bl	30001a74 <CMD12>
30001c14:	e20000ff 	and	r0, r0, #255	; 0xff
30001c18:	e3500001 	cmp	r0, #1	; 0x1
30001c1c:	1afffffa 	bne	30001c0c <sd_read_sector+0xf8>
30001c20:	e2400001 	sub	r0, r0, #1	; 0x1
30001c24:	e8bd85f0 	ldmia	sp!, {r4, r5, r6, r7, r8, sl, pc}
30001c28:	e3a03060 	mov	r3, #96	; 0x60
30001c2c:	e3a000ff 	mov	r0, #255	; 0xff
30001c30:	e58c3034 	str	r3, [ip, #52]
30001c34:	e8bd85f0 	ldmia	sp!, {r4, r5, r6, r7, r8, sl, pc}
30001c38:	3000a0b8 	strcch	sl, [r0], -r8

30001c3c <CMD24>:
30001c3c:	e1a0c000 	mov	ip, r0
30001c40:	e3a0245a 	mov	r2, #1509949440	; 0x5a000000
30001c44:	e3a03fd6 	mov	r3, #856	; 0x358
30001c48:	e52de004 	str	lr, [sp, #-4]!
30001c4c:	e3a01001 	mov	r1, #1	; 0x1
30001c50:	e3a00018 	mov	r0, #24	; 0x18
30001c54:	e582c008 	str	ip, [r2, #8]
30001c58:	e582300c 	str	r3, [r2, #12]
30001c5c:	ebfffe62 	bl	300015ec <SDI_Check_CMD_End>
30001c60:	e2500000 	subs	r0, r0, #0	; 0x0
30001c64:	13a00001 	movne	r0, #1	; 0x1
30001c68:	e49df004 	ldr	pc, [sp], #4

30001c6c <CMD25>:
30001c6c:	e3a03fd6 	mov	r3, #856	; 0x358
30001c70:	e1a0c000 	mov	ip, r0
30001c74:	e3a0245a 	mov	r2, #1509949440	; 0x5a000000
30001c78:	e2833001 	add	r3, r3, #1	; 0x1
30001c7c:	e52de004 	str	lr, [sp, #-4]!
30001c80:	e3a01001 	mov	r1, #1	; 0x1
30001c84:	e3a00019 	mov	r0, #25	; 0x19
30001c88:	e582c008 	str	ip, [r2, #8]
30001c8c:	e582300c 	str	r3, [r2, #12]
30001c90:	ebfffe55 	bl	300015ec <SDI_Check_CMD_End>
30001c94:	e2500000 	subs	r0, r0, #0	; 0x0
30001c98:	13a00001 	movne	r0, #1	; 0x1
30001c9c:	e49df004 	ldr	pc, [sp], #4

30001ca0 <sd_write_sector>:
30001ca0:	e92d45f0 	stmdb	sp!, {r4, r5, r6, r7, r8, sl, lr}
30001ca4:	e3e034ff 	mvn	r3, #-16777216	; 0xff000000
30001ca8:	e3a0c45a 	mov	ip, #1509949440	; 0x5a000000
30001cac:	e2433502 	sub	r3, r3, #8388608	; 0x800000
30001cb0:	e1a0a002 	mov	sl, r2
30001cb4:	e3822893 	orr	r2, r2, #9633792	; 0x930000
30001cb8:	e3822a07 	orr	r2, r2, #28672	; 0x7000
30001cbc:	e1a08000 	mov	r8, r0
30001cc0:	e1a04001 	mov	r4, r1
30001cc4:	e1a0700c 	mov	r7, ip
30001cc8:	e3a05000 	mov	r5, #0	; 0x0
30001ccc:	e58c3024 	str	r3, [ip, #36]
30001cd0:	e3a03c02 	mov	r3, #512	; 0x200
30001cd4:	e3a06c1e 	mov	r6, #7680	; 0x1e00
30001cd8:	e58c3028 	str	r3, [ip, #40]
30001cdc:	e59c3038 	ldr	r3, [ip, #56]
30001ce0:	e3833801 	orr	r3, r3, #65536	; 0x10000
30001ce4:	e58c3038 	str	r3, [ip, #56]
30001ce8:	e58c202c 	str	r2, [ip, #44]
30001cec:	ea000000 	b	30001cf4 <sd_write_sector+0x54>
30001cf0:	e5876010 	str	r6, [r7, #16]
30001cf4:	e1a00004 	mov	r0, r4
30001cf8:	ebffffdb 	bl	30001c6c <CMD25>
30001cfc:	e20000ff 	and	r0, r0, #255	; 0xff
30001d00:	e3500001 	cmp	r0, #1	; 0x1
30001d04:	1afffff9 	bne	30001cf0 <sd_write_sector+0x50>
30001d08:	e1a0238a 	mov	r2, sl, lsl #7
30001d0c:	e1550002 	cmp	r5, r2
30001d10:	2a000009 	bcs	30001d3c <sd_write_sector+0x9c>
30001d14:	e3a0045a 	mov	r0, #1509949440	; 0x5a000000
30001d18:	e5901038 	ldr	r1, [r0, #56]
30001d1c:	e2853001 	add	r3, r5, #1	; 0x1
30001d20:	e3110a02 	tst	r1, #8192	; 0x2000
30001d24:	e1a01803 	mov	r1, r3, lsl #16
30001d28:	14983004 	ldrne	r3, [r8], #4
30001d2c:	11a05821 	movne	r5, r1, lsr #16
30001d30:	15803040 	strne	r3, [r0, #64]
30001d34:	e1550002 	cmp	r5, r2
30001d38:	3afffff6 	bcc	30001d18 <sd_write_sector+0x78>
30001d3c:	e3a0245a 	mov	r2, #1509949440	; 0x5a000000
30001d40:	e592302c 	ldr	r3, [r2, #44]
30001d44:	e3c33a07 	bic	r3, r3, #28672	; 0x7000
30001d48:	e582302c 	str	r3, [r2, #44]
30001d4c:	e1a05002 	mov	r5, r2
30001d50:	e3a04c1e 	mov	r4, #7680	; 0x1e00
30001d54:	ea000000 	b	30001d5c <sd_write_sector+0xbc>
30001d58:	e5854010 	str	r4, [r5, #16]
30001d5c:	ebffff44 	bl	30001a74 <CMD12>
30001d60:	e20000ff 	and	r0, r0, #255	; 0xff
30001d64:	e3500001 	cmp	r0, #1	; 0x1
30001d68:	1afffffa 	bne	30001d58 <sd_write_sector+0xb8>
30001d6c:	e3a0245a 	mov	r2, #1509949440	; 0x5a000000
30001d70:	e5921034 	ldr	r1, [r2, #52]
30001d74:	e2110002 	ands	r0, r1, #2	; 0x2
30001d78:	1afffffc 	bne	30001d70 <sd_write_sector+0xd0>
30001d7c:	e3a030f4 	mov	r3, #244	; 0xf4
30001d80:	e5821034 	str	r1, [r2, #52]
30001d84:	e5823034 	str	r3, [r2, #52]
30001d88:	e8bd85f0 	ldmia	sp!, {r4, r5, r6, r7, r8, sl, pc}

30001d8c <CMD55>:
30001d8c:	e3a03fdd 	mov	r3, #884	; 0x374
30001d90:	e92d4010 	stmdb	sp!, {r4, lr}
30001d94:	e2833003 	add	r3, r3, #3	; 0x3
30001d98:	e1a02800 	mov	r2, r0, lsl #16
30001d9c:	e3a0445a 	mov	r4, #1509949440	; 0x5a000000
30001da0:	e3a01001 	mov	r1, #1	; 0x1
30001da4:	e3a00037 	mov	r0, #55	; 0x37
30001da8:	e5842008 	str	r2, [r4, #8]
30001dac:	e584300c 	str	r3, [r4, #12]
30001db0:	ebfffe0d 	bl	300015ec <SDI_Check_CMD_End>
30001db4:	e3500000 	cmp	r0, #0	; 0x0
30001db8:	13a03c0a 	movne	r3, #2560	; 0xa00
30001dbc:	13a00001 	movne	r0, #1	; 0x1
30001dc0:	15843010 	strne	r3, [r4, #16]
30001dc4:	e8bd8010 	ldmia	sp!, {r4, pc}

30001dc8 <ACMD6>:
30001dc8:	e1a01801 	mov	r1, r1, lsl #16
30001dcc:	e92d4030 	stmdb	sp!, {r4, r5, lr}
30001dd0:	e1a04000 	mov	r4, r0
30001dd4:	e1a00821 	mov	r0, r1, lsr #16
30001dd8:	ebffffeb 	bl	30001d8c <CMD55>
30001ddc:	e1a03000 	mov	r3, r0
30001de0:	e20440ff 	and	r4, r4, #255	; 0xff
30001de4:	e3a02fd1 	mov	r2, #836	; 0x344
30001de8:	e21330ff 	ands	r3, r3, #255	; 0xff
30001dec:	e2822002 	add	r2, r2, #2	; 0x2
30001df0:	e1a04084 	mov	r4, r4, lsl #1
30001df4:	e3a0545a 	mov	r5, #1509949440	; 0x5a000000
30001df8:	e3a01001 	mov	r1, #1	; 0x1
30001dfc:	e3a00006 	mov	r0, #6	; 0x6
30001e00:	1a000001 	bne	30001e0c <ACMD6+0x44>
30001e04:	e1a00003 	mov	r0, r3
30001e08:	e8bd8030 	ldmia	sp!, {r4, r5, pc}
30001e0c:	e5854008 	str	r4, [r5, #8]
30001e10:	e585200c 	str	r2, [r5, #12]
30001e14:	ebfffdf4 	bl	300015ec <SDI_Check_CMD_End>
30001e18:	e3500000 	cmp	r0, #0	; 0x0
30001e1c:	e1a03000 	mov	r3, r0
30001e20:	13a03c0a 	movne	r3, #2560	; 0xa00
30001e24:	15853010 	strne	r3, [r5, #16]
30001e28:	13a03001 	movne	r3, #1	; 0x1
30001e2c:	e1a00003 	mov	r0, r3
30001e30:	e8bd8030 	ldmia	sp!, {r4, r5, pc}

30001e34 <Set_bus_Width>:
30001e34:	e20000ff 	and	r0, r0, #255	; 0xff
30001e38:	e1a02802 	mov	r2, r2, lsl #16
30001e3c:	e20110ff 	and	r1, r1, #255	; 0xff
30001e40:	e3500001 	cmp	r0, #1	; 0x1
30001e44:	e1a02822 	mov	r2, r2, lsr #16
30001e48:	e1a00001 	mov	r0, r1
30001e4c:	e52de004 	str	lr, [sp, #-4]!
30001e50:	e3a03000 	mov	r3, #0	; 0x0
30001e54:	e1a01002 	mov	r1, r2
30001e58:	0a000001 	beq	30001e64 <Set_bus_Width+0x30>
30001e5c:	ebffffd9 	bl	30001dc8 <ACMD6>
30001e60:	e20030ff 	and	r3, r0, #255	; 0xff
30001e64:	e1a00003 	mov	r0, r3
30001e68:	e49df004 	ldr	pc, [sp], #4

30001e6c <ACMD41>:
30001e6c:	e1a00800 	mov	r0, r0, lsl #16
30001e70:	e92d4010 	stmdb	sp!, {r4, lr}
30001e74:	e1a00820 	mov	r0, r0, lsr #16
30001e78:	ebffffc3 	bl	30001d8c <CMD55>
30001e7c:	e3a02101 	mov	r2, #1073741824	; 0x40000000
30001e80:	e1a03000 	mov	r3, r0
30001e84:	e28228ff 	add	r2, r2, #16711680	; 0xff0000
30001e88:	e3a0cfda 	mov	ip, #872	; 0x368
30001e8c:	e21330ff 	ands	r3, r3, #255	; 0xff
30001e90:	e2822902 	add	r2, r2, #32768	; 0x8000
30001e94:	e28cc001 	add	ip, ip, #1	; 0x1
30001e98:	e3a0445a 	mov	r4, #1509949440	; 0x5a000000
30001e9c:	e3a01001 	mov	r1, #1	; 0x1
30001ea0:	e3a00029 	mov	r0, #41	; 0x29
30001ea4:	e1a0e003 	mov	lr, r3
30001ea8:	1a000001 	bne	30001eb4 <ACMD41+0x48>
30001eac:	e1a0000e 	mov	r0, lr
30001eb0:	e8bd8010 	ldmia	sp!, {r4, pc}
30001eb4:	e5842008 	str	r2, [r4, #8]
30001eb8:	e584c00c 	str	ip, [r4, #12]
30001ebc:	ebfffdca 	bl	300015ec <SDI_Check_CMD_End>
30001ec0:	e3a02103 	mov	r2, #-1073741824	; 0xc0000000
30001ec4:	e3500000 	cmp	r0, #0	; 0x0
30001ec8:	e28228ff 	add	r2, r2, #16711680	; 0xff0000
30001ecc:	03a03c0a 	moveq	r3, #2560	; 0xa00
30001ed0:	e2822902 	add	r2, r2, #32768	; 0x8000
30001ed4:	05843010 	streq	r3, [r4, #16]
30001ed8:	01a0e000 	moveq	lr, r0
30001edc:	0afffff2 	beq	30001eac <ACMD41+0x40>
30001ee0:	e5943014 	ldr	r3, [r4, #20]
30001ee4:	e3a01102 	mov	r1, #-2147483648	; 0x80000000
30001ee8:	e28118ff 	add	r1, r1, #16711680	; 0xff0000
30001eec:	e1530002 	cmp	r3, r2
30001ef0:	e2811902 	add	r1, r1, #32768	; 0x8000
30001ef4:	e3a00002 	mov	r0, #2	; 0x2
30001ef8:	0a000003 	beq	30001f0c <ACMD41+0xa0>
30001efc:	e5943014 	ldr	r3, [r4, #20]
30001f00:	e1530001 	cmp	r3, r1
30001f04:	13a00000 	movne	r0, #0	; 0x0
30001f08:	03a00001 	moveq	r0, #1	; 0x1
30001f0c:	e1a0e000 	mov	lr, r0
30001f10:	e3a02c0a 	mov	r2, #2560	; 0xa00
30001f14:	e3a0345a 	mov	r3, #1509949440	; 0x5a000000
30001f18:	e1a0000e 	mov	r0, lr
30001f1c:	e5832010 	str	r2, [r3, #16]
30001f20:	e8bd8010 	ldmia	sp!, {r4, pc}

30001f24 <file_delay>:
30001f24:	e2500001 	subs	r0, r0, #1	; 0x1
30001f28:	2afffffd 	bcs	30001f24 <file_delay>
30001f2c:	e1a0f00e 	mov	pc, lr

30001f30 <SDI_SD_OCR>:
30001f30:	e92d40f0 	stmdb	sp!, {r4, r5, r6, r7, lr}
30001f34:	e59f6054 	ldr	r6, [pc, #84]	; 30001f90 <.text+0x1f90>
30001f38:	e3a03000 	mov	r3, #0	; 0x0
30001f3c:	e1a04003 	mov	r4, r3
30001f40:	e2867002 	add	r7, r6, #2	; 0x2
30001f44:	e5c63002 	strb	r3, [r6, #2]
30001f48:	e5c63003 	strb	r3, [r6, #3]
30001f4c:	ea000002 	b	30001f5c <SDI_SD_OCR+0x2c>
30001f50:	ebfffff3 	bl	30001f24 <file_delay>
30001f54:	e3540031 	cmp	r4, #49	; 0x31
30001f58:	ca00000a 	bgt	30001f88 <SDI_SD_OCR+0x58>
30001f5c:	e5d73001 	ldrb	r3, [r7, #1]
30001f60:	e5d60002 	ldrb	r0, [r6, #2]
30001f64:	e1800403 	orr	r0, r0, r3, lsl #8
30001f68:	ebffffbf 	bl	30001e6c <ACMD41>
30001f6c:	e1a03000 	mov	r3, r0
30001f70:	e21350ff 	ands	r5, r3, #255	; 0xff
30001f74:	e2844001 	add	r4, r4, #1	; 0x1
30001f78:	e3a00ffa 	mov	r0, #1000	; 0x3e8
30001f7c:	0afffff3 	beq	30001f50 <SDI_SD_OCR+0x20>
30001f80:	e3a00001 	mov	r0, #1	; 0x1
30001f84:	e8bd80f0 	ldmia	sp!, {r4, r5, r6, r7, pc}
30001f88:	e1a00005 	mov	r0, r5
30001f8c:	e8bd80f0 	ldmia	sp!, {r4, r5, r6, r7, pc}
30001f90:	3000a0b8 	strcch	sl, [r0], -r8

30001f94 <sdi_init>:
30001f94:	e92d41f0 	stmdb	sp!, {r4, r5, r6, r7, r8, lr}
30001f98:	e59f0334 	ldr	r0, [pc, #820]	; 300022d4 <.text+0x22d4>
30001f9c:	eb000283 	bl	300029b0 <printk>
30001fa0:	e3a03caa 	mov	r3, #43520	; 0xaa00
30001fa4:	e28330aa 	add	r3, r3, #170	; 0xaa
30001fa8:	e3a02b3e 	mov	r2, #63488	; 0xf800
30001fac:	e3a0c456 	mov	ip, #1442840576	; 0x56000000
30001fb0:	e282203f 	add	r2, r2, #63	; 0x3f
30001fb4:	e1833803 	orr	r3, r3, r3, lsl #16
30001fb8:	e3a00cff 	mov	r0, #65280	; 0xff00
30001fbc:	e58c2048 	str	r2, [ip, #72]
30001fc0:	e3a0145a 	mov	r1, #1509949440	; 0x5a000000
30001fc4:	e28000ff 	add	r0, r0, #255	; 0xff
30001fc8:	e3a02011 	mov	r2, #17	; 0x11
30001fcc:	e3e0e4ff 	mvn	lr, #-16777216	; 0xff000000
30001fd0:	e58c3040 	str	r3, [ip, #64]
30001fd4:	e3a0307c 	mov	r3, #124	; 0x7c
30001fd8:	e24ee502 	sub	lr, lr, #8388608	; 0x800000
30001fdc:	e3a04eff 	mov	r4, #4080	; 0xff0
30001fe0:	e284400f 	add	r4, r4, #15	; 0xf
30001fe4:	e5810010 	str	r0, [r1, #16]
30001fe8:	e28cc4aa 	add	ip, ip, #-1442840576	; 0xaa000000
30001fec:	e5810034 	str	r0, [r1, #52]
30001ff0:	e5813004 	str	r3, [r1, #4]
30001ff4:	e5812000 	str	r2, [r1]
30001ff8:	e3a02c02 	mov	r2, #512	; 0x200
30001ffc:	e5913038 	ldr	r3, [r1, #56]
30002000:	e3833801 	orr	r3, r3, #65536	; 0x10000
30002004:	e5813038 	str	r3, [r1, #56]
30002008:	e5812028 	str	r2, [r1, #40]
3000200c:	e581e024 	str	lr, [r1, #36]
30002010:	e28cc001 	add	ip, ip, #1	; 0x1
30002014:	e15c0004 	cmp	ip, r4
30002018:	dafffffc 	ble	30002010 <sdi_init+0x7c>
3000201c:	ebfffe3a 	bl	3000190c <CMD0>
30002020:	ebfffe5b 	bl	30001994 <SDI_MMC_OCR>
30002024:	e3500000 	cmp	r0, #0	; 0x0
30002028:	159f72a8 	ldrne	r7, [pc, #680]	; 300022d8 <.text+0x22d8>
3000202c:	059f72a4 	ldreq	r7, [pc, #676]	; 300022d8 <.text+0x22d8>
30002030:	13a03001 	movne	r3, #1	; 0x1
30002034:	15c73001 	strneb	r3, [r7, #1]
30002038:	05c70001 	streqb	r0, [r7, #1]
3000203c:	ebffffbb 	bl	30001f30 <SDI_SD_OCR>
30002040:	e2504000 	subs	r4, r0, #0	; 0x0
30002044:	059f0290 	ldreq	r0, [pc, #656]	; 300022dc <.text+0x22dc>
30002048:	0a000007 	beq	3000206c <sdi_init+0xd8>
3000204c:	e59f628c 	ldr	r6, [pc, #652]	; 300022e0 <.text+0x22e0>
30002050:	e59f028c 	ldr	r0, [pc, #652]	; 300022e4 <.text+0x22e4>
30002054:	eb000255 	bl	300029b0 <printk>
30002058:	e1a00006 	mov	r0, r6
3000205c:	ebfffded 	bl	30001818 <CMD2>
30002060:	e21040ff 	ands	r4, r0, #255	; 0xff
30002064:	1a000003 	bne	30002078 <sdi_init+0xe4>
30002068:	e59f0278 	ldr	r0, [pc, #632]	; 300022e8 <.text+0x22e8>
3000206c:	eb00024f 	bl	300029b0 <printk>
30002070:	e1a00004 	mov	r0, r4
30002074:	e8bd81f0 	ldmia	sp!, {r4, r5, r6, r7, r8, pc}
30002078:	e59f026c 	ldr	r0, [pc, #620]	; 300022ec <.text+0x22ec>
3000207c:	eb00024b 	bl	300029b0 <printk>
30002080:	e5d71004 	ldrb	r1, [r7, #4]
30002084:	e59f0264 	ldr	r0, [pc, #612]	; 300022f0 <.text+0x22f0>
30002088:	eb000248 	bl	300029b0 <printk>
3000208c:	e5d73005 	ldrb	r3, [r7, #5]
30002090:	e5d71006 	ldrb	r1, [r7, #6]
30002094:	e59f0258 	ldr	r0, [pc, #600]	; 300022f4 <.text+0x22f4>
30002098:	e0811403 	add	r1, r1, r3, lsl #8
3000209c:	eb000243 	bl	300029b0 <printk>
300020a0:	e2861003 	add	r1, r6, #3	; 0x3
300020a4:	e59f024c 	ldr	r0, [pc, #588]	; 300022f8 <.text+0x22f8>
300020a8:	eb000240 	bl	300029b0 <printk>
300020ac:	e5d72012 	ldrb	r2, [r7, #18]
300020b0:	e5d71011 	ldrb	r1, [r7, #17]
300020b4:	e1a03222 	mov	r3, r2, lsr #4
300020b8:	e201100f 	and	r1, r1, #15	; 0xf
300020bc:	e0831201 	add	r1, r3, r1, lsl #4
300020c0:	e202200f 	and	r2, r2, #15	; 0xf
300020c4:	e59f0230 	ldr	r0, [pc, #560]	; 300022fc <.text+0x22fc>
300020c8:	eb000238 	bl	300029b0 <printk>
300020cc:	e5d75001 	ldrb	r5, [r7, #1]
300020d0:	e3550001 	cmp	r5, #1	; 0x1
300020d4:	0a000024 	beq	3000216c <sdi_init+0x1d8>
300020d8:	e2468002 	sub	r8, r6, #2	; 0x2
300020dc:	e3a00000 	mov	r0, #0	; 0x0
300020e0:	e1a01008 	mov	r1, r8
300020e4:	ebfffdaa 	bl	30001794 <CMD3>
300020e8:	e21040ff 	ands	r4, r0, #255	; 0xff
300020ec:	059f020c 	ldreq	r0, [pc, #524]	; 30002300 <.text+0x2300>
300020f0:	0affffdd 	beq	3000206c <sdi_init+0xd8>
300020f4:	e3a03001 	mov	r3, #1	; 0x1
300020f8:	e3a0445a 	mov	r4, #1509949440	; 0x5a000000
300020fc:	e5843004 	str	r3, [r4, #4]
30002100:	e59f01fc 	ldr	r0, [pc, #508]	; 30002304 <.text+0x2304>
30002104:	e5562002 	ldrb	r2, [r6, #-2]
30002108:	e5d81001 	ldrb	r1, [r8, #1]
3000210c:	e1821401 	orr	r1, r2, r1, lsl #8
30002110:	eb000226 	bl	300029b0 <printk>
30002114:	e5941004 	ldr	r1, [r4, #4]
30002118:	e3a007be 	mov	r0, #49807360	; 0x2f80000
3000211c:	e2800a2f 	add	r0, r0, #192512	; 0x2f000
30002120:	e2811001 	add	r1, r1, #1	; 0x1
30002124:	e2800080 	add	r0, r0, #128	; 0x80
30002128:	eb000120 	bl	300025b0 <__udivsi3>
3000212c:	e1a01000 	mov	r1, r0
30002130:	e59f01d0 	ldr	r0, [pc, #464]	; 30002308 <.text+0x2308>
30002134:	eb00021d 	bl	300029b0 <printk>
30002138:	e59f4198 	ldr	r4, [pc, #408]	; 300022d8 <.text+0x22d8>
3000213c:	e5d73002 	ldrb	r3, [r7, #2]
30002140:	e5d80001 	ldrb	r0, [r8, #1]
30002144:	e2841014 	add	r1, r4, #20	; 0x14
30002148:	e1830400 	orr	r0, r3, r0, lsl #8
3000214c:	ebfffd79 	bl	30001738 <CMD9>
30002150:	e21050ff 	ands	r5, r0, #255	; 0xff
30002154:	e2846002 	add	r6, r4, #2	; 0x2
30002158:	1a00001e 	bne	300021d8 <sdi_init+0x244>
3000215c:	e59f01a8 	ldr	r0, [pc, #424]	; 3000230c <.text+0x230c>
30002160:	eb000212 	bl	300029b0 <printk>
30002164:	e1a00005 	mov	r0, r5
30002168:	e8bd81f0 	ldmia	sp!, {r4, r5, r6, r7, r8, pc}
3000216c:	e2468002 	sub	r8, r6, #2	; 0x2
30002170:	e1a00005 	mov	r0, r5
30002174:	e1a01008 	mov	r1, r8
30002178:	ebfffd85 	bl	30001794 <CMD3>
3000217c:	e21040ff 	ands	r4, r0, #255	; 0xff
30002180:	059f0188 	ldreq	r0, [pc, #392]	; 30002310 <.text+0x2310>
30002184:	0affffb8 	beq	3000206c <sdi_init+0xd8>
30002188:	e3a02002 	mov	r2, #2	; 0x2
3000218c:	e3a0445a 	mov	r4, #1509949440	; 0x5a000000
30002190:	e3a03000 	mov	r3, #0	; 0x0
30002194:	e5842004 	str	r2, [r4, #4]
30002198:	e59f0174 	ldr	r0, [pc, #372]	; 30002314 <.text+0x2314>
3000219c:	e5c75002 	strb	r5, [r7, #2]
300021a0:	e5c73003 	strb	r3, [r7, #3]
300021a4:	e5563002 	ldrb	r3, [r6, #-2]
300021a8:	e5d81001 	ldrb	r1, [r8, #1]
300021ac:	e1831401 	orr	r1, r3, r1, lsl #8
300021b0:	eb0001fe 	bl	300029b0 <printk>
300021b4:	e5941004 	ldr	r1, [r4, #4]
300021b8:	e3a007be 	mov	r0, #49807360	; 0x2f80000
300021bc:	e2800a2f 	add	r0, r0, #192512	; 0x2f000
300021c0:	e2811001 	add	r1, r1, #1	; 0x1
300021c4:	e2800080 	add	r0, r0, #128	; 0x80
300021c8:	eb0000f8 	bl	300025b0 <__udivsi3>
300021cc:	e1a01000 	mov	r1, r0
300021d0:	e59f0140 	ldr	r0, [pc, #320]	; 30002318 <.text+0x2318>
300021d4:	eaffffd6 	b	30002134 <sdi_init+0x1a0>
300021d8:	e594101c 	ldr	r1, [r4, #28]
300021dc:	e5942018 	ldr	r2, [r4, #24]
300021e0:	e1a03821 	mov	r3, r1, lsr #16
300021e4:	e202203f 	and	r2, r2, #63	; 0x3f
300021e8:	e0833802 	add	r3, r3, r2, lsl #16
300021ec:	e1a01321 	mov	r1, r1, lsr #6
300021f0:	e1a03483 	mov	r3, r3, lsl #9
300021f4:	e201107f 	and	r1, r1, #127	; 0x7f
300021f8:	e2833c02 	add	r3, r3, #512	; 0x200
300021fc:	e2811001 	add	r1, r1, #1	; 0x1
30002200:	e5843028 	str	r3, [r4, #40]
30002204:	e59f0110 	ldr	r0, [pc, #272]	; 3000231c <.text+0x231c>
30002208:	e5841024 	str	r1, [r4, #36]
3000220c:	eb0001e7 	bl	300029b0 <printk>
30002210:	e5941014 	ldr	r1, [r4, #20]
30002214:	e59f0104 	ldr	r0, [pc, #260]	; 30002320 <.text+0x2320>
30002218:	eb0001e4 	bl	300029b0 <printk>
3000221c:	e5941018 	ldr	r1, [r4, #24]
30002220:	e59f00f8 	ldr	r0, [pc, #248]	; 30002320 <.text+0x2320>
30002224:	eb0001e1 	bl	300029b0 <printk>
30002228:	e594101c 	ldr	r1, [r4, #28]
3000222c:	e59f00ec 	ldr	r0, [pc, #236]	; 30002320 <.text+0x2320>
30002230:	eb0001de 	bl	300029b0 <printk>
30002234:	e5941020 	ldr	r1, [r4, #32]
30002238:	e59f00e0 	ldr	r0, [pc, #224]	; 30002320 <.text+0x2320>
3000223c:	eb0001db 	bl	300029b0 <printk>
30002240:	e5941028 	ldr	r1, [r4, #40]
30002244:	e59f00d8 	ldr	r0, [pc, #216]	; 30002324 <.text+0x2324>
30002248:	e1a02521 	mov	r2, r1, lsr #10
3000224c:	eb0001d7 	bl	300029b0 <printk>
30002250:	e5d43002 	ldrb	r3, [r4, #2]
30002254:	e5d61001 	ldrb	r1, [r6, #1]
30002258:	e3a00001 	mov	r0, #1	; 0x1
3000225c:	e1831401 	orr	r1, r3, r1, lsl #8
30002260:	ebfffdfb 	bl	30001a54 <select_or_deselect>
30002264:	e21040ff 	ands	r4, r0, #255	; 0xff
30002268:	059f00b8 	ldreq	r0, [pc, #184]	; 30002328 <.text+0x2328>
3000226c:	0affff7e 	beq	3000206c <sdi_init+0xd8>
30002270:	e59f00b4 	ldr	r0, [pc, #180]	; 3000232c <.text+0x232c>
30002274:	eb0001cd 	bl	300029b0 <printk>
30002278:	e5d70002 	ldrb	r0, [r7, #2]
3000227c:	e5d83001 	ldrb	r3, [r8, #1]
30002280:	e1800403 	orr	r0, r0, r3, lsl #8
30002284:	ebfffd19 	bl	300016f0 <CMD13>
30002288:	e2000c1e 	and	r0, r0, #7680	; 0x1e00
3000228c:	e3500b02 	cmp	r0, #2048	; 0x800
30002290:	1afffff8 	bne	30002278 <sdi_init+0x2e4>
30002294:	e5d83001 	ldrb	r3, [r8, #1]
30002298:	e5d72002 	ldrb	r2, [r7, #2]
3000229c:	e3a01001 	mov	r1, #1	; 0x1
300022a0:	e1822403 	orr	r2, r2, r3, lsl #8
300022a4:	e5d70001 	ldrb	r0, [r7, #1]
300022a8:	ebfffee1 	bl	30001e34 <Set_bus_Width>
300022ac:	e21020ff 	ands	r2, r0, #255	; 0xff
300022b0:	059f3020 	ldreq	r3, [pc, #32]	; 300022d8 <.text+0x22d8>
300022b4:	13a03001 	movne	r3, #1	; 0x1
300022b8:	15c73000 	strneb	r3, [r7]
300022bc:	159f006c 	ldrne	r0, [pc, #108]	; 30002330 <.text+0x2330>
300022c0:	059f006c 	ldreq	r0, [pc, #108]	; 30002334 <.text+0x2334>
300022c4:	05c32000 	streqb	r2, [r3]
300022c8:	eb0001b8 	bl	300029b0 <printk>
300022cc:	e3a00001 	mov	r0, #1	; 0x1
300022d0:	e8bd81f0 	ldmia	sp!, {r4, r5, r6, r7, r8, pc}
300022d4:	30004860 	andcc	r4, r0, r0, ror #16
300022d8:	3000a0b8 	strcch	sl, [r0], -r8
300022dc:	30004874 	andcc	r4, r0, r4, ror r8
300022e0:	3000a0bc 	strcch	sl, [r0], -ip
300022e4:	3000489c 	mulcc	r0, ip, r8
300022e8:	300048ac 	andcc	r4, r0, ip, lsr #17
300022ec:	300048c8 	andcc	r4, r0, r8, asr #17
300022f0:	300048d0 	ldrccd	r4, [r0], -r0
300022f4:	300048dc 	ldrccd	r4, [r0], -ip
300022f8:	300048e8 	andcc	r4, r0, r8, ror #17
300022fc:	300048f8 	strccd	r4, [r0], -r8
30002300:	3000490c 	andcc	r4, r0, ip, lsl #18
30002304:	30004924 	andcc	r4, r0, r4, lsr #18
30002308:	3000493c 	andcc	r4, r0, ip, lsr r9
3000230c:	30004954 	andcc	r4, r0, r4, asr r9
30002310:	3000496c 	andcc	r4, r0, ip, ror #18
30002314:	30004984 	andcc	r4, r0, r4, lsl #19
30002318:	3000499c 	mulcc	r0, ip, r9
3000231c:	300049b4 	strcch	r4, [r0], -r4
30002320:	300049c8 	andcc	r4, r0, r8, asr #19
30002324:	300049d4 	ldrccd	r4, [r0], -r4
30002328:	300049ec 	andcc	r4, r0, ip, ror #19
3000232c:	30004a04 	andcc	r4, r0, r4, lsl #20
30002330:	30004a1c 	andcc	r4, r0, ip, lsl sl
30002334:	30004a30 	andcc	r4, r0, r0, lsr sl

30002338 <sdi_test>:
30002338:	e92d4070 	stmdb	sp!, {r4, r5, r6, lr}
3000233c:	ebffff14 	bl	30001f94 <sdi_init>
30002340:	e31000ff 	tst	r0, #255	; 0xff
30002344:	0a000038 	beq	3000242c <sdi_test+0xf4>
30002348:	e59f00fc 	ldr	r0, [pc, #252]	; 3000244c <.text+0x244c>
3000234c:	eb000197 	bl	300029b0 <printk>
30002350:	e59f00f8 	ldr	r0, [pc, #248]	; 30002450 <.text+0x2450>
30002354:	e3a04000 	mov	r4, #0	; 0x0
30002358:	ea000004 	b	30002370 <sdi_test+0x38>
3000235c:	e59f30f0 	ldr	r3, [pc, #240]	; 30002454 <.text+0x2454>
30002360:	e3a02000 	mov	r2, #0	; 0x0
30002364:	e7c32004 	strb	r2, [r3, r4]
30002368:	e7c01004 	strb	r1, [r0, r4]
3000236c:	e1a04001 	mov	r4, r1
30002370:	e3540c02 	cmp	r4, #512	; 0x200
30002374:	e2841001 	add	r1, r4, #1	; 0x1
30002378:	3afffff7 	bcc	3000235c <sdi_test+0x24>
3000237c:	e59f00cc 	ldr	r0, [pc, #204]	; 30002450 <.text+0x2450>
30002380:	e3a01000 	mov	r1, #0	; 0x0
30002384:	e3a02001 	mov	r2, #1	; 0x1
30002388:	ebfffe44 	bl	30001ca0 <sd_write_sector>
3000238c:	e31000ff 	tst	r0, #255	; 0xff
30002390:	0a000029 	beq	3000243c <sdi_test+0x104>
30002394:	e59f60b8 	ldr	r6, [pc, #184]	; 30002454 <.text+0x2454>
30002398:	e59f00b8 	ldr	r0, [pc, #184]	; 30002458 <.text+0x2458>
3000239c:	eb000183 	bl	300029b0 <printk>
300023a0:	e1a00006 	mov	r0, r6
300023a4:	e3a01000 	mov	r1, #0	; 0x0
300023a8:	e3a02001 	mov	r2, #1	; 0x1
300023ac:	ebfffdd8 	bl	30001b14 <sd_read_sector>
300023b0:	e31000ff 	tst	r0, #255	; 0xff
300023b4:	0a000022 	beq	30002444 <sdi_test+0x10c>
300023b8:	e59f009c 	ldr	r0, [pc, #156]	; 3000245c <.text+0x245c>
300023bc:	eb00017b 	bl	300029b0 <printk>
300023c0:	e59f0098 	ldr	r0, [pc, #152]	; 30002460 <.text+0x2460>
300023c4:	eb000179 	bl	300029b0 <printk>
300023c8:	e3a04000 	mov	r4, #0	; 0x0
300023cc:	ea00000e 	b	3000240c <sdi_test+0xd4>
300023d0:	e7d61004 	ldrb	r1, [r6, r4]
300023d4:	e59f0088 	ldr	r0, [pc, #136]	; 30002464 <.text+0x2464>
300023d8:	eb000174 	bl	300029b0 <printk>
300023dc:	e5d51001 	ldrb	r1, [r5, #1]
300023e0:	e59f007c 	ldr	r0, [pc, #124]	; 30002464 <.text+0x2464>
300023e4:	eb000171 	bl	300029b0 <printk>
300023e8:	e5d51002 	ldrb	r1, [r5, #2]
300023ec:	e59f0070 	ldr	r0, [pc, #112]	; 30002464 <.text+0x2464>
300023f0:	eb00016e 	bl	300029b0 <printk>
300023f4:	e2844004 	add	r4, r4, #4	; 0x4
300023f8:	e5d51003 	ldrb	r1, [r5, #3]
300023fc:	e59f0060 	ldr	r0, [pc, #96]	; 30002464 <.text+0x2464>
30002400:	eb00016a 	bl	300029b0 <printk>
30002404:	e3540c02 	cmp	r4, #512	; 0x200
30002408:	2a000005 	bcs	30002424 <sdi_test+0xec>
3000240c:	e314001f 	tst	r4, #31	; 0x1f
30002410:	e0845006 	add	r5, r4, r6
30002414:	e59f004c 	ldr	r0, [pc, #76]	; 30002468 <.text+0x2468>
30002418:	0affffec 	beq	300023d0 <sdi_test+0x98>
3000241c:	eb000163 	bl	300029b0 <printk>
30002420:	eaffffea 	b	300023d0 <sdi_test+0x98>
30002424:	e3a00000 	mov	r0, #0	; 0x0
30002428:	e8bd8070 	ldmia	sp!, {r4, r5, r6, pc}
3000242c:	e59f0038 	ldr	r0, [pc, #56]	; 3000246c <.text+0x246c>
30002430:	eb00015e 	bl	300029b0 <printk>
30002434:	e3e00000 	mvn	r0, #0	; 0x0
30002438:	e8bd8070 	ldmia	sp!, {r4, r5, r6, pc}
3000243c:	e59f002c 	ldr	r0, [pc, #44]	; 30002470 <.text+0x2470>
30002440:	eafffffa 	b	30002430 <sdi_test+0xf8>
30002444:	e59f0028 	ldr	r0, [pc, #40]	; 30002474 <.text+0x2474>
30002448:	eafffff8 	b	30002430 <sdi_test+0xf8>
3000244c:	30004a44 	andcc	r4, r0, r4, asr #20
30002450:	30009eb8 	strcch	r9, [r0], -r8
30002454:	30009cb8 	strcch	r9, [r0], -r8
30002458:	30004a58 	andcc	r4, r0, r8, asr sl
3000245c:	30004a74 	andcc	r4, r0, r4, ror sl
30002460:	30004a90 	mulcc	r0, r0, sl
30002464:	30004aa0 	andcc	r4, r0, r0, lsr #21
30002468:	30004a00 	andcc	r4, r0, r0, lsl #20
3000246c:	30004aa4 	andcc	r4, r0, r4, lsr #21
30002470:	30004abc 	strcch	r4, [r0], -ip
30002474:	30004adc 	ldrccd	r4, [r0], -ip
	...

30002480 <__do_div64>:
30002480:	e254c001 	subs	ip, r4, #1	; 0x1
30002484:	9a00003f 	bls	30002588 <__do_div64+0x108>
30002488:	e11c0004 	tst	ip, r4
3000248c:	0a000028 	beq	30002534 <__do_div64+0xb4>
30002490:	e1510004 	cmp	r1, r4
30002494:	e3a03000 	mov	r3, #0	; 0x0
30002498:	3a00000c 	bcc	300024d0 <__do_div64+0x50>
3000249c:	e1a02004 	mov	r2, r4
300024a0:	e3a0c001 	mov	ip, #1	; 0x1
300024a4:	e3520102 	cmp	r2, #-2147483648	; 0x80000000
300024a8:	31520001 	cmpcc	r2, r1
300024ac:	31a02082 	movcc	r2, r2, lsl #1
300024b0:	31a0c08c 	movcc	ip, ip, lsl #1
300024b4:	3afffffa 	bcc	300024a4 <__do_div64+0x24>
300024b8:	e1510002 	cmp	r1, r2
300024bc:	2183300c 	orrcs	r3, r3, ip
300024c0:	20511002 	subcss	r1, r1, r2
300024c4:	11b0c0ac 	movnes	ip, ip, lsr #1
300024c8:	e1a020a2 	mov	r2, r2, lsr #1
300024cc:	1afffff9 	bne	300024b8 <__do_div64+0x38>
300024d0:	e3510000 	cmp	r1, #0	; 0x0
300024d4:	e3a02000 	mov	r2, #0	; 0x0
300024d8:	01500004 	cmpeq	r0, r4
300024dc:	31a01000 	movcc	r1, r0
300024e0:	31a0f00e 	movcc	pc, lr
300024e4:	e3a0c102 	mov	ip, #-2147483648	; 0x80000000
300024e8:	e1b00080 	movs	r0, r0, lsl #1
300024ec:	e0b11001 	adcs	r1, r1, r1
300024f0:	0a000005 	beq	3000250c <__do_div64+0x8c>
300024f4:	31510004 	cmpcc	r1, r4
300024f8:	2182200c 	orrcs	r2, r2, ip
300024fc:	20411004 	subcs	r1, r1, r4
30002500:	e1b0c0ac 	movs	ip, ip, lsr #1
30002504:	1afffff7 	bne	300024e8 <__do_div64+0x68>
30002508:	e1a0f00e 	mov	pc, lr
3000250c:	2afffff9 	bcs	300024f8 <__do_div64+0x78>
30002510:	e3500000 	cmp	r0, #0	; 0x0
30002514:	01a0f00e 	moveq	pc, lr
30002518:	e1b00080 	movs	r0, r0, lsl #1
3000251c:	e1a0c0ac 	mov	ip, ip, lsr #1
30002520:	3afffffc 	bcc	30002518 <__do_div64+0x98>
30002524:	e1b0c0ac 	movs	ip, ip, lsr #1
30002528:	e3a01001 	mov	r1, #1	; 0x1
3000252c:	1affffed 	bne	300024e8 <__do_div64+0x68>
30002530:	e1a0f00e 	mov	pc, lr
30002534:	e1a02004 	mov	r2, r4
30002538:	e3540801 	cmp	r4, #65536	; 0x10000
3000253c:	e3a0c000 	mov	ip, #0	; 0x0
30002540:	21a02822 	movcs	r2, r2, lsr #16
30002544:	23a0c010 	movcs	ip, #16	; 0x10
30002548:	e3520c01 	cmp	r2, #256	; 0x100
3000254c:	21a02422 	movcs	r2, r2, lsr #8
30002550:	228cc008 	addcs	ip, ip, #8	; 0x8
30002554:	e3520010 	cmp	r2, #16	; 0x10
30002558:	21a02222 	movcs	r2, r2, lsr #4
3000255c:	228cc004 	addcs	ip, ip, #4	; 0x4
30002560:	e3520004 	cmp	r2, #4	; 0x4
30002564:	828cc003 	addhi	ip, ip, #3	; 0x3
30002568:	908cc0a2 	addls	ip, ip, r2, lsr #1
3000256c:	e1a03c31 	mov	r3, r1, lsr ip
30002570:	e1a02c30 	mov	r2, r0, lsr ip
30002574:	e26cc020 	rsb	ip, ip, #32	; 0x20
30002578:	e1822c11 	orr	r2, r2, r1, lsl ip
3000257c:	e1a01c10 	mov	r1, r0, lsl ip
30002580:	e1a01c31 	mov	r1, r1, lsr ip
30002584:	e1a0f00e 	mov	pc, lr
30002588:	01a02000 	moveq	r2, r0
3000258c:	01a03001 	moveq	r3, r1
30002590:	03a01000 	moveq	r1, #0	; 0x0
30002594:	01a0f00e 	moveq	pc, lr
30002598:	e52de004 	str	lr, [sp, #-4]!
3000259c:	e3a02000 	mov	r2, #0	; 0x0
300025a0:	e3a03000 	mov	r3, #0	; 0x0
300025a4:	e3a01000 	mov	r1, #0	; 0x0
300025a8:	e49df004 	ldr	pc, [sp], #4
300025ac:	e1a00000 	nop			(mov r0,r0)

300025b0 <__udivsi3>:
300025b0:	e2512001 	subs	r2, r1, #1	; 0x1
300025b4:	01a0f00e 	moveq	pc, lr
300025b8:	3a0000e5 	bcc	30002954 <Ldiv0>
300025bc:	e1500001 	cmp	r0, r1
300025c0:	9a000022 	bls	30002650 <__udivsi3+0xa0>
300025c4:	e1110002 	tst	r1, r2
300025c8:	0a000023 	beq	3000265c <__udivsi3+0xac>
300025cc:	e311020e 	tst	r1, #-536870912	; 0xe0000000
300025d0:	01a01181 	moveq	r1, r1, lsl #3
300025d4:	03a03008 	moveq	r3, #8	; 0x8
300025d8:	13a03001 	movne	r3, #1	; 0x1
300025dc:	e3510201 	cmp	r1, #268435456	; 0x10000000
300025e0:	31510000 	cmpcc	r1, r0
300025e4:	31a01201 	movcc	r1, r1, lsl #4
300025e8:	31a03203 	movcc	r3, r3, lsl #4
300025ec:	3afffffa 	bcc	300025dc <__udivsi3+0x2c>
300025f0:	e3510102 	cmp	r1, #-2147483648	; 0x80000000
300025f4:	31510000 	cmpcc	r1, r0
300025f8:	31a01081 	movcc	r1, r1, lsl #1
300025fc:	31a03083 	movcc	r3, r3, lsl #1
30002600:	3afffffa 	bcc	300025f0 <__udivsi3+0x40>
30002604:	e3a02000 	mov	r2, #0	; 0x0
30002608:	e1500001 	cmp	r0, r1
3000260c:	20400001 	subcs	r0, r0, r1
30002610:	21822003 	orrcs	r2, r2, r3
30002614:	e15000a1 	cmp	r0, r1, lsr #1
30002618:	204000a1 	subcs	r0, r0, r1, lsr #1
3000261c:	218220a3 	orrcs	r2, r2, r3, lsr #1
30002620:	e1500121 	cmp	r0, r1, lsr #2
30002624:	20400121 	subcs	r0, r0, r1, lsr #2
30002628:	21822123 	orrcs	r2, r2, r3, lsr #2
3000262c:	e15001a1 	cmp	r0, r1, lsr #3
30002630:	204001a1 	subcs	r0, r0, r1, lsr #3
30002634:	218221a3 	orrcs	r2, r2, r3, lsr #3
30002638:	e3500000 	cmp	r0, #0	; 0x0
3000263c:	11b03223 	movnes	r3, r3, lsr #4
30002640:	11a01221 	movne	r1, r1, lsr #4
30002644:	1affffef 	bne	30002608 <__udivsi3+0x58>
30002648:	e1a00002 	mov	r0, r2
3000264c:	e1a0f00e 	mov	pc, lr
30002650:	03a00001 	moveq	r0, #1	; 0x1
30002654:	13a00000 	movne	r0, #0	; 0x0
30002658:	e1a0f00e 	mov	pc, lr
3000265c:	e3510801 	cmp	r1, #65536	; 0x10000
30002660:	21a01821 	movcs	r1, r1, lsr #16
30002664:	23a02010 	movcs	r2, #16	; 0x10
30002668:	33a02000 	movcc	r2, #0	; 0x0
3000266c:	e3510c01 	cmp	r1, #256	; 0x100
30002670:	21a01421 	movcs	r1, r1, lsr #8
30002674:	22822008 	addcs	r2, r2, #8	; 0x8
30002678:	e3510010 	cmp	r1, #16	; 0x10
3000267c:	21a01221 	movcs	r1, r1, lsr #4
30002680:	22822004 	addcs	r2, r2, #4	; 0x4
30002684:	e3510004 	cmp	r1, #4	; 0x4
30002688:	82822003 	addhi	r2, r2, #3	; 0x3
3000268c:	908220a1 	addls	r2, r2, r1, lsr #1
30002690:	e1a00230 	mov	r0, r0, lsr r2
30002694:	e1a0f00e 	mov	pc, lr
30002698:	90909090 	umulllss	r9, r0, r0, r0
3000269c:	90909090 	umulllss	r9, r0, r0, r0

300026a0 <__umodsi3>:
300026a0:	e2512001 	subs	r2, r1, #1	; 0x1
300026a4:	3a0000aa 	bcc	30002954 <Ldiv0>
300026a8:	11500001 	cmpne	r0, r1
300026ac:	03a00000 	moveq	r0, #0	; 0x0
300026b0:	81110002 	tsthi	r1, r2
300026b4:	00000002 	andeq	r0, r0, r2
300026b8:	91a0f00e 	movls	pc, lr
300026bc:	e3a02000 	mov	r2, #0	; 0x0
300026c0:	e3510201 	cmp	r1, #268435456	; 0x10000000
300026c4:	31510000 	cmpcc	r1, r0
300026c8:	31a01201 	movcc	r1, r1, lsl #4
300026cc:	32822004 	addcc	r2, r2, #4	; 0x4
300026d0:	3afffffa 	bcc	300026c0 <__umodsi3+0x20>
300026d4:	e3510102 	cmp	r1, #-2147483648	; 0x80000000
300026d8:	31510000 	cmpcc	r1, r0
300026dc:	31a01081 	movcc	r1, r1, lsl #1
300026e0:	32822001 	addcc	r2, r2, #1	; 0x1
300026e4:	3afffffa 	bcc	300026d4 <__umodsi3+0x34>
300026e8:	e2522003 	subs	r2, r2, #3	; 0x3
300026ec:	ba00000e 	blt	3000272c <__umodsi3+0x8c>
300026f0:	e1500001 	cmp	r0, r1
300026f4:	20400001 	subcs	r0, r0, r1
300026f8:	e15000a1 	cmp	r0, r1, lsr #1
300026fc:	204000a1 	subcs	r0, r0, r1, lsr #1
30002700:	e1500121 	cmp	r0, r1, lsr #2
30002704:	20400121 	subcs	r0, r0, r1, lsr #2
30002708:	e15001a1 	cmp	r0, r1, lsr #3
3000270c:	204001a1 	subcs	r0, r0, r1, lsr #3
30002710:	e3500001 	cmp	r0, #1	; 0x1
30002714:	e1a01221 	mov	r1, r1, lsr #4
30002718:	a2522004 	subges	r2, r2, #4	; 0x4
3000271c:	aafffff3 	bge	300026f0 <__umodsi3+0x50>
30002720:	e3120003 	tst	r2, #3	; 0x3
30002724:	13300000 	teqne	r0, #0	; 0x0
30002728:	0a00000a 	beq	30002758 <__umodsi3+0xb8>
3000272c:	e3720002 	cmn	r2, #2	; 0x2
30002730:	ba000006 	blt	30002750 <__umodsi3+0xb0>
30002734:	0a000002 	beq	30002744 <__umodsi3+0xa4>
30002738:	e1500001 	cmp	r0, r1
3000273c:	20400001 	subcs	r0, r0, r1
30002740:	e1a010a1 	mov	r1, r1, lsr #1
30002744:	e1500001 	cmp	r0, r1
30002748:	20400001 	subcs	r0, r0, r1
3000274c:	e1a010a1 	mov	r1, r1, lsr #1
30002750:	e1500001 	cmp	r0, r1
30002754:	20400001 	subcs	r0, r0, r1
30002758:	e1a0f00e 	mov	pc, lr
3000275c:	90909090 	umulllss	r9, r0, r0, r0

30002760 <__divsi3>:
30002760:	e3510000 	cmp	r1, #0	; 0x0
30002764:	e020c001 	eor	ip, r0, r1
30002768:	0a000079 	beq	30002954 <Ldiv0>
3000276c:	42611000 	rsbmi	r1, r1, #0	; 0x0
30002770:	e2512001 	subs	r2, r1, #1	; 0x1
30002774:	0a000027 	beq	30002818 <__divsi3+0xb8>
30002778:	e1b03000 	movs	r3, r0
3000277c:	42603000 	rsbmi	r3, r0, #0	; 0x0
30002780:	e1530001 	cmp	r3, r1
30002784:	9a000026 	bls	30002824 <__divsi3+0xc4>
30002788:	e1110002 	tst	r1, r2
3000278c:	0a000028 	beq	30002834 <__divsi3+0xd4>
30002790:	e311020e 	tst	r1, #-536870912	; 0xe0000000
30002794:	01a01181 	moveq	r1, r1, lsl #3
30002798:	03a02008 	moveq	r2, #8	; 0x8
3000279c:	13a02001 	movne	r2, #1	; 0x1
300027a0:	e3510201 	cmp	r1, #268435456	; 0x10000000
300027a4:	31510003 	cmpcc	r1, r3
300027a8:	31a01201 	movcc	r1, r1, lsl #4
300027ac:	31a02202 	movcc	r2, r2, lsl #4
300027b0:	3afffffa 	bcc	300027a0 <__divsi3+0x40>
300027b4:	e3510102 	cmp	r1, #-2147483648	; 0x80000000
300027b8:	31510003 	cmpcc	r1, r3
300027bc:	31a01081 	movcc	r1, r1, lsl #1
300027c0:	31a02082 	movcc	r2, r2, lsl #1
300027c4:	3afffffa 	bcc	300027b4 <__divsi3+0x54>
300027c8:	e3a00000 	mov	r0, #0	; 0x0
300027cc:	e1530001 	cmp	r3, r1
300027d0:	20433001 	subcs	r3, r3, r1
300027d4:	21800002 	orrcs	r0, r0, r2
300027d8:	e15300a1 	cmp	r3, r1, lsr #1
300027dc:	204330a1 	subcs	r3, r3, r1, lsr #1
300027e0:	218000a2 	orrcs	r0, r0, r2, lsr #1
300027e4:	e1530121 	cmp	r3, r1, lsr #2
300027e8:	20433121 	subcs	r3, r3, r1, lsr #2
300027ec:	21800122 	orrcs	r0, r0, r2, lsr #2
300027f0:	e15301a1 	cmp	r3, r1, lsr #3
300027f4:	204331a1 	subcs	r3, r3, r1, lsr #3
300027f8:	218001a2 	orrcs	r0, r0, r2, lsr #3
300027fc:	e3530000 	cmp	r3, #0	; 0x0
30002800:	11b02222 	movnes	r2, r2, lsr #4
30002804:	11a01221 	movne	r1, r1, lsr #4
30002808:	1affffef 	bne	300027cc <__divsi3+0x6c>
3000280c:	e35c0000 	cmp	ip, #0	; 0x0
30002810:	42600000 	rsbmi	r0, r0, #0	; 0x0
30002814:	e1a0f00e 	mov	pc, lr
30002818:	e13c0000 	teq	ip, r0
3000281c:	42600000 	rsbmi	r0, r0, #0	; 0x0
30002820:	e1a0f00e 	mov	pc, lr
30002824:	33a00000 	movcc	r0, #0	; 0x0
30002828:	01a00fcc 	moveq	r0, ip, asr #31
3000282c:	03800001 	orreq	r0, r0, #1	; 0x1
30002830:	e1a0f00e 	mov	pc, lr
30002834:	e3510801 	cmp	r1, #65536	; 0x10000
30002838:	21a01821 	movcs	r1, r1, lsr #16
3000283c:	23a02010 	movcs	r2, #16	; 0x10
30002840:	33a02000 	movcc	r2, #0	; 0x0
30002844:	e3510c01 	cmp	r1, #256	; 0x100
30002848:	21a01421 	movcs	r1, r1, lsr #8
3000284c:	22822008 	addcs	r2, r2, #8	; 0x8
30002850:	e3510010 	cmp	r1, #16	; 0x10
30002854:	21a01221 	movcs	r1, r1, lsr #4
30002858:	22822004 	addcs	r2, r2, #4	; 0x4
3000285c:	e3510004 	cmp	r1, #4	; 0x4
30002860:	82822003 	addhi	r2, r2, #3	; 0x3
30002864:	908220a1 	addls	r2, r2, r1, lsr #1
30002868:	e35c0000 	cmp	ip, #0	; 0x0
3000286c:	e1a00233 	mov	r0, r3, lsr r2
30002870:	42600000 	rsbmi	r0, r0, #0	; 0x0
30002874:	e1a0f00e 	mov	pc, lr
30002878:	90909090 	umulllss	r9, r0, r0, r0
3000287c:	90909090 	umulllss	r9, r0, r0, r0

30002880 <__modsi3>:
30002880:	e3510000 	cmp	r1, #0	; 0x0
30002884:	0a000032 	beq	30002954 <Ldiv0>
30002888:	42611000 	rsbmi	r1, r1, #0	; 0x0
3000288c:	e1b0c000 	movs	ip, r0
30002890:	42600000 	rsbmi	r0, r0, #0	; 0x0
30002894:	e2512001 	subs	r2, r1, #1	; 0x1
30002898:	11500001 	cmpne	r0, r1
3000289c:	03a00000 	moveq	r0, #0	; 0x0
300028a0:	81110002 	tsthi	r1, r2
300028a4:	00000002 	andeq	r0, r0, r2
300028a8:	9a000026 	bls	30002948 <__modsi3+0xc8>
300028ac:	e3a02000 	mov	r2, #0	; 0x0
300028b0:	e3510201 	cmp	r1, #268435456	; 0x10000000
300028b4:	31510000 	cmpcc	r1, r0
300028b8:	31a01201 	movcc	r1, r1, lsl #4
300028bc:	32822004 	addcc	r2, r2, #4	; 0x4
300028c0:	3afffffa 	bcc	300028b0 <__modsi3+0x30>
300028c4:	e3510102 	cmp	r1, #-2147483648	; 0x80000000
300028c8:	31510000 	cmpcc	r1, r0
300028cc:	31a01081 	movcc	r1, r1, lsl #1
300028d0:	32822001 	addcc	r2, r2, #1	; 0x1
300028d4:	3afffffa 	bcc	300028c4 <__modsi3+0x44>
300028d8:	e2522003 	subs	r2, r2, #3	; 0x3
300028dc:	ba00000e 	blt	3000291c <__modsi3+0x9c>
300028e0:	e1500001 	cmp	r0, r1
300028e4:	20400001 	subcs	r0, r0, r1
300028e8:	e15000a1 	cmp	r0, r1, lsr #1
300028ec:	204000a1 	subcs	r0, r0, r1, lsr #1
300028f0:	e1500121 	cmp	r0, r1, lsr #2
300028f4:	20400121 	subcs	r0, r0, r1, lsr #2
300028f8:	e15001a1 	cmp	r0, r1, lsr #3
300028fc:	204001a1 	subcs	r0, r0, r1, lsr #3
30002900:	e3500001 	cmp	r0, #1	; 0x1
30002904:	e1a01221 	mov	r1, r1, lsr #4
30002908:	a2522004 	subges	r2, r2, #4	; 0x4
3000290c:	aafffff3 	bge	300028e0 <__modsi3+0x60>
30002910:	e3120003 	tst	r2, #3	; 0x3
30002914:	13300000 	teqne	r0, #0	; 0x0
30002918:	0a00000a 	beq	30002948 <__modsi3+0xc8>
3000291c:	e3720002 	cmn	r2, #2	; 0x2
30002920:	ba000006 	blt	30002940 <__modsi3+0xc0>
30002924:	0a000002 	beq	30002934 <__modsi3+0xb4>
30002928:	e1500001 	cmp	r0, r1
3000292c:	20400001 	subcs	r0, r0, r1
30002930:	e1a010a1 	mov	r1, r1, lsr #1
30002934:	e1500001 	cmp	r0, r1
30002938:	20400001 	subcs	r0, r0, r1
3000293c:	e1a010a1 	mov	r1, r1, lsr #1
30002940:	e1500001 	cmp	r0, r1
30002944:	20400001 	subcs	r0, r0, r1
30002948:	e35c0000 	cmp	ip, #0	; 0x0
3000294c:	42600000 	rsbmi	r0, r0, #0	; 0x0
30002950:	e1a0f00e 	mov	pc, lr

30002954 <Ldiv0>:
30002954:	e52de004 	str	lr, [sp, #-4]!
30002958:	e3a00000 	mov	r0, #0	; 0x0
3000295c:	e49df004 	ldr	pc, [sp], #4

30002960 <__muldi3>:
30002960:	e00c0192 	mul	ip, r2, r1
30002964:	e92d41f0 	stmdb	sp!, {r4, r5, r6, r7, r8, lr}
30002968:	e02ec093 	mla	lr, r3, r0, ip
3000296c:	e1a08820 	mov	r8, r0, lsr #16
30002970:	e1a05822 	mov	r5, r2, lsr #16
30002974:	e1c07808 	bic	r7, r0, r8, lsl #16
30002978:	e1c26805 	bic	r6, r2, r5, lsl #16
3000297c:	e00c0697 	mul	ip, r7, r6
30002980:	e0060698 	mul	r6, r8, r6
30002984:	e0070795 	mul	r7, r5, r7
30002988:	e0050598 	mul	r5, r8, r5
3000298c:	e0967007 	adds	r7, r6, r7
30002990:	22855801 	addcs	r5, r5, #65536	; 0x10000
30002994:	e09cc807 	adds	ip, ip, r7, lsl #16
30002998:	e0a55827 	adc	r5, r5, r7, lsr #16
3000299c:	e1a0400c 	mov	r4, ip
300029a0:	e1a01005 	mov	r1, r5
300029a4:	e1a00004 	mov	r0, r4
300029a8:	e08e1005 	add	r1, lr, r5
300029ac:	e8bd81f0 	ldmia	sp!, {r4, r5, r6, r7, r8, pc}

300029b0 <printk>:
300029b0:	e92d000f 	stmdb	sp!, {r0, r1, r2, r3}
300029b4:	e59f0048 	ldr	r0, [pc, #72]	; 30002a04 <.text+0x2a04>
300029b8:	e92d4070 	stmdb	sp!, {r4, r5, r6, lr}
300029bc:	e59d1010 	ldr	r1, [sp, #16]
300029c0:	e3a04000 	mov	r4, #0	; 0x0
300029c4:	e59f5038 	ldr	r5, [pc, #56]	; 30002a04 <.text+0x2a04>
300029c8:	e28d2014 	add	r2, sp, #20	; 0x14
300029cc:	eb0004ac 	bl	30003c84 <vsprintf>
300029d0:	e1a06000 	mov	r6, r0
300029d4:	ea000002 	b	300029e4 <printk+0x34>
300029d8:	e7d50004 	ldrb	r0, [r5, r4]
300029dc:	ebfff992 	bl	3000102c <putc>
300029e0:	e2844001 	add	r4, r4, #1	; 0x1
300029e4:	e59f0018 	ldr	r0, [pc, #24]	; 30002a04 <.text+0x2a04>
300029e8:	eb000097 	bl	30002c4c <strlen>
300029ec:	e1540000 	cmp	r4, r0
300029f0:	3afffff8 	bcc	300029d8 <printk+0x28>
300029f4:	e1a00006 	mov	r0, r6
300029f8:	e8bd4070 	ldmia	sp!, {r4, r5, r6, lr}
300029fc:	e28dd010 	add	sp, sp, #16	; 0x10
30002a00:	e1a0f00e 	mov	pc, lr
30002a04:	3000941c 	andcc	r9, r0, ip, lsl r4

30002a08 <scanf>:
30002a08:	e92d000f 	stmdb	sp!, {r0, r1, r2, r3}
30002a0c:	e92d4030 	stmdb	sp!, {r4, r5, lr}
30002a10:	e59f5044 	ldr	r5, [pc, #68]	; 30002a5c <.text+0x2a5c>
30002a14:	e3a04000 	mov	r4, #0	; 0x0
30002a18:	ea000001 	b	30002a24 <scanf+0x1c>
30002a1c:	e7c40005 	strb	r0, [r4, r5]
30002a20:	e2844001 	add	r4, r4, #1	; 0x1
30002a24:	ebfff987 	bl	30001048 <getc>
30002a28:	e20000ff 	and	r0, r0, #255	; 0xff
30002a2c:	e350000a 	cmp	r0, #10	; 0xa
30002a30:	1350000d 	cmpne	r0, #13	; 0xd
30002a34:	1afffff8 	bne	30002a1c <scanf+0x14>
30002a38:	e3a03000 	mov	r3, #0	; 0x0
30002a3c:	e59d100c 	ldr	r1, [sp, #12]
30002a40:	e28d2010 	add	r2, sp, #16	; 0x10
30002a44:	e59f0010 	ldr	r0, [pc, #16]	; 30002a5c <.text+0x2a5c>
30002a48:	e7c53004 	strb	r3, [r5, r4]
30002a4c:	eb000498 	bl	30003cb4 <vsscanf>
30002a50:	e8bd4030 	ldmia	sp!, {r4, r5, lr}
30002a54:	e28dd010 	add	sp, sp, #16	; 0x10
30002a58:	e1a0f00e 	mov	pc, lr
30002a5c:	3000981c 	andcc	r9, r0, ip, lsl r8

30002a60 <strnicmp>:
30002a60:	e92d41f0 	stmdb	sp!, {r4, r5, r6, r7, r8, lr}
30002a64:	e3520000 	cmp	r2, #0	; 0x0
30002a68:	e3a0e000 	mov	lr, #0	; 0x0
30002a6c:	e1a07000 	mov	r7, r0
30002a70:	e1a06001 	mov	r6, r1
30002a74:	e1a0c00e 	mov	ip, lr
30002a78:	0a000018 	beq	30002ae0 <strnicmp+0x80>
30002a7c:	e4d7e001 	ldrb	lr, [r7], #1
30002a80:	e35e0000 	cmp	lr, #0	; 0x0
30002a84:	e59f805c 	ldr	r8, [pc, #92]	; 30002ae8 <.text+0x2ae8>
30002a88:	e4d6c001 	ldrb	ip, [r6], #1
30002a8c:	0a000013 	beq	30002ae0 <strnicmp+0x80>
30002a90:	e35c0000 	cmp	ip, #0	; 0x0
30002a94:	e1a0100e 	mov	r1, lr
30002a98:	e1a0400c 	mov	r4, ip
30002a9c:	0a00000f 	beq	30002ae0 <strnicmp+0x80>
30002aa0:	e15e000c 	cmp	lr, ip
30002aa4:	0a00000b 	beq	30002ad8 <strnicmp+0x78>
30002aa8:	e7d8300e 	ldrb	r3, [r8, lr]
30002aac:	e3130001 	tst	r3, #1	; 0x1
30002ab0:	e7d8300c 	ldrb	r3, [r8, ip]
30002ab4:	e28e0020 	add	r0, lr, #32	; 0x20
30002ab8:	e28c5020 	add	r5, ip, #32	; 0x20
30002abc:	120010ff 	andne	r1, r0, #255	; 0xff
30002ac0:	e3130001 	tst	r3, #1	; 0x1
30002ac4:	120540ff 	andne	r4, r5, #255	; 0xff
30002ac8:	e201e0ff 	and	lr, r1, #255	; 0xff
30002acc:	e204c0ff 	and	ip, r4, #255	; 0xff
30002ad0:	e15e000c 	cmp	lr, ip
30002ad4:	1a000001 	bne	30002ae0 <strnicmp+0x80>
30002ad8:	e2522001 	subs	r2, r2, #1	; 0x1
30002adc:	1affffe6 	bne	30002a7c <strnicmp+0x1c>
30002ae0:	e06c000e 	rsb	r0, ip, lr
30002ae4:	e8bd81f0 	ldmia	sp!, {r4, r5, r6, r7, r8, pc}
30002ae8:	30004b18 	andcc	r4, r0, r8, lsl fp

30002aec <strcpy>:
30002aec:	e1a02000 	mov	r2, r0
30002af0:	e4d13001 	ldrb	r3, [r1], #1
30002af4:	e3530000 	cmp	r3, #0	; 0x0
30002af8:	e4c03001 	strb	r3, [r0], #1
30002afc:	1afffffb 	bne	30002af0 <strcpy+0x4>
30002b00:	e1a00002 	mov	r0, r2
30002b04:	e1a0f00e 	mov	pc, lr

30002b08 <strncpy>:
30002b08:	e1a0c000 	mov	ip, r0
30002b0c:	e2522001 	subs	r2, r2, #1	; 0x1
30002b10:	3a000003 	bcc	30002b24 <strncpy+0x1c>
30002b14:	e4d13001 	ldrb	r3, [r1], #1
30002b18:	e3530000 	cmp	r3, #0	; 0x0
30002b1c:	e4c03001 	strb	r3, [r0], #1
30002b20:	1afffff9 	bne	30002b0c <strncpy+0x4>
30002b24:	e1a0000c 	mov	r0, ip
30002b28:	e1a0f00e 	mov	pc, lr

30002b2c <strcat>:
30002b2c:	e5d03000 	ldrb	r3, [r0]
30002b30:	e1a02000 	mov	r2, r0
30002b34:	ea000000 	b	30002b3c <strcat+0x10>
30002b38:	e5f03001 	ldrb	r3, [r0, #1]!
30002b3c:	e3530000 	cmp	r3, #0	; 0x0
30002b40:	1afffffc 	bne	30002b38 <strcat+0xc>
30002b44:	e4d13001 	ldrb	r3, [r1], #1
30002b48:	e3530000 	cmp	r3, #0	; 0x0
30002b4c:	e4c03001 	strb	r3, [r0], #1
30002b50:	1afffffb 	bne	30002b44 <strcat+0x18>
30002b54:	e1a00002 	mov	r0, r2
30002b58:	e1a0f00e 	mov	pc, lr

30002b5c <strncat>:
30002b5c:	e3520000 	cmp	r2, #0	; 0x0
30002b60:	e1a0c000 	mov	ip, r0
30002b64:	0a00000b 	beq	30002b98 <strncat+0x3c>
30002b68:	e5d03000 	ldrb	r3, [r0]
30002b6c:	ea000000 	b	30002b74 <strncat+0x18>
30002b70:	e5f03001 	ldrb	r3, [r0, #1]!
30002b74:	e3530000 	cmp	r3, #0	; 0x0
30002b78:	1afffffc 	bne	30002b70 <strncat+0x14>
30002b7c:	e4d13001 	ldrb	r3, [r1], #1
30002b80:	e3530000 	cmp	r3, #0	; 0x0
30002b84:	e4c03001 	strb	r3, [r0], #1
30002b88:	0a000002 	beq	30002b98 <strncat+0x3c>
30002b8c:	e2522001 	subs	r2, r2, #1	; 0x1
30002b90:	1afffff9 	bne	30002b7c <strncat+0x20>
30002b94:	e5c02000 	strb	r2, [r0]
30002b98:	e1a0000c 	mov	r0, ip
30002b9c:	e1a0f00e 	mov	pc, lr

30002ba0 <strcmp>:
30002ba0:	e5d02000 	ldrb	r2, [r0]
30002ba4:	e4d13001 	ldrb	r3, [r1], #1
30002ba8:	e0633002 	rsb	r3, r3, r2
30002bac:	e1b0cc03 	movs	ip, r3, lsl #24
30002bb0:	e2800001 	add	r0, r0, #1	; 0x1
30002bb4:	e20330ff 	and	r3, r3, #255	; 0xff
30002bb8:	1a000001 	bne	30002bc4 <strcmp+0x24>
30002bbc:	e3520000 	cmp	r2, #0	; 0x0
30002bc0:	1afffff6 	bne	30002ba0 <strcmp>
30002bc4:	e1a00c03 	mov	r0, r3, lsl #24
30002bc8:	e1a00c40 	mov	r0, r0, asr #24
30002bcc:	e1a0f00e 	mov	pc, lr

30002bd0 <strncmp>:
30002bd0:	e3520000 	cmp	r2, #0	; 0x0
30002bd4:	e52de004 	str	lr, [sp, #-4]!
30002bd8:	e3a03000 	mov	r3, #0	; 0x0
30002bdc:	0a00000a 	beq	30002c0c <strncmp+0x3c>
30002be0:	e5d0c000 	ldrb	ip, [r0]
30002be4:	e4d13001 	ldrb	r3, [r1], #1
30002be8:	e063300c 	rsb	r3, r3, ip
30002bec:	e1b0ec03 	movs	lr, r3, lsl #24
30002bf0:	e2800001 	add	r0, r0, #1	; 0x1
30002bf4:	e20330ff 	and	r3, r3, #255	; 0xff
30002bf8:	1a000003 	bne	30002c0c <strncmp+0x3c>
30002bfc:	e35c0000 	cmp	ip, #0	; 0x0
30002c00:	0a000001 	beq	30002c0c <strncmp+0x3c>
30002c04:	e2522001 	subs	r2, r2, #1	; 0x1
30002c08:	1afffff4 	bne	30002be0 <strncmp+0x10>
30002c0c:	e1a00c03 	mov	r0, r3, lsl #24
30002c10:	e1a00c40 	mov	r0, r0, asr #24
30002c14:	e49df004 	ldr	pc, [sp], #4

30002c18 <strchr>:
30002c18:	e5d02000 	ldrb	r2, [r0]
30002c1c:	e20110ff 	and	r1, r1, #255	; 0xff
30002c20:	e1520001 	cmp	r2, r1
30002c24:	e1a03000 	mov	r3, r0
30002c28:	0a000005 	beq	30002c44 <strchr+0x2c>
30002c2c:	e1a00002 	mov	r0, r2
30002c30:	e3500000 	cmp	r0, #0	; 0x0
30002c34:	01a0f00e 	moveq	pc, lr
30002c38:	e5f30001 	ldrb	r0, [r3, #1]!
30002c3c:	e1500001 	cmp	r0, r1
30002c40:	1afffffa 	bne	30002c30 <strchr+0x18>
30002c44:	e1a00003 	mov	r0, r3
30002c48:	e1a0f00e 	mov	pc, lr

30002c4c <strlen>:
30002c4c:	e5d03000 	ldrb	r3, [r0]
30002c50:	e3530000 	cmp	r3, #0	; 0x0
30002c54:	e1a02000 	mov	r2, r0
30002c58:	0a000002 	beq	30002c68 <strlen+0x1c>
30002c5c:	e5f03001 	ldrb	r3, [r0, #1]!
30002c60:	e3530000 	cmp	r3, #0	; 0x0
30002c64:	1afffffc 	bne	30002c5c <strlen+0x10>
30002c68:	e0620000 	rsb	r0, r2, r0
30002c6c:	e1a0f00e 	mov	pc, lr

30002c70 <strrchr>:
30002c70:	e92d4030 	stmdb	sp!, {r4, r5, lr}
30002c74:	e1a04001 	mov	r4, r1
30002c78:	e1a05000 	mov	r5, r0
30002c7c:	ebfffff2 	bl	30002c4c <strlen>
30002c80:	e20440ff 	and	r4, r4, #255	; 0xff
30002c84:	e0800005 	add	r0, r0, r5
30002c88:	e5d03000 	ldrb	r3, [r0]
30002c8c:	e1530004 	cmp	r3, r4
30002c90:	08bd8030 	ldmeqia	sp!, {r4, r5, pc}
30002c94:	e2400001 	sub	r0, r0, #1	; 0x1
30002c98:	e1500005 	cmp	r0, r5
30002c9c:	2afffff9 	bcs	30002c88 <strrchr+0x18>
30002ca0:	e3a00000 	mov	r0, #0	; 0x0
30002ca4:	e8bd8030 	ldmia	sp!, {r4, r5, pc}

30002ca8 <strnlen>:
30002ca8:	e2411001 	sub	r1, r1, #1	; 0x1
30002cac:	e3710001 	cmn	r1, #1	; 0x1
30002cb0:	e1a02000 	mov	r2, r0
30002cb4:	0a000009 	beq	30002ce0 <strnlen+0x38>
30002cb8:	e5d23000 	ldrb	r3, [r2]
30002cbc:	e3530000 	cmp	r3, #0	; 0x0
30002cc0:	0a000006 	beq	30002ce0 <strnlen+0x38>
30002cc4:	e2411001 	sub	r1, r1, #1	; 0x1
30002cc8:	e3710001 	cmn	r1, #1	; 0x1
30002ccc:	e2800001 	add	r0, r0, #1	; 0x1
30002cd0:	0a000002 	beq	30002ce0 <strnlen+0x38>
30002cd4:	e5d03000 	ldrb	r3, [r0]
30002cd8:	e3530000 	cmp	r3, #0	; 0x0
30002cdc:	1afffff8 	bne	30002cc4 <strnlen+0x1c>
30002ce0:	e0620000 	rsb	r0, r2, r0
30002ce4:	e1a0f00e 	mov	pc, lr

30002ce8 <strspn>:
30002ce8:	e92d4010 	stmdb	sp!, {r4, lr}
30002cec:	e3a0e000 	mov	lr, #0	; 0x0
30002cf0:	e5d03000 	ldrb	r3, [r0]
30002cf4:	e3530000 	cmp	r3, #0	; 0x0
30002cf8:	0a00000a 	beq	30002d28 <strspn+0x40>
30002cfc:	e5d14000 	ldrb	r4, [r1]
30002d00:	e3540000 	cmp	r4, #0	; 0x0
30002d04:	e1a02001 	mov	r2, r1
30002d08:	0a000008 	beq	30002d30 <strspn+0x48>
30002d0c:	e5d0c000 	ldrb	ip, [r0]
30002d10:	e1a03004 	mov	r3, r4
30002d14:	e15c0003 	cmp	ip, r3
30002d18:	0a00000d 	beq	30002d54 <strspn+0x6c>
30002d1c:	e5f23001 	ldrb	r3, [r2, #1]!
30002d20:	e3530000 	cmp	r3, #0	; 0x0
30002d24:	1afffffa 	bne	30002d14 <strspn+0x2c>
30002d28:	e1a0000e 	mov	r0, lr
30002d2c:	e8bd8010 	ldmia	sp!, {r4, pc}
30002d30:	e5d13000 	ldrb	r3, [r1]
30002d34:	e3530000 	cmp	r3, #0	; 0x0
30002d38:	0afffffa 	beq	30002d28 <strspn+0x40>
30002d3c:	e5f03001 	ldrb	r3, [r0, #1]!
30002d40:	e3530000 	cmp	r3, #0	; 0x0
30002d44:	e28ee001 	add	lr, lr, #1	; 0x1
30002d48:	1affffec 	bne	30002d00 <strspn+0x18>
30002d4c:	e1a0000e 	mov	r0, lr
30002d50:	e8bd8010 	ldmia	sp!, {r4, pc}
30002d54:	e5d23000 	ldrb	r3, [r2]
30002d58:	eafffff5 	b	30002d34 <strspn+0x4c>

30002d5c <strpbrk>:
30002d5c:	e52de004 	str	lr, [sp, #-4]!
30002d60:	e5d03000 	ldrb	r3, [r0]
30002d64:	e3530000 	cmp	r3, #0	; 0x0
30002d68:	0a00000c 	beq	30002da0 <strpbrk+0x44>
30002d6c:	e5d1e000 	ldrb	lr, [r1]
30002d70:	e25e3000 	subs	r3, lr, #0	; 0x0
30002d74:	e1a02001 	mov	r2, r1
30002d78:	0a000005 	beq	30002d94 <strpbrk+0x38>
30002d7c:	e5d0c000 	ldrb	ip, [r0]
30002d80:	e15c0003 	cmp	ip, r3
30002d84:	049df004 	ldreq	pc, [sp], #4
30002d88:	e5f23001 	ldrb	r3, [r2, #1]!
30002d8c:	e3530000 	cmp	r3, #0	; 0x0
30002d90:	1afffffa 	bne	30002d80 <strpbrk+0x24>
30002d94:	e5f03001 	ldrb	r3, [r0, #1]!
30002d98:	e3530000 	cmp	r3, #0	; 0x0
30002d9c:	1afffff3 	bne	30002d70 <strpbrk+0x14>
30002da0:	e3a00000 	mov	r0, #0	; 0x0
30002da4:	e49df004 	ldr	pc, [sp], #4

30002da8 <strtok>:
30002da8:	e92d4070 	stmdb	sp!, {r4, r5, r6, lr}
30002dac:	e2504000 	subs	r4, r0, #0	; 0x0
30002db0:	e1a05001 	mov	r5, r1
30002db4:	159f606c 	ldrne	r6, [pc, #108]	; 30002e28 <.text+0x2e28>
30002db8:	0a000014 	beq	30002e10 <strtok+0x68>
30002dbc:	e1a00004 	mov	r0, r4
30002dc0:	e1a01005 	mov	r1, r5
30002dc4:	ebffffc7 	bl	30002ce8 <strspn>
30002dc8:	e7f43000 	ldrb	r3, [r4, r0]!
30002dcc:	e20330ff 	and	r3, r3, #255	; 0xff
30002dd0:	e3530000 	cmp	r3, #0	; 0x0
30002dd4:	01a00003 	moveq	r0, r3
30002dd8:	05863000 	streq	r3, [r6]
30002ddc:	08bd8070 	ldmeqia	sp!, {r4, r5, r6, pc}
30002de0:	e1a01005 	mov	r1, r5
30002de4:	e1a00004 	mov	r0, r4
30002de8:	ebffffdb 	bl	30002d5c <strpbrk>
30002dec:	e3500000 	cmp	r0, #0	; 0x0
30002df0:	0a000003 	beq	30002e04 <strtok+0x5c>
30002df4:	e5d03000 	ldrb	r3, [r0]
30002df8:	e3530000 	cmp	r3, #0	; 0x0
30002dfc:	13a03000 	movne	r3, #0	; 0x0
30002e00:	14c03001 	strneb	r3, [r0], #1
30002e04:	e5860000 	str	r0, [r6]
30002e08:	e1a00004 	mov	r0, r4
30002e0c:	e8bd8070 	ldmia	sp!, {r4, r5, r6, pc}
30002e10:	e59f6010 	ldr	r6, [pc, #16]	; 30002e28 <.text+0x2e28>
30002e14:	e5964000 	ldr	r4, [r6]
30002e18:	e3540000 	cmp	r4, #0	; 0x0
30002e1c:	01a00004 	moveq	r0, r4
30002e20:	1affffe5 	bne	30002dbc <strtok+0x14>
30002e24:	e8bd8070 	ldmia	sp!, {r4, r5, r6, pc}
30002e28:	3000a0e4 	andcc	sl, r0, r4, ror #1

30002e2c <strsep>:
30002e2c:	e92d4030 	stmdb	sp!, {r4, r5, lr}
30002e30:	e1a05000 	mov	r5, r0
30002e34:	e5904000 	ldr	r4, [r0]
30002e38:	e2540000 	subs	r0, r4, #0	; 0x0
30002e3c:	e1a03004 	mov	r3, r4
30002e40:	0a000005 	beq	30002e5c <strsep+0x30>
30002e44:	ebffffc4 	bl	30002d5c <strpbrk>
30002e48:	e3500000 	cmp	r0, #0	; 0x0
30002e4c:	13a03000 	movne	r3, #0	; 0x0
30002e50:	14c03001 	strneb	r3, [r0], #1
30002e54:	e1a03004 	mov	r3, r4
30002e58:	e5850000 	str	r0, [r5]
30002e5c:	e1a00003 	mov	r0, r3
30002e60:	e8bd8030 	ldmia	sp!, {r4, r5, pc}

30002e64 <memset>:
30002e64:	e2422001 	sub	r2, r2, #1	; 0x1
30002e68:	e3720001 	cmn	r2, #1	; 0x1
30002e6c:	e1a03000 	mov	r3, r0
30002e70:	01a0f00e 	moveq	pc, lr
30002e74:	e2422001 	sub	r2, r2, #1	; 0x1
30002e78:	e3720001 	cmn	r2, #1	; 0x1
30002e7c:	e4c31001 	strb	r1, [r3], #1
30002e80:	1afffffb 	bne	30002e74 <memset+0x10>
30002e84:	e1a0f00e 	mov	pc, lr

30002e88 <bcopy>:
30002e88:	e2522001 	subs	r2, r2, #1	; 0x1
30002e8c:	31a0f00e 	movcc	pc, lr
30002e90:	e2422001 	sub	r2, r2, #1	; 0x1
30002e94:	e4d03001 	ldrb	r3, [r0], #1
30002e98:	e3720001 	cmn	r2, #1	; 0x1
30002e9c:	e4c13001 	strb	r3, [r1], #1
30002ea0:	1afffffa 	bne	30002e90 <bcopy+0x8>
30002ea4:	e1a0f00e 	mov	pc, lr

30002ea8 <memcpy>:
30002ea8:	e2422001 	sub	r2, r2, #1	; 0x1
30002eac:	e3720001 	cmn	r2, #1	; 0x1
30002eb0:	e1a0c000 	mov	ip, r0
30002eb4:	01a0f00e 	moveq	pc, lr
30002eb8:	e2422001 	sub	r2, r2, #1	; 0x1
30002ebc:	e4d13001 	ldrb	r3, [r1], #1
30002ec0:	e3720001 	cmn	r2, #1	; 0x1
30002ec4:	e4cc3001 	strb	r3, [ip], #1
30002ec8:	1afffffa 	bne	30002eb8 <memcpy+0x10>
30002ecc:	e1a0f00e 	mov	pc, lr

30002ed0 <memmove>:
30002ed0:	e1500001 	cmp	r0, r1
30002ed4:	8a000009 	bhi	30002f00 <memmove+0x30>
30002ed8:	e2422001 	sub	r2, r2, #1	; 0x1
30002edc:	e3720001 	cmn	r2, #1	; 0x1
30002ee0:	e1a0c000 	mov	ip, r0
30002ee4:	01a0f00e 	moveq	pc, lr
30002ee8:	e2422001 	sub	r2, r2, #1	; 0x1
30002eec:	e4d13001 	ldrb	r3, [r1], #1
30002ef0:	e3720001 	cmn	r2, #1	; 0x1
30002ef4:	e4cc3001 	strb	r3, [ip], #1
30002ef8:	1afffffa 	bne	30002ee8 <memmove+0x18>
30002efc:	e1a0f00e 	mov	pc, lr
30002f00:	e0811002 	add	r1, r1, r2
30002f04:	e080c002 	add	ip, r0, r2
30002f08:	e2522001 	subs	r2, r2, #1	; 0x1
30002f0c:	31a0f00e 	movcc	pc, lr
30002f10:	e2422001 	sub	r2, r2, #1	; 0x1
30002f14:	e5713001 	ldrb	r3, [r1, #-1]!
30002f18:	e3720001 	cmn	r2, #1	; 0x1
30002f1c:	e56c3001 	strb	r3, [ip, #-1]!
30002f20:	1afffffa 	bne	30002f10 <memmove+0x40>
30002f24:	e1a0f00e 	mov	pc, lr

30002f28 <memcmp>:
30002f28:	e252c000 	subs	ip, r2, #0	; 0x0
30002f2c:	e3a02000 	mov	r2, #0	; 0x0
30002f30:	0a000007 	beq	30002f54 <memcmp+0x2c>
30002f34:	e5d02000 	ldrb	r2, [r0]
30002f38:	e5d13000 	ldrb	r3, [r1]
30002f3c:	e0522003 	subs	r2, r2, r3
30002f40:	e2800001 	add	r0, r0, #1	; 0x1
30002f44:	e2811001 	add	r1, r1, #1	; 0x1
30002f48:	1a000001 	bne	30002f54 <memcmp+0x2c>
30002f4c:	e25cc001 	subs	ip, ip, #1	; 0x1
30002f50:	1afffff7 	bne	30002f34 <memcmp+0xc>
30002f54:	e1a00002 	mov	r0, r2
30002f58:	e1a0f00e 	mov	pc, lr

30002f5c <memscan>:
30002f5c:	e3520000 	cmp	r2, #0	; 0x0
30002f60:	01a0f00e 	moveq	pc, lr
30002f64:	e5d03000 	ldrb	r3, [r0]
30002f68:	e1530001 	cmp	r3, r1
30002f6c:	01a0f00e 	moveq	pc, lr
30002f70:	e2522001 	subs	r2, r2, #1	; 0x1
30002f74:	e2800001 	add	r0, r0, #1	; 0x1
30002f78:	1afffff9 	bne	30002f64 <memscan+0x8>
30002f7c:	e1a0f00e 	mov	pc, lr

30002f80 <strstr>:
30002f80:	e92d40f0 	stmdb	sp!, {r4, r5, r6, r7, lr}
30002f84:	e1a05000 	mov	r5, r0
30002f88:	e1a00001 	mov	r0, r1
30002f8c:	e1a07001 	mov	r7, r1
30002f90:	ebffff2d 	bl	30002c4c <strlen>
30002f94:	e2506000 	subs	r6, r0, #0	; 0x0
30002f98:	1a000001 	bne	30002fa4 <strstr+0x24>
30002f9c:	e1a00005 	mov	r0, r5
30002fa0:	e8bd80f0 	ldmia	sp!, {r4, r5, r6, r7, pc}
30002fa4:	e1a00005 	mov	r0, r5
30002fa8:	ebffff27 	bl	30002c4c <strlen>
30002fac:	e1500006 	cmp	r0, r6
30002fb0:	e1a04000 	mov	r4, r0
30002fb4:	ba000009 	blt	30002fe0 <strstr+0x60>
30002fb8:	e1a00005 	mov	r0, r5
30002fbc:	e1a01007 	mov	r1, r7
30002fc0:	e1a02006 	mov	r2, r6
30002fc4:	ebffffd7 	bl	30002f28 <memcmp>
30002fc8:	e3500000 	cmp	r0, #0	; 0x0
30002fcc:	e2444001 	sub	r4, r4, #1	; 0x1
30002fd0:	0afffff1 	beq	30002f9c <strstr+0x1c>
30002fd4:	e1540006 	cmp	r4, r6
30002fd8:	e2855001 	add	r5, r5, #1	; 0x1
30002fdc:	aafffff5 	bge	30002fb8 <strstr+0x38>
30002fe0:	e3a00000 	mov	r0, #0	; 0x0
30002fe4:	e8bd80f0 	ldmia	sp!, {r4, r5, r6, r7, pc}

30002fe8 <memchr>:
30002fe8:	e2522001 	subs	r2, r2, #1	; 0x1
30002fec:	3a000007 	bcc	30003010 <memchr+0x28>
30002ff0:	e20110ff 	and	r1, r1, #255	; 0xff
30002ff4:	e2400001 	sub	r0, r0, #1	; 0x1
30002ff8:	e5f03001 	ldrb	r3, [r0, #1]!
30002ffc:	e1530001 	cmp	r3, r1
30003000:	e2422001 	sub	r2, r2, #1	; 0x1
30003004:	01a0f00e 	moveq	pc, lr
30003008:	e3720001 	cmn	r2, #1	; 0x1
3000300c:	1afffff9 	bne	30002ff8 <memchr+0x10>
30003010:	e3a00000 	mov	r0, #0	; 0x0
30003014:	e1a0f00e 	mov	pc, lr

30003018 <simple_strtoul>:
30003018:	e92d4030 	stmdb	sp!, {r4, r5, lr}
3000301c:	e252e000 	subs	lr, r2, #0	; 0x0
30003020:	e1a04001 	mov	r4, r1
30003024:	e3a01000 	mov	r1, #0	; 0x0
30003028:	1a000018 	bne	30003090 <simple_strtoul+0x78>
3000302c:	e5d0c000 	ldrb	ip, [r0]
30003030:	e35c0030 	cmp	ip, #48	; 0x30
30003034:	e3a0e00a 	mov	lr, #10	; 0xa
30003038:	0a000023 	beq	300030cc <simple_strtoul+0xb4>
3000303c:	e59f50c8 	ldr	r5, [pc, #200]	; 3000310c <.text+0x310c>
30003040:	ea000009 	b	3000306c <simple_strtoul+0x54>
30003044:	e3120004 	tst	r2, #4	; 0x4
30003048:	1a000003 	bne	3000305c <simple_strtoul+0x44>
3000304c:	e3120002 	tst	r2, #2	; 0x2
30003050:	e2432020 	sub	r2, r3, #32	; 0x20
30003054:	120230ff 	andne	r3, r2, #255	; 0xff
30003058:	e243c037 	sub	ip, r3, #55	; 0x37
3000305c:	e15c000e 	cmp	ip, lr
30003060:	2a000006 	bcs	30003080 <simple_strtoul+0x68>
30003064:	e021c19e 	mla	r1, lr, r1, ip
30003068:	e5f0c001 	ldrb	ip, [r0, #1]!
3000306c:	e20c30ff 	and	r3, ip, #255	; 0xff
30003070:	e7d52003 	ldrb	r2, [r5, r3]
30003074:	e3120044 	tst	r2, #68	; 0x44
30003078:	e243c030 	sub	ip, r3, #48	; 0x30
3000307c:	1afffff0 	bne	30003044 <simple_strtoul+0x2c>
30003080:	e3540000 	cmp	r4, #0	; 0x0
30003084:	15840000 	strne	r0, [r4]
30003088:	e1a00001 	mov	r0, r1
3000308c:	e8bd8030 	ldmia	sp!, {r4, r5, pc}
30003090:	e35e0010 	cmp	lr, #16	; 0x10
30003094:	15d0c000 	ldrneb	ip, [r0]
30003098:	1affffe7 	bne	3000303c <simple_strtoul+0x24>
3000309c:	e5d0c000 	ldrb	ip, [r0]
300030a0:	e35c0030 	cmp	ip, #48	; 0x30
300030a4:	1affffe4 	bne	3000303c <simple_strtoul+0x24>
300030a8:	e5d02001 	ldrb	r2, [r0, #1]
300030ac:	e59f5058 	ldr	r5, [pc, #88]	; 3000310c <.text+0x310c>
300030b0:	e7d53002 	ldrb	r3, [r5, r2]
300030b4:	e3130002 	tst	r3, #2	; 0x2
300030b8:	12423020 	subne	r3, r2, #32	; 0x20
300030bc:	120320ff 	andne	r2, r3, #255	; 0xff
300030c0:	e3520058 	cmp	r2, #88	; 0x58
300030c4:	05f0c002 	ldreqb	ip, [r0, #2]!
300030c8:	eaffffe7 	b	3000306c <simple_strtoul+0x54>
300030cc:	e5f0c001 	ldrb	ip, [r0, #1]!
300030d0:	e59f5034 	ldr	r5, [pc, #52]	; 3000310c <.text+0x310c>
300030d4:	e20c20ff 	and	r2, ip, #255	; 0xff
300030d8:	e7d53002 	ldrb	r3, [r5, r2]
300030dc:	e3130002 	tst	r3, #2	; 0x2
300030e0:	12423020 	subne	r3, r2, #32	; 0x20
300030e4:	120320ff 	andne	r2, r3, #255	; 0xff
300030e8:	e3520058 	cmp	r2, #88	; 0x58
300030ec:	e24ee002 	sub	lr, lr, #2	; 0x2
300030f0:	1affffdd 	bne	3000306c <simple_strtoul+0x54>
300030f4:	e5d03001 	ldrb	r3, [r0, #1]
300030f8:	e7d52003 	ldrb	r2, [r5, r3]
300030fc:	e3120044 	tst	r2, #68	; 0x44
30003100:	15f0c001 	ldrneb	ip, [r0, #1]!
30003104:	13a0e010 	movne	lr, #16	; 0x10
30003108:	eaffffd7 	b	3000306c <simple_strtoul+0x54>
3000310c:	30004b18 	andcc	r4, r0, r8, lsl fp

30003110 <simple_strtol>:
30003110:	e52de004 	str	lr, [sp, #-4]!
30003114:	e5d03000 	ldrb	r3, [r0]
30003118:	e353002d 	cmp	r3, #45	; 0x2d
3000311c:	0a000001 	beq	30003128 <simple_strtol+0x18>
30003120:	e49de004 	ldr	lr, [sp], #4
30003124:	eaffffbb 	b	30003018 <simple_strtoul>
30003128:	e2800001 	add	r0, r0, #1	; 0x1
3000312c:	ebffffb9 	bl	30003018 <simple_strtoul>
30003130:	e2600000 	rsb	r0, r0, #0	; 0x0
30003134:	e49df004 	ldr	pc, [sp], #4

30003138 <simple_strtoull>:
30003138:	e92d4ff0 	stmdb	sp!, {r4, r5, r6, r7, r8, r9, sl, fp, lr}
3000313c:	e252e000 	subs	lr, r2, #0	; 0x0
30003140:	e1a08000 	mov	r8, r0
30003144:	e1a09001 	mov	r9, r1
30003148:	e3a0b000 	mov	fp, #0	; 0x0
3000314c:	e3a0a000 	mov	sl, #0	; 0x0
30003150:	1a000029 	bne	300031fc <simple_strtoull+0xc4>
30003154:	e5d0c000 	ldrb	ip, [r0]
30003158:	e35c0030 	cmp	ip, #48	; 0x30
3000315c:	e3a0e00a 	mov	lr, #10	; 0xa
30003160:	0a000034 	beq	30003238 <simple_strtoull+0x100>
30003164:	e1a0600e 	mov	r6, lr
30003168:	e3a07000 	mov	r7, #0	; 0x0
3000316c:	ea000017 	b	300031d0 <simple_strtoull+0x98>
30003170:	e3120004 	tst	r2, #4	; 0x4
30003174:	1a000004 	bne	3000318c <simple_strtoull+0x54>
30003178:	e2413020 	sub	r3, r1, #32	; 0x20
3000317c:	e20330ff 	and	r3, r3, #255	; 0xff
30003180:	e3120002 	tst	r2, #2	; 0x2
30003184:	e243c037 	sub	ip, r3, #55	; 0x37
30003188:	0241c037 	subeq	ip, r1, #55	; 0x37
3000318c:	e1a0400c 	mov	r4, ip
30003190:	e1a05fc4 	mov	r5, r4, asr #31
30003194:	e1570005 	cmp	r7, r5
30003198:	e1a0300b 	mov	r3, fp
3000319c:	e1a0200a 	mov	r2, sl
300031a0:	e1a01007 	mov	r1, r7
300031a4:	e1a00006 	mov	r0, r6
300031a8:	8a000002 	bhi	300031b8 <simple_strtoull+0x80>
300031ac:	1a00000d 	bne	300031e8 <simple_strtoull+0xb0>
300031b0:	e1560004 	cmp	r6, r4
300031b4:	9a00000b 	bls	300031e8 <simple_strtoull+0xb0>
300031b8:	ebfffde8 	bl	30002960 <__muldi3>
300031bc:	e5f8c001 	ldrb	ip, [r8, #1]!
300031c0:	e1a0b001 	mov	fp, r1
300031c4:	e1a0a000 	mov	sl, r0
300031c8:	e090a004 	adds	sl, r0, r4
300031cc:	e0abb005 	adc	fp, fp, r5
300031d0:	e59f30a4 	ldr	r3, [pc, #164]	; 3000327c <.text+0x327c>
300031d4:	e20c10ff 	and	r1, ip, #255	; 0xff
300031d8:	e7d32001 	ldrb	r2, [r3, r1]
300031dc:	e3120044 	tst	r2, #68	; 0x44
300031e0:	e241c030 	sub	ip, r1, #48	; 0x30
300031e4:	1affffe1 	bne	30003170 <simple_strtoull+0x38>
300031e8:	e3590000 	cmp	r9, #0	; 0x0
300031ec:	e1a0100b 	mov	r1, fp
300031f0:	e1a0000a 	mov	r0, sl
300031f4:	15898000 	strne	r8, [r9]
300031f8:	e8bd8ff0 	ldmia	sp!, {r4, r5, r6, r7, r8, r9, sl, fp, pc}
300031fc:	e35e0010 	cmp	lr, #16	; 0x10
30003200:	15d0c000 	ldrneb	ip, [r0]
30003204:	1affffd6 	bne	30003164 <simple_strtoull+0x2c>
30003208:	e5d0c000 	ldrb	ip, [r0]
3000320c:	e35c0030 	cmp	ip, #48	; 0x30
30003210:	1affffd3 	bne	30003164 <simple_strtoull+0x2c>
30003214:	e5d02001 	ldrb	r2, [r0, #1]
30003218:	e59f105c 	ldr	r1, [pc, #92]	; 3000327c <.text+0x327c>
3000321c:	e7d13002 	ldrb	r3, [r1, r2]
30003220:	e3130002 	tst	r3, #2	; 0x2
30003224:	12423020 	subne	r3, r2, #32	; 0x20
30003228:	120320ff 	andne	r2, r3, #255	; 0xff
3000322c:	e3520058 	cmp	r2, #88	; 0x58
30003230:	05f8c002 	ldreqb	ip, [r8, #2]!
30003234:	eaffffca 	b	30003164 <simple_strtoull+0x2c>
30003238:	e5f8c001 	ldrb	ip, [r8, #1]!
3000323c:	e59f1038 	ldr	r1, [pc, #56]	; 3000327c <.text+0x327c>
30003240:	e20c20ff 	and	r2, ip, #255	; 0xff
30003244:	e7d13002 	ldrb	r3, [r1, r2]
30003248:	e3130002 	tst	r3, #2	; 0x2
3000324c:	12423020 	subne	r3, r2, #32	; 0x20
30003250:	120320ff 	andne	r2, r3, #255	; 0xff
30003254:	e3520058 	cmp	r2, #88	; 0x58
30003258:	e24ee002 	sub	lr, lr, #2	; 0x2
3000325c:	1affffc0 	bne	30003164 <simple_strtoull+0x2c>
30003260:	e5d83001 	ldrb	r3, [r8, #1]
30003264:	e59f1010 	ldr	r1, [pc, #16]	; 3000327c <.text+0x327c>
30003268:	e7d12003 	ldrb	r2, [r1, r3]
3000326c:	e3120044 	tst	r2, #68	; 0x44
30003270:	15f8c001 	ldrneb	ip, [r8, #1]!
30003274:	13a0e010 	movne	lr, #16	; 0x10
30003278:	eaffffb9 	b	30003164 <simple_strtoull+0x2c>
3000327c:	30004b18 	andcc	r4, r0, r8, lsl fp

30003280 <simple_strtoll>:
30003280:	e52de004 	str	lr, [sp, #-4]!
30003284:	e5d03000 	ldrb	r3, [r0]
30003288:	e353002d 	cmp	r3, #45	; 0x2d
3000328c:	0a000001 	beq	30003298 <simple_strtoll+0x18>
30003290:	e49de004 	ldr	lr, [sp], #4
30003294:	eaffffa7 	b	30003138 <simple_strtoull>
30003298:	e2800001 	add	r0, r0, #1	; 0x1
3000329c:	ebffffa5 	bl	30003138 <simple_strtoull>
300032a0:	e2700000 	rsbs	r0, r0, #0	; 0x0
300032a4:	e2e11000 	rsc	r1, r1, #0	; 0x0
300032a8:	e49df004 	ldr	pc, [sp], #4

300032ac <skip_atoi>:
300032ac:	e92d4010 	stmdb	sp!, {r4, lr}
300032b0:	e59f4040 	ldr	r4, [pc, #64]	; 300032f8 <.text+0x32f8>
300032b4:	e1a0e000 	mov	lr, r0
300032b8:	e590c000 	ldr	ip, [r0]
300032bc:	e5dc3000 	ldrb	r3, [ip]
300032c0:	e7d42003 	ldrb	r2, [r4, r3]
300032c4:	e3120004 	tst	r2, #4	; 0x4
300032c8:	e3a00000 	mov	r0, #0	; 0x0
300032cc:	08bd8010 	ldmeqia	sp!, {r4, pc}
300032d0:	e4dc1001 	ldrb	r1, [ip], #1
300032d4:	e58ec000 	str	ip, [lr]
300032d8:	e0803100 	add	r3, r0, r0, lsl #2
300032dc:	e0811083 	add	r1, r1, r3, lsl #1
300032e0:	e2410030 	sub	r0, r1, #48	; 0x30
300032e4:	e5dc3000 	ldrb	r3, [ip]
300032e8:	e7d42003 	ldrb	r2, [r4, r3]
300032ec:	e3120004 	tst	r2, #4	; 0x4
300032f0:	1afffff6 	bne	300032d0 <skip_atoi+0x24>
300032f4:	e8bd8010 	ldmia	sp!, {r4, pc}
300032f8:	30004b18 	andcc	r4, r0, r8, lsl fp

300032fc <number>:
300032fc:	e92d4ff0 	stmdb	sp!, {r4, r5, r6, r7, r8, r9, sl, fp, lr}
30003300:	e59fe2d4 	ldr	lr, [pc, #724]	; 300035dc <.text+0x35dc>
30003304:	e1a09001 	mov	r9, r1
30003308:	e1a07003 	mov	r7, r3
3000330c:	e1a06002 	mov	r6, r2
30003310:	e1a05000 	mov	r5, r0
30003314:	e24dd054 	sub	sp, sp, #84	; 0x54
30003318:	e59dc084 	ldr	ip, [sp, #132]
3000331c:	e31c0040 	tst	ip, #64	; 0x40
30003320:	e59fc2b8 	ldr	ip, [pc, #696]	; 300035e0 <.text+0x35e0>
30003324:	11a0e00c 	movne	lr, ip
30003328:	e59dc084 	ldr	ip, [sp, #132]
3000332c:	e59d1078 	ldr	r1, [sp, #120]
30003330:	e31c0010 	tst	ip, #16	; 0x10
30003334:	13ccc001 	bicne	ip, ip, #1	; 0x1
30003338:	e2413002 	sub	r3, r1, #2	; 0x2
3000333c:	158dc084 	strne	ip, [sp, #132]
30003340:	e3530022 	cmp	r3, #34	; 0x22
30003344:	e28d807c 	add	r8, sp, #124	; 0x7c
30003348:	e8980900 	ldmia	r8, {r8, fp}
3000334c:	e58de004 	str	lr, [sp, #4]
30003350:	83a00000 	movhi	r0, #0	; 0x0
30003354:	8a00007b 	bhi	30003548 <number+0x24c>
30003358:	e59d2084 	ldr	r2, [sp, #132]
3000335c:	e3120001 	tst	r2, #1	; 0x1
30003360:	03a03020 	moveq	r3, #32	; 0x20
30003364:	13a03030 	movne	r3, #48	; 0x30
30003368:	e3a0c000 	mov	ip, #0	; 0x0
3000336c:	e3120002 	tst	r2, #2	; 0x2
30003370:	e58d300c 	str	r3, [sp, #12]
30003374:	e58dc008 	str	ip, [sp, #8]
30003378:	1a000074 	bne	30003550 <number+0x254>
3000337c:	e59d2084 	ldr	r2, [sp, #132]
30003380:	e2122020 	ands	r2, r2, #32	; 0x20
30003384:	e58d2000 	str	r2, [sp]
30003388:	0a000006 	beq	300033a8 <number+0xac>
3000338c:	e59d3078 	ldr	r3, [sp, #120]
30003390:	e3530010 	cmp	r3, #16	; 0x10
30003394:	02488002 	subeq	r8, r8, #2	; 0x2
30003398:	0a000002 	beq	300033a8 <number+0xac>
3000339c:	e59dc078 	ldr	ip, [sp, #120]
300033a0:	e35c0008 	cmp	ip, #8	; 0x8
300033a4:	02488001 	subeq	r8, r8, #1	; 0x1
300033a8:	e1961007 	orrs	r1, r6, r7
300033ac:	e3a0a000 	mov	sl, #0	; 0x0
300033b0:	03a03030 	moveq	r3, #48	; 0x30
300033b4:	028aa001 	addeq	sl, sl, #1	; 0x1
300033b8:	05cd3010 	streqb	r3, [sp, #16]
300033bc:	0a00000d 	beq	300033f8 <number+0xfc>
300033c0:	e59d4078 	ldr	r4, [sp, #120]
300033c4:	e1a01007 	mov	r1, r7
300033c8:	e1a00006 	mov	r0, r6
300033cc:	ebfffc2b 	bl	30002480 <__do_div64>
300033d0:	e1a07003 	mov	r7, r3
300033d4:	e1a06002 	mov	r6, r2
300033d8:	e59d3004 	ldr	r3, [sp, #4]
300033dc:	e7d12003 	ldrb	r2, [r1, r3]
300033e0:	e28d1054 	add	r1, sp, #84	; 0x54
300033e4:	e08a3001 	add	r3, sl, r1
300033e8:	e196c007 	orrs	ip, r6, r7
300033ec:	e5432044 	strb	r2, [r3, #-68]
300033f0:	e28aa001 	add	sl, sl, #1	; 0x1
300033f4:	1afffff2 	bne	300033c4 <number+0xc8>
300033f8:	e59d2084 	ldr	r2, [sp, #132]
300033fc:	e15b000a 	cmp	fp, sl
30003400:	b1a0b00a 	movlt	fp, sl
30003404:	e3120011 	tst	r2, #17	; 0x11
30003408:	e06b8008 	rsb	r8, fp, r8
3000340c:	1a00000a 	bne	3000343c <number+0x140>
30003410:	e3580000 	cmp	r8, #0	; 0x0
30003414:	e2488001 	sub	r8, r8, #1	; 0x1
30003418:	da000007 	ble	3000343c <number+0x140>
3000341c:	e3a02020 	mov	r2, #32	; 0x20
30003420:	e1550009 	cmp	r5, r9
30003424:	e1a03008 	mov	r3, r8
30003428:	95c52000 	strlsb	r2, [r5]
3000342c:	e3530000 	cmp	r3, #0	; 0x0
30003430:	e2488001 	sub	r8, r8, #1	; 0x1
30003434:	e2855001 	add	r5, r5, #1	; 0x1
30003438:	cafffff8 	bgt	30003420 <number+0x124>
3000343c:	e59d3008 	ldr	r3, [sp, #8]
30003440:	e3530000 	cmp	r3, #0	; 0x0
30003444:	0a000002 	beq	30003454 <number+0x158>
30003448:	e1550009 	cmp	r5, r9
3000344c:	95c53000 	strlsb	r3, [r5]
30003450:	e2855001 	add	r5, r5, #1	; 0x1
30003454:	e59dc000 	ldr	ip, [sp]
30003458:	e35c0000 	cmp	ip, #0	; 0x0
3000345c:	0a000005 	beq	30003478 <number+0x17c>
30003460:	e59d1078 	ldr	r1, [sp, #120]
30003464:	e3510008 	cmp	r1, #8	; 0x8
30003468:	0a000046 	beq	30003588 <number+0x28c>
3000346c:	e59d2078 	ldr	r2, [sp, #120]
30003470:	e3520010 	cmp	r2, #16	; 0x10
30003474:	0a000048 	beq	3000359c <number+0x2a0>
30003478:	e59d1084 	ldr	r1, [sp, #132]
3000347c:	e3110010 	tst	r1, #16	; 0x10
30003480:	1a00000a 	bne	300034b0 <number+0x1b4>
30003484:	e3580000 	cmp	r8, #0	; 0x0
30003488:	e2488001 	sub	r8, r8, #1	; 0x1
3000348c:	da000007 	ble	300034b0 <number+0x1b4>
30003490:	e1550009 	cmp	r5, r9
30003494:	959d200c 	ldrls	r2, [sp, #12]
30003498:	e1a03008 	mov	r3, r8
3000349c:	95c52000 	strlsb	r2, [r5]
300034a0:	e2488001 	sub	r8, r8, #1	; 0x1
300034a4:	e3530000 	cmp	r3, #0	; 0x0
300034a8:	e2855001 	add	r5, r5, #1	; 0x1
300034ac:	cafffff7 	bgt	30003490 <number+0x194>
300034b0:	e15b000a 	cmp	fp, sl
300034b4:	e24bb001 	sub	fp, fp, #1	; 0x1
300034b8:	da000007 	ble	300034dc <number+0x1e0>
300034bc:	e3a02030 	mov	r2, #48	; 0x30
300034c0:	e1550009 	cmp	r5, r9
300034c4:	e1a0300b 	mov	r3, fp
300034c8:	95c52000 	strlsb	r2, [r5]
300034cc:	e153000a 	cmp	r3, sl
300034d0:	e24bb001 	sub	fp, fp, #1	; 0x1
300034d4:	e2855001 	add	r5, r5, #1	; 0x1
300034d8:	cafffff8 	bgt	300034c0 <number+0x1c4>
300034dc:	e35a0000 	cmp	sl, #0	; 0x0
300034e0:	e24aa001 	sub	sl, sl, #1	; 0x1
300034e4:	da00000b 	ble	30003518 <number+0x21c>
300034e8:	e28dc054 	add	ip, sp, #84	; 0x54
300034ec:	e08a300c 	add	r3, sl, ip
300034f0:	e2432044 	sub	r2, r3, #68	; 0x44
300034f4:	e1550009 	cmp	r5, r9
300034f8:	95d23000 	ldrlsb	r3, [r2]
300034fc:	e1a0100a 	mov	r1, sl
30003500:	95c53000 	strlsb	r3, [r5]
30003504:	e3510000 	cmp	r1, #0	; 0x0
30003508:	e24aa001 	sub	sl, sl, #1	; 0x1
3000350c:	e2855001 	add	r5, r5, #1	; 0x1
30003510:	e2422001 	sub	r2, r2, #1	; 0x1
30003514:	cafffff6 	bgt	300034f4 <number+0x1f8>
30003518:	e3580000 	cmp	r8, #0	; 0x0
3000351c:	e2488001 	sub	r8, r8, #1	; 0x1
30003520:	da000007 	ble	30003544 <number+0x248>
30003524:	e3a02020 	mov	r2, #32	; 0x20
30003528:	e1550009 	cmp	r5, r9
3000352c:	e1a03008 	mov	r3, r8
30003530:	95c52000 	strlsb	r2, [r5]
30003534:	e3530000 	cmp	r3, #0	; 0x0
30003538:	e2488001 	sub	r8, r8, #1	; 0x1
3000353c:	e2855001 	add	r5, r5, #1	; 0x1
30003540:	cafffff8 	bgt	30003528 <number+0x22c>
30003544:	e1a00005 	mov	r0, r5
30003548:	e28dd054 	add	sp, sp, #84	; 0x54
3000354c:	e8bd8ff0 	ldmia	sp!, {r4, r5, r6, r7, r8, r9, sl, fp, pc}
30003550:	e157000c 	cmp	r7, ip
30003554:	ba00001a 	blt	300035c4 <number+0x2c8>
30003558:	e59d2084 	ldr	r2, [sp, #132]
3000355c:	e3120004 	tst	r2, #4	; 0x4
30003560:	13a0302b 	movne	r3, #43	; 0x2b
30003564:	12488001 	subne	r8, r8, #1	; 0x1
30003568:	158d3008 	strne	r3, [sp, #8]
3000356c:	1affff82 	bne	3000337c <number+0x80>
30003570:	e59dc084 	ldr	ip, [sp, #132]
30003574:	e31c0008 	tst	ip, #8	; 0x8
30003578:	13a01020 	movne	r1, #32	; 0x20
3000357c:	12488001 	subne	r8, r8, #1	; 0x1
30003580:	158d1008 	strne	r1, [sp, #8]
30003584:	eaffff7c 	b	3000337c <number+0x80>
30003588:	e1550009 	cmp	r5, r9
3000358c:	93a03030 	movls	r3, #48	; 0x30
30003590:	9a000009 	bls	300035bc <number+0x2c0>
30003594:	e2855001 	add	r5, r5, #1	; 0x1
30003598:	eaffffb6 	b	30003478 <number+0x17c>
3000359c:	e1550009 	cmp	r5, r9
300035a0:	93a03030 	movls	r3, #48	; 0x30
300035a4:	95c53000 	strlsb	r3, [r5]
300035a8:	e2855001 	add	r5, r5, #1	; 0x1
300035ac:	e1550009 	cmp	r5, r9
300035b0:	8afffff7 	bhi	30003594 <number+0x298>
300035b4:	e59dc004 	ldr	ip, [sp, #4]
300035b8:	e5dc3021 	ldrb	r3, [ip, #33]
300035bc:	e4c53001 	strb	r3, [r5], #1
300035c0:	eaffffac 	b	30003478 <number+0x17c>
300035c4:	e3a0102d 	mov	r1, #45	; 0x2d
300035c8:	e2766000 	rsbs	r6, r6, #0	; 0x0
300035cc:	e2e77000 	rsc	r7, r7, #0	; 0x0
300035d0:	e2488001 	sub	r8, r8, #1	; 0x1
300035d4:	e58d1008 	str	r1, [sp, #8]
300035d8:	eaffff67 	b	3000337c <number+0x80>
300035dc:	300043d8 	ldrccd	r4, [r0], -r8
300035e0:	30004400 	andcc	r4, r0, r0, lsl #8

300035e4 <vsnprintf>:
300035e4:	e92d4ff0 	stmdb	sp!, {r4, r5, r6, r7, r8, r9, sl, fp, lr}
300035e8:	e3510000 	cmp	r1, #0	; 0x0
300035ec:	e1a09003 	mov	r9, r3
300035f0:	b59f360c 	ldrlt	r3, [pc, #1548]	; 30003c04 <.text+0x3c04>
300035f4:	e1a0c002 	mov	ip, r2
300035f8:	e1a0a000 	mov	sl, r0
300035fc:	e24dd018 	sub	sp, sp, #24	; 0x18
30003600:	e58d2014 	str	r2, [sp, #20]
30003604:	b3a02000 	movlt	r2, #0	; 0x0
30003608:	b1a00002 	movlt	r0, r2
3000360c:	e58d1010 	str	r1, [sp, #16]
30003610:	b5832000 	strlt	r2, [r3]
30003614:	ba000024 	blt	300036ac <vsnprintf+0xc8>
30003618:	e59d2010 	ldr	r2, [sp, #16]
3000361c:	e08a3002 	add	r3, sl, r2
30003620:	e2437001 	sub	r7, r3, #1	; 0x1
30003624:	e24a2001 	sub	r2, sl, #1	; 0x1
30003628:	e1520007 	cmp	r2, r7
3000362c:	826a3000 	rsbhi	r3, sl, #0	; 0x0
30003630:	858d3010 	strhi	r3, [sp, #16]
30003634:	e1a0300c 	mov	r3, ip
30003638:	e1a0c003 	mov	ip, r3
3000363c:	83e07000 	mvnhi	r7, #0	; 0x0
30003640:	e1a0400a 	mov	r4, sl
30003644:	e5d33000 	ldrb	r3, [r3]
30003648:	e3530000 	cmp	r3, #0	; 0x0
3000364c:	0a00000d 	beq	30003688 <vsnprintf+0xa4>
30003650:	e3530025 	cmp	r3, #37	; 0x25
30003654:	03a05000 	moveq	r5, #0	; 0x0
30003658:	0a000016 	beq	300036b8 <vsnprintf+0xd4>
3000365c:	e1540007 	cmp	r4, r7
30003660:	8a000001 	bhi	3000366c <vsnprintf+0x88>
30003664:	e5c43000 	strb	r3, [r4]
30003668:	e59dc014 	ldr	ip, [sp, #20]
3000366c:	e2844001 	add	r4, r4, #1	; 0x1
30003670:	e28c3001 	add	r3, ip, #1	; 0x1
30003674:	e58d3014 	str	r3, [sp, #20]
30003678:	e1a0c003 	mov	ip, r3
3000367c:	e5d33000 	ldrb	r3, [r3]
30003680:	e3530000 	cmp	r3, #0	; 0x0
30003684:	1afffff1 	bne	30003650 <vsnprintf+0x6c>
30003688:	e1540007 	cmp	r4, r7
3000368c:	93a03000 	movls	r3, #0	; 0x0
30003690:	95c43000 	strlsb	r3, [r4]
30003694:	9a000003 	bls	300036a8 <vsnprintf+0xc4>
30003698:	e59d2010 	ldr	r2, [sp, #16]
3000369c:	e3520000 	cmp	r2, #0	; 0x0
300036a0:	13a03000 	movne	r3, #0	; 0x0
300036a4:	15c73000 	strneb	r3, [r7]
300036a8:	e06a0004 	rsb	r0, sl, r4
300036ac:	e28dd018 	add	sp, sp, #24	; 0x18
300036b0:	e8bd8ff0 	ldmia	sp!, {r4, r5, r6, r7, r8, r9, sl, fp, pc}
300036b4:	e3855001 	orr	r5, r5, #1	; 0x1
300036b8:	e28cc001 	add	ip, ip, #1	; 0x1
300036bc:	e58dc014 	str	ip, [sp, #20]
300036c0:	e5dc3000 	ldrb	r3, [ip]
300036c4:	e2433020 	sub	r3, r3, #32	; 0x20
300036c8:	e3530010 	cmp	r3, #16	; 0x10
300036cc:	979ff103 	ldrls	pc, [pc, r3, lsl #2]
300036d0:	ea000010 	b	30003718 <.text+0x3718>
300036d4:	300038f4 	strccd	r3, [r0], -r4
300036d8:	30003718 	andcc	r3, r0, r8, lsl r7
300036dc:	30003718 	andcc	r3, r0, r8, lsl r7
300036e0:	300038ec 	andcc	r3, r0, ip, ror #17
300036e4:	30003718 	andcc	r3, r0, r8, lsl r7
300036e8:	30003718 	andcc	r3, r0, r8, lsl r7
300036ec:	30003718 	andcc	r3, r0, r8, lsl r7
300036f0:	30003718 	andcc	r3, r0, r8, lsl r7
300036f4:	30003718 	andcc	r3, r0, r8, lsl r7
300036f8:	30003718 	andcc	r3, r0, r8, lsl r7
300036fc:	30003718 	andcc	r3, r0, r8, lsl r7
30003700:	300038e4 	andcc	r3, r0, r4, ror #17
30003704:	30003718 	andcc	r3, r0, r8, lsl r7
30003708:	300038dc 	ldrccd	r3, [r0], -ip
3000370c:	30003718 	andcc	r3, r0, r8, lsl r7
30003710:	30003718 	andcc	r3, r0, r8, lsl r7
30003714:	300036b4 	strcch	r3, [r0], -r4
30003718:	e59f64e8 	ldr	r6, [pc, #1256]	; 30003c08 <.text+0x3c08>
3000371c:	e5dc2000 	ldrb	r2, [ip]
30003720:	e7d63002 	ldrb	r3, [r6, r2]
30003724:	e3130004 	tst	r3, #4	; 0x4
30003728:	e3e08000 	mvn	r8, #0	; 0x0
3000372c:	1a00007c 	bne	30003924 <.text+0x3924>
30003730:	e352002a 	cmp	r2, #42	; 0x2a
30003734:	0a000091 	beq	30003980 <.text+0x3980>
30003738:	e5dc3000 	ldrb	r3, [ip]
3000373c:	e353002e 	cmp	r3, #46	; 0x2e
30003740:	e3e0b000 	mvn	fp, #0	; 0x0
30003744:	0a00007e 	beq	30003944 <.text+0x3944>
30003748:	e5dc3000 	ldrb	r3, [ip]
3000374c:	e353006c 	cmp	r3, #108	; 0x6c
30003750:	13530068 	cmpne	r3, #104	; 0x68
30003754:	e3e02000 	mvn	r2, #0	; 0x0
30003758:	0a000067 	beq	300038fc <.text+0x38fc>
3000375c:	e353004c 	cmp	r3, #76	; 0x4c
30003760:	0a000065 	beq	300038fc <.text+0x38fc>
30003764:	e353005a 	cmp	r3, #90	; 0x5a
30003768:	0a000063 	beq	300038fc <.text+0x38fc>
3000376c:	e353007a 	cmp	r3, #122	; 0x7a
30003770:	0a000061 	beq	300038fc <.text+0x38fc>
30003774:	e5dc3000 	ldrb	r3, [ip]
30003778:	e2433025 	sub	r3, r3, #37	; 0x25
3000377c:	e3a0e00a 	mov	lr, #10	; 0xa
30003780:	e3530053 	cmp	r3, #83	; 0x53
30003784:	979ff103 	ldrls	pc, [pc, r3, lsl #2]
30003788:	ea0000ac 	b	30003a40 <.text+0x3a40>
3000378c:	30003a68 	andcc	r3, r0, r8, ror #20
30003790:	30003a40 	andcc	r3, r0, r0, asr #20
30003794:	30003a40 	andcc	r3, r0, r0, asr #20
30003798:	30003a40 	andcc	r3, r0, r0, asr #20
3000379c:	30003a40 	andcc	r3, r0, r0, asr #20
300037a0:	30003a40 	andcc	r3, r0, r0, asr #20
300037a4:	30003a40 	andcc	r3, r0, r0, asr #20
300037a8:	30003a40 	andcc	r3, r0, r0, asr #20
300037ac:	30003a40 	andcc	r3, r0, r0, asr #20
300037b0:	30003a40 	andcc	r3, r0, r0, asr #20
300037b4:	30003a40 	andcc	r3, r0, r0, asr #20
300037b8:	30003a40 	andcc	r3, r0, r0, asr #20
300037bc:	30003a40 	andcc	r3, r0, r0, asr #20
300037c0:	30003a40 	andcc	r3, r0, r0, asr #20
300037c4:	30003a40 	andcc	r3, r0, r0, asr #20
300037c8:	30003a40 	andcc	r3, r0, r0, asr #20
300037cc:	30003a40 	andcc	r3, r0, r0, asr #20
300037d0:	30003a40 	andcc	r3, r0, r0, asr #20
300037d4:	30003a40 	andcc	r3, r0, r0, asr #20
300037d8:	30003a40 	andcc	r3, r0, r0, asr #20
300037dc:	30003a40 	andcc	r3, r0, r0, asr #20
300037e0:	30003a40 	andcc	r3, r0, r0, asr #20
300037e4:	30003a40 	andcc	r3, r0, r0, asr #20
300037e8:	30003a40 	andcc	r3, r0, r0, asr #20
300037ec:	30003a40 	andcc	r3, r0, r0, asr #20
300037f0:	30003a40 	andcc	r3, r0, r0, asr #20
300037f4:	30003a40 	andcc	r3, r0, r0, asr #20
300037f8:	30003a40 	andcc	r3, r0, r0, asr #20
300037fc:	30003a40 	andcc	r3, r0, r0, asr #20
30003800:	30003a40 	andcc	r3, r0, r0, asr #20
30003804:	30003a40 	andcc	r3, r0, r0, asr #20
30003808:	30003a40 	andcc	r3, r0, r0, asr #20
3000380c:	30003a40 	andcc	r3, r0, r0, asr #20
30003810:	30003a40 	andcc	r3, r0, r0, asr #20
30003814:	30003a40 	andcc	r3, r0, r0, asr #20
30003818:	30003a40 	andcc	r3, r0, r0, asr #20
3000381c:	30003a40 	andcc	r3, r0, r0, asr #20
30003820:	30003a40 	andcc	r3, r0, r0, asr #20
30003824:	30003a40 	andcc	r3, r0, r0, asr #20
30003828:	30003a40 	andcc	r3, r0, r0, asr #20
3000382c:	30003a40 	andcc	r3, r0, r0, asr #20
30003830:	30003a40 	andcc	r3, r0, r0, asr #20
30003834:	30003a40 	andcc	r3, r0, r0, asr #20
30003838:	30003a40 	andcc	r3, r0, r0, asr #20
3000383c:	30003a40 	andcc	r3, r0, r0, asr #20
30003840:	30003a40 	andcc	r3, r0, r0, asr #20
30003844:	30003a40 	andcc	r3, r0, r0, asr #20
30003848:	30003a40 	andcc	r3, r0, r0, asr #20
3000384c:	30003a40 	andcc	r3, r0, r0, asr #20
30003850:	30003a40 	andcc	r3, r0, r0, asr #20
30003854:	30003a40 	andcc	r3, r0, r0, asr #20
30003858:	30003a28 	andcc	r3, r0, r8, lsr #20
3000385c:	30003a40 	andcc	r3, r0, r0, asr #20
30003860:	30003a40 	andcc	r3, r0, r0, asr #20
30003864:	30003a40 	andcc	r3, r0, r0, asr #20
30003868:	30003a40 	andcc	r3, r0, r0, asr #20
3000386c:	30003a40 	andcc	r3, r0, r0, asr #20
30003870:	30003a40 	andcc	r3, r0, r0, asr #20
30003874:	30003a40 	andcc	r3, r0, r0, asr #20
30003878:	30003a40 	andcc	r3, r0, r0, asr #20
3000387c:	30003a40 	andcc	r3, r0, r0, asr #20
30003880:	30003a40 	andcc	r3, r0, r0, asr #20
30003884:	30003b68 	andcc	r3, r0, r8, ror #22
30003888:	300039b0 	strcch	r3, [r0], -r0
3000388c:	30003a40 	andcc	r3, r0, r0, asr #20
30003890:	30003a40 	andcc	r3, r0, r0, asr #20
30003894:	30003a40 	andcc	r3, r0, r0, asr #20
30003898:	30003a40 	andcc	r3, r0, r0, asr #20
3000389c:	300039b0 	strcch	r3, [r0], -r0
300038a0:	30003a40 	andcc	r3, r0, r0, asr #20
300038a4:	30003a40 	andcc	r3, r0, r0, asr #20
300038a8:	30003a40 	andcc	r3, r0, r0, asr #20
300038ac:	30003a40 	andcc	r3, r0, r0, asr #20
300038b0:	30003b58 	andcc	r3, r0, r8, asr fp
300038b4:	30003b50 	andcc	r3, r0, r0, asr fp
300038b8:	30003b28 	andcc	r3, r0, r8, lsr #22
300038bc:	30003a40 	andcc	r3, r0, r0, asr #20
300038c0:	30003a40 	andcc	r3, r0, r0, asr #20
300038c4:	30003a78 	andcc	r3, r0, r8, ror sl
300038c8:	30003a40 	andcc	r3, r0, r0, asr #20
300038cc:	300039b4 	strcch	r3, [r0], -r4
300038d0:	30003a40 	andcc	r3, r0, r0, asr #20
300038d4:	30003a40 	andcc	r3, r0, r0, asr #20
300038d8:	30003a2c 	andcc	r3, r0, ip, lsr #20
300038dc:	e3855010 	orr	r5, r5, #16	; 0x10
300038e0:	eaffff74 	b	300036b8 <vsnprintf+0xd4>
300038e4:	e3855004 	orr	r5, r5, #4	; 0x4
300038e8:	eaffff72 	b	300036b8 <vsnprintf+0xd4>
300038ec:	e3855020 	orr	r5, r5, #32	; 0x20
300038f0:	eaffff70 	b	300036b8 <vsnprintf+0xd4>
300038f4:	e3855008 	orr	r5, r5, #8	; 0x8
300038f8:	eaffff6e 	b	300036b8 <vsnprintf+0xd4>
300038fc:	e4dc2001 	ldrb	r2, [ip], #1
30003900:	e352006c 	cmp	r2, #108	; 0x6c
30003904:	e58dc014 	str	ip, [sp, #20]
30003908:	1affff99 	bne	30003774 <.text+0x3774>
3000390c:	e5dc3000 	ldrb	r3, [ip]
30003910:	e353006c 	cmp	r3, #108	; 0x6c
30003914:	028cc001 	addeq	ip, ip, #1	; 0x1
30003918:	02422020 	subeq	r2, r2, #32	; 0x20
3000391c:	058dc014 	streq	ip, [sp, #20]
30003920:	eaffff93 	b	30003774 <.text+0x3774>
30003924:	e28d0014 	add	r0, sp, #20	; 0x14
30003928:	ebfffe5f 	bl	300032ac <skip_atoi>
3000392c:	e59dc014 	ldr	ip, [sp, #20]
30003930:	e5dc3000 	ldrb	r3, [ip]
30003934:	e353002e 	cmp	r3, #46	; 0x2e
30003938:	e1a08000 	mov	r8, r0
3000393c:	e3e0b000 	mvn	fp, #0	; 0x0
30003940:	1affff80 	bne	30003748 <.text+0x3748>
30003944:	e28cc001 	add	ip, ip, #1	; 0x1
30003948:	e58dc014 	str	ip, [sp, #20]
3000394c:	e5dc2000 	ldrb	r2, [ip]
30003950:	e7d63002 	ldrb	r3, [r6, r2]
30003954:	e3130004 	tst	r3, #4	; 0x4
30003958:	1a00000f 	bne	3000399c <.text+0x399c>
3000395c:	e352002a 	cmp	r2, #42	; 0x2a
30003960:	13a0b000 	movne	fp, #0	; 0x0
30003964:	1affff77 	bne	30003748 <.text+0x3748>
30003968:	e28cc001 	add	ip, ip, #1	; 0x1
3000396c:	e58dc014 	str	ip, [sp, #20]
30003970:	e499b004 	ldr	fp, [r9], #4
30003974:	e35b0000 	cmp	fp, #0	; 0x0
30003978:	b3a0b000 	movlt	fp, #0	; 0x0
3000397c:	eaffff71 	b	30003748 <.text+0x3748>
30003980:	e4998004 	ldr	r8, [r9], #4
30003984:	e3580000 	cmp	r8, #0	; 0x0
30003988:	e28cc001 	add	ip, ip, #1	; 0x1
3000398c:	b2688000 	rsblt	r8, r8, #0	; 0x0
30003990:	b3855010 	orrlt	r5, r5, #16	; 0x10
30003994:	e58dc014 	str	ip, [sp, #20]
30003998:	eaffff66 	b	30003738 <.text+0x3738>
3000399c:	e28d0014 	add	r0, sp, #20	; 0x14
300039a0:	ebfffe41 	bl	300032ac <skip_atoi>
300039a4:	e59dc014 	ldr	ip, [sp, #20]
300039a8:	e1a0b000 	mov	fp, r0
300039ac:	eafffff0 	b	30003974 <.text+0x3974>
300039b0:	e3855002 	orr	r5, r5, #2	; 0x2
300039b4:	e352004c 	cmp	r2, #76	; 0x4c
300039b8:	0a00001e 	beq	30003a38 <.text+0x3a38>
300039bc:	e352006c 	cmp	r2, #108	; 0x6c
300039c0:	0a000007 	beq	300039e4 <.text+0x39e4>
300039c4:	e352007a 	cmp	r2, #122	; 0x7a
300039c8:	1352005a 	cmpne	r2, #90	; 0x5a
300039cc:	04993004 	ldreq	r3, [r9], #4
300039d0:	01a01003 	moveq	r1, r3
300039d4:	03a02000 	moveq	r2, #0	; 0x0
300039d8:	0a000007 	beq	300039fc <.text+0x39fc>
300039dc:	e3520068 	cmp	r2, #104	; 0x68
300039e0:	0a00007d 	beq	30003bdc <.text+0x3bdc>
300039e4:	e4993004 	ldr	r3, [r9], #4
300039e8:	e3150002 	tst	r5, #2	; 0x2
300039ec:	e1a01003 	mov	r1, r3
300039f0:	e3a02000 	mov	r2, #0	; 0x0
300039f4:	0a000000 	beq	300039fc <.text+0x39fc>
300039f8:	e1a02fc1 	mov	r2, r1, asr #31
300039fc:	e58de000 	str	lr, [sp]
30003a00:	e1a03002 	mov	r3, r2
30003a04:	e1a02001 	mov	r2, r1
30003a08:	e1a00004 	mov	r0, r4
30003a0c:	e1a01007 	mov	r1, r7
30003a10:	e98d0900 	stmib	sp, {r8, fp}
30003a14:	e58d500c 	str	r5, [sp, #12]
30003a18:	ebfffe37 	bl	300032fc <number>
30003a1c:	e1a04000 	mov	r4, r0
30003a20:	e59dc014 	ldr	ip, [sp, #20]
30003a24:	eaffff11 	b	30003670 <vsnprintf+0x8c>
30003a28:	e3855040 	orr	r5, r5, #64	; 0x40
30003a2c:	e352004c 	cmp	r2, #76	; 0x4c
30003a30:	e3a0e010 	mov	lr, #16	; 0x10
30003a34:	1affffe0 	bne	300039bc <.text+0x39bc>
30003a38:	e8b90006 	ldmia	r9!, {r1, r2}
30003a3c:	eaffffee 	b	300039fc <.text+0x39fc>
30003a40:	e1540007 	cmp	r4, r7
30003a44:	93a03025 	movls	r3, #37	; 0x25
30003a48:	95c43000 	strlsb	r3, [r4]
30003a4c:	e2844001 	add	r4, r4, #1	; 0x1
30003a50:	959dc014 	ldrls	ip, [sp, #20]
30003a54:	e5dc3000 	ldrb	r3, [ip]
30003a58:	e3530000 	cmp	r3, #0	; 0x0
30003a5c:	024cc001 	subeq	ip, ip, #1	; 0x1
30003a60:	0affff02 	beq	30003670 <vsnprintf+0x8c>
30003a64:	eafffefc 	b	3000365c <vsnprintf+0x78>
30003a68:	e1540007 	cmp	r4, r7
30003a6c:	93a03025 	movls	r3, #37	; 0x25
30003a70:	9afffefb 	bls	30003664 <vsnprintf+0x80>
30003a74:	eafffefc 	b	3000366c <vsnprintf+0x88>
30003a78:	e4996004 	ldr	r6, [r9], #4
30003a7c:	e59f3188 	ldr	r3, [pc, #392]	; 30003c0c <.text+0x3c0c>
30003a80:	e3560b01 	cmp	r6, #1024	; 0x400
30003a84:	31a06003 	movcc	r6, r3
30003a88:	e1a0100b 	mov	r1, fp
30003a8c:	e1a00006 	mov	r0, r6
30003a90:	ebfffc84 	bl	30002ca8 <strnlen>
30003a94:	e3150010 	tst	r5, #16	; 0x10
30003a98:	1a00000a 	bne	30003ac8 <.text+0x3ac8>
30003a9c:	e1580000 	cmp	r8, r0
30003aa0:	e2488001 	sub	r8, r8, #1	; 0x1
30003aa4:	da000007 	ble	30003ac8 <.text+0x3ac8>
30003aa8:	e3a02020 	mov	r2, #32	; 0x20
30003aac:	e1540007 	cmp	r4, r7
30003ab0:	e1a03008 	mov	r3, r8
30003ab4:	95c42000 	strlsb	r2, [r4]
30003ab8:	e1530000 	cmp	r3, r0
30003abc:	e2488001 	sub	r8, r8, #1	; 0x1
30003ac0:	e2844001 	add	r4, r4, #1	; 0x1
30003ac4:	cafffff8 	bgt	30003aac <.text+0x3aac>
30003ac8:	e3a02000 	mov	r2, #0	; 0x0
30003acc:	e1520000 	cmp	r2, r0
30003ad0:	aa000007 	bge	30003af4 <.text+0x3af4>
30003ad4:	e1540007 	cmp	r4, r7
30003ad8:	95d63000 	ldrlsb	r3, [r6]
30003adc:	e2822001 	add	r2, r2, #1	; 0x1
30003ae0:	95c43000 	strlsb	r3, [r4]
30003ae4:	e2866001 	add	r6, r6, #1	; 0x1
30003ae8:	e1520000 	cmp	r2, r0
30003aec:	e2844001 	add	r4, r4, #1	; 0x1
30003af0:	bafffff7 	blt	30003ad4 <.text+0x3ad4>
30003af4:	e1580000 	cmp	r8, r0
30003af8:	e2488001 	sub	r8, r8, #1	; 0x1
30003afc:	daffffc7 	ble	30003a20 <.text+0x3a20>
30003b00:	e3a02020 	mov	r2, #32	; 0x20
30003b04:	e1540007 	cmp	r4, r7
30003b08:	e1a03008 	mov	r3, r8
30003b0c:	95c42000 	strlsb	r2, [r4]
30003b10:	e1530000 	cmp	r3, r0
30003b14:	e2488001 	sub	r8, r8, #1	; 0x1
30003b18:	e2844001 	add	r4, r4, #1	; 0x1
30003b1c:	cafffff8 	bgt	30003b04 <.text+0x3b04>
30003b20:	e59dc014 	ldr	ip, [sp, #20]
30003b24:	eafffed1 	b	30003670 <vsnprintf+0x8c>
30003b28:	e4992004 	ldr	r2, [r9], #4
30003b2c:	e3780001 	cmn	r8, #1	; 0x1
30003b30:	e3a0c010 	mov	ip, #16	; 0x10
30003b34:	03855001 	orreq	r5, r5, #1	; 0x1
30003b38:	02888009 	addeq	r8, r8, #9	; 0x9
30003b3c:	e1a00004 	mov	r0, r4
30003b40:	e3a03000 	mov	r3, #0	; 0x0
30003b44:	e1a01007 	mov	r1, r7
30003b48:	e58dc000 	str	ip, [sp]
30003b4c:	eaffffaf 	b	30003a10 <.text+0x3a10>
30003b50:	e3a0e008 	mov	lr, #8	; 0x8
30003b54:	eaffff96 	b	300039b4 <.text+0x39b4>
30003b58:	e4992004 	ldr	r2, [r9], #4
30003b5c:	e06a3004 	rsb	r3, sl, r4
30003b60:	e5823000 	str	r3, [r2]
30003b64:	eafffec1 	b	30003670 <vsnprintf+0x8c>
30003b68:	e3150010 	tst	r5, #16	; 0x10
30003b6c:	1a000009 	bne	30003b98 <.text+0x3b98>
30003b70:	e2488001 	sub	r8, r8, #1	; 0x1
30003b74:	e3580000 	cmp	r8, #0	; 0x0
30003b78:	da000006 	ble	30003b98 <.text+0x3b98>
30003b7c:	e3a03020 	mov	r3, #32	; 0x20
30003b80:	e1540007 	cmp	r4, r7
30003b84:	e2488001 	sub	r8, r8, #1	; 0x1
30003b88:	95c43000 	strlsb	r3, [r4]
30003b8c:	e3580000 	cmp	r8, #0	; 0x0
30003b90:	e2844001 	add	r4, r4, #1	; 0x1
30003b94:	cafffff9 	bgt	30003b80 <.text+0x3b80>
30003b98:	e4993004 	ldr	r3, [r9], #4
30003b9c:	e1540007 	cmp	r4, r7
30003ba0:	e20330ff 	and	r3, r3, #255	; 0xff
30003ba4:	e2488001 	sub	r8, r8, #1	; 0x1
30003ba8:	95c43000 	strlsb	r3, [r4]
30003bac:	e3580000 	cmp	r8, #0	; 0x0
30003bb0:	e2844001 	add	r4, r4, #1	; 0x1
30003bb4:	daffff99 	ble	30003a20 <.text+0x3a20>
30003bb8:	e3a03020 	mov	r3, #32	; 0x20
30003bbc:	e1540007 	cmp	r4, r7
30003bc0:	e2488001 	sub	r8, r8, #1	; 0x1
30003bc4:	95c43000 	strlsb	r3, [r4]
30003bc8:	e3580000 	cmp	r8, #0	; 0x0
30003bcc:	e2844001 	add	r4, r4, #1	; 0x1
30003bd0:	cafffff9 	bgt	30003bbc <.text+0x3bbc>
30003bd4:	e59dc014 	ldr	ip, [sp, #20]
30003bd8:	eafffea4 	b	30003670 <vsnprintf+0x8c>
30003bdc:	e4993004 	ldr	r3, [r9], #4
30003be0:	e1a03803 	mov	r3, r3, lsl #16
30003be4:	e1a01823 	mov	r1, r3, lsr #16
30003be8:	e3150002 	tst	r5, #2	; 0x2
30003bec:	e3a02000 	mov	r2, #0	; 0x0
30003bf0:	11a03001 	movne	r3, r1
30003bf4:	11a03803 	movne	r3, r3, lsl #16
30003bf8:	11a01843 	movne	r1, r3, asr #16
30003bfc:	1affff7d 	bne	300039f8 <.text+0x39f8>
30003c00:	eaffff7d 	b	300039fc <.text+0x39fc>
30003c04:	30004c18 	andcc	r4, r0, r8, lsl ip
30003c08:	30004b18 	andcc	r4, r0, r8, lsl fp
30003c0c:	30004afc 	strccd	r4, [r0], -ip

30003c10 <vscnprintf>:
30003c10:	e92d4010 	stmdb	sp!, {r4, lr}
30003c14:	e1a04001 	mov	r4, r1
30003c18:	ebfffe71 	bl	300035e4 <vsnprintf>
30003c1c:	e1500004 	cmp	r0, r4
30003c20:	e2444001 	sub	r4, r4, #1	; 0x1
30003c24:	31a04000 	movcc	r4, r0
30003c28:	e1a00004 	mov	r0, r4
30003c2c:	e8bd8010 	ldmia	sp!, {r4, pc}

30003c30 <snprintf>:
30003c30:	e92d000c 	stmdb	sp!, {r2, r3}
30003c34:	e52de004 	str	lr, [sp, #-4]!
30003c38:	e59d2004 	ldr	r2, [sp, #4]
30003c3c:	e28d3008 	add	r3, sp, #8	; 0x8
30003c40:	ebfffe67 	bl	300035e4 <vsnprintf>
30003c44:	e49de004 	ldr	lr, [sp], #4
30003c48:	e28dd008 	add	sp, sp, #8	; 0x8
30003c4c:	e1a0f00e 	mov	pc, lr

30003c50 <scnprintf>:
30003c50:	e92d000c 	stmdb	sp!, {r2, r3}
30003c54:	e92d4010 	stmdb	sp!, {r4, lr}
30003c58:	e59d2008 	ldr	r2, [sp, #8]
30003c5c:	e1a04001 	mov	r4, r1
30003c60:	e28d300c 	add	r3, sp, #12	; 0xc
30003c64:	ebfffe5e 	bl	300035e4 <vsnprintf>
30003c68:	e1500004 	cmp	r0, r4
30003c6c:	e2444001 	sub	r4, r4, #1	; 0x1
30003c70:	31a04000 	movcc	r4, r0
30003c74:	e1a00004 	mov	r0, r4
30003c78:	e8bd4010 	ldmia	sp!, {r4, lr}
30003c7c:	e28dd008 	add	sp, sp, #8	; 0x8
30003c80:	e1a0f00e 	mov	pc, lr

30003c84 <vsprintf>:
30003c84:	e1a03002 	mov	r3, r2
30003c88:	e1a02001 	mov	r2, r1
30003c8c:	e3e01102 	mvn	r1, #-2147483648	; 0x80000000
30003c90:	eafffe53 	b	300035e4 <vsnprintf>

30003c94 <sprintf>:
30003c94:	e92d000e 	stmdb	sp!, {r1, r2, r3}
30003c98:	e52de004 	str	lr, [sp, #-4]!
30003c9c:	e59d1004 	ldr	r1, [sp, #4]
30003ca0:	e28d2008 	add	r2, sp, #8	; 0x8
30003ca4:	ebfffff6 	bl	30003c84 <vsprintf>
30003ca8:	e49de004 	ldr	lr, [sp], #4
30003cac:	e28dd00c 	add	sp, sp, #12	; 0xc
30003cb0:	e1a0f00e 	mov	pc, lr

30003cb4 <vsscanf>:
30003cb4:	e92d45f0 	stmdb	sp!, {r4, r5, r6, r7, r8, sl, lr}
30003cb8:	e1a05002 	mov	r5, r2
30003cbc:	e3a07000 	mov	r7, #0	; 0x0
30003cc0:	e1a08000 	mov	r8, r0
30003cc4:	e1a04000 	mov	r4, r0
30003cc8:	e24dd008 	sub	sp, sp, #8	; 0x8
30003ccc:	e58d1004 	str	r1, [sp, #4]
30003cd0:	e5d12000 	ldrb	r2, [r1]
30003cd4:	e1520007 	cmp	r2, r7
30003cd8:	0a000022 	beq	30003d68 <vsscanf+0xb4>
30003cdc:	e5d03000 	ldrb	r3, [r0]
30003ce0:	e1530007 	cmp	r3, r7
30003ce4:	0a00001f 	beq	30003d68 <vsscanf+0xb4>
30003ce8:	e59fa6c4 	ldr	sl, [pc, #1732]	; 300043b4 <.text+0x43b4>
30003cec:	e7da3002 	ldrb	r3, [sl, r2]
30003cf0:	e3130020 	tst	r3, #32	; 0x20
30003cf4:	e1a0c00a 	mov	ip, sl
30003cf8:	0a000011 	beq	30003d44 <vsscanf+0x90>
30003cfc:	e2810001 	add	r0, r1, #1	; 0x1
30003d00:	e58d0004 	str	r0, [sp, #4]
30003d04:	e1a01000 	mov	r1, r0
30003d08:	e2800001 	add	r0, r0, #1	; 0x1
30003d0c:	e5503001 	ldrb	r3, [r0, #-1]
30003d10:	e7dc2003 	ldrb	r2, [ip, r3]
30003d14:	e3120020 	tst	r2, #32	; 0x20
30003d18:	1afffff8 	bne	30003d00 <vsscanf+0x4c>
30003d1c:	e59fa690 	ldr	sl, [pc, #1680]	; 300043b4 <.text+0x43b4>
30003d20:	e5d43000 	ldrb	r3, [r4]
30003d24:	e7da2003 	ldrb	r2, [sl, r3]
30003d28:	e3120020 	tst	r2, #32	; 0x20
30003d2c:	e1a0000a 	mov	r0, sl
30003d30:	0a000003 	beq	30003d44 <vsscanf+0x90>
30003d34:	e5f43001 	ldrb	r3, [r4, #1]!
30003d38:	e7d02003 	ldrb	r2, [r0, r3]
30003d3c:	e3120020 	tst	r2, #32	; 0x20
30003d40:	1afffffb 	bne	30003d34 <vsscanf+0x80>
30003d44:	e5d12000 	ldrb	r2, [r1]
30003d48:	e3520025 	cmp	r2, #37	; 0x25
30003d4c:	13520000 	cmpne	r2, #0	; 0x0
30003d50:	0a000007 	beq	30003d74 <vsscanf+0xc0>
30003d54:	e2811001 	add	r1, r1, #1	; 0x1
30003d58:	e4d43001 	ldrb	r3, [r4], #1
30003d5c:	e58d1004 	str	r1, [sp, #4]
30003d60:	e1520003 	cmp	r2, r3
30003d64:	0a00008d 	beq	30003fa0 <.text+0x3fa0>
30003d68:	e1a00007 	mov	r0, r7
30003d6c:	e28dd008 	add	sp, sp, #8	; 0x8
30003d70:	e8bd85f0 	ldmia	sp!, {r4, r5, r6, r7, r8, sl, pc}
30003d74:	e3520000 	cmp	r2, #0	; 0x0
30003d78:	0afffffa 	beq	30003d68 <vsscanf+0xb4>
30003d7c:	e2811001 	add	r1, r1, #1	; 0x1
30003d80:	e58d1004 	str	r1, [sp, #4]
30003d84:	e5d13000 	ldrb	r3, [r1]
30003d88:	e353002a 	cmp	r3, #42	; 0x2a
30003d8c:	0a000089 	beq	30003fb8 <.text+0x3fb8>
30003d90:	e7da3003 	ldrb	r3, [sl, r3]
30003d94:	e3130004 	tst	r3, #4	; 0x4
30003d98:	e3e00000 	mvn	r0, #0	; 0x0
30003d9c:	1a0000a1 	bne	30004028 <.text+0x4028>
30003da0:	e5d13000 	ldrb	r3, [r1]
30003da4:	e353006c 	cmp	r3, #108	; 0x6c
30003da8:	13530068 	cmpne	r3, #104	; 0x68
30003dac:	e3e0e000 	mvn	lr, #0	; 0x0
30003db0:	1a000066 	bne	30003f50 <.text+0x3f50>
30003db4:	e4d1e001 	ldrb	lr, [r1], #1
30003db8:	e58d1004 	str	r1, [sp, #4]
30003dbc:	e5d13000 	ldrb	r3, [r1]
30003dc0:	e153000e 	cmp	r3, lr
30003dc4:	0a000170 	beq	3000438c <.text+0x438c>
30003dc8:	e5d1c000 	ldrb	ip, [r1]
30003dcc:	e35c0000 	cmp	ip, #0	; 0x0
30003dd0:	e3a0200a 	mov	r2, #10	; 0xa
30003dd4:	e3a06000 	mov	r6, #0	; 0x0
30003dd8:	0affffe2 	beq	30003d68 <vsscanf+0xb4>
30003ddc:	e5d43000 	ldrb	r3, [r4]
30003de0:	e1530006 	cmp	r3, r6
30003de4:	0affffdf 	beq	30003d68 <vsscanf+0xb4>
30003de8:	e2811001 	add	r1, r1, #1	; 0x1
30003dec:	e24c3025 	sub	r3, ip, #37	; 0x25
30003df0:	e58d1004 	str	r1, [sp, #4]
30003df4:	e3530053 	cmp	r3, #83	; 0x53
30003df8:	979ff103 	ldrls	pc, [pc, r3, lsl #2]
30003dfc:	eaffffd9 	b	30003d68 <vsscanf+0xb4>
30003e00:	30004210 	andcc	r4, r0, r0, lsl r2
30003e04:	30003d68 	andcc	r3, r0, r8, ror #26
30003e08:	30003d68 	andcc	r3, r0, r8, ror #26
30003e0c:	30003d68 	andcc	r3, r0, r8, ror #26
30003e10:	30003d68 	andcc	r3, r0, r8, ror #26
30003e14:	30003d68 	andcc	r3, r0, r8, ror #26
30003e18:	30003d68 	andcc	r3, r0, r8, ror #26
30003e1c:	30003d68 	andcc	r3, r0, r8, ror #26
30003e20:	30003d68 	andcc	r3, r0, r8, ror #26
30003e24:	30003d68 	andcc	r3, r0, r8, ror #26
30003e28:	30003d68 	andcc	r3, r0, r8, ror #26
30003e2c:	30003d68 	andcc	r3, r0, r8, ror #26
30003e30:	30003d68 	andcc	r3, r0, r8, ror #26
30003e34:	30003d68 	andcc	r3, r0, r8, ror #26
30003e38:	30003d68 	andcc	r3, r0, r8, ror #26
30003e3c:	30003d68 	andcc	r3, r0, r8, ror #26
30003e40:	30003d68 	andcc	r3, r0, r8, ror #26
30003e44:	30003d68 	andcc	r3, r0, r8, ror #26
30003e48:	30003d68 	andcc	r3, r0, r8, ror #26
30003e4c:	30003d68 	andcc	r3, r0, r8, ror #26
30003e50:	30003d68 	andcc	r3, r0, r8, ror #26
30003e54:	30003d68 	andcc	r3, r0, r8, ror #26
30003e58:	30003d68 	andcc	r3, r0, r8, ror #26
30003e5c:	30003d68 	andcc	r3, r0, r8, ror #26
30003e60:	30003d68 	andcc	r3, r0, r8, ror #26
30003e64:	30003d68 	andcc	r3, r0, r8, ror #26
30003e68:	30003d68 	andcc	r3, r0, r8, ror #26
30003e6c:	30003d68 	andcc	r3, r0, r8, ror #26
30003e70:	30003d68 	andcc	r3, r0, r8, ror #26
30003e74:	30003d68 	andcc	r3, r0, r8, ror #26
30003e78:	30003d68 	andcc	r3, r0, r8, ror #26
30003e7c:	30003d68 	andcc	r3, r0, r8, ror #26
30003e80:	30003d68 	andcc	r3, r0, r8, ror #26
30003e84:	30003d68 	andcc	r3, r0, r8, ror #26
30003e88:	30003d68 	andcc	r3, r0, r8, ror #26
30003e8c:	30003d68 	andcc	r3, r0, r8, ror #26
30003e90:	30003d68 	andcc	r3, r0, r8, ror #26
30003e94:	30003d68 	andcc	r3, r0, r8, ror #26
30003e98:	30003d68 	andcc	r3, r0, r8, ror #26
30003e9c:	30003d68 	andcc	r3, r0, r8, ror #26
30003ea0:	30003d68 	andcc	r3, r0, r8, ror #26
30003ea4:	30003d68 	andcc	r3, r0, r8, ror #26
30003ea8:	30003d68 	andcc	r3, r0, r8, ror #26
30003eac:	30003d68 	andcc	r3, r0, r8, ror #26
30003eb0:	30003d68 	andcc	r3, r0, r8, ror #26
30003eb4:	30003d68 	andcc	r3, r0, r8, ror #26
30003eb8:	30003d68 	andcc	r3, r0, r8, ror #26
30003ebc:	30003d68 	andcc	r3, r0, r8, ror #26
30003ec0:	30003d68 	andcc	r3, r0, r8, ror #26
30003ec4:	30003d68 	andcc	r3, r0, r8, ror #26
30003ec8:	30003d68 	andcc	r3, r0, r8, ror #26
30003ecc:	30004208 	andcc	r4, r0, r8, lsl #4
30003ed0:	30003d68 	andcc	r3, r0, r8, ror #26
30003ed4:	30003d68 	andcc	r3, r0, r8, ror #26
30003ed8:	30003d68 	andcc	r3, r0, r8, ror #26
30003edc:	30003d68 	andcc	r3, r0, r8, ror #26
30003ee0:	30003d68 	andcc	r3, r0, r8, ror #26
30003ee4:	30003d68 	andcc	r3, r0, r8, ror #26
30003ee8:	30003d68 	andcc	r3, r0, r8, ror #26
30003eec:	30003d68 	andcc	r3, r0, r8, ror #26
30003ef0:	30003d68 	andcc	r3, r0, r8, ror #26
30003ef4:	30003d68 	andcc	r3, r0, r8, ror #26
30003ef8:	300041c4 	andcc	r4, r0, r4, asr #3
30003efc:	3000403c 	andcc	r4, r0, ip, lsr r0
30003f00:	30003d68 	andcc	r3, r0, r8, ror #26
30003f04:	30003d68 	andcc	r3, r0, r8, ror #26
30003f08:	30003d68 	andcc	r3, r0, r8, ror #26
30003f0c:	30003d68 	andcc	r3, r0, r8, ror #26
30003f10:	30004038 	andcc	r4, r0, r8, lsr r0
30003f14:	30003d68 	andcc	r3, r0, r8, ror #26
30003f18:	30003d68 	andcc	r3, r0, r8, ror #26
30003f1c:	30003d68 	andcc	r3, r0, r8, ror #26
30003f20:	30003d68 	andcc	r3, r0, r8, ror #26
30003f24:	3000421c 	andcc	r4, r0, ip, lsl r2
30003f28:	30004200 	andcc	r4, r0, r0, lsl #4
30003f2c:	30003d68 	andcc	r3, r0, r8, ror #26
30003f30:	30003d68 	andcc	r3, r0, r8, ror #26
30003f34:	30003d68 	andcc	r3, r0, r8, ror #26
30003f38:	30004190 	mulcc	r0, r0, r1
30003f3c:	30003d68 	andcc	r3, r0, r8, ror #26
30003f40:	30004040 	andcc	r4, r0, r0, asr #32
30003f44:	30003d68 	andcc	r3, r0, r8, ror #26
30003f48:	30003d68 	andcc	r3, r0, r8, ror #26
30003f4c:	30004208 	andcc	r4, r0, r8, lsl #4
30003f50:	e353004c 	cmp	r3, #76	; 0x4c
30003f54:	0affff96 	beq	30003db4 <vsscanf+0x100>
30003f58:	e353005a 	cmp	r3, #90	; 0x5a
30003f5c:	0affff94 	beq	30003db4 <vsscanf+0x100>
30003f60:	e353007a 	cmp	r3, #122	; 0x7a
30003f64:	1affff97 	bne	30003dc8 <vsscanf+0x114>
30003f68:	eaffff91 	b	30003db4 <vsscanf+0x100>
30003f6c:	e3560000 	cmp	r6, #0	; 0x0
30003f70:	0a0000ad 	beq	3000422c <.text+0x422c>
30003f74:	e1a00004 	mov	r0, r4
30003f78:	e1a0100d 	mov	r1, sp
30003f7c:	e4954004 	ldr	r4, [r5], #4
30003f80:	ebfffc62 	bl	30003110 <simple_strtol>
30003f84:	e5840000 	str	r0, [r4]
30003f88:	e59d0000 	ldr	r0, [sp]
30003f8c:	e3500000 	cmp	r0, #0	; 0x0
30003f90:	e2877001 	add	r7, r7, #1	; 0x1
30003f94:	0affff73 	beq	30003d68 <vsscanf+0xb4>
30003f98:	e59d1004 	ldr	r1, [sp, #4]
30003f9c:	e1a04000 	mov	r4, r0
30003fa0:	e5d12000 	ldrb	r2, [r1]
30003fa4:	e3520000 	cmp	r2, #0	; 0x0
30003fa8:	0affff6e 	beq	30003d68 <vsscanf+0xb4>
30003fac:	e5d43000 	ldrb	r3, [r4]
30003fb0:	e3530000 	cmp	r3, #0	; 0x0
30003fb4:	eaffff4a 	b	30003ce4 <vsscanf+0x30>
30003fb8:	e59fa3f4 	ldr	sl, [pc, #1012]	; 300043b4 <.text+0x43b4>
30003fbc:	e7da3003 	ldrb	r3, [sl, r3]
30003fc0:	e3130020 	tst	r3, #32	; 0x20
30003fc4:	e1a0c00a 	mov	ip, sl
30003fc8:	1a000009 	bne	30003ff4 <.text+0x3ff4>
30003fcc:	e2812001 	add	r2, r1, #1	; 0x1
30003fd0:	e58d2004 	str	r2, [sp, #4]
30003fd4:	e1a01002 	mov	r1, r2
30003fd8:	e2822001 	add	r2, r2, #1	; 0x1
30003fdc:	e5520001 	ldrb	r0, [r2, #-1]
30003fe0:	e7dc3000 	ldrb	r3, [ip, r0]
30003fe4:	e3130020 	tst	r3, #32	; 0x20
30003fe8:	1a000001 	bne	30003ff4 <.text+0x3ff4>
30003fec:	e3500000 	cmp	r0, #0	; 0x0
30003ff0:	1afffff6 	bne	30003fd0 <.text+0x3fd0>
30003ff4:	e59fa3b8 	ldr	sl, [pc, #952]	; 300043b4 <.text+0x43b4>
30003ff8:	e5d42000 	ldrb	r2, [r4]
30003ffc:	e1a0000a 	mov	r0, sl
30004000:	e7d03002 	ldrb	r3, [r0, r2]
30004004:	e3130020 	tst	r3, #32	; 0x20
30004008:	1affffe4 	bne	30003fa0 <.text+0x3fa0>
3000400c:	e3520000 	cmp	r2, #0	; 0x0
30004010:	0affffe2 	beq	30003fa0 <.text+0x3fa0>
30004014:	e5f42001 	ldrb	r2, [r4, #1]!
30004018:	e7d03002 	ldrb	r3, [r0, r2]
3000401c:	e3130020 	tst	r3, #32	; 0x20
30004020:	0afffff9 	beq	3000400c <.text+0x400c>
30004024:	eaffffdd 	b	30003fa0 <.text+0x3fa0>
30004028:	e28d0004 	add	r0, sp, #4	; 0x4
3000402c:	ebfffc9e 	bl	300032ac <skip_atoi>
30004030:	e59d1004 	ldr	r1, [sp, #4]
30004034:	eaffff59 	b	30003da0 <vsscanf+0xec>
30004038:	e3a02000 	mov	r2, #0	; 0x0
3000403c:	e3a06001 	mov	r6, #1	; 0x1
30004040:	e59fa36c 	ldr	sl, [pc, #876]	; 300043b4 <.text+0x43b4>
30004044:	e5d41000 	ldrb	r1, [r4]
30004048:	e7da3001 	ldrb	r3, [sl, r1]
3000404c:	e3130020 	tst	r3, #32	; 0x20
30004050:	e1a0000a 	mov	r0, sl
30004054:	0a000003 	beq	30004068 <.text+0x4068>
30004058:	e5f41001 	ldrb	r1, [r4, #1]!
3000405c:	e7d03001 	ldrb	r3, [r0, r1]
30004060:	e3130020 	tst	r3, #32	; 0x20
30004064:	1afffffb 	bne	30004058 <.text+0x4058>
30004068:	e20110ff 	and	r1, r1, #255	; 0xff
3000406c:	e351002d 	cmp	r1, #45	; 0x2d
30004070:	13a03000 	movne	r3, #0	; 0x0
30004074:	02063001 	andeq	r3, r6, #1	; 0x1
30004078:	e3530000 	cmp	r3, #0	; 0x0
3000407c:	15d41001 	ldrneb	r1, [r4, #1]
30004080:	e3510000 	cmp	r1, #0	; 0x0
30004084:	0affff37 	beq	30003d68 <vsscanf+0xb4>
30004088:	e3520010 	cmp	r2, #16	; 0x10
3000408c:	0a000085 	beq	300042a8 <.text+0x42a8>
30004090:	e352000a 	cmp	r2, #10	; 0xa
30004094:	0a00008f 	beq	300042d8 <.text+0x42d8>
30004098:	e3520008 	cmp	r2, #8	; 0x8
3000409c:	0a000085 	beq	300042b8 <.text+0x42b8>
300040a0:	e3520000 	cmp	r2, #0	; 0x0
300040a4:	1a000002 	bne	300040b4 <.text+0x40b4>
300040a8:	e7da3001 	ldrb	r3, [sl, r1]
300040ac:	e3130004 	tst	r3, #4	; 0x4
300040b0:	0affff2c 	beq	30003d68 <vsscanf+0xb4>
300040b4:	e24e3048 	sub	r3, lr, #72	; 0x48
300040b8:	e3530032 	cmp	r3, #50	; 0x32
300040bc:	979ff103 	ldrls	pc, [pc, r3, lsl #2]
300040c0:	eaffffa9 	b	30003f6c <.text+0x3f6c>
300040c4:	30004288 	andcc	r4, r0, r8, lsl #5
300040c8:	30003f6c 	andcc	r3, r0, ip, ror #30
300040cc:	30003f6c 	andcc	r3, r0, ip, ror #30
300040d0:	30003f6c 	andcc	r3, r0, ip, ror #30
300040d4:	30004268 	andcc	r4, r0, r8, ror #4
300040d8:	30003f6c 	andcc	r3, r0, ip, ror #30
300040dc:	30003f6c 	andcc	r3, r0, ip, ror #30
300040e0:	30003f6c 	andcc	r3, r0, ip, ror #30
300040e4:	30003f6c 	andcc	r3, r0, ip, ror #30
300040e8:	30003f6c 	andcc	r3, r0, ip, ror #30
300040ec:	30003f6c 	andcc	r3, r0, ip, ror #30
300040f0:	30003f6c 	andcc	r3, r0, ip, ror #30
300040f4:	30003f6c 	andcc	r3, r0, ip, ror #30
300040f8:	30003f6c 	andcc	r3, r0, ip, ror #30
300040fc:	30003f6c 	andcc	r3, r0, ip, ror #30
30004100:	30003f6c 	andcc	r3, r0, ip, ror #30
30004104:	30003f6c 	andcc	r3, r0, ip, ror #30
30004108:	30003f6c 	andcc	r3, r0, ip, ror #30
3000410c:	3000422c 	andcc	r4, r0, ip, lsr #4
30004110:	30003f6c 	andcc	r3, r0, ip, ror #30
30004114:	30003f6c 	andcc	r3, r0, ip, ror #30
30004118:	30003f6c 	andcc	r3, r0, ip, ror #30
3000411c:	30003f6c 	andcc	r3, r0, ip, ror #30
30004120:	30003f6c 	andcc	r3, r0, ip, ror #30
30004124:	30003f6c 	andcc	r3, r0, ip, ror #30
30004128:	30003f6c 	andcc	r3, r0, ip, ror #30
3000412c:	30003f6c 	andcc	r3, r0, ip, ror #30
30004130:	30003f6c 	andcc	r3, r0, ip, ror #30
30004134:	30003f6c 	andcc	r3, r0, ip, ror #30
30004138:	30003f6c 	andcc	r3, r0, ip, ror #30
3000413c:	30003f6c 	andcc	r3, r0, ip, ror #30
30004140:	30003f6c 	andcc	r3, r0, ip, ror #30
30004144:	30004240 	andcc	r4, r0, r0, asr #4
30004148:	30003f6c 	andcc	r3, r0, ip, ror #30
3000414c:	30003f6c 	andcc	r3, r0, ip, ror #30
30004150:	30003f6c 	andcc	r3, r0, ip, ror #30
30004154:	30003f6c 	andcc	r3, r0, ip, ror #30
30004158:	30003f6c 	andcc	r3, r0, ip, ror #30
3000415c:	30003f6c 	andcc	r3, r0, ip, ror #30
30004160:	30003f6c 	andcc	r3, r0, ip, ror #30
30004164:	30003f6c 	andcc	r3, r0, ip, ror #30
30004168:	30003f6c 	andcc	r3, r0, ip, ror #30
3000416c:	30003f6c 	andcc	r3, r0, ip, ror #30
30004170:	30003f6c 	andcc	r3, r0, ip, ror #30
30004174:	30003f6c 	andcc	r3, r0, ip, ror #30
30004178:	30003f6c 	andcc	r3, r0, ip, ror #30
3000417c:	30003f6c 	andcc	r3, r0, ip, ror #30
30004180:	30003f6c 	andcc	r3, r0, ip, ror #30
30004184:	30003f6c 	andcc	r3, r0, ip, ror #30
30004188:	30003f6c 	andcc	r3, r0, ip, ror #30
3000418c:	3000422c 	andcc	r4, r0, ip, lsr #4
30004190:	e59fa21c 	ldr	sl, [pc, #540]	; 300043b4 <.text+0x43b4>
30004194:	e5d41000 	ldrb	r1, [r4]
30004198:	e7da3001 	ldrb	r3, [sl, r1]
3000419c:	e3700001 	cmn	r0, #1	; 0x1
300041a0:	e495c004 	ldr	ip, [r5], #4
300041a4:	03e00102 	mvneq	r0, #-2147483648	; 0x80000000
300041a8:	e1a0200a 	mov	r2, sl
300041ac:	e3130020 	tst	r3, #32	; 0x20
300041b0:	0a00004c 	beq	300042e8 <.text+0x42e8>
300041b4:	e5f41001 	ldrb	r1, [r4, #1]!
300041b8:	e7d23001 	ldrb	r3, [r2, r1]
300041bc:	e3130020 	tst	r3, #32	; 0x20
300041c0:	eafffffa 	b	300041b0 <.text+0x41b0>
300041c4:	e3700001 	cmn	r0, #1	; 0x1
300041c8:	e4953004 	ldr	r3, [r5], #4
300041cc:	e5d41000 	ldrb	r1, [r4]
300041d0:	03a00001 	moveq	r0, #1	; 0x1
300041d4:	e2400001 	sub	r0, r0, #1	; 0x1
300041d8:	e3500000 	cmp	r0, #0	; 0x0
300041dc:	e4c31001 	strb	r1, [r3], #1
300041e0:	e2844001 	add	r4, r4, #1	; 0x1
300041e4:	da000002 	ble	300041f4 <.text+0x41f4>
300041e8:	e5d41000 	ldrb	r1, [r4]
300041ec:	e3510000 	cmp	r1, #0	; 0x0
300041f0:	1afffff7 	bne	300041d4 <.text+0x41d4>
300041f4:	e59d1004 	ldr	r1, [sp, #4]
300041f8:	e2877001 	add	r7, r7, #1	; 0x1
300041fc:	eaffff67 	b	30003fa0 <.text+0x3fa0>
30004200:	e3a02008 	mov	r2, #8	; 0x8
30004204:	eaffff8d 	b	30004040 <.text+0x4040>
30004208:	e3a02010 	mov	r2, #16	; 0x10
3000420c:	eaffff8b 	b	30004040 <.text+0x4040>
30004210:	e4d43001 	ldrb	r3, [r4], #1
30004214:	e3530025 	cmp	r3, #37	; 0x25
30004218:	eafffed1 	b	30003d64 <vsscanf+0xb0>
3000421c:	e4952004 	ldr	r2, [r5], #4
30004220:	e0683004 	rsb	r3, r8, r4
30004224:	e5823000 	str	r3, [r2]
30004228:	eaffff5c 	b	30003fa0 <.text+0x3fa0>
3000422c:	e1a00004 	mov	r0, r4
30004230:	e1a0100d 	mov	r1, sp
30004234:	e4954004 	ldr	r4, [r5], #4
30004238:	ebfffb76 	bl	30003018 <simple_strtoul>
3000423c:	eaffff50 	b	30003f84 <.text+0x3f84>
30004240:	e3560000 	cmp	r6, #0	; 0x0
30004244:	0a00004b 	beq	30004378 <.text+0x4378>
30004248:	e1a00004 	mov	r0, r4
3000424c:	e1a0100d 	mov	r1, sp
30004250:	e4954004 	ldr	r4, [r5], #4
30004254:	ebfffbad 	bl	30003110 <simple_strtol>
30004258:	e1a03440 	mov	r3, r0, asr #8
3000425c:	e5c43001 	strb	r3, [r4, #1]
30004260:	e5c40000 	strb	r0, [r4]
30004264:	eaffff47 	b	30003f88 <.text+0x3f88>
30004268:	e3560000 	cmp	r6, #0	; 0x0
3000426c:	0a00003c 	beq	30004364 <.text+0x4364>
30004270:	e1a00004 	mov	r0, r4
30004274:	e1a0100d 	mov	r1, sp
30004278:	e4954004 	ldr	r4, [r5], #4
3000427c:	ebfffbff 	bl	30003280 <simple_strtoll>
30004280:	e8840003 	stmia	r4, {r0, r1}
30004284:	eaffff3f 	b	30003f88 <.text+0x3f88>
30004288:	e3560000 	cmp	r6, #0	; 0x0
3000428c:	0a00002e 	beq	3000434c <.text+0x434c>
30004290:	e1a00004 	mov	r0, r4
30004294:	e1a0100d 	mov	r1, sp
30004298:	e4954004 	ldr	r4, [r5], #4
3000429c:	ebfffb9b 	bl	30003110 <simple_strtol>
300042a0:	e5c40000 	strb	r0, [r4]
300042a4:	eaffff37 	b	30003f88 <.text+0x3f88>
300042a8:	e7da3001 	ldrb	r3, [sl, r1]
300042ac:	e3130044 	tst	r3, #68	; 0x44
300042b0:	1affff78 	bne	30004098 <.text+0x4098>
300042b4:	eafffeab 	b	30003d68 <vsscanf+0xb4>
300042b8:	e7da3001 	ldrb	r3, [sl, r1]
300042bc:	e1a03123 	mov	r3, r3, lsr #2
300042c0:	e2233001 	eor	r3, r3, #1	; 0x1
300042c4:	e3510037 	cmp	r1, #55	; 0x37
300042c8:	83833001 	orrhi	r3, r3, #1	; 0x1
300042cc:	e3130001 	tst	r3, #1	; 0x1
300042d0:	0affff77 	beq	300040b4 <.text+0x40b4>
300042d4:	eafffea3 	b	30003d68 <vsscanf+0xb4>
300042d8:	e7da3001 	ldrb	r3, [sl, r1]
300042dc:	e3130004 	tst	r3, #4	; 0x4
300042e0:	1affff6e 	bne	300040a0 <.text+0x40a0>
300042e4:	eafffe9f 	b	30003d68 <vsscanf+0xb4>
300042e8:	e20130ff 	and	r3, r1, #255	; 0xff
300042ec:	e3530000 	cmp	r3, #0	; 0x0
300042f0:	e1a02001 	mov	r2, r1
300042f4:	0a000011 	beq	30004340 <.text+0x4340>
300042f8:	e59fa0b4 	ldr	sl, [pc, #180]	; 300043b4 <.text+0x43b4>
300042fc:	e7da3003 	ldrb	r3, [sl, r3]
30004300:	e3130020 	tst	r3, #32	; 0x20
30004304:	e1a0100a 	mov	r1, sl
30004308:	1a00000c 	bne	30004340 <.text+0x4340>
3000430c:	e2400001 	sub	r0, r0, #1	; 0x1
30004310:	ea000008 	b	30004338 <.text+0x4338>
30004314:	e4cc2001 	strb	r2, [ip], #1
30004318:	e2400001 	sub	r0, r0, #1	; 0x1
3000431c:	e5f42001 	ldrb	r2, [r4, #1]!
30004320:	e20230ff 	and	r3, r2, #255	; 0xff
30004324:	e3530000 	cmp	r3, #0	; 0x0
30004328:	0a000004 	beq	30004340 <.text+0x4340>
3000432c:	e7d13003 	ldrb	r3, [r1, r3]
30004330:	e3130020 	tst	r3, #32	; 0x20
30004334:	1a000001 	bne	30004340 <.text+0x4340>
30004338:	e3700001 	cmn	r0, #1	; 0x1
3000433c:	1afffff4 	bne	30004314 <.text+0x4314>
30004340:	e3a03000 	mov	r3, #0	; 0x0
30004344:	e5cc3000 	strb	r3, [ip]
30004348:	eaffffa9 	b	300041f4 <.text+0x41f4>
3000434c:	e1a00004 	mov	r0, r4
30004350:	e1a0100d 	mov	r1, sp
30004354:	e4954004 	ldr	r4, [r5], #4
30004358:	ebfffb2e 	bl	30003018 <simple_strtoul>
3000435c:	e5c40000 	strb	r0, [r4]
30004360:	eaffff08 	b	30003f88 <.text+0x3f88>
30004364:	e1a00004 	mov	r0, r4
30004368:	e1a0100d 	mov	r1, sp
3000436c:	e4954004 	ldr	r4, [r5], #4
30004370:	ebfffb70 	bl	30003138 <simple_strtoull>
30004374:	eaffffc1 	b	30004280 <.text+0x4280>
30004378:	e1a00004 	mov	r0, r4
3000437c:	e1a0100d 	mov	r1, sp
30004380:	e4954004 	ldr	r4, [r5], #4
30004384:	ebfffb23 	bl	30003018 <simple_strtoul>
30004388:	eaffffb2 	b	30004258 <.text+0x4258>
3000438c:	e35e0068 	cmp	lr, #104	; 0x68
30004390:	02811001 	addeq	r1, r1, #1	; 0x1
30004394:	024ee020 	subeq	lr, lr, #32	; 0x20
30004398:	058d1004 	streq	r1, [sp, #4]
3000439c:	0afffe89 	beq	30003dc8 <vsscanf+0x114>
300043a0:	e35e006c 	cmp	lr, #108	; 0x6c
300043a4:	02811001 	addeq	r1, r1, #1	; 0x1
300043a8:	024ee020 	subeq	lr, lr, #32	; 0x20
300043ac:	058d1004 	streq	r1, [sp, #4]
300043b0:	eafffe84 	b	30003dc8 <vsscanf+0x114>
300043b4:	30004b18 	andcc	r4, r0, r8, lsl fp

300043b8 <sscanf>:
300043b8:	e92d000e 	stmdb	sp!, {r1, r2, r3}
300043bc:	e52de004 	str	lr, [sp, #-4]!
300043c0:	e59d1004 	ldr	r1, [sp, #4]
300043c4:	e28d2008 	add	r2, sp, #8	; 0x8
300043c8:	ebfffe39 	bl	30003cb4 <vsscanf>
300043cc:	e49de004 	ldr	lr, [sp], #4
300043d0:	e28dd00c 	add	sp, sp, #12	; 0xc
300043d4:	e1a0f00e 	mov	pc, lr
Disassembly of section .rodata:

300043d8 <small_digits.1>:
300043d8:	33323130 	teqcc	r2, #12	; 0xc
300043dc:	37363534 	undefined
300043e0:	62613938 	rsbvs	r3, r1, #917504	; 0xe0000
300043e4:	66656463 	strvsbt	r6, [r5], -r3, ror #8
300043e8:	6a696867 	bvs	31a5e58c <__bss_end+0x1a544a4>
300043ec:	6e6d6c6b 	cdpvs	12, 6, cr6, cr13, cr11, {3}
300043f0:	7271706f 	rsbvcs	r7, r1, #111	; 0x6f
300043f4:	76757473 	undefined
300043f8:	7a797877 	bvc	31e625dc <__bss_end+0x1e584f4>
300043fc:	00000000 	andeq	r0, r0, r0

30004400 <large_digits.2>:
30004400:	33323130 	teqcc	r2, #12	; 0xc
30004404:	37363534 	undefined
30004408:	42413938 	submi	r3, r1, #917504	; 0xe0000
3000440c:	46454443 	strmib	r4, [r5], -r3, asr #8
30004410:	4a494847 	bmi	31256534 <__bss_end+0x124c44c>
30004414:	4e4d4c4b 	cdpmi	12, 4, cr4, cr13, cr11, {2}
30004418:	5251504f 	subpls	r5, r1, #79	; 0x4f
3000441c:	56555453 	undefined
30004420:	5a595857 	bpl	3165a584 <__bss_end+0x165049c>
30004424:	00000000 	andeq	r0, r0, r0
Disassembly of section .rodata.str1.4:

30004428 <.rodata.str1.4>:
30004428:	203a7325 	eorcss	r7, sl, r5, lsr #6
3000442c:	6d6d6f63 	stcvsl	15, cr6, [sp, #-396]!
30004430:	20646e61 	rsbcs	r6, r4, r1, ror #28
30004434:	20746f6e 	rsbcss	r6, r4, lr, ror #30
30004438:	6e756f66 	cdpvs	15, 7, cr6, cr5, cr6, {3}
3000443c:	000a0d64 	andeq	r0, sl, r4, ror #26
30004440:	20202020 	eorcs	r2, r0, r0, lsr #32
30004444:	20747542 	rsbcss	r7, r4, r2, asr #10
30004448:	616d2061 	cmnvs	sp, r1, rrx
3000444c:	7369206e 	cmnvc	r9, #110	; 0x6e
30004450:	746f6e20 	strvcbt	r6, [pc], #3616	; 30004458 <large_digits.2+0x58>
30004454:	64616d20 	strvsbt	r6, [r1], #-3360
30004458:	6f662065 	swivs	0x00662065
3000445c:	65642072 	strvsb	r2, [r4, #-114]!
30004460:	74616566 	strvcbt	r6, [r1], #-1382
30004464:	2041202e 	subcs	r2, r1, lr, lsr #32
30004468:	206e616d 	rsbcs	r6, lr, sp, ror #2
3000446c:	206e6163 	rsbcs	r6, lr, r3, ror #2
30004470:	64206562 	strvst	r6, [r0], #-1378
30004474:	72747365 	rsbvcs	r7, r4, #-1811939327	; 0x94000001
30004478:	6465796f 	strvsbt	r7, [r5], #-2415
3000447c:	74756220 	ldrvcbt	r6, [r5], #-544
30004480:	746f6e20 	strvcbt	r6, [pc], #3616	; 30004488 <large_digits.2+0x88>
30004484:	66656420 	strvsbt	r6, [r5], -r0, lsr #8
30004488:	65746165 	ldrvsb	r6, [r4, #-357]!
3000448c:	00002e64 	andeq	r2, r0, r4, ror #28
30004490:	64616572 	strvsbt	r6, [r1], #-1394
30004494:	20676e69 	rsbcs	r6, r7, r9, ror #28
30004498:	61746164 	cmnvs	r4, r4, ror #2
3000449c:	2e2e2e2e 	cdpcs	14, 2, cr2, cr14, cr14, {1}
300044a0:	00000a0d 	andeq	r0, r0, sp, lsl #20
300044a4:	6e65706f 	cdpvs	0, 6, cr7, cr5, cr15, {3}
300044a8:	20732520 	rsbcss	r2, r3, r0, lsr #10
300044ac:	63637573 	cmnvs	r3, #482344960	; 0x1cc00000
300044b0:	2c737365 	ldccsl	3, cr7, [r3], #-404
300044b4:	20646620 	rsbcs	r6, r4, r0, lsr #12
300044b8:	6425203d 	strvst	r2, [r5], #-61
300044bc:	00000a0d 	andeq	r0, r0, sp, lsl #20
300044c0:	656c6966 	strvsb	r6, [ip, #-2406]!
300044c4:	6e656c20 	cdpvs	12, 6, cr6, cr5, cr0, {1}
300044c8:	3a687467 	bcc	31a2166c <__bss_end+0x1a17584>
300044cc:	0d642520 	cfstr64eq	mvdx2, [r4, #-128]!
300044d0:	0000000a 	andeq	r0, r0, sl
300044d4:	00006325 	andeq	r6, r0, r5, lsr #6
300044d8:	7661656c 	strvcbt	r6, [r1], -ip, ror #10
300044dc:	73662065 	cmnvc	r6, #101	; 0x65
300044e0:	7361745f 	cmnvc	r1, #1593835520	; 0x5f000000
300044e4:	0d29286b 	stceq	8, cr2, [r9, #-428]!
300044e8:	0000000a 	andeq	r0, r0, sl
300044ec:	6e65706f 	cdpvs	0, 6, cr7, cr5, cr15, {3}
300044f0:	20732520 	rsbcss	r2, r3, r0, lsr #10
300044f4:	6c696166 	stfvse	f6, [r9], #-408
300044f8:	0d216465 	cfstrseq	mvf6, [r1, #-404]!
300044fc:	0000000a 	andeq	r0, r0, sl
30004500:	64616572 	strvsbt	r6, [r1], #-1394
30004504:	203a2928 	eorcss	r2, sl, r8, lsr #18
30004508:	5f667562 	swipl	0x00667562
3000450c:	64616572 	strvsbt	r6, [r1], #-1394
30004510:	30203d20 	eorcc	r3, r0, r0, lsr #26
30004514:	0d782578 	cfldr64eq	mvdx2, [r8, #-480]!
30004518:	0000000a 	andeq	r0, r0, sl
3000451c:	00207825 	eoreq	r7, r0, r5, lsr #16
30004520:	0000736c 	andeq	r7, r0, ip, ror #6
30004524:	6e61687a 	mcrvs	8, 3, r6, cr1, cr10, {3}
30004528:	00757867 	rsbeqs	r7, r5, r7, ror #16
3000452c:	6b736174 	blvs	31cdcb04 <__bss_end+0x1cd2a1c>
30004530:	69622e32 	stmvsdb	r2!, {r1, r4, r5, r9, sl, fp, sp}^
30004534:	0000006e 	andeq	r0, r0, lr, rrx
30004538:	746f6f72 	strvcbt	r6, [pc], #3954	; 30004540 <large_digits.2+0x140>
3000453c:	61687a40 	cmnvs	r8, r0, asr #20
30004540:	7578676e 	ldrvcb	r6, [r8, #-1902]!
30004544:	20232f3a 	eorcs	r2, r3, sl, lsr pc
30004548:	00000000 	andeq	r0, r0, r0
3000454c:	73696874 	cmnvc	r9, #7602176	; 0x740000
30004550:	20736920 	rsbcss	r6, r3, r0, lsr #18
30004554:	20656874 	rsbcs	r6, r5, r4, ror r8
30004558:	74696e69 	strvcbt	r6, [r9], #-3689
3000455c:	73617420 	cmnvc	r1, #536870912	; 0x20000000
30004560:	0d0a2e6b 	stceq	14, cr2, [sl, #-428]
30004564:	00000000 	andeq	r0, r0, r0
30004568:	65746e65 	ldrvsb	r6, [r4, #-3685]!
3000456c:	6f722072 	swivs	0x00722072
30004570:	5f73666d 	swipl	0x0073666d
30004574:	5f746567 	swipl	0x00746567
30004578:	64646164 	strvsbt	r6, [r4], #-356
3000457c:	0d292872 	stceq	8, cr2, [r9, #-456]!
30004580:	0000000a 	andeq	r0, r0, sl
30004584:	666d6f72 	uqsub16vs	r6, sp, r2
30004588:	65675f73 	strvsb	r5, [r7, #-3955]!
3000458c:	61645f74 	cmnvs	r4, r4, ror pc
30004590:	28726464 	ldmcsda	r2!, {r2, r5, r6, sl, sp, lr}^
30004594:	6e203a29 	fmulsvs	s6, s0, s19
30004598:	5f656d61 	swipl	0x00656d61
3000459c:	657a6973 	ldrvsb	r6, [sl, #-2419]!
300045a0:	25203d20 	strcs	r3, [r0, #-3360]!
300045a4:	000a0d64 	andeq	r0, sl, r4, ror #26
300045a8:	65746e65 	ldrvsb	r6, [r4, #-3685]!
300045ac:	69732072 	ldmvsdb	r3!, {r1, r4, r5, r6, sp}^
300045b0:	656c706d 	strvsb	r7, [ip, #-109]!
300045b4:	6d6f725f 	sfmvs	f7, 2, [pc, #-380]!
300045b8:	6e5f7366 	cdpvs	3, 5, cr7, cr15, cr6, {3}
300045bc:	69656d61 	stmvsdb	r5!, {r0, r5, r6, r8, sl, fp, sp, lr}^
300045c0:	0a0d2928 	beq	3034ea68 <__bss_end+0x344980>
300045c4:	00000000 	andeq	r0, r0, r0
300045c8:	706d6973 	rsbvc	r6, sp, r3, ror r9
300045cc:	725f656c 	subvcs	r6, pc, #452984832	; 0x1b000000
300045d0:	73666d6f 	cmnvc	r6, #7104	; 0x1bc0
300045d4:	6d616e5f 	stcvsl	14, cr6, [r1, #-380]!
300045d8:	29286965 	stmcsdb	r8!, {r0, r2, r5, r6, r8, fp, sp, lr}
300045dc:	6964203a 	stmvsdb	r4!, {r1, r3, r4, r5, sp}^
300045e0:	203d2072 	eorcss	r2, sp, r2, ror r0
300045e4:	202c7325 	eorcs	r7, ip, r5, lsr #6
300045e8:	6d616e66 	stcvsl	14, cr6, [r1, #-408]!
300045ec:	203d2065 	eorcss	r2, sp, r5, rrx
300045f0:	202c7325 	eorcs	r7, ip, r5, lsr #6
300045f4:	656d616e 	strvsb	r6, [sp, #-366]!
300045f8:	25203d20 	strcs	r3, [r0, #-3360]!
300045fc:	000a0d73 	andeq	r0, sl, r3, ror sp
30004600:	69730a0d 	ldmvsdb	r3!, {r0, r2, r3, r9, fp}^
30004604:	656c706d 	strvsb	r7, [ip, #-109]!
30004608:	6d6f725f 	sfmvs	f7, 2, [pc, #-380]!
3000460c:	6e5f7366 	cdpvs	3, 5, cr7, cr15, cr6, {3}
30004610:	69656d61 	stmvsdb	r5!, {r0, r5, r6, r8, sl, fp, sp, lr}^
30004614:	203a2928 	eorcss	r2, sl, r8, lsr #18
30004618:	69676562 	stmvsdb	r7!, {r1, r5, r6, r8, sl, sp, lr}^
3000461c:	6877206e 	ldmvsda	r7!, {r1, r2, r3, r5, r6, sp}^
30004620:	0d656c69 	stceql	12, cr6, [r5, #-420]!
30004624:	0000000a 	andeq	r0, r0, sl
30004628:	706d6973 	rsbvc	r6, sp, r3, ror r9
3000462c:	725f656c 	subvcs	r6, pc, #452984832	; 0x1b000000
30004630:	73666d6f 	cmnvc	r6, #7104	; 0x1bc0
30004634:	6d616e5f 	stcvsl	14, cr6, [r1, #-380]!
30004638:	29286965 	stmcsdb	r8!, {r0, r2, r5, r6, r8, fp, sp, lr}
3000463c:	6d74203a 	ldcvsl	0, cr2, [r4, #-232]!
30004640:	203d2070 	eorcss	r2, sp, r0, ror r0
30004644:	25287825 	strcs	r7, [r8, #-2085]!
30004648:	202c2964 	eorcs	r2, ip, r4, ror #18
3000464c:	7478656e 	ldrvcbt	r6, [r8], #-1390
30004650:	25203d20 	strcs	r3, [r0, #-3360]!
30004654:	64252878 	strvst	r2, [r5], #-2168
30004658:	000a0d29 	andeq	r0, sl, r9, lsr #26
3000465c:	706d6973 	rsbvc	r6, sp, r3, ror r9
30004660:	725f656c 	subvcs	r6, pc, #452984832	; 0x1b000000
30004664:	73666d6f 	cmnvc	r6, #7104	; 0x1bc0
30004668:	6d616e5f 	stcvsl	14, cr6, [r1, #-380]!
3000466c:	29286965 	stmcsdb	r8!, {r0, r2, r5, r6, r8, fp, sp, lr}
30004670:	2d70203a 	ldccsl	0, cr2, [r0, #-232]!
30004674:	78656e3e 	stmvcda	r5!, {r1, r2, r3, r4, r5, r9, sl, fp, sp, lr}^
30004678:	203d2074 	eorcss	r2, sp, r4, ror r0
3000467c:	0a0d7825 	beq	30362718 <__bss_end+0x358630>
30004680:	00000000 	andeq	r0, r0, r0
30004684:	706d6973 	rsbvc	r6, sp, r3, ror r9
30004688:	725f656c 	subvcs	r6, pc, #452984832	; 0x1b000000
3000468c:	73666d6f 	cmnvc	r6, #7104	; 0x1bc0
30004690:	6d616e5f 	stcvsl	14, cr6, [r1, #-380]!
30004694:	29286965 	stmcsdb	r8!, {r0, r2, r5, r6, r8, fp, sp, lr}
30004698:	2d70203a 	ldccsl	0, cr2, [r0, #-232]!
3000469c:	6570733e 	ldrvsb	r7, [r0, #-830]!
300046a0:	203d2063 	eorcss	r2, sp, r3, rrx
300046a4:	0a0d7825 	beq	30362740 <__bss_end+0x358658>
300046a8:	00000000 	andeq	r0, r0, r0
300046ac:	706d6973 	rsbvc	r6, sp, r3, ror r9
300046b0:	725f656c 	subvcs	r6, pc, #452984832	; 0x1b000000
300046b4:	73666d6f 	cmnvc	r6, #7104	; 0x1bc0
300046b8:	6d616e5f 	stcvsl	14, cr6, [r1, #-380]!
300046bc:	29286965 	stmcsdb	r8!, {r0, r2, r5, r6, r8, fp, sp, lr}
300046c0:	2d70203a 	ldccsl	0, cr2, [r0, #-232]!
300046c4:	7a69733e 	bvc	31a613c4 <__bss_end+0x1a572dc>
300046c8:	203d2065 	eorcss	r2, sp, r5, rrx
300046cc:	0a0d7825 	beq	30362768 <__bss_end+0x358680>
300046d0:	00000000 	andeq	r0, r0, r0
300046d4:	706d6973 	rsbvc	r6, sp, r3, ror r9
300046d8:	725f656c 	subvcs	r6, pc, #452984832	; 0x1b000000
300046dc:	73666d6f 	cmnvc	r6, #7104	; 0x1bc0
300046e0:	6d616e5f 	stcvsl	14, cr6, [r1, #-380]!
300046e4:	29286965 	stmcsdb	r8!, {r0, r2, r5, r6, r8, fp, sp, lr}
300046e8:	2d70203a 	ldccsl	0, cr2, [r0, #-232]!
300046ec:	6568633e 	strvsb	r6, [r8, #-830]!
300046f0:	75736b63 	ldrvcb	r6, [r3, #-2915]!
300046f4:	203d206d 	eorcss	r2, sp, sp, rrx
300046f8:	0a0d7825 	beq	30362794 <__bss_end+0x3586ac>
300046fc:	00000000 	andeq	r0, r0, r0
30004700:	706d6973 	rsbvc	r6, sp, r3, ror r9
30004704:	725f656c 	subvcs	r6, pc, #452984832	; 0x1b000000
30004708:	73666d6f 	cmnvc	r6, #7104	; 0x1bc0
3000470c:	6d616e5f 	stcvsl	14, cr6, [r1, #-380]!
30004710:	29286965 	stmcsdb	r8!, {r0, r2, r5, r6, r8, fp, sp, lr}
30004714:	2d70203a 	ldccsl	0, cr2, [r0, #-232]!
30004718:	6d616e3e 	stcvsl	14, cr6, [r1, #-248]!
3000471c:	203d2065 	eorcss	r2, sp, r5, rrx
30004720:	0a0d7325 	beq	303613bc <__bss_end+0x3572d4>
30004724:	00000000 	andeq	r0, r0, r0
30004728:	706d6973 	rsbvc	r6, sp, r3, ror r9
3000472c:	725f656c 	subvcs	r6, pc, #452984832	; 0x1b000000
30004730:	73666d6f 	cmnvc	r6, #7104	; 0x1bc0
30004734:	6d616e5f 	stcvsl	14, cr6, [r1, #-380]!
30004738:	29286965 	stmcsdb	r8!, {r0, r2, r5, r6, r8, fp, sp, lr}
3000473c:	6f67203a 	swivs	0x0067203a
30004740:	206f7420 	rsbcs	r7, pc, r0, lsr #8
30004744:	6e756f66 	cdpvs	15, 7, cr6, cr5, cr6, {3}
30004748:	72696464 	rsbvc	r6, r9, #1677721600	; 0x64000000
3000474c:	00000a0d 	andeq	r0, r0, sp, lsl #20
30004750:	706d6973 	rsbvc	r6, sp, r3, ror r9
30004754:	725f656c 	subvcs	r6, pc, #452984832	; 0x1b000000
30004758:	73666d6f 	cmnvc	r6, #7104	; 0x1bc0
3000475c:	6d616e5f 	stcvsl	14, cr6, [r1, #-380]!
30004760:	29286965 	stmcsdb	r8!, {r0, r2, r5, r6, r8, fp, sp, lr}
30004764:	6e65203a 	mcrvs	0, 3, r2, cr5, cr10, {1}
30004768:	20726574 	rsbcss	r6, r2, r4, ror r5
3000476c:	6e756f66 	cdpvs	15, 7, cr6, cr5, cr6, {3}
30004770:	72696464 	rsbvc	r6, r9, #1677721600	; 0x64000000
30004774:	00000a0d 	andeq	r0, r0, sp, lsl #20
30004778:	706d6973 	rsbvc	r6, sp, r3, ror r9
3000477c:	725f656c 	subvcs	r6, pc, #452984832	; 0x1b000000
30004780:	73666d6f 	cmnvc	r6, #7104	; 0x1bc0
30004784:	6d616e5f 	stcvsl	14, cr6, [r1, #-380]!
30004788:	29286965 	stmcsdb	r8!, {r0, r2, r5, r6, r8, fp, sp, lr}
3000478c:	6f67203a 	swivs	0x0067203a
30004790:	206f7420 	rsbcs	r7, pc, r0, lsr #8
30004794:	6e756f66 	cdpvs	15, 7, cr6, cr5, cr6, {3}
30004798:	000a0d64 	andeq	r0, sl, r4, ror #26
3000479c:	706d6973 	rsbvc	r6, sp, r3, ror r9
300047a0:	725f656c 	subvcs	r6, pc, #452984832	; 0x1b000000
300047a4:	73666d6f 	cmnvc	r6, #7104	; 0x1bc0
300047a8:	6d616e5f 	stcvsl	14, cr6, [r1, #-380]!
300047ac:	29286965 	stmcsdb	r8!, {r0, r2, r5, r6, r8, fp, sp, lr}
300047b0:	6e65203a 	mcrvs	0, 3, r2, cr5, cr10, {1}
300047b4:	20726574 	rsbcss	r6, r2, r4, ror r5
300047b8:	6e756f66 	cdpvs	15, 7, cr6, cr5, cr6, {3}
300047bc:	000a0d64 	andeq	r0, sl, r4, ror #26
300047c0:	65746e65 	ldrvsb	r6, [r4, #-3685]!
300047c4:	65722072 	ldrvsb	r2, [r2, #-114]!
300047c8:	29286461 	stmcsdb	r8!, {r0, r5, r6, sl, sp, lr}
300047cc:	00000a0d 	andeq	r0, r0, sp, lsl #20
300047d0:	64616572 	strvsbt	r6, [r1], #-1394
300047d4:	203a2928 	eorcss	r2, sl, r8, lsr #18
300047d8:	656c6966 	strvsb	r6, [ip, #-2406]!
300047dc:	7461645f 	strvcbt	r6, [r1], #-1119
300047e0:	64615f61 	strvsbt	r5, [r1], #-3937
300047e4:	3d207264 	sfmcc	f7, 4, [r0, #-400]!
300047e8:	0d642520 	cfstr64eq	mvdx2, [r4, #-128]!
300047ec:	0000000a 	andeq	r0, r0, sl
300047f0:	64616572 	strvsbt	r6, [r1], #-1394
300047f4:	203a2928 	eorcss	r2, sl, r8, lsr #18
300047f8:	65646f6e 	strvsb	r6, [r4, #-3950]!
300047fc:	6973642e 	ldmvsdb	r3!, {r1, r2, r3, r5, sl, sp, lr}^
30004800:	3d20657a 	cfstr32cc	mvfx6, [r0, #-488]!
30004804:	0d642520 	cfstr64eq	mvdx2, [r4, #-128]!
30004808:	0000000a 	andeq	r0, r0, sl
3000480c:	65746e65 	ldrvsb	r6, [r4, #-3685]!
30004810:	68732072 	ldmvsda	r3!, {r1, r4, r5, r6, sp}^
30004814:	645f776f 	ldrvsb	r7, [pc], #1903	; 3000481c <large_digits.2+0x41c>
30004818:	655f7269 	ldrvsb	r7, [pc, #-617]	; 300045b7 <large_digits.2+0x1b7>
3000481c:	7972746e 	ldmvcdb	r2!, {r1, r2, r3, r5, r6, sl, ip, sp, lr}^
30004820:	0a0d2928 	beq	3034ecc8 <__bss_end+0x344be0>
30004824:	00000000 	andeq	r0, r0, r0
30004828:	776f6873 	undefined
3000482c:	7269645f 	rsbvc	r6, r9, #1593835520	; 0x5f000000
30004830:	746e655f 	strvcbt	r6, [lr], #-1375
30004834:	29287972 	stmcsdb	r8!, {r1, r4, r5, r6, r8, fp, ip, sp, lr}
30004838:	2d70203a 	ldccsl	0, cr2, [r0, #-232]!
3000483c:	6d616e3e 	stcvsl	14, cr6, [r1, #-248]!
30004840:	203d2065 	eorcss	r2, sp, r5, rrx
30004844:	0a0d7325 	beq	303614e0 <__bss_end+0x3573f8>
30004848:	00000000 	andeq	r0, r0, r0
3000484c:	25444d43 	strcsb	r4, [r4, #-3395]
30004850:	69542064 	ldmvsdb	r4, {r2, r5, r6, sp}^
30004854:	6f20656d 	swivs	0x0020656d
30004858:	0d217475 	cfstrseq	mvf7, [r1, #-468]!
3000485c:	0000000a 	andeq	r0, r0, sl
30004860:	44530a0d 	ldrmib	r0, [r3], #-2573
30004864:	caf5b349 	bgt	2fd71590 <DISABLE_IRQ+0x2fd71510>
30004868:	bfafbbbc 	swilt	0x00afbbbc
3000486c:	a3bccaaa 	movges	ip, #696320	; 0xaa000
30004870:	000000a1 	andeq	r0, r0, r1, lsr #1
30004874:	74696e49 	strvcbt	r6, [r9], #-3657
30004878:	696c6169 	stmvsdb	ip!, {r0, r3, r5, r6, r8, sp, lr}^
3000487c:	6620657a 	undefined
30004880:	0d6c6961 	stceql	9, cr6, [ip, #-388]!
30004884:	206f4e0a 	rsbcs	r4, pc, sl, lsl #28
30004888:	64726143 	ldrvsbt	r6, [r2], #-323
3000488c:	73736120 	cmnvc	r3, #8	; 0x8
30004890:	69747265 	ldmvsdb	r4!, {r0, r2, r5, r6, r9, ip, sp, lr}^
30004894:	0a0d6e6f 	beq	30360258 <__bss_end+0x356170>
30004898:	00000000 	andeq	r0, r0, r0
3000489c:	69204453 	stmvsdb	r0!, {r0, r1, r4, r6, sl, lr}
300048a0:	65722073 	ldrvsb	r2, [r2, #-115]!
300048a4:	0d796461 	cfldrdeq	mvd6, [r9, #-388]!
300048a8:	0000000a 	andeq	r0, r0, sl
300048ac:	64616552 	strvsbt	r6, [r1], #-1362
300048b0:	72614320 	rsbvc	r4, r1, #-2147483648	; 0x80000000
300048b4:	49432064 	stmmidb	r3, {r2, r5, r6, sp}^
300048b8:	73692044 	cmnvc	r9, #68	; 0x44
300048bc:	69616620 	stmvsdb	r1!, {r5, r9, sl, sp, lr}^
300048c0:	0a0d216c 	beq	3034ce78 <__bss_end+0x342d90>
300048c4:	00000000 	andeq	r0, r0, r0
300048c8:	0d444943 	stceql	9, cr4, [r4, #-268]
300048cc:	0000000a 	andeq	r0, r0, sl
300048d0:	2044494d 	subcs	r4, r4, sp, asr #18
300048d4:	6425203d 	strvst	r2, [r5], #-61
300048d8:	00000a0d 	andeq	r0, r0, sp, lsl #20
300048dc:	20444c4f 	subcs	r4, r4, pc, asr #24
300048e0:	6425203d 	strvst	r2, [r5], #-61
300048e4:	00000a0d 	andeq	r0, r0, sp, lsl #20
300048e8:	fab2fac9 	blx	2ecc3414 <DISABLE_IRQ+0x2ecc3394>
300048ec:	d2bca7b3 	adcles	sl, ip, #46923776	; 0x2cc0000
300048f0:	0d73253a 	cfldr64eq	mvdx2, [r3, #-232]!
300048f4:	0000000a 	andeq	r0, r0, sl
300048f8:	fab2fac9 	blx	2ecc3424 <DISABLE_IRQ+0x2ecc33a4>
300048fc:	dac6d5c8 	ble	2f1ba024 <DISABLE_IRQ+0x2f1b9fa4>
30004900:	2530323a 	ldrcs	r3, [r0, #-570]!
30004904:	64252c64 	strvst	r2, [r5], #-3172
30004908:	00000a0d 	andeq	r0, r0, sp, lsl #20
3000490c:	64616552 	strvsbt	r6, [r1], #-1362
30004910:	20445320 	subcs	r5, r4, r0, lsr #6
30004914:	20414352 	subcs	r4, r1, r2, asr r3
30004918:	66207369 	strvst	r7, [r0], -r9, ror #6
3000491c:	216c6961 	cmncs	ip, r1, ror #18
30004920:	00000a0d 	andeq	r0, r0, sp, lsl #20
30004924:	43204453 	teqmi	r0, #1392508928	; 0x53000000
30004928:	20647261 	rsbcs	r7, r4, r1, ror #4
3000492c:	20414352 	subcs	r4, r1, r2, asr r3
30004930:	7830203d 	ldmvcda	r0!, {r0, r2, r3, r4, r5, sp}
30004934:	0a0d7825 	beq	303629d0 <__bss_end+0x3588e8>
30004938:	00000000 	andeq	r0, r0, r0
3000493c:	46204453 	undefined
30004940:	75716572 	ldrvcb	r6, [r1, #-1394]!
30004944:	79636e65 	stmvcdb	r3!, {r0, r2, r5, r6, r9, sl, fp, sp, lr}^
30004948:	20736920 	rsbcss	r6, r3, r0, lsr #18
3000494c:	7a486425 	bvc	3121d9e8 <__bss_end+0x1213900>
30004950:	00000a0d 	andeq	r0, r0, sp, lsl #20
30004954:	64616552 	strvsbt	r6, [r1], #-1362
30004958:	72614320 	rsbvc	r4, r1, #-2147483648	; 0x80000000
3000495c:	53432064 	cmppl	r3, #100	; 0x64
30004960:	61462044 	cmpvs	r6, r4, asr #32
30004964:	0d216c69 	stceq	12, cr6, [r1, #-420]!
30004968:	0000000a 	andeq	r0, r0, sl
3000496c:	64616552 	strvsbt	r6, [r1], #-1362
30004970:	434d4d20 	cmpmi	sp, #2048	; 0x800
30004974:	41435220 	cmpmi	r3, r0, lsr #4
30004978:	20736920 	rsbcss	r6, r3, r0, lsr #18
3000497c:	6c696166 	stfvse	f6, [r9], #-408
30004980:	000a0d21 	andeq	r0, sl, r1, lsr #26
30004984:	20434d4d 	subcs	r4, r3, sp, asr #26
30004988:	64726143 	ldrvsbt	r6, [r2], #-323
3000498c:	41435220 	cmpmi	r3, r0, lsr #4
30004990:	30203d20 	eorcc	r3, r0, r0, lsr #26
30004994:	0d782578 	cfldr64eq	mvdx2, [r8, #-480]!
30004998:	0000000a 	andeq	r0, r0, sl
3000499c:	20434d4d 	subcs	r4, r3, sp, asr #26
300049a0:	71657246 	cmnvc	r5, r6, asr #4
300049a4:	636e6575 	cmnvs	lr, #490733568	; 0x1d400000
300049a8:	73692079 	cmnvc	r9, #121	; 0x79
300049ac:	48642520 	stmmida	r4!, {r5, r8, sl, sp}^
300049b0:	000a0d7a 	andeq	r0, sl, sl, ror sp
300049b4:	64616552 	strvsbt	r6, [r1], #-1362
300049b8:	72614320 	rsbvc	r4, r1, #-2147483648	; 0x80000000
300049bc:	53432064 	cmppl	r3, #100	; 0x64
300049c0:	4b4f2044 	blmi	313ccad8 <__bss_end+0x13c29f0>
300049c4:	000a0d21 	andeq	r0, sl, r1, lsr #26
300049c8:	30257830 	eorcc	r7, r5, r0, lsr r8
300049cc:	0a0d7838 	beq	30362ab4 <__bss_end+0x3589cc>
300049d0:	00000000 	andeq	r0, r0, r0
300049d4:	ddc8a8bf 	stclel	8, cr10, [r8, #764]
300049d8:	aacebfc1 	bge	2f3b48e4 <DISABLE_IRQ+0x2f3b4864>
300049dc:	4b64253a 	blmi	3190decc <__bss_end+0x1903de4>
300049e0:	64252c42 	strvst	r2, [r5], #-3138
300049e4:	0a0d424d 	beq	30355320 <__bss_end+0x34b238>
300049e8:	00000000 	andeq	r0, r0, r0
300049ec:	64726143 	ldrvsbt	r6, [r2], #-323
300049f0:	6c657320 	stcvsl	3, cr7, [r5], #-128
300049f4:	73656420 	cmnvc	r5, #536870912	; 0x20000000
300049f8:	66206c65 	strvst	r6, [r0], -r5, ror #24
300049fc:	216c6961 	cmncs	ip, r1, ror #18
30004a00:	00000a0d 	andeq	r0, r0, sp, lsl #20
30004a04:	64726143 	ldrvsbt	r6, [r2], #-323
30004a08:	6c657320 	stcvsl	3, cr7, [r5], #-128
30004a0c:	73656420 	cmnvc	r5, #536870912	; 0x20000000
30004a10:	4f206c65 	swimi	0x00206c65
30004a14:	0a0d214b 	beq	3034cf48 <__bss_end+0x342e60>
30004a18:	00000000 	andeq	r0, r0, r0
30004a1c:	20737542 	rsbcss	r7, r3, r2, asr #10
30004a20:	74646957 	strvcbt	r6, [r4], #-2391
30004a24:	73692068 	cmnvc	r9, #104	; 0x68
30004a28:	69623420 	stmvsdb	r2!, {r5, sl, ip, sp}^
30004a2c:	000a0d74 	andeq	r0, sl, r4, ror sp
30004a30:	20737542 	rsbcss	r7, r3, r2, asr #10
30004a34:	74646957 	strvcbt	r6, [r4], #-2391
30004a38:	73692068 	cmnvc	r9, #104	; 0x68
30004a3c:	69623120 	stmvsdb	r2!, {r5, r8, ip, sp}^
30004a40:	000a0d74 	andeq	r0, sl, r4, ror sp
30004a44:	b3494453 	cmplt	r9, #1392508928	; 0x53000000
30004a48:	bbbccaf5 	bllt	2ef37624 <DISABLE_IRQ+0x2ef375a4>
30004a4c:	cae1bdaf 	bgt	2f874110 <DISABLE_IRQ+0x2f874090>
30004a50:	0da1a3f8 	stceq	3, cr10, [r1, #992]!
30004a54:	0000000a 	andeq	r0, r0, sl
30004a58:	b4d00a0d 	ldrltb	r0, [r0], #2573
30004a5c:	4453ebc8 	ldrmib	lr, [r3], #-3016
30004a60:	b530a8bf 	ldrlt	sl, [r0, #-2239]!
30004a64:	cab7d6d8 	bgt	2edfa5cc <DISABLE_IRQ+0x2edfa54c>
30004a68:	b3ddbefd 	biclts	fp, sp, #4048	; 0xfd0
30004a6c:	a3a6b9c9 	movge	fp, #3293184	; 0x324000
30004a70:	000000a1 	andeq	r0, r0, r1, lsr #1
30004a74:	c1b60a0d 	movgts	r0, sp, lsl #20
30004a78:	4453f6b3 	ldrmib	pc, [r3], #-1715
30004a7c:	b530a8bf 	ldrlt	sl, [r0, #-2239]!
30004a80:	cab7d6d8 	bgt	2edfa5e8 <DISABLE_IRQ+0x2edfa568>
30004a84:	b3ddbefd 	biclts	fp, sp, #4048	; 0xfd0
30004a88:	a3a6b9c9 	movge	fp, #3293184	; 0x324000
30004a8c:	000000a1 	andeq	r0, r0, r1, lsr #1
30004a90:	c1b60a0d 	movgts	r0, sp, lsl #20
30004a94:	c4b5f6b3 	ldrgtt	pc, [r5], #1715
30004a98:	ddbefdca 	ldcle	13, cr15, [lr, #808]!
30004a9c:	000a0d3a 	andeq	r0, sl, sl, lsr sp
30004aa0:	00206425 	eoreq	r6, r0, r5, lsr #8
30004aa4:	b3494453 	cmplt	r9, #1392508928	; 0x53000000
30004aa8:	bbbccaf5 	bllt	2ef37684 <DISABLE_IRQ+0x2ef37604>
30004aac:	b4f6b3af 	ldrltbt	fp, [r6], #943
30004ab0:	d6aca3ed 	strlet	sl, [ip], sp, ror #7
30004ab4:	a3b9d6d5 	movges	sp, #223346688	; 0xd500000
30004ab8:	000a0da1 	andeq	r0, sl, r1, lsr #27
30004abc:	b4d00a0d 	ldrltb	r0, [r0], #2573
30004ac0:	4453ebc8 	ldrmib	lr, [r3], #-3016
30004ac4:	b530a8bf 	ldrlt	sl, [r0, #-2239]!
30004ac8:	cab7d6d8 	bgt	2edfa630 <DISABLE_IRQ+0x2edfa5b0>
30004acc:	b3ddbefd 	biclts	fp, sp, #4048	; 0xfd0
30004ad0:	a3edb4f6 	mvnge	fp, #-167772160	; 0xf6000000
30004ad4:	d6d5d6ac 	ldrleb	sp, [r5], ip, lsr #13
30004ad8:	00a1a3b9 	streqh	sl, [r1], r9
30004adc:	c1b60a0d 	movgts	r0, sp, lsl #20
30004ae0:	4453f6b3 	ldrmib	pc, [r3], #-1715
30004ae4:	b530a8bf 	ldrlt	sl, [r0, #-2239]!
30004ae8:	cab7d6d8 	bgt	2edfa650 <DISABLE_IRQ+0x2edfa5d0>
30004aec:	b3ddbefd 	biclts	fp, sp, #4048	; 0xfd0
30004af0:	a3edb4f6 	mvnge	fp, #-167772160	; 0xf6000000
30004af4:	d6d5d6ac 	ldrleb	sp, [r5], ip, lsr #13
30004af8:	00a1a3b9 	streqh	sl, [r1], r9
30004afc:	4c554e3c 	mrrcmi	14, 3, r4, r5, cr12
30004b00:	Address 0x30004b00 is out of bounds.

Disassembly of section .data:

30004b04 <buf_read>:
30004b04:	33f00000 	mvnccs	r0, #0	; 0x0

30004b08 <task_stack_addr_base.0>:
30004b08:	30300000 	eorccs	r0, r0, r0

30004b0c <ysize>:
30004b0c:	00000110 	andeq	r0, r0, r0, lsl r1

30004b10 <xsize>:
30004b10:	000001e0 	andeq	r0, r0, r0, ror #3

30004b14 <fb_base_addr>:
30004b14:	30400000 	subcc	r0, r0, r0

30004b18 <_ctype>:
30004b18:	08080808 	stmeqda	r8, {r3, fp}
30004b1c:	08080808 	stmeqda	r8, {r3, fp}
30004b20:	28282808 	stmcsda	r8!, {r3, fp, sp}
30004b24:	08082828 	stmeqda	r8, {r3, r5, fp, sp}
30004b28:	08080808 	stmeqda	r8, {r3, fp}
30004b2c:	08080808 	stmeqda	r8, {r3, fp}
30004b30:	08080808 	stmeqda	r8, {r3, fp}
30004b34:	08080808 	stmeqda	r8, {r3, fp}
30004b38:	101010a0 	andnes	r1, r0, r0, lsr #1
30004b3c:	10101010 	andnes	r1, r0, r0, lsl r0
30004b40:	10101010 	andnes	r1, r0, r0, lsl r0
30004b44:	10101010 	andnes	r1, r0, r0, lsl r0
30004b48:	04040404 	streq	r0, [r4], #-1028
30004b4c:	04040404 	streq	r0, [r4], #-1028
30004b50:	10100404 	andnes	r0, r0, r4, lsl #8
30004b54:	10101010 	andnes	r1, r0, r0, lsl r0
30004b58:	41414110 	cmpmi	r1, r0, lsl r1
30004b5c:	01414141 	cmpeq	r1, r1, asr #2
30004b60:	01010101 	tsteq	r1, r1, lsl #2
30004b64:	01010101 	tsteq	r1, r1, lsl #2
30004b68:	01010101 	tsteq	r1, r1, lsl #2
30004b6c:	01010101 	tsteq	r1, r1, lsl #2
30004b70:	10010101 	andne	r0, r1, r1, lsl #2
30004b74:	10101010 	andnes	r1, r0, r0, lsl r0
30004b78:	42424210 	submi	r4, r2, #1	; 0x1
30004b7c:	02424242 	subeq	r4, r2, #536870916	; 0x20000004
30004b80:	02020202 	andeq	r0, r2, #536870912	; 0x20000000
30004b84:	02020202 	andeq	r0, r2, #536870912	; 0x20000000
30004b88:	02020202 	andeq	r0, r2, #536870912	; 0x20000000
30004b8c:	02020202 	andeq	r0, r2, #536870912	; 0x20000000
30004b90:	10020202 	andne	r0, r2, r2, lsl #4
30004b94:	08101010 	ldmeqda	r0, {r4, ip}
	...
30004bb8:	101010a0 	andnes	r1, r0, r0, lsr #1
30004bbc:	10101010 	andnes	r1, r0, r0, lsl r0
30004bc0:	10101010 	andnes	r1, r0, r0, lsl r0
30004bc4:	10101010 	andnes	r1, r0, r0, lsl r0
30004bc8:	10101010 	andnes	r1, r0, r0, lsl r0
30004bcc:	10101010 	andnes	r1, r0, r0, lsl r0
30004bd0:	10101010 	andnes	r1, r0, r0, lsl r0
30004bd4:	10101010 	andnes	r1, r0, r0, lsl r0
30004bd8:	01010101 	tsteq	r1, r1, lsl #2
30004bdc:	01010101 	tsteq	r1, r1, lsl #2
30004be0:	01010101 	tsteq	r1, r1, lsl #2
30004be4:	01010101 	tsteq	r1, r1, lsl #2
30004be8:	01010101 	tsteq	r1, r1, lsl #2
30004bec:	10010101 	andne	r0, r1, r1, lsl #2
30004bf0:	01010101 	tsteq	r1, r1, lsl #2
30004bf4:	02010101 	andeq	r0, r1, #1073741824	; 0x40000000
30004bf8:	02020202 	andeq	r0, r2, #536870912	; 0x20000000
30004bfc:	02020202 	andeq	r0, r2, #536870912	; 0x20000000
30004c00:	02020202 	andeq	r0, r2, #536870912	; 0x20000000
30004c04:	02020202 	andeq	r0, r2, #536870912	; 0x20000000
30004c08:	02020202 	andeq	r0, r2, #536870912	; 0x20000000
30004c0c:	10020202 	andne	r0, r2, r2, lsl #4
30004c10:	02020202 	andeq	r0, r2, #536870912	; 0x20000000
30004c14:	02020202 	andeq	r0, r2, #536870912	; 0x20000000

30004c18 <warn.0>:
30004c18:	00000001 	andeq	r0, r0, r1
Disassembly of section .bss:

30004c1c <mem_map>:
	...

30008c1c <g_pcOutBuf>:
	...

3000901c <g_pcInBuf>:
	...

3000941c <g_pcOutBuf>:
	...

3000981c <g_pcInBuf>:
	...

30009c1c <wait_queue_head>:
	...

30009c24 <tmp>:
30009c24:	00000000 	andeq	r0, r0, r0

30009c28 <show_dir_romfs_inode>:
	...

30009c38 <romfs_file>:
	...

30009c44 <romfs_super_block>:
	...

30009c54 <open_romfs_inode>:
	...

30009c98 <romfs_inode>:
	...

30009ca8 <show_dir_romfs_super_block>:
	...

30009cb8 <recv_buf>:
	...

30009eb8 <send_buf>:
	...

3000a0b8 <SDCard>:
	...

3000a0e4 <___strtok>:
3000a0e4:	00000000 	andeq	r0, r0, r0
Disassembly of section .debug_line:

00000000 <.debug_line>:
       0:	0000009a 	muleq	r0, sl, r0
       4:	001a0002 	andeqs	r0, sl, r2
       8:	01020000 	tsteq	r2, r0
       c:	000a0efb 	streqd	r0, [sl], -fp
      10:	01010101 	tsteq	r1, r1, lsl #2
      14:	01000000 	tsteq	r0, r0
      18:	61656800 	cmnvs	r5, r0, lsl #16
      1c:	00532e64 	subeqs	r2, r3, r4, ror #28
      20:	00000000 	andeq	r0, r0, r0
      24:	00020500 	andeq	r0, r2, r0, lsl #10
      28:	03300000 	teqeq	r0, #0	; 0x0
      2c:	2f2f0131 	swics	0x002f0131
      30:	2e2f2f2f 	cdpcs	15, 2, cr2, cr15, cr15, {1}
      34:	2c2d312f 	stfcss	f3, [sp], #-188
      38:	2c2e2d2c 	stccs	13, cr2, [lr], #-176
      3c:	2e2f2c2c 	cdpcs	12, 2, cr2, cr15, cr12, {1}
      40:	2d2c2d2c 	stccs	13, cr2, [ip, #-176]!
      44:	312e2c2d 	teqcc	lr, sp, lsr #24
      48:	2c2c2d2c 	stccs	13, cr2, [ip], #-176
      4c:	2c2d2c2c 	stccs	12, cr2, [sp], #-176
      50:	2c2c2c2d 	stccs	12, cr2, [ip], #-180
      54:	2c2c2c2c 	stccs	12, cr2, [ip], #-176
      58:	2d2e2d2c 	stccs	13, cr2, [lr, #-176]!
      5c:	2c2c2c2e 	stccs	12, cr2, [ip], #-184
      60:	2c2c2c2c 	stccs	12, cr2, [ip], #-176
      64:	2c2c2d2c 	stccs	13, cr2, [ip], #-176
      68:	2c2c2c2c 	stccs	12, cr2, [ip], #-176
      6c:	2c2e2c2c 	stccs	12, cr2, [lr], #-176
      70:	2c2c2d2c 	stccs	13, cr2, [ip], #-176
      74:	2c2e2c2c 	stccs	12, cr2, [lr], #-176
      78:	2f2c2c2c 	swics	0x002c2c2c
      7c:	2e2c2c2c 	cdpcs	12, 2, cr2, cr12, cr12, {1}
      80:	2c2d2c2c 	stccs	12, cr2, [sp], #-176
      84:	2c2c2d2c 	stccs	13, cr2, [ip], #-176
      88:	482c2e2c 	stmmida	ip!, {r2, r3, r5, r9, sl, fp, sp}
      8c:	2c2c2c2d 	stccs	12, cr2, [ip], #-180
      90:	2c2c2e2c 	stccs	14, cr2, [ip], #-176
      94:	2c2c2c2d 	stccs	12, cr2, [ip], #-180
      98:	0036022c 	eoreqs	r0, r6, ip, lsr #4
      9c:	00530101 	subeqs	r0, r3, r1, lsl #2
      a0:	00020000 	andeq	r0, r2, r0
      a4:	0000001a 	andeq	r0, r0, sl, lsl r0
      a8:	0efb0102 	cdpeq	1, 15, cr0, cr11, cr2, {0}
      ac:	0101000a 	tsteq	r1, sl
      b0:	00000101 	andeq	r0, r0, r1, lsl #2
      b4:	69000100 	stmvsdb	r0, {r8}
      b8:	2e74696e 	cdpcs	9, 7, cr6, cr4, cr14, {3}
      bc:	00000063 	andeq	r0, r0, r3, rrx
      c0:	05000000 	streq	r0, [r0]
      c4:	00022002 	andeq	r2, r2, r2
      c8:	66801330 	undefined
      cc:	304b6529 	subcc	r6, fp, r9, lsr #10
      d0:	380864b7 	stmccda	r8, {r0, r1, r2, r4, r5, r7, sl, sp, lr}
      d4:	39080d03 	stmccdb	r8, {r0, r1, r8, sl, fp}
      d8:	2a2d2949 	bcs	b4a604 <DISABLE_IRQ+0xb4a584>
      dc:	2b7a0331 	blcs	1e80da8 <DISABLE_IRQ+0x1e80d28>
      e0:	642a2d2c 	strvst	r2, [sl], #-3372
      e4:	0a03852e 	beq	e15a4 <DISABLE_IRQ+0xe1524>
      e8:	2b77037f 	blcs	1dc0eec <DISABLE_IRQ+0x1dc0e6c>
      ec:	67630903 	strvsb	r0, [r3, -r3, lsl #18]!
      f0:	01000802 	tsteq	r0, r2, lsl #16
      f4:	0000ee01 	andeq	lr, r0, r1, lsl #28
      f8:	43000200 	tstmi	r0, #0	; 0x0
      fc:	02000000 	andeq	r0, r0, #0	; 0x0
     100:	0a0efb01 	beq	3bed0c <DISABLE_IRQ+0x3bec8c>
     104:	01010100 	tsteq	r1, r0, lsl #2
     108:	00000001 	andeq	r0, r0, r1
     10c:	6e6d2f01 	cdpvs	15, 6, cr2, cr13, cr1, {0}
     110:	67682f74 	undefined
     114:	412f7366 	teqmi	pc, r6, ror #6
     118:	706d7973 	rsbvc	r7, sp, r3, ror r9
     11c:	65746f74 	ldrvsb	r6, [r4, #-3956]!
     120:	616d0000 	cmnvs	sp, r0
     124:	632e6e69 	teqvs	lr, #1680	; 0x690
     128:	00000000 	andeq	r0, r0, r0
     12c:	7473696c 	ldrvcbt	r6, [r3], #-2412
     130:	0100682e 	tsteq	r0, lr, lsr #16
     134:	74630000 	strvcbt	r0, [r3]
     138:	2e657079 	mcrcs	0, 3, r7, cr5, cr9, {3}
     13c:	00010068 	andeq	r0, r1, r8, rrx
     140:	05000000 	streq	r0, [r0]
     144:	00035002 	andeq	r5, r3, r2
     148:	01100330 	tsteq	r0, r0, lsr r3
     14c:	62302731 	eorvss	r2, r0, #12845056	; 0xc40000
     150:	302d295f 	eorcc	r2, sp, pc, asr r9
     154:	2df02c2e 	ldccsl	12, cr2, [r0, #184]!
     158:	679c85d4 	undefined
     15c:	2e46292e 	cdpcs	9, 4, cr2, cr6, cr14, {1}
     160:	462c4631 	undefined
     164:	462e642c 	strmit	r6, [lr], -ip, lsr #8
     168:	802c2a2c 	eorhi	r2, ip, ip, lsr #20
     16c:	2c2a2c2d 	stccs	12, cr2, [sl], #-180
     170:	442e6b2c 	strmit	r6, [lr], #-2860
     174:	64494a4a 	strvsb	r4, [r9], #-2634
     178:	302b7a03 	eorcc	r7, fp, r3, lsl #20
     17c:	10032f2c 	andne	r2, r3, ip, lsr #30
     180:	2d28d67f 	stccs	6, cr13, [r8, #-508]!
     184:	2a624864 	bcs	189231c <DISABLE_IRQ+0x189229c>
     188:	4849492c 	stmmida	r9, {r2, r3, r5, r8, fp, lr}^
     18c:	47640348 	strmib	r0, [r4, -r8, asr #6]!
     190:	8d081f03 	stchi	15, cr1, [r8, #-12]
     194:	642e282e 	strvst	r2, [lr], #-2094
     198:	2c462c9c 	mcrrcs	12, 9, r2, r6, cr12
     19c:	66494a2a 	strvsb	r4, [r9], -sl, lsr #20
     1a0:	2c2a2cba 	stccs	12, cr2, [sl], #-744
     1a4:	0c034549 	cfstr32eq	mvfx4, [r3], {73}
     1a8:	2b75032b 	blcs	1d40e5c <DISABLE_IRQ+0x1d40ddc>
     1ac:	0345492c 	cmpeq	r5, #720896	; 0xb0000
     1b0:	77032b0a 	strvc	r2, [r3, -sl, lsl #22]
     1b4:	294a2c2b 	stmcsdb	sl, {r0, r1, r3, r5, sl, fp, sp}^
     1b8:	4d2c2c2a 	stcmi	12, cr2, [ip, #-168]!
     1bc:	2c2b7a03 	stccs	10, cr7, [fp], #-12
     1c0:	29304466 	ldmcsdb	r0!, {r1, r2, r5, r6, sl, lr}
     1c4:	4c4969bc 	mcrrmi	9, 11, r6, r9, cr12
     1c8:	2c487c2c 	mcrrcs	12, 2, r7, r8, cr12
     1cc:	4881312a 	stmmiia	r1, {r1, r3, r5, r8, ip, sp}
     1d0:	2c2c80a0 	stccs	0, cr8, [ip], #-640
     1d4:	2c2c2c2c 	stccs	12, cr2, [ip], #-176
     1d8:	464b682e 	strmib	r6, [fp], -lr, lsr #16
     1dc:	9a2e8048 	bls	ba0304 <DISABLE_IRQ+0xba0284>
     1e0:	0802482c 	stmeqda	r2, {r2, r3, r5, fp, lr}
     1e4:	96010100 	strls	r0, [r1], -r0, lsl #2
     1e8:	02000000 	andeq	r0, r0, #0	; 0x0
     1ec:	00005900 	andeq	r5, r0, r0, lsl #18
     1f0:	fb010200 	blx	409fa <DISABLE_IRQ+0x4097a>
     1f4:	01000a0e 	tsteq	r0, lr, lsl #20
     1f8:	00010101 	andeq	r0, r1, r1, lsl #2
     1fc:	2f010000 	swics	0x00010000
     200:	2f746e6d 	swics	0x00746e6d
     204:	73666768 	cmnvc	r6, #27262976	; 0x1a00000
     208:	7973412f 	ldmvcdb	r3!, {r0, r1, r2, r3, r5, r8, lr}^
     20c:	6f74706d 	swivs	0x0074706d
     210:	00006574 	andeq	r6, r0, r4, ror r5
     214:	65686373 	strvsb	r6, [r8, #-883]!
     218:	00632e64 	rsbeq	r2, r3, r4, ror #28
     21c:	73000000 	tstvc	r0, #0	; 0x0
     220:	64656863 	strvsbt	r6, [r5], #-2147
     224:	0100682e 	tsteq	r0, lr, lsr #16
     228:	69660000 	stmvsdb	r6!, {}^
     22c:	682e656c 	stmvsda	lr!, {r2, r3, r5, r6, r8, sl, sp, lr}
     230:	00000100 	andeq	r0, r0, r0, lsl #2
     234:	7473696c 	ldrvcbt	r6, [r3], #-2412
     238:	0100682e 	tsteq	r0, lr, lsr #16
     23c:	74630000 	strvcbt	r0, [r3]
     240:	2e657079 	mcrcs	0, 3, r7, cr5, cr9, {3}
     244:	00010068 	andeq	r0, r1, r8, rrx
     248:	05000000 	streq	r0, [r0]
     24c:	00078c02 	andeq	r8, r7, r2, lsl #24
     250:	010c0330 	tsteq	ip, r0, lsr r3
     254:	832c2e47 	teqhi	ip, #1136	; 0x470
     258:	9b09032c 	blls	240f10 <DISABLE_IRQ+0x240e90>
     25c:	9b0b032c 	blls	2c0f14 <DISABLE_IRQ+0x2c0e94>
     260:	2d29662c 	stccs	6, cr6, [r9, #-176]!
     264:	4a2c2d29 	bmi	b0b710 <DISABLE_IRQ+0xb0b690>
     268:	2c2b3030 	stccs	0, cr3, [fp], #-192
     26c:	4c80642c 	cfstrsmi	mvf6, [r0], {44}
     270:	292d2c2b 	stmcsdb	sp!, {r0, r1, r3, r5, sl, fp, sp}
     274:	2630292d 	ldrcst	r2, [r0], -sp, lsr #18
     278:	64482c2f 	strvsb	r2, [r8], #-3119
     27c:	01000602 	tsteq	r0, r2, lsl #12
     280:	00008d01 	andeq	r8, r0, r1, lsl #26
     284:	58000200 	stmplda	r0, {r9}
     288:	02000000 	andeq	r0, r0, #0	; 0x0
     28c:	0a0efb01 	beq	3bee98 <DISABLE_IRQ+0x3bee18>
     290:	01010100 	tsteq	r1, r0, lsl #2
     294:	00000001 	andeq	r0, r0, r1
     298:	6e6d2f01 	cdpvs	15, 6, cr2, cr13, cr1, {0}
     29c:	67682f74 	undefined
     2a0:	412f7366 	teqmi	pc, r6, ror #6
     2a4:	706d7973 	rsbvc	r7, sp, r3, ror r9
     2a8:	65746f74 	ldrvsb	r6, [r4, #-3956]!
     2ac:	6f660000 	swivs	0x00660000
     2b0:	632e6b72 	teqvs	lr, #116736	; 0x1c800
     2b4:	00000000 	andeq	r0, r0, r0
     2b8:	65686373 	strvsb	r6, [r8, #-883]!
     2bc:	00682e64 	rsbeq	r2, r8, r4, ror #28
     2c0:	66000001 	strvs	r0, [r0], -r1
     2c4:	2e656c69 	cdpcs	12, 6, cr6, cr5, cr9, {3}
     2c8:	00010068 	andeq	r0, r1, r8, rrx
     2cc:	73696c00 	cmnvc	r9, #0	; 0x0
     2d0:	00682e74 	rsbeq	r2, r8, r4, ror lr
     2d4:	63000001 	tstvs	r0, #1	; 0x1
     2d8:	65707974 	ldrvsb	r7, [r0, #-2420]!
     2dc:	0100682e 	tsteq	r0, lr, lsr #16
     2e0:	00000000 	andeq	r0, r0, r0
     2e4:	08880205 	stmeqia	r8, {r0, r2, r9}
     2e8:	0b033000 	bleq	cc2f0 <DISABLE_IRQ+0xcc270>
     2ec:	2e2b4801 	cdpcs	8, 2, cr4, cr11, cr1, {0}
     2f0:	32471403 	subcc	r1, r7, #50331648	; 0x3000000
     2f4:	334b2b2e 	cmpcc	fp, #47104	; 0xb800
     2f8:	2e2b7803 	cdpcs	8, 2, cr7, cr11, cr3, {0}
     2fc:	302e2a45 	eorcc	r2, lr, r5, asr #20
     300:	492ce308 	stmmidb	ip!, {r3, r8, r9, sp, lr, pc}
     304:	2c2d802c 	stccs	0, cr8, [sp], #-176
     308:	492c2b4a 	stmmidb	ip!, {r1, r3, r6, r8, r9, fp, sp}
     30c:	00040282 	andeq	r0, r4, r2, lsl #5
     310:	003f0101 	eoreqs	r0, pc, r1, lsl #2
     314:	00020000 	andeq	r0, r2, r0
     318:	00000019 	andeq	r0, r0, r9, lsl r0
     31c:	0efb0102 	cdpeq	1, 15, cr0, cr11, cr2, {0}
     320:	0101000a 	tsteq	r1, sl
     324:	00000101 	andeq	r0, r0, r1, lsl #2
     328:	6d000100 	stfvss	f0, [r0]
     32c:	632e6d65 	teqvs	lr, #6464	; 0x1940
     330:	00000000 	andeq	r0, r0, r0
     334:	02050000 	andeq	r0, r5, #0	; 0x0
     338:	3000096c 	andcc	r0, r0, ip, ror #18
     33c:	66011f03 	strvs	r1, [r1], -r3, lsl #30
     340:	64802e44 	strvs	r2, [r0], #3652
     344:	032c2f48 	teqeq	ip, #288	; 0x120
     348:	292d470f 	stmcsdb	sp!, {r0, r1, r2, r3, r8, r9, sl, lr}
     34c:	2b4d4849 	blcs	1352478 <DISABLE_IRQ+0x13523f8>
     350:	01000402 	tsteq	r0, r2, lsl #8
     354:	0000a401 	andeq	sl, r0, r1, lsl #8
     358:	1a000200 	bne	b60 <DISABLE_IRQ+0xae0>
     35c:	02000000 	andeq	r0, r0, #0	; 0x0
     360:	0a0efb01 	beq	3bef6c <DISABLE_IRQ+0x3beeec>
     364:	01010100 	tsteq	r1, r0, lsl #2
     368:	00000001 	andeq	r0, r0, r1
     36c:	616e0001 	cmnvs	lr, r1
     370:	632e646e 	teqvs	lr, #1845493760	; 0x6e000000
     374:	00000000 	andeq	r0, r0, r0
     378:	02050000 	andeq	r0, r5, #0	; 0x0
     37c:	300009e4 	andcc	r0, r0, r4, ror #19
     380:	27011303 	strcs	r1, [r1, -r3, lsl #6]
     384:	27302c2e 	ldrcs	r2, [r0, -lr, lsr #24]!
     388:	03470903 	cmpeq	r7, #49152	; 0xc000
     38c:	03332b7a 	teqeq	r3, #124928	; 0x1e800
     390:	472d4719 	undefined
     394:	0a032a48 	beq	cacbc <DISABLE_IRQ+0xcac3c>
     398:	2d29499b 	stccs	9, cr4, [r9, #-620]!
     39c:	634c634c 	cmpvs	ip, #805306369	; 0x30000001
     3a0:	2e292d4b 	cdpcs	13, 2, cr2, cr9, cr11, {2}
     3a4:	76082c2a 	strvc	r2, [r8], -sl, lsr #24
     3a8:	262f272f 	strcst	r2, [pc], -pc, lsr #14
     3ac:	7a032f2d 	bvc	cc068 <DISABLE_IRQ+0xcbfe8>
     3b0:	48b8312b 	ldmmiia	r8!, {r0, r1, r3, r5, r8, ip, sp}
     3b4:	3b082c2a 	blcc	20b464 <DISABLE_IRQ+0x20b3e4>
     3b8:	082c2a2c 	stmeqda	ip!, {r2, r3, r5, r9, fp, sp}
     3bc:	2c2a483a 	stccs	8, cr4, [sl], #-232
     3c0:	2a483a08 	bcs	120ebe8 <DISABLE_IRQ+0x120eb68>
     3c4:	2c75082c 	ldccsl	8, cr0, [r5], #-176
     3c8:	2b2e4884 	blcs	b925e0 <DISABLE_IRQ+0xb92560>
     3cc:	2f2c2949 	swics	0x002c2949
     3d0:	032b1803 	teqeq	fp, #196608	; 0x30000
     3d4:	1c032b64 	stcne	11, cr2, [r3], {100}
     3d8:	2b6d032b 	blcs	1b4108c <DISABLE_IRQ+0x1b4100c>
     3dc:	2e4a4a4a 	fnmacscs	s9, s20, s20
     3e0:	2d293b08 	fstmdbdcs	r9!, {d3-d6}
     3e4:	27bb282c 	ldrcs	r2, [fp, ip, lsr #16]!
     3e8:	89036732 	stmhidb	r3, {r1, r4, r5, r8, r9, sl, sp, lr}
     3ec:	672b477f 	undefined
     3f0:	46302e44 	ldrmit	r2, [r0], -r4, asr #28
     3f4:	29658548 	stmcsdb	r5!, {r3, r6, r8, sl, pc}^
     3f8:	01000202 	tsteq	r0, r2, lsl #4
     3fc:	0000a301 	andeq	sl, r0, r1, lsl #6
     400:	19000200 	stmnedb	r0, {r9}
     404:	02000000 	andeq	r0, r0, #0	; 0x0
     408:	0a0efb01 	beq	3bf014 <DISABLE_IRQ+0x3bef94>
     40c:	01010100 	tsteq	r1, r0, lsl #2
     410:	00000001 	andeq	r0, r0, r1
     414:	636c0001 	cmnvs	ip, #1	; 0x1
     418:	00632e64 	rsbeq	r2, r3, r4, ror #28
     41c:	00000000 	andeq	r0, r0, r0
     420:	00020500 	andeq	r0, r2, r0, lsl #10
     424:	0330000d 	teqeq	r0, #13	; 0xd
     428:	460100c6 	strmi	r0, [r1], -r6, asr #1
     42c:	2c482a2c 	mcrrcs	10, 2, r2, r8, cr12
     430:	64642d2c 	strvsbt	r2, [r4], #-3372
     434:	2b180383 	blcs	601248 <DISABLE_IRQ+0x6011c8>
     438:	482a2a2c 	stmmida	sl!, {r2, r3, r5, r9, fp, sp}
     43c:	2d2d292c 	stccs	9, cr2, [sp, #-176]!
     440:	2b150327 	blcs	5410e4 <DISABLE_IRQ+0x541064>
     444:	2b6e032c 	blcs	1b810fc <DISABLE_IRQ+0x1b8107c>
     448:	032b1103 	teqeq	fp, #-1073741824	; 0xc0000000
     44c:	032d2b6c 	teqeq	sp, #110592	; 0x1b000
     450:	6c032b13 	stcvs	11, cr2, [r3], {19}
     454:	2b18032b 	blcs	601108 <DISABLE_IRQ+0x601088>
     458:	032b6903 	teqeq	fp, #49152	; 0xc000
     45c:	6d032b14 	fstdvs	d2, [r3, #-80]
     460:	2b11032b 	blcs	441114 <DISABLE_IRQ+0x441094>
     464:	4c2e2c2c 	stcmi	12, cr2, [lr], #-176
     468:	64652982 	strvsbt	r2, [r5], #-2434
     46c:	842b8084 	strhit	r8, [fp], #-132
     470:	10032b9c 	mulne	r3, ip, fp
     474:	26652e7f 	undefined
     478:	432f2a2f 	teqmi	pc, #192512	; 0x2f000
     47c:	272c2a2f 	strcs	r2, [ip, -pc, lsr #20]!
     480:	03302630 	teqeq	r0, #50331648	; 0x3000000
     484:	7c2e9b0b 	stcvc	11, cr9, [lr], #-44
     488:	7e80482e 	cdpvc	8, 8, cr4, cr0, cr14, {1}
     48c:	282eda7e 	stmcsda	lr!, {r1, r2, r3, r4, r5, r6, r9, fp, ip, lr, pc}
     490:	2c66282e 	stccsl	8, cr2, [r6], #-184
     494:	2a2c6264 	bcs	b18e2c <DISABLE_IRQ+0xb18dac>
     498:	2c2c8546 	cfstr32cs	mvfx8, [ip], #-280
     49c:	02482d2c 	subeq	r2, r8, #2816	; 0xb00
     4a0:	01010004 	tsteq	r1, r4
     4a4:	0000006b 	andeq	r0, r0, fp, rrx
     4a8:	00430002 	subeq	r0, r3, r2
     4ac:	01020000 	tsteq	r2, r0
     4b0:	000a0efb 	streqd	r0, [sl], -fp
     4b4:	01010101 	tsteq	r1, r1, lsl #2
     4b8:	01000000 	tsteq	r0, r0
     4bc:	746e6d2f 	strvcbt	r6, [lr], #-3375
     4c0:	6667682f 	strvsbt	r6, [r7], -pc, lsr #16
     4c4:	73412f73 	cmpvc	r1, #460	; 0x1cc
     4c8:	74706d79 	ldrvcbt	r6, [r0], #-3449
     4cc:	0065746f 	rsbeq	r7, r5, pc, ror #8
     4d0:	73696c00 	cmnvc	r9, #0	; 0x0
     4d4:	00632e74 	rsbeq	r2, r3, r4, ror lr
     4d8:	6c000000 	stcvs	0, cr0, [r0], {0}
     4dc:	2e747369 	cdpcs	3, 7, cr7, cr4, cr9, {3}
     4e0:	00010068 	andeq	r0, r1, r8, rrx
     4e4:	79746300 	ldmvcdb	r4!, {r8, r9, sp, lr}^
     4e8:	682e6570 	stmvsda	lr!, {r4, r5, r6, r8, sl, sp, lr}
     4ec:	00000100 	andeq	r0, r0, r0, lsl #2
     4f0:	02050000 	andeq	r0, r5, #0	; 0x0
     4f4:	30000f84 	andcc	r0, r0, r4, lsl #31
     4f8:	032c2a14 	teqeq	ip, #81920	; 0x14000
     4fc:	2c2a2b1f 	stccs	11, cr2, [sl], #-124
     500:	2c322b30 	ldccs	11, cr2, [r2], #-192
     504:	2e2a3263 	cdpcs	2, 2, cr3, cr10, cr3, {3}
     508:	2b302c2a 	blcs	c0b5b8 <DISABLE_IRQ+0xc0b538>
     50c:	02024730 	andeq	r4, r2, #12582912	; 0xc00000
     510:	4a010100 	bmi	40918 <DISABLE_IRQ+0x40898>
     514:	02000000 	andeq	r0, r0, #0	; 0x0
     518:	00001a00 	andeq	r1, r0, r0, lsl #20
     51c:	fb010200 	blx	40d26 <DISABLE_IRQ+0x40ca6>
     520:	01000a0e 	tsteq	r0, lr, lsl #20
     524:	00010101 	andeq	r0, r1, r1, lsl #2
     528:	00010000 	andeq	r0, r1, r0
     52c:	74726175 	ldrvcbt	r6, [r2], #-373
     530:	0000632e 	andeq	r6, r0, lr, lsr #6
     534:	00000000 	andeq	r0, r0, r0
     538:	0fe00205 	swieq	0x00e00205
     53c:	0f033000 	swieq	0x00033000
     540:	2d298201 	sfmcs	f0, 1, [r9, #-4]!
     544:	2a2f272d 	bcs	bca200 <DISABLE_IRQ+0xbca180>
     548:	2d482c2a 	stccsl	12, cr2, [r8, #-168]
     54c:	484b2c2a 	stmmida	fp, {r1, r3, r5, sl, fp, sp}^
     550:	652c4b65 	strvs	r4, [ip, #-2917]!
     554:	2d2b2e2c 	stccs	14, cr2, [fp, #-176]!
     558:	d62d2bf3 	undefined
     55c:	01000402 	tsteq	r0, r2, lsl #8
     560:	00013c01 	andeq	r3, r1, r1, lsl #24
     564:	4d000200 	sfmmi	f0, 4, [r0]
     568:	02000000 	andeq	r0, r0, #0	; 0x0
     56c:	0a0efb01 	beq	3bf178 <DISABLE_IRQ+0x3bf0f8>
     570:	01010100 	tsteq	r1, r0, lsl #2
     574:	00000001 	andeq	r0, r0, r1
     578:	6e6d2f01 	cdpvs	15, 6, cr2, cr13, cr1, {0}
     57c:	67682f74 	undefined
     580:	412f7366 	teqmi	pc, r6, ror #6
     584:	706d7973 	rsbvc	r7, sp, r3, ror r9
     588:	65746f74 	ldrvsb	r6, [r4, #-3956]!
     58c:	6f720000 	swivs	0x00720000
     590:	2e73666d 	cdpcs	6, 7, cr6, cr3, cr13, {3}
     594:	00000063 	andeq	r0, r0, r3, rrx
     598:	2e736600 	cdpcs	6, 7, cr6, cr3, cr0, {0}
     59c:	00010068 	andeq	r0, r1, r8, rrx
     5a0:	79746300 	ldmvcdb	r4!, {r8, r9, sp, lr}^
     5a4:	682e6570 	stmvsda	lr!, {r4, r5, r6, r8, sl, sp, lr}
     5a8:	00000100 	andeq	r0, r0, r0, lsl #2
     5ac:	65686373 	strvsb	r6, [r8, #-883]!
     5b0:	00682e64 	rsbeq	r2, r8, r4, ror #28
     5b4:	00000001 	andeq	r0, r0, r1
     5b8:	b4020500 	strlt	r0, [r2], #-1280
     5bc:	03300010 	teqeq	r0, #16	; 0x10
     5c0:	492b012a 	stmmidb	fp!, {r1, r3, r5, r8}
     5c4:	274a2c64 	strcsb	r2, [sl, -r4, ror #24]
     5c8:	032c9c31 	teqeq	ip, #12544	; 0x3100
     5cc:	032c2b79 	teqeq	ip, #123904	; 0x1e400
     5d0:	2c2b4718 	stccs	7, cr4, [fp], #-96
     5d4:	80654849 	rsbhi	r4, r5, r9, asr #16
     5d8:	630b0385 	tstvs	fp, #335544322	; 0x14000002
     5dc:	2a2b7603 	bcs	adddf0 <DISABLE_IRQ+0xaddd70>
     5e0:	032b0b03 	teqeq	fp, #3072	; 0xc00
     5e4:	2c442b5b 	mcrrcs	11, 5, r2, r4, cr11
     5e8:	282f482d 	stmcsda	pc!, {r0, r2, r3, r5, fp, lr}
     5ec:	2b7a032f 	blcs	1e812b0 <DISABLE_IRQ+0x1e81230>
     5f0:	03632d03 	cmneq	r3, #192	; 0xc0
     5f4:	2403475c 	strcs	r4, [r3], #-1884
     5f8:	2b5c032b 	blcs	17012ac <DISABLE_IRQ+0x170122c>
     5fc:	2d2b2403 	cfstrscs	mvf2, [fp, #-12]!
     600:	034b2d61 	cmpeq	fp, #6208	; 0x1840
     604:	49a07f0a 	stmmiib	r0!, {r1, r3, r8, r9, sl, fp, ip, sp, lr}
     608:	790386d5 	stmvcdb	r3, {r0, r2, r4, r6, r7, r9, sl, pc}
     60c:	5f2f4a2b 	swipl	0x002f4a2b
     610:	802c2c2f 	eorhi	r2, ip, pc, lsr #24
     614:	642a6564 	strvst	r6, [sl], #-1380
     618:	0d038065 	stceq	0, cr8, [r3, #-404]
     61c:	2b720347 	blcs	1c81340 <DISABLE_IRQ+0x1c812c0>
     620:	2f434b2c 	swics	0x00434b2c
     624:	812c2a2c 	teqhi	ip, ip, lsr #20
     628:	032c2c2a 	teqeq	ip, #10752	; 0x2a00
     62c:	492c6317 	stmmidb	ip!, {r0, r1, r2, r4, r8, r9, sp, lr}
     630:	032e2d7d 	teqeq	lr, #8000	; 0x1f40
     634:	b9482b73 	stmltdb	r8, {r0, r1, r4, r5, r6, r8, r9, fp, sp}^
     638:	30037b2f 	andcc	r7, r3, pc, lsr #22
     63c:	7fb6032b 	swivc	0x00b6032b
     640:	472c0347 	strmi	r0, [ip, -r7, asr #6]!
     644:	d4644c4c 	strlebt	r4, [r4], #-3148
     648:	0219032a 	andeqs	r0, r9, #-1476395008	; 0xa8000000
     64c:	482b0128 	stmmida	fp!, {r3, r5, r8}
     650:	319c9c2e 	orrccs	r9, ip, lr, lsr #24
     654:	282e679d 	stmcsda	lr!, {r0, r2, r3, r4, r7, r8, r9, sl, sp, lr}
     658:	2f2c2d27 	swics	0x002c2d27
     65c:	854b2b66 	strhib	r2, [fp, #-2918]
     660:	6564644c 	strvsb	r6, [r4, #-1100]!
     664:	032b7503 	teqeq	fp, #12582912	; 0xc00000
     668:	75032b0b 	strvc	r2, [r3, #-2827]
     66c:	2b0b032b 	blcs	2c1320 <DISABLE_IRQ+0x2c12a0>
     670:	032d2981 	teqeq	sp, #2113536	; 0x204000
     674:	2b9e7f0c 	blcs	fe7a02ac <CLKDIVN+0xb27a0298>
     678:	284ab82c 	stmcsda	sl, {r2, r3, r5, fp, ip, sp, pc}^
     67c:	0b03312e 	bleq	ccb3c <DISABLE_IRQ+0xccabc>
     680:	2b76032b 	blcs	1d81334 <DISABLE_IRQ+0x1d812b4>
     684:	2b0b032a 	blcs	2c1334 <DISABLE_IRQ+0x2c12b4>
     688:	7f0a032d 	swivc	0x000a032d
     68c:	2cb70a03 	fldmiascs	r7!, {s0-s2}
     690:	0349644d 	cmpeq	r9, #1291845632	; 0x4d000000
     694:	2cba2b72 	fldmiadcs	sl!, {d2-d58}
     698:	2b17037e 	blcs	5c1498 <DISABLE_IRQ+0x5c1418>
     69c:	01001002 	tsteq	r0, r2
     6a0:	0002dd01 	andeq	sp, r2, r1, lsl #26
     6a4:	34000200 	strcc	r0, [r0], #-512
     6a8:	02000000 	andeq	r0, r0, #0	; 0x0
     6ac:	0a0efb01 	beq	3bf2b8 <DISABLE_IRQ+0x3bf238>
     6b0:	01010100 	tsteq	r1, r0, lsl #2
     6b4:	00000001 	andeq	r0, r0, r1
     6b8:	6e6d2f01 	cdpvs	15, 6, cr2, cr13, cr1, {0}
     6bc:	67682f74 	undefined
     6c0:	412f7366 	teqmi	pc, r6, ror #6
     6c4:	706d7973 	rsbvc	r7, sp, r3, ror r9
     6c8:	65746f74 	ldrvsb	r6, [r4, #-3956]!
     6cc:	64730000 	ldrvsbt	r0, [r3]
     6d0:	0000632e 	andeq	r6, r0, lr, lsr #6
     6d4:	64730000 	ldrvsbt	r0, [r3]
     6d8:	0100682e 	tsteq	r0, lr, lsr #16
     6dc:	00000000 	andeq	r0, r0, r0
     6e0:	15ec0205 	strneb	r0, [ip, #517]!
     6e4:	f4033000 	strnv	r3, [r3]
     6e8:	2f270101 	swics	0x00270101
     6ec:	2d494a2c 	fstscs	s9, [r9, #-176]
     6f0:	4b2c2d45 	blmi	b0bc0c <DISABLE_IRQ+0xb0bb8c>
     6f4:	083e084a 	ldmeqda	lr!, {r1, r3, r6, fp}
     6f8:	292d641f 	stmcsdb	sp!, {r0, r1, r2, r3, r4, sl, sp, lr}
     6fc:	03642c2d 	cmneq	r4, #11520	; 0x2d00
     700:	2d64470a 	stccsl	7, cr4, [r4, #-40]!
     704:	2e302d29 	cdpcs	13, 3, cr2, cr0, cr9, {1}
     708:	75033228 	strvc	r3, [r3, #-552]
     70c:	9a03642b 	bls	d97c0 <DISABLE_IRQ+0xd9740>
     710:	2c297f01 	stccs	15, cr7, [r9], #-4
     714:	442e2a2c 	strmit	r2, [lr], #-2604
     718:	48662d2c 	stmmida	r6!, {r2, r3, r5, r8, sl, fp, sp}^
     71c:	2b5c0364 	blcs	17014b4 <DISABLE_IRQ+0x1701434>
     720:	2a2c2c29 	bcs	b0b7cc <DISABLE_IRQ+0xb0b74c>
     724:	2c442f2a 	mcrrcs	15, 2, r2, r4, cr10
     728:	284b662d 	stmcsda	fp, {r0, r2, r3, r5, r9, sl, sp, lr}^
     72c:	03494848 	cmpeq	r9, #4718592	; 0x480000
     730:	29492b40 	stmcsdb	r9, {r6, r8, r9, fp, sp}^
     734:	2f462a2d 	swics	0x00462a2d
     738:	652d2c44 	strvs	r2, [sp, #-3140]!
     73c:	5f4b2d49 	swipl	0x004b2d49
     740:	7a032d2f 	bvc	cbc04 <DISABLE_IRQ+0xcbb84>
     744:	482d2f2b 	stmmida	sp!, {r0, r1, r3, r5, r8, r9, sl, fp, sp}
     748:	2b52034a 	blcs	1481478 <DISABLE_IRQ+0x14813f8>
     74c:	462a2d29 	strmit	r2, [sl], -r9, lsr #26
     750:	2d2c442f 	cfstrscs	mvf4, [ip, #-188]!
     754:	63110365 	tstvs	r1, #-1811939327	; 0x94000001
     758:	642b7003 	strvst	r7, [fp], #-3
     75c:	64644864 	strvsbt	r4, [r4], #-2148
     760:	64644864 	strvsbt	r4, [r4], #-2148
     764:	64644864 	strvsbt	r4, [r4], #-2148
     768:	2d482a65 	fstscs	s5, [r8, #-404]
     76c:	2c2b4b03 	stccs	11, cr4, [fp], #-12
     770:	2c442d48 	mcrrcs	13, 4, r2, r4, cr8
     774:	09032c2d 	stmeqdb	r3, {r0, r2, r3, r5, sl, fp, sp}
     778:	292c2863 	stmcsdb	ip!, {r0, r1, r5, r6, fp, sp}
     77c:	284a2a2d 	stmcsda	sl, {r0, r2, r3, r5, r9, fp, sp}^
     780:	292d2d2c 	stmcsdb	sp!, {r2, r3, r5, r8, sl, fp, sp}
     784:	4a2d292d 	bmi	b4ac40 <DISABLE_IRQ+0xb4abc0>
     788:	32272f2a 	eorcc	r2, r7, #168	; 0xa8
     78c:	2b01e503 	blcs	79ba0 <DISABLE_IRQ+0x79b20>
     790:	2d452d2e 	stccsl	13, cr2, [r5, #-184]
     794:	03284d29 	teqeq	r8, #2624	; 0xa40
     798:	03477ecd 	cmpeq	r7, #3280	; 0xcd0
     79c:	73036311 	tstvc	r3, #1140850688	; 0x44000000
     7a0:	2a292a2b 	bcs	a4b054 <DISABLE_IRQ+0xa4afd4>
     7a4:	2b0d032f 	blcs	341468 <DISABLE_IRQ+0x3413e8>
     7a8:	2b75032a 	blcs	1d41458 <DISABLE_IRQ+0x1d413d8>
     7ac:	032b0e03 	teqeq	fp, #48	; 0x30
     7b0:	2d292b70 	fstmdbdcs	r9!, {d2-d57}
     7b4:	652c2a2d 	strvs	r2, [ip, #-2605]!
     7b8:	2f494849 	swics	0x00494849
     7bc:	492d292e 	stmmidb	sp!, {r1, r2, r3, r5, r8, fp, sp}
     7c0:	032e2a2c 	teqeq	lr, #180224	; 0x2c000
     7c4:	482b01b1 	stmmida	fp!, {r0, r4, r5, r7, r8}
     7c8:	034b2c2a 	cmpeq	fp, #10752	; 0x2a00
     7cc:	2c477ede 	mcrrcs	14, 13, r7, r7, cr14
     7d0:	2c442d48 	mcrrcs	13, 4, r2, r4, cr8
     7d4:	2a2c4a2d 	bcs	b13090 <DISABLE_IRQ+0xb13010>
     7d8:	2b14032d 	blcs	501494 <DISABLE_IRQ+0x501414>
     7dc:	282c2d28 	stmcsda	ip!, {r3, r5, r8, sl, fp, sp}
     7e0:	2d2c4430 	cfstrscs	mvf4, [ip, #-192]!
     7e4:	2d286a2f 	fstmdbscs	r8!, {s12-s58}
     7e8:	4430282c 	ldrmit	r2, [r0], #-2092
     7ec:	032f2d2c 	teqeq	pc, #2816	; 0xb00
     7f0:	2f63018a 	swics	0x0063018a
     7f4:	47790366 	ldrmib	r0, [r9, -r6, ror #6]!
     7f8:	2d2c2e64 	stccs	14, cr2, [ip, #-400]!
     7fc:	64622d29 	strvsbt	r2, [r2], #-3369
     800:	b7130369 	ldrlt	r0, [r3, -r9, ror #6]
     804:	697f7203 	ldmvsdb	pc!, {r0, r1, r9, ip, sp, lr}^
     808:	d72c482d 	strle	r4, [ip, -sp, lsr #16]!
     80c:	64628167 	strvsbt	r8, [r2], #-359
     810:	032c9e4b 	teqeq	ip, #1200	; 0x4b0
     814:	2a2c2b66 	bcs	b0b5b4 <DISABLE_IRQ+0xb0b534>
     818:	7ee5032c 	cdpvc	3, 14, cr0, cr5, cr12, {1}
     81c:	282c2d47 	stmcsda	ip!, {r0, r1, r2, r6, r8, sl, fp, sp}
     820:	2d2c4430 	cfstrscs	mvf4, [ip, #-192]!
     824:	2d286a2f 	fstmdbscs	r8!, {s12-s58}
     828:	4430282c 	ldrmit	r2, [r0], #-2092
     82c:	032f2d2c 	teqeq	pc, #2816	; 0xb00
     830:	2f6301ae 	swics	0x006301ae
     834:	7903325f 	stmvcdb	r3, {r0, r1, r2, r3, r4, r6, r9, ip, sp}
     838:	2c2d6547 	cfstr32cs	mvfx6, [sp], #-284
     83c:	034b6464 	cmpeq	fp, #1677721600	; 0x64000000
     840:	7a03b70a 	bvc	ee470 <DISABLE_IRQ+0xee3f0>
     844:	2e28317f 	mcrcs	1, 1, r3, cr8, cr15, {3}
     848:	2d292d29 	stccs	13, cr2, [r9, #-164]!
     84c:	2cbbd74b 	ldccs	7, cr13, [fp], #300
     850:	2e2c2a4a 	fnmulscs	s4, s24, s20
     854:	2b7eb003 	blcs	1fac868 <DISABLE_IRQ+0x1fac7e8>
     858:	4a2a2d29 	bmi	a8bd04 <DISABLE_IRQ+0xa8bc84>
     85c:	492d2c44 	stmmidb	sp!, {r2, r6, sl, fp, sp}
     860:	2f2d2a2c 	swics	0x002d2a2c
     864:	30622c47 	rsbcc	r2, r2, r7, asr #24
     868:	4a2a2f27 	bmi	a8c50c <DISABLE_IRQ+0xa8c48c>
     86c:	03477a03 	cmpeq	r7, #12288	; 0x3000
     870:	79032b0a 	stmvcdb	r3, {r1, r3, r8, r9, fp, sp}
     874:	482d2c47 	stmmida	sp!, {r0, r1, r2, r6, sl, fp, sp}
     878:	032c482c 	teqeq	ip, #2883584	; 0x2c0000
     87c:	644700c1 	strvsb	r0, [r7], #-193
     880:	2d282e2a 	stccs	14, cr2, [r8, #-168]!
     884:	482d292c 	stmmida	sp!, {r2, r3, r5, r8, fp, sp}
     888:	477fbf03 	ldrmib	fp, [pc, -r3, lsl #30]!
     88c:	2d294949 	stccs	9, cr4, [r9, #-292]!
     890:	2c2d282c 	stccs	8, cr2, [sp], #-176
     894:	2a432e2a 	bcs	10cc144 <DISABLE_IRQ+0x10cc0c4>
     898:	032b1203 	teqeq	fp, #805306368	; 0x30000000
     89c:	2d2c4770 	stccs	7, cr4, [ip, #-448]!
     8a0:	032d292d 	teqeq	sp, #737280	; 0xb4000
     8a4:	77032b09 	strvc	r2, [r3, -r9, lsl #22]
     8a8:	2b09032b 	blcs	24155c <DISABLE_IRQ+0x2414dc>
     8ac:	2b74032c 	blcs	1d01564 <DISABLE_IRQ+0x1d014e4>
     8b0:	2d452d2d 	stccsl	13, cr2, [r5, #-180]
     8b4:	2c2d2a2a 	stccs	10, cr2, [sp], #-168
     8b8:	264c2a67 	strcsb	r2, [ip], -r7, ror #20
     8bc:	01a70330 	moveq	r0, r0, lsr r3
     8c0:	7eea032b 	cdpvc	3, 14, cr0, cr10, cr11, {1}
     8c4:	46482e63 	strmib	r2, [r8], -r3, ror #28
     8c8:	b5492768 	strltb	r2, [r9, #-1896]
     8cc:	4a2c292f 	bmi	b0ad90 <DISABLE_IRQ+0xb0ad10>
     8d0:	7cbc032c 	ldcvc	3, cr0, [ip], #176
     8d4:	464a2e47 	strmib	r2, [sl], -r7, asr #28
     8d8:	2d292c64 	stccs	12, cr2, [r9, #-400]!
     8dc:	78032e4b 	stmvcda	r3, {r0, r1, r3, r6, r9, sl, fp, sp}
     8e0:	2e2f2f2b 	cdpcs	15, 2, cr2, cr15, cr11, {1}
     8e4:	03477603 	cmpeq	r7, #3145728	; 0x300000
     8e8:	77032b0a 	strvc	r2, [r3, -sl, lsl #22]
     8ec:	2d2c2d2b 	stccs	13, cr2, [ip, #-172]!
     8f0:	2e2c642a 	cdpcs	4, 2, cr6, cr12, cr10, {1}
     8f4:	2d482e66 	stccsl	14, cr2, [r8, #-408]
     8f8:	4a2e4929 	bmi	b92da4 <DISABLE_IRQ+0xb92d24>
     8fc:	79033328 	stmvcdb	r3, {r3, r5, r8, r9, ip, sp}
     900:	48864e2b 	stmmiia	r6, {r0, r1, r3, r5, r9, sl, fp, lr}
     904:	48477903 	stmmida	r7, {r0, r1, r8, fp, ip, sp, lr}^
     908:	f7649c64 	strnvb	r9, [r4, -r4, ror #24]!
     90c:	a0630c03 	rsbge	r0, r3, r3, lsl #24
     910:	9c642c26 	stclsl	12, cr2, [r4], #-152
     914:	0a032508 	beq	c9d3c <DISABLE_IRQ+0xc9cbc>
     918:	03481d08 	cmpeq	r8, #512	; 0x200
     91c:	03a1475f 	moveq	r4, #24903680	; 0x17c0000
     920:	462d2b7a 	undefined
     924:	49292c2c 	stmmidb	r9!, {r2, r3, r5, sl, fp, sp}
     928:	08130380 	ldmeqda	r3, {r7, r8, r9}
     92c:	2c2a9c1d 	stccs	12, cr9, [sl], #-116
     930:	2d2a2c2a 	stccs	12, cr2, [sl, #-168]!
     934:	642c2c2a 	strvst	r2, [ip], #-3114
     938:	87646464 	strhib	r6, [r4, -r4, ror #8]!
     93c:	4e2c28ba 	mcrmi	8, 1, r2, cr12, cr10, {5}
     940:	4828d7d6 	stmmida	r8!, {r1, r2, r4, r6, r7, r8, r9, sl, ip, lr, pc}
     944:	2e2c2a2e 	fmulscs	s4, s24, s29
     948:	7ed8032c 	cdpvc	3, 13, cr0, cr8, cr12, {1}
     94c:	2f013402 	swics	0x00013402
     950:	62496a64 	subvs	r6, r9, #409600	; 0x64000
     954:	312a482a 	teqcc	sl, sl, lsr #16
     958:	2b7903bf 	blcs	1e4185c <DISABLE_IRQ+0x1e417dc>
     95c:	4948b84e 	stmmidb	r8, {r1, r2, r3, r6, fp, ip, sp, pc}^
     960:	0364644b 	cmneq	r4, #1258291200	; 0x4b000000
     964:	0332637a 	teqeq	r2, #-402653183	; 0xe8000001
     968:	2f486379 	swics	0x00486379
     96c:	032c2a28 	teqeq	ip, #163840	; 0x28000
     970:	57036310 	smladpl	r3, r0, r3, r6
     974:	2b0e032b 	blcs	381628 <DISABLE_IRQ+0x3815a8>
     978:	1303462c 	tstne	r3, #46137344	; 0x2c00000
     97c:	001a0247 	andeqs	r0, sl, r7, asr #4
     980:	00800101 	addeq	r0, r0, r1, lsl #2
     984:	00020000 	andeq	r0, r2, r0
     988:	0000001b 	andeq	r0, r0, fp, lsl r0
     98c:	0efb0102 	cdpeq	1, 15, cr0, cr11, cr2, {0}
     990:	0101000a 	tsteq	r1, sl
     994:	00000101 	andeq	r0, r0, r1, lsl #2
     998:	64000100 	strvs	r0, [r0], #-256
     99c:	34367669 	ldrcct	r7, [r6], #-1641
     9a0:	0000532e 	andeq	r5, r0, lr, lsr #6
     9a4:	00000000 	andeq	r0, r0, r0
     9a8:	24800205 	strcs	r0, [r0], #517
     9ac:	39033000 	stmccdb	r3, {ip, sp}
     9b0:	2c2c2c01 	stccs	12, cr2, [ip], #-4
     9b4:	032c2c2e 	teqeq	ip, #11776	; 0x2e00
     9b8:	2c2c2b11 	stccs	11, cr2, [ip], #-68
     9bc:	2c2c2c2c 	stccs	12, cr2, [ip], #-176
     9c0:	2c2c2c31 	stccs	12, cr2, [ip], #-196
     9c4:	2c2e2c2c 	stccs	12, cr2, [lr], #-176
     9c8:	302c2c2c 	eorcc	r2, ip, ip, lsr #24
     9cc:	2c2c2c2c 	stccs	12, cr2, [ip], #-176
     9d0:	2c2c2c2c 	stccs	12, cr2, [ip], #-176
     9d4:	2c2c302c 	stccs	0, cr3, [ip], #-176
     9d8:	2c2b0d03 	stccs	13, cr0, [fp], #-12
     9dc:	2c2c332c 	stccs	3, cr3, [ip], #-176
     9e0:	2b0c032c 	blcs	301698 <DISABLE_IRQ+0x301618>
     9e4:	2c2c2c2c 	stccs	12, cr2, [ip], #-176
     9e8:	2d2c2c2d 	stccs	12, cr2, [ip, #-180]!
     9ec:	2c2d2c2c 	stccs	12, cr2, [sp], #-176
     9f0:	2c2c2f2c 	stccs	15, cr2, [ip], #-176
     9f4:	2c2c2c2c 	stccs	12, cr2, [ip], #-176
     9f8:	2c2c2c2e 	stccs	12, cr2, [ip], #-184
     9fc:	2c2c2f2e 	stccs	15, cr2, [ip], #-184
     a00:	0002022c 	andeq	r0, r2, ip, lsr #4
     a04:	00a90101 	adceq	r0, r9, r1, lsl #2
     a08:	00020000 	andeq	r0, r2, r0
     a0c:	0000001f 	andeq	r0, r0, pc, lsl r0
     a10:	0efb0102 	cdpeq	1, 15, cr0, cr11, cr2, {0}
     a14:	0101000a 	tsteq	r1, sl
     a18:	00000101 	andeq	r0, r0, r1, lsl #2
     a1c:	6c000100 	stfvss	f0, [r0], {0}
     a20:	66316269 	ldrvst	r6, [r1], -r9, ror #4
     a24:	73636e75 	cmnvc	r3, #1872	; 0x750
     a28:	0000532e 	andeq	r5, r0, lr, lsr #6
     a2c:	00000000 	andeq	r0, r0, r0
     a30:	25b00205 	ldrcs	r0, [r0, #517]!
     a34:	c0033000 	andgt	r3, r3, r0
     a38:	2c2c0101 	stfcss	f0, [ip], #-4
     a3c:	2c2c2c2c 	stccs	12, cr2, [ip], #-176
     a40:	2b7ef503 	blcs	1fbde54 <DISABLE_IRQ+0x1fbddd4>
     a44:	02018f03 	andeq	r8, r1, #12	; 0xc
     a48:	2d2c013e 	stfcss	f0, [ip, #-248]!
     a4c:	a9032c2c 	stmgedb	r3, {r2, r3, r5, sl, fp, sp}
     a50:	db032b7f 	blle	cb854 <DISABLE_IRQ+0xcb7d4>
     a54:	2c8d0800 	stccs	8, cr0, [sp], {0}
     a58:	2c2c2c68 	stccs	12, cr2, [ip], #-416
     a5c:	032c2c2c 	teqeq	ip, #11264	; 0x2c00
     a60:	032b7fba 	teqeq	fp, #744	; 0x2e8
     a64:	4e0200ca 	cdpmi	0, 0, cr0, cr2, cr10, {6}
     a68:	2c2c4c01 	stccs	12, cr4, [ip], #-4
     a6c:	2c2c2c2c 	stccs	12, cr2, [ip], #-176
     a70:	2c2c2c2c 	stccs	12, cr2, [ip], #-176
     a74:	7ec8032c 	cdpvc	3, 12, cr0, cr8, cr12, {1}
     a78:	01bc032b 	moveqs	r0, fp, lsr #6
     a7c:	2c013e02 	stccs	14, cr3, [r1], {2}
     a80:	2c2c2d2c 	stccs	13, cr2, [ip], #-176
     a84:	2c2c2c2d 	stccs	12, cr2, [ip], #-180
     a88:	2b7ef603 	blcs	1fbe29c <DISABLE_IRQ+0x1fbe21c>
     a8c:	08018e03 	stmeqda	r1, {r0, r1, r9, sl, fp, pc}
     a90:	2c2c2c8d 	stccs	12, cr2, [ip], #-564
     a94:	2c2c2c68 	stccs	12, cr2, [ip], #-416
     a98:	2c2c2c2c 	stccs	12, cr2, [ip], #-176
     a9c:	032c2c2c 	teqeq	ip, #11264	; 0x2c00
     aa0:	032b7f81 	teqeq	fp, #516	; 0x204
     aa4:	4e020183 	adfmid	f0, f2, f3
     aa8:	302c2c01 	eorcc	r2, ip, r1, lsl #24
     aac:	02022c2d 	andeq	r2, r2, #11520	; 0x2d00
     ab0:	21010100 	tstcs	r1, r0, lsl #2
     ab4:	02000000 	andeq	r0, r0, #0	; 0x0
     ab8:	00001b00 	andeq	r1, r0, r0, lsl #22
     abc:	fb010200 	blx	412c6 <DISABLE_IRQ+0x41246>
     ac0:	01000a0e 	tsteq	r0, lr, lsl #20
     ac4:	00010101 	andeq	r0, r1, r1, lsl #2
     ac8:	00010000 	andeq	r0, r1, r0
     acc:	70797463 	rsbvcs	r7, r9, r3, ror #8
     ad0:	00632e65 	rsbeq	r2, r3, r5, ror #28
     ad4:	00000000 	andeq	r0, r0, r0
     ad8:	00000069 	andeq	r0, r0, r9, rrx
     adc:	004b0002 	subeq	r0, fp, r2
     ae0:	01020000 	tsteq	r2, r0
     ae4:	000a0efb 	streqd	r0, [sl], -fp
     ae8:	01010101 	tsteq	r1, r1, lsl #2
     aec:	01000000 	tsteq	r0, r0
     af0:	746e6d2f 	strvcbt	r6, [lr], #-3375
     af4:	6667682f 	strvsbt	r6, [r7], -pc, lsr #16
     af8:	73412f73 	cmpvc	r1, #460	; 0x1cc
     afc:	74706d79 	ldrvcbt	r6, [r0], #-3449
     b00:	2f65746f 	swics	0x0065746f
     b04:	2f62696c 	swics	0x0062696c
     b08:	692f2e2e 	stmvsdb	pc!, {r1, r2, r3, r5, r9, sl, fp, sp}
     b0c:	756c636e 	strvcb	r6, [ip, #-878]!
     b10:	00006564 	andeq	r6, r0, r4, ror #10
     b14:	646c756d 	strvsbt	r7, [ip], #-1389
     b18:	632e3369 	teqvs	lr, #-1543503871	; 0xa4000001
     b1c:	00000000 	andeq	r0, r0, r0
     b20:	6c636367 	stcvsl	3, cr6, [r3], #-412
     b24:	682e6269 	stmvsda	lr!, {r0, r3, r5, r6, r9, sp, lr}
     b28:	00000100 	andeq	r0, r0, r0, lsl #2
     b2c:	02050000 	andeq	r0, r5, #0	; 0x0
     b30:	30002960 	andcc	r2, r0, r0, ror #18
     b34:	0100c703 	tsteq	r0, r3, lsl #14
     b38:	332b7803 	teqcc	fp, #196608	; 0x30000
     b3c:	2fc6082a 	swics	0x00c6082a
     b40:	01000202 	tsteq	r0, r2, lsl #4
     b44:	00005d01 	andeq	r5, r0, r1, lsl #26
     b48:	2a000200 	bcs	1350 <DISABLE_IRQ+0x12d0>
     b4c:	02000000 	andeq	r0, r0, #0	; 0x0
     b50:	0a0efb01 	beq	3bf75c <DISABLE_IRQ+0x3bf6dc>
     b54:	01010100 	tsteq	r1, r0, lsl #2
     b58:	00000001 	andeq	r0, r0, r1
     b5c:	72700001 	rsbvcs	r0, r0, #1	; 0x1
     b60:	66746e69 	ldrvsbt	r6, [r4], -r9, ror #28
     b64:	0000632e 	andeq	r6, r0, lr, lsr #6
     b68:	73760000 	cmnvc	r6, #0	; 0x0
     b6c:	6e697270 	mcrvs	2, 3, r7, cr9, cr0, {3}
     b70:	682e6674 	stmvsda	lr!, {r2, r4, r5, r6, r9, sl, sp, lr}
     b74:	00000000 	andeq	r0, r0, r0
     b78:	02050000 	andeq	r0, r5, #0	; 0x0
     b7c:	300029b0 	strcch	r2, [r0], -r0
     b80:	31011003 	tstcc	r1, r3
     b84:	312b7a03 	teqcc	fp, r3, lsl #20
     b88:	4583452d 	strmi	r4, [r3, #1325]
     b8c:	0364a0a0 	cmneq	r4, #160	; 0xa0
     b90:	7803470e 	stmvcda	r3, {r1, r2, r3, r8, r9, sl, lr}
     b94:	03654847 	cmneq	r5, #4653056	; 0x470000
     b98:	76032b0a 	strvc	r2, [r3], -sl, lsl #22
     b9c:	2b0a0363 	blcs	281930 <DISABLE_IRQ+0x2818b0>
     ba0:	0008022f 	andeq	r0, r8, pc, lsr #4
     ba4:	01700101 	cmneq	r0, r1, lsl #2
     ba8:	00020000 	andeq	r0, r2, r0
     bac:	00000055 	andeq	r0, r0, r5, asr r0
     bb0:	0efb0102 	cdpeq	1, 15, cr0, cr11, cr2, {0}
     bb4:	0101000a 	tsteq	r1, sl
     bb8:	00000101 	andeq	r0, r0, r1, lsl #2
     bbc:	6d2f0100 	stfvss	f0, [pc]
     bc0:	682f746e 	stmvsda	pc!, {r1, r2, r3, r5, r6, sl, ip, sp, lr}
     bc4:	2f736667 	swics	0x00736667
     bc8:	6d797341 	ldcvsl	3, cr7, [r9, #-260]!
     bcc:	746f7470 	strvcbt	r7, [pc], #1136	; bd4 <DISABLE_IRQ+0xb54>
     bd0:	696c2f65 	stmvsdb	ip!, {r0, r2, r5, r6, r8, r9, sl, fp, sp}^
     bd4:	2e2e2f62 	cdpcs	15, 2, cr2, cr14, cr2, {3}
     bd8:	636e692f 	cmnvs	lr, #770048	; 0xbc000
     bdc:	6564756c 	strvsb	r7, [r4, #-1388]!
     be0:	74730000 	ldrvcbt	r0, [r3]
     be4:	676e6972 	undefined
     be8:	0000632e 	andeq	r6, r0, lr, lsr #6
     bec:	74630000 	strvcbt	r0, [r3]
     bf0:	2e657079 	mcrcs	0, 3, r7, cr5, cr9, {3}
     bf4:	00010068 	andeq	r0, r1, r8, rrx
     bf8:	70797400 	rsbvcs	r7, r9, r0, lsl #8
     bfc:	682e7365 	stmvsda	lr!, {r0, r2, r5, r6, r8, r9, ip, sp, lr}
     c00:	00000100 	andeq	r0, r0, r0, lsl #2
     c04:	02050000 	andeq	r0, r5, #0	; 0x0
     c08:	30002a60 	andcc	r2, r0, r0, ror #20
     c0c:	30011e03 	andcc	r1, r1, r3, lsl #28
     c10:	2c4b272a 	mcrrcs	7, 2, r2, fp, cr10
     c14:	02042d2d 	andeq	r2, r4, #2880	; 0xb40
     c18:	2d010427 	cfstrscs	mvf0, [r1, #-156]
     c1c:	02042d2d 	andeq	r2, r4, #2880	; 0xb40
     c20:	042b7903 	streqt	r7, [fp], #-2307
     c24:	042d4e01 	streqt	r4, [sp], #-3585
     c28:	47780302 	ldrmib	r0, [r8, -r2, lsl #6]!
     c2c:	292c6264 	stmcsdb	ip!, {r2, r5, r6, r9, sp, lr}
     c30:	0d030104 	stfeqs	f0, [r3, #-16]
     c34:	034a4947 	cmpeq	sl, #1163264	; 0x11c000
     c38:	822d630d 	eorhi	r6, sp, #872415232	; 0x34000000
     c3c:	2d471003 	stccsl	0, cr1, [r7, #-12]
     c40:	470e03bb 	undefined
     c44:	642f2a28 	strvst	r2, [pc], #2600	; c4c <DISABLE_IRQ+0xbcc>
     c48:	47110383 	ldrmi	r0, [r1, -r3, lsl #7]
     c4c:	9f2d2d29 	swils	0x002d2d29
     c50:	0332487d 	teqeq	r2, #8192000	; 0x7d0000
     c54:	2108470e 	tstcs	r8, lr, lsl #14
     c58:	4711032c 	ldrmi	r0, [r1, -ip, lsr #6]
     c5c:	2c2b7a03 	stccs	10, cr7, [fp], #-12
     c60:	1f082930 	swine	0x00082930
     c64:	0b032c4a 	bleq	cbd94 <DISABLE_IRQ+0xcbd14>
     c68:	482c6247 	stmmida	ip!, {r0, r1, r2, r6, r9, sp, lr}
     c6c:	032c6646 	teqeq	ip, #73400320	; 0x4600000
     c70:	2e442b1d 	mcrcs	11, 2, r2, cr4, cr13, {0}
     c74:	476a0382 	strmib	r0, [sl, -r2, lsl #7]!
     c78:	6565482b 	strvsb	r4, [r5, #-2091]!
     c7c:	1c032c64 	stcne	12, cr2, [r3], {100}
     c80:	082e442b 	stmeqda	lr!, {r0, r1, r3, r5, sl, lr}
     c84:	470b0358 	smlsdmi	fp, r8, r3, r0
     c88:	9c802d2e 	stcls	13, cr2, [r0], {46}
     c8c:	630a0346 	tstvs	sl, #402653185	; 0x18000001
     c90:	42637a03 	rsbmi	r7, r3, #12288	; 0x3000
     c94:	2b79034e 	blcs	1e419d4 <DISABLE_IRQ+0x1e41954>
     c98:	032b0b03 	teqeq	fp, #3072	; 0xc00
     c9c:	802e7f0a 	eorhi	r7, lr, sl, lsl #30
     ca0:	69624680 	stmvsdb	r2!, {r7, r9, sl, lr}^
     ca4:	2b0c032c 	blcs	30195c <DISABLE_IRQ+0x3018dc>
     ca8:	2f4a282e 	swics	0x004a282e
     cac:	2a2a6564 	bcs	a9a244 <DISABLE_IRQ+0xa9a1c4>
     cb0:	4880642f 	stmmiia	r0, {r0, r1, r2, r3, r5, sl, sp, lr}
     cb4:	72032c2c 	andvc	r2, r3, #11264	; 0x2c00
     cb8:	2a2c482b 	bcs	b12d6c <DISABLE_IRQ+0xb12cec>
     cbc:	2b631d03 	blcs	18c80d0 <DISABLE_IRQ+0x18c8050>
     cc0:	2a2c2d2c 	bcs	b0c178 <DISABLE_IRQ+0xb0c0f8>
     cc4:	4a2c2c2e 	bmi	b0bd84 <DISABLE_IRQ+0xb0bd04>
     cc8:	11032e29 	tstne	r3, r9, lsr #28
     ccc:	9e2e4447 	cdpls	4, 2, cr4, cr14, cr7, {2}
     cd0:	2b2b1603 	blcs	ac64e4 <DISABLE_IRQ+0xac6464>
     cd4:	44d31303 	ldrmib	r1, [r3], #771
     cd8:	1003ba2e 	andne	fp, r3, lr, lsr #20
     cdc:	442f2b2b 	strmit	r2, [pc], #2859	; ce4 <DISABLE_IRQ+0xc64>
     ce0:	2e2ad72e 	cdpcs	7, 2, cr13, cr10, cr14, {1}
     ce4:	2b0f03d7 	blcs	3c1c48 <DISABLE_IRQ+0x3c1bc8>
     ce8:	622c2d29 	eorvs	r2, ip, #2624	; 0xa40
     cec:	034b2a48 	cmpeq	fp, #294912	; 0x48000
     cf0:	282b4715 	stmcsda	fp!, {r0, r2, r4, r8, r9, sl, lr}
     cf4:	2e2c2a66 	fnmulscs	s4, s24, s13
     cf8:	2b2b0a03 	blcs	ac350c <DISABLE_IRQ+0xac348c>
     cfc:	2c2e282e 	stccs	8, cr2, [lr], #-184
     d00:	264c434d 	strcsb	r4, [ip], -sp, asr #6
     d04:	2c9a2930 	ldccs	9, cr2, [sl], {48}
     d08:	032c652d 	teqeq	ip, #188743680	; 0xb400000
     d0c:	622b2b12 	eorvs	r2, fp, #18432	; 0x4800
     d10:	4a2c2a48 	bmi	b0b638 <DISABLE_IRQ+0xb0b5b8>
     d14:	0002022c 	andeq	r0, r2, ip, lsr #4
     d18:	03750101 	cmneq	r5, #1073741824	; 0x40000000
     d1c:	00020000 	andeq	r0, r2, r0
     d20:	00000065 	andeq	r0, r0, r5, rrx
     d24:	0efb0102 	cdpeq	1, 15, cr0, cr11, cr2, {0}
     d28:	0101000a 	tsteq	r1, sl
     d2c:	00000101 	andeq	r0, r0, r1, lsl #2
     d30:	6d2f0100 	stfvss	f0, [pc]
     d34:	682f746e 	stmvsda	pc!, {r1, r2, r3, r5, r6, sl, ip, sp, lr}
     d38:	2f736667 	swics	0x00736667
     d3c:	6d797341 	ldcvsl	3, cr7, [r9, #-260]!
     d40:	746f7470 	strvcbt	r7, [pc], #1136	; d48 <DISABLE_IRQ+0xcc8>
     d44:	696c2f65 	stmvsdb	ip!, {r0, r2, r5, r6, r8, r9, sl, fp, sp}^
     d48:	2e2e2f62 	cdpcs	15, 2, cr2, cr14, cr2, {3}
     d4c:	636e692f 	cmnvs	lr, #770048	; 0xbc000
     d50:	6564756c 	strvsb	r7, [r4, #-1388]!
     d54:	73760000 	cmnvc	r6, #0	; 0x0
     d58:	6e697270 	mcrvs	2, 3, r7, cr9, cr0, {3}
     d5c:	632e6674 	teqvs	lr, #121634816	; 0x7400000
     d60:	00000000 	andeq	r0, r0, r0
     d64:	70797463 	rsbvcs	r7, r9, r3, ror #8
     d68:	00682e65 	rsbeq	r2, r8, r5, ror #28
     d6c:	74000001 	strvc	r0, [r0], #-1
     d70:	73657079 	cmnvc	r5, #121	; 0x79
     d74:	0100682e 	tsteq	r0, lr, lsr #16
     d78:	73760000 	cmnvc	r6, #0	; 0x0
     d7c:	6e697270 	mcrvs	2, 3, r7, cr9, cr0, {3}
     d80:	682e6674 	stmvsda	lr!, {r2, r4, r5, r6, r9, sl, sp, lr}
     d84:	00000000 	andeq	r0, r0, r0
     d88:	02050000 	andeq	r0, r5, #0	; 0x0
     d8c:	30003018 	andcc	r3, r0, r8, lsl r0
     d90:	2e012503 	cfsh32cs	mvfx2, mvfx1, #3
     d94:	2d2d2c28 	stccs	12, cr2, [sp, #-160]!
     d98:	0f032c46 	swieq	0x00032c46
     d9c:	03020463 	tsteq	r2, #1660944384	; 0x63000000
     da0:	452c4771 	strmi	r4, [ip, #-1905]!
     da4:	0f030104 	swieq	0x00030104
     da8:	2c9d4863 	ldccs	8, cr4, [sp], {99}
     dac:	4774032d 	ldrmib	r0, [r4, -sp, lsr #6]!
     db0:	03020464 	tsteq	r2, #1677721600	; 0x64000000
     db4:	642c6376 	strvst	r6, [ip], #-886
     db8:	2c2a8045 	stccs	0, cr8, [sl], #-276
     dbc:	01044548 	tsteq	r4, r8, asr #10
     dc0:	2902042d 	stmcsdb	r2, {r0, r2, r3, r5, sl}
     dc4:	03a10104 	moveq	r0, #1	; 0x1
     dc8:	662c631a 	undefined
     dcc:	03492a2a 	cmpeq	r9, #172032	; 0x2a000
     dd0:	282e470b 	stmcsda	lr!, {r0, r1, r3, r8, r9, sl, lr}
     dd4:	462d4948 	strmit	r4, [sp], -r8, asr #18
     dd8:	7f0f032c 	swivc	0x000f032c
     ddc:	bf030204 	swilt	0x00030204
     de0:	0104477f 	tsteq	r4, pc, ror r7
     de4:	4700c103 	strmi	ip, [r0, -r3, lsl #2]
     de8:	bd030204 	sfmlt	f0, 4, [r3, #-16]
     dec:	01042b7f 	tsteq	r4, pc, ror fp
     df0:	9b00c203 	blls	31604 <DISABLE_IRQ+0x31584>
     df4:	be030204 	cdplt	2, 0, cr0, cr3, cr4, {0}
     df8:	01047f7f 	tsteq	r4, pc, ror pc
     dfc:	7f00c203 	swivc	0x0000c203
     e00:	452eb9b8 	strmi	fp, [lr, #-2488]!
     e04:	2b74032d 	blcs	1d01ac0 <DISABLE_IRQ+0x1d01a40>
     e08:	03020464 	tsteq	r2, #1677721600	; 0x64000000
     e0c:	642c6343 	strvst	r6, [ip], #-835
     e10:	2c2a8045 	stccs	0, cr8, [sl], #-276
     e14:	01044548 	tsteq	r4, r8, asr #10
     e18:	042b3503 	streqt	r3, [fp], #-1283
     e1c:	2b4b0302 	blcs	12c1a2c <DISABLE_IRQ+0x12c19ac>
     e20:	39030104 	stmccdb	r3, {r2, r8}
     e24:	631a03b7 	tstvs	sl, #-603979774	; 0xdc000002
     e28:	2a2a662c 	bcs	a9a6e0 <DISABLE_IRQ+0xa9a660>
     e2c:	272f6649 	strcs	r6, [pc, -r9, asr #12]!
     e30:	082e7c2f 	stmeqda	lr!, {r0, r1, r2, r3, r5, sl, fp, ip, sp, lr}
     e34:	470b033b 	smladxmi	fp, fp, r3, r0
     e38:	2b790332 	blcs	1e41b08 <DISABLE_IRQ+0x1e41a88>
     e3c:	292d80a2 	stmcsdb	sp!, {r1, r5, r7, pc}
     e40:	2c2a2c2c 	stccs	12, cr2, [sl], #-176
     e44:	4e2b7603 	cfmadda32mi	mvax0, mvax7, mvfx11, mvfx3
     e48:	802d2a2f 	eorhi	r2, sp, pc, lsr #20
     e4c:	2c2c292c 	stccs	9, cr2, [ip], #-176
     e50:	802b0d03 	eorhi	r0, fp, r3, lsl #26
     e54:	482d2a48 	stmmida	sp!, {r3, r6, r9, fp, sp}
     e58:	622d2a2e 	eorvs	r2, sp, #188416	; 0x2e000
     e5c:	2991084a 	ldmcsib	r1, {r1, r3, r6, fp}
     e60:	2f2c2a49 	swics	0x002c2a49
     e64:	2c2a2d7d 	stccs	13, cr2, [sl], #-500
     e68:	2c2c6482 	cfstrscs	mvf6, [ip], #-520
     e6c:	0367642d 	cmneq	r7, #754974720	; 0x2d000000
     e70:	61676309 	cmnvs	r7, r9, lsl #6
     e74:	2c2a2c2c 	stccs	12, cr2, [sl], #-176
     e78:	2a2d7d85 	bcs	b60494 <DISABLE_IRQ+0xb60414>
     e7c:	2cb5842c 	cfldrscs	mvf8, [r5], #176
     e80:	a02c2a2c 	eorge	r2, ip, ip, lsr #20
     e84:	2c2a2d7d 	stccs	13, cr2, [sl], #-500
     e88:	b5032c81 	strlt	r2, [r3, #-3201]
     e8c:	484b477f 	stmmida	fp, {r0, r1, r2, r3, r4, r5, r6, r8, r9, sl, lr}^
     e90:	2e2a2a2c 	fmulscs	s4, s20, s25
     e94:	032a2c48 	teqeq	sl, #18432	; 0x4800
     e98:	2a2c4720 	bcs	b12b20 <DISABLE_IRQ+0xb12aa0>
     e9c:	422b0903 	eormi	r0, fp, #49152	; 0xc000
     ea0:	482c482c 	stmmida	ip!, {r2, r3, r5, fp, lr}
     ea4:	2c7f5103 	ldfcse	f5, [pc], #-12
     ea8:	d8033048 	stmleda	r3, {r3, r6, ip, sp}
     eac:	11037f00 	tstne	r3, r0, lsl #30
     eb0:	2b6f032b 	blcs	1bc1b64 <DISABLE_IRQ+0x1bc1ae4>
     eb4:	032b1503 	teqeq	fp, #12582912	; 0xc00000
     eb8:	03632b6b 	cmneq	r3, #109568	; 0x1ac00
     ebc:	262c2b15 	undefined
     ec0:	0903272f 	stmeqdb	r3, {r0, r1, r2, r3, r5, r8, r9, sl, sp}
     ec4:	4a49652b 	bmi	125a378 <DISABLE_IRQ+0x125a2f8>
     ec8:	64332743 	ldrvst	r2, [r3], #-1859
     ecc:	2b780333 	blcs	1e01ba0 <DISABLE_IRQ+0x1e01b20>
     ed0:	2b01a303 	blcs	69ae4 <DISABLE_IRQ+0x69a64>
     ed4:	da034848 	ble	d2ffc <DISABLE_IRQ+0xd2f7c>
     ed8:	c0032b7e 	andgt	r2, r3, lr, ror fp
     edc:	462cb701 	strmit	fp, [ip], -r1, lsl #14
     ee0:	2c4b492d 	mcrrcs	9, 2, r4, fp, cr13
     ee4:	477ec803 	ldrmib	ip, [lr, -r3, lsl #16]!
     ee8:	482b7a03 	stmmida	fp!, {r0, r1, r9, fp, ip, sp, lr}
     eec:	2c020a03 	stccs	10, cr0, [r2], {3}
     ef0:	2d2c7e01 	stccs	14, cr7, [ip, #-4]!
     ef4:	46470c03 	strmib	r0, [r7], -r3, lsl #24
     ef8:	2b0f032c 	blcs	3c1bb0 <DISABLE_IRQ+0x3c1b30>
     efc:	0d032c62 	stceq	12, cr2, [r3, #-392]
     f00:	032d45d3 	teqeq	sp, #884998144	; 0x34c00000
     f04:	01ae024d 	moveq	r0, sp, asr #4
     f08:	46494801 	strmib	r4, [r9], -r1, lsl #16
     f0c:	2d472603 	stccsl	6, cr2, [r7, #-12]
     f10:	2a652c2a 	bcs	194bfc0 <DISABLE_IRQ+0x194bf40>
     f14:	475e032c 	ldrmib	r0, [lr, -ip, lsr #6]
     f18:	03630d03 	cmneq	r3, #192	; 0xc0
     f1c:	0c034773 	stceq	7, cr4, [r3], {115}
     f20:	482c2c2b 	stmmida	ip!, {r0, r1, r3, r5, sl, fp, sp}
     f24:	49423181 	stmmidb	r2, {r0, r7, r8, ip, sp}^
     f28:	6d032c2d 	stcvs	12, cr2, [r3, #-180]
     f2c:	2f282c47 	swics	0x00282c47
     f30:	0e03262c 	cfmadd32eq	mvax1, mvfx2, mvfx3, mvfx12
     f34:	00f40347 	rsceqs	r0, r4, r7, asr #6
     f38:	2b11039b 	blcs	441dac <DISABLE_IRQ+0x441d2c>
     f3c:	62484b49 	subvs	r4, r8, #74752	; 0x12400
     f40:	2a2c4c2d 	bcs	b13ffc <DISABLE_IRQ+0xb13f7c>
     f44:	032d2c48 	teqeq	sp, #18432	; 0x4800
     f48:	03550857 	cmpeq	r5, #5701632	; 0x570000
     f4c:	6a032b18 	bvs	cbbb4 <DISABLE_IRQ+0xcbb34>
     f50:	2b16032b 	blcs	581c04 <DISABLE_IRQ+0x581b84>
     f54:	4773032c 	ldrmib	r0, [r3, -ip, lsr #6]!
     f58:	4c48482c 	mcrrmi	8, 2, r4, r8, cr12
     f5c:	47660326 	strmib	r0, [r6, -r6, lsr #6]!
     f60:	4c032a2c 	stcmi	10, cr2, [r3], {44}
     f64:	65652d47 	strvsb	r2, [r5, #-3399]!
     f68:	2a2d7d4b 	bcs	b6049c <DISABLE_IRQ+0xb6041c>
     f6c:	2c64822c 	sfmcs	f0, 3, [r4], #-176
     f70:	282c2d29 	stmcsda	ip!, {r0, r3, r5, r8, sl, fp, sp}
     f74:	7d33282e 	ldcvc	8, cr2, [r3, #-184]!
     f78:	032c2a2d 	teqeq	ip, #184320	; 0x2d000
     f7c:	2f27b709 	swics	0x0027b709
     f80:	032e2a29 	teqeq	lr, #167936	; 0x29000
     f84:	73039b1d 	tstvc	r3, #29696	; 0x7400
     f88:	be032c47 	cdplt	12, 0, cr2, cr3, cr7, {2}
     f8c:	7d4b637f 	stcvcl	3, cr6, [fp, #-508]
     f90:	662c2a2d 	strvst	r2, [ip], -sp, lsr #20
     f94:	26322a2c 	ldrcst	r2, [r2], -ip, lsr #20
     f98:	452f2730 	strmi	r2, [pc, #-1840]!	; 870 <DISABLE_IRQ+0x7f0>
     f9c:	032c2a2d 	teqeq	ip, #184320	; 0x2d000
     fa0:	649b00e5 	ldrvs	r0, [fp], #229
     fa4:	03622d2a 	cmneq	r2, #2688	; 0xa80
     fa8:	2e2b9b26 	cdpcs	11, 2, cr9, cr11, cr6, {1}
     fac:	1103642c 	tstne	r3, ip, lsr #8
     fb0:	03664c47 	cmneq	r6, #18176	; 0x4700
     fb4:	264c6311 	undefined
     fb8:	03644930 	cmneq	r4, #786432	; 0xc0000
     fbc:	472c7f11 	undefined
     fc0:	032b1003 	teqeq	fp, #3	; 0x3
     fc4:	036a4709 	cmneq	sl, #2359296	; 0x240000
     fc8:	274b630b 	strcsb	r6, [fp, -fp, lsl #6]
     fcc:	032b2a2c 	teqeq	fp, #180224	; 0x2c000
     fd0:	032b01cc 	teqeq	fp, #51	; 0x33
     fd4:	b9b77ec3 	ldmltib	r7!, {r0, r1, r6, r7, r9, sl, fp, ip, sp, lr}
     fd8:	803d08d5 	ldrhisb	r0, [sp], -r5
     fdc:	7f00e103 	swivc	0x0000e103
     fe0:	2b00d603 	blcs	367f4 <DISABLE_IRQ+0x36774>
     fe4:	637ece03 	cmnvs	lr, #48	; 0x30
     fe8:	0a034c49 	beq	d4114 <DISABLE_IRQ+0xd4094>
     fec:	302c4663 	eorcc	r4, ip, r3, ror #12
     ff0:	482d2c62 	stmmida	sp!, {r1, r5, r6, sl, fp, sp}
     ff4:	44630d03 	strmibt	r0, [r3], #-3331
     ff8:	03822d2c 	orreq	r2, r2, #2816	; 0xb00
     ffc:	01b4026d 	moveqs	r0, sp, ror #4
    1000:	018c0301 	orreq	r0, ip, r1, lsl #6
    1004:	2c4649d3 	mcrrcs	9, 13, r4, r6, cr3
    1008:	2d45312e 	stfcse	f3, [r5, #-184]
    100c:	7eda0349 	cdpvc	3, 13, cr0, cr10, cr9, {2}
    1010:	08c708d3 	stmeqia	r7, {r0, r1, r4, r6, r7, fp}^
    1014:	00c30394 	smulleq	r0, r3, r4, r3
    1018:	11032d7f 	tstne	r3, pc, ror sp
    101c:	2c3b082b 	ldccs	8, cr0, [fp], #-172
    1020:	94082d80 	strls	r2, [r8], #-3456
    1024:	6e024703 	cdpvs	7, 0, cr4, cr2, cr3, {0}
    1028:	2d2a5f01 	stccs	15, cr5, [sl, #-4]!
    102c:	d372032e 	cmnle	r2, #-1207959552	; 0xb8000000
    1030:	462e4929 	strmit	r4, [lr], -r9, lsr #18
    1034:	9b120348 	blls	481d5c <DISABLE_IRQ+0x481cdc>
    1038:	4b470b03 	blmi	11c3c4c <DISABLE_IRQ+0x11c3bcc>
    103c:	03470a03 	cmpeq	r7, #12288	; 0x3000
    1040:	032c636d 	teqeq	ip, #-1275068415	; 0xb4000001
    1044:	466300dd 	undefined
    1048:	4759032c 	ldrmib	r0, [r9, -ip, lsr #6]
    104c:	2e2c4649 	cfmadda32cs	mvax2, mvax4, mvfx12, mvfx9
    1050:	497f0d03 	ldmmidb	pc!, {r0, r1, r8, sl, fp}^
    1054:	032e2c46 	teqeq	lr, #17920	; 0x4600
    1058:	46494760 	strmib	r4, [r9], -r0, ror #14
    105c:	2b0c032c 	blcs	301d14 <DISABLE_IRQ+0x301c94>
    1060:	03476903 	cmpeq	r7, #49152	; 0xc000
    1064:	02e10852 	rsceq	r0, r1, #5373952	; 0x520000
    1068:	3a03112c 	bcc	c5520 <DISABLE_IRQ+0xc54a0>
    106c:	032c4663 	teqeq	ip, #103809024	; 0x6300000
    1070:	12032b09 	andne	r2, r3, #9216	; 0x2400
    1074:	032c4647 	teqeq	ip, #74448896	; 0x4700000
    1078:	2c46476e 	mcrrcs	7, 6, r4, r6, cr14
    107c:	477f9503 	ldrmib	r9, [pc, -r3, lsl #10]!
    1080:	292c2a2d 	stmcsdb	ip!, {r0, r2, r3, r5, r9, fp, sp}
    1084:	2c2a2d2e 	stccs	13, cr2, [sl], #-184
    1088:	63019e03 	tstvs	r1, #48	; 0x30
    108c:	0602664c 	streq	r6, [r2], -ip, asr #12
    1090:	Address 0x1090 is out of bounds.

Disassembly of section .debug_info:

00000000 <.debug_info>:
       0:	0000003d 	andeq	r0, r0, sp, lsr r0
       4:	00000002 	andeq	r0, r0, r2
       8:	01040000 	tsteq	r4, r0
       c:	00000000 	andeq	r0, r0, r0
      10:	30000000 	andcc	r0, r0, r0
      14:	3000021c 	andcc	r0, r0, ip, lsl r2
      18:	64616568 	strvsbt	r6, [r1], #-1384
      1c:	2f00532e 	swics	0x0000532e
      20:	2f746e6d 	swics	0x00746e6d
      24:	73666768 	cmnvc	r6, #27262976	; 0x1a00000
      28:	7973412f 	ldmvcdb	r3!, {r0, r1, r2, r3, r5, r8, lr}^
      2c:	6f74706d 	swivs	0x0074706d
      30:	47006574 	smlsdxmi	r0, r4, r5, r6
      34:	4120554e 	teqmi	r0, lr, asr #10
      38:	2e322053 	mrccs	0, 1, r2, cr2, cr3, {2}
      3c:	01003531 	tsteq	r0, r1, lsr r5
      40:	00009680 	andeq	r9, r0, r0, lsl #13
      44:	14000200 	strne	r0, [r0], #-512
      48:	04000000 	streq	r0, [r0]
      4c:	00009e01 	andeq	r9, r0, r1, lsl #28
      50:	00035000 	andeq	r5, r3, r0
      54:	00022030 	andeq	r2, r2, r0, lsr r0
      58:	00000930 	andeq	r0, r0, r0, lsr r9
      5c:	002a0100 	eoreq	r0, sl, r0, lsl #2
      60:	00310000 	eoreqs	r0, r1, r0
      64:	01020000 	tsteq	r2, r0
      68:	00000021 	andeq	r0, r0, r1, lsr #32
      6c:	02200401 	eoreq	r0, r0, #16777216	; 0x1000000
      70:	02543000 	subeqs	r3, r4, #0	; 0x0
      74:	5d013000 	stcpl	0, cr3, [r1]
      78:	00006703 	andeq	r6, r0, r3, lsl #14
      7c:	07620100 	streqb	r0, [r2, -r0, lsl #2]!
      80:	0d010000 	stceq	0, cr0, [r1]
      84:	00025401 	andeq	r5, r2, r1, lsl #8
      88:	0002cc30 	andeq	ip, r2, r0, lsr ip
      8c:	045d0130 	ldreqb	r0, [sp], #-304
      90:	10010069 	andne	r0, r1, r9, rrx
      94:	00000067 	andeq	r0, r0, r7, rrx
      98:	04049102 	streq	r9, [r4], #-258
      9c:	1001006a 	andne	r0, r1, sl, rrx
      a0:	00000067 	andeq	r0, r0, r7, rrx
      a4:	00009102 	andeq	r9, r0, r2, lsl #2
      a8:	00006c05 	andeq	r6, r0, r5, lsl #24
      ac:	07ad0600 	streq	r0, [sp, r0, lsl #12]!
      b0:	07040000 	streq	r0, [r4, -r0]
      b4:	00150107 	andeqs	r0, r5, r7, lsl #2
      b8:	1e010000 	cdpne	0, 0, cr0, cr1, cr0, {0}
      bc:	0002cc01 	andeq	ip, r2, r1, lsl #24
      c0:	00031430 	andeq	r1, r3, r0, lsr r4
      c4:	075d0130 	smmlareq	sp, r0, r1, r0
      c8:	00000001 	andeq	r0, r0, r1
      cc:	012a0100 	teqeq	sl, r0, lsl #2
      d0:	30000314 	andcc	r0, r0, r4, lsl r3
      d4:	30000350 	andcc	r0, r0, r0, asr r3
      d8:	b0005d01 	andlt	r5, r0, r1, lsl #26
      dc:	02000003 	andeq	r0, r0, #3	; 0x3
      e0:	00008800 	andeq	r8, r0, r0, lsl #16
      e4:	f5010400 	strnv	r0, [r1, #-1024]
      e8:	8c000000 	stchi	0, cr0, [r0], {0}
      ec:	50300007 	eorpls	r0, r0, r7
      f0:	09300003 	ldmeqdb	r0!, {r0, r1}
      f4:	01000000 	tsteq	r0, r0
      f8:	000000ef 	andeq	r0, r0, pc, ror #1
      fc:	00000031 	andeq	r0, r0, r1, lsr r0
     100:	0007b202 	andeq	fp, r7, r2, lsl #4
     104:	03070400 	tsteq	r7, #0	; 0x0
     108:	00000055 	andeq	r0, r0, r5, asr r0
     10c:	000000db 	ldreqd	r0, [r0], -fp
     110:	04050208 	streq	r0, [r5], #-520
     114:	00000149 	andeq	r0, r0, r9, asr #2
     118:	00550602 	subeqs	r0, r5, r2, lsl #12
     11c:	23020000 	tstcs	r2, #0	; 0x0
     120:	013b0400 	teqeq	fp, r0, lsl #8
     124:	07020000 	streq	r0, [r2, -r0]
     128:	00000055 	andeq	r0, r0, r5, asr r0
     12c:	00042302 	andeq	r2, r4, r2, lsl #6
     130:	002c0405 	eoreq	r0, ip, r5, lsl #8
     134:	b2020000 	andlt	r0, r2, #0	; 0x0
     138:	04000007 	streq	r0, [r0], #-7
     13c:	00b70207 	adceqs	r0, r7, r7, lsl #4
     140:	08010000 	stmeqda	r1, {}
     144:	00620405 	rsbeq	r0, r2, r5, lsl #8
     148:	a6060000 	strge	r0, [r6], -r0
     14c:	01000000 	tsteq	r0, r0
     150:	000000a2 	andeq	r0, r0, r2, lsr #1
     154:	50011101 	andpl	r1, r1, r1, lsl #2
     158:	d8300003 	ldmleda	r0!, {r0, r1}
     15c:	01300003 	teqeq	r0, r3
     160:	7177075d 	cmnvc	r7, sp, asr r7
     164:	55120100 	ldrpl	r0, [r2, #-256]
     168:	01000000 	tsteq	r0, r0
     16c:	00000853 	andeq	r0, r0, r3, asr r8
     170:	8c090000 	stchi	0, cr0, [r9], {0}
     174:	01000000 	tsteq	r0, r0
     178:	0000a617 	andeq	sl, r0, r7, lsl r6
     17c:	00500100 	subeqs	r0, r0, r0, lsl #2
     180:	ac040500 	cfstr32ge	mvfx0, [r4], {0}
     184:	0a000000 	beq	18c <DISABLE_IRQ+0x10c>
     188:	0000002c 	andeq	r0, r0, ip, lsr #32
     18c:	00e5010b 	rsceq	r0, r5, fp, lsl #2
     190:	24010000 	strcs	r0, [r1]
     194:	0003d801 	andeq	sp, r3, r1, lsl #16
     198:	0003f830 	andeq	pc, r3, r0, lsr r8
     19c:	065d0130 	undefined
     1a0:	000000f4 	streqd	r0, [r0], -r4
     1a4:	00009301 	andeq	r9, r0, r1, lsl #6
     1a8:	012b0100 	teqeq	fp, r0, lsl #2
     1ac:	300003f8 	strccd	r0, [r0], -r8
     1b0:	3000047c 	andcc	r0, r0, ip, ror r4
     1b4:	700c5d01 	andvc	r5, ip, r1, lsl #26
     1b8:	f42a0100 	strnvt	r0, [sl], #-256
     1bc:	01000000 	tsteq	r0, r0
     1c0:	00c40950 	sbceq	r0, r4, r0, asr r9
     1c4:	2c010000 	stccs	0, cr0, [r1], {0}
     1c8:	000000f6 	streqd	r0, [r0], -r6
     1cc:	0d005601 	stceq	6, cr5, [r0, #-4]
     1d0:	6e690e04 	cdpvs	14, 6, cr0, cr9, cr4, {0}
     1d4:	05040074 	streq	r0, [r4, #-116]
     1d8:	0001ad06 	andeq	sl, r1, r6, lsl #26
     1dc:	00bc0100 	adceqs	r0, ip, r0, lsl #2
     1e0:	45010000 	strmi	r0, [r1]
     1e4:	00047c01 	andeq	r7, r4, r1, lsl #24
     1e8:	00057430 	andeq	r7, r5, r0, lsr r4
     1ec:	0f5d0130 	swieq	0x005d0130
     1f0:	00000076 	andeq	r0, r0, r6, ror r0
     1f4:	00694401 	rsbeq	r4, r9, r1, lsl #8
     1f8:	54010000 	strpl	r0, [r1]
     1fc:	01006907 	tsteq	r0, r7, lsl #18
     200:	0000f646 	andeq	pc, r0, r6, asr #12
     204:	07540100 	ldreqb	r0, [r4, -r0, lsl #2]
     208:	4601006e 	strmi	r0, [r1], -lr, rrx
     20c:	000000f6 	streqd	r0, [r0], -r6
     210:	66075501 	strvs	r5, [r7], -r1, lsl #10
     214:	47010064 	strmi	r0, [r1, -r4, rrx]
     218:	000000f6 	streqd	r0, [r0], -r6
     21c:	50095601 	andpl	r5, r9, r1, lsl #12
     220:	01000000 	tsteq	r0, r0
     224:	0001ad48 	andeq	sl, r1, r8, asr #26
     228:	00910200 	addeqs	r0, r1, r0, lsl #4
     22c:	00016410 	andeq	r6, r1, r0, lsl r4
     230:	01120100 	tsteq	r2, r0, lsl #2
     234:	4b010000 	blmi	4023c <DISABLE_IRQ+0x401bc>
     238:	000000f6 	streqd	r0, [r0], -r6
     23c:	10001101 	andne	r1, r0, r1, lsl #2
     240:	00000177 	andeq	r0, r0, r7, ror r1
     244:	00004501 	andeq	r4, r0, r1, lsl #10
     248:	f64d0100 	strnvb	r0, [sp], -r0, lsl #2
     24c:	01000000 	tsteq	r0, r0
     250:	8a100011 	bhi	40029c <DISABLE_IRQ+0x40021c>
     254:	01000001 	tsteq	r0, r1
     258:	00000305 	andeq	r0, r0, r5, lsl #6
     25c:	00f66201 	rsceqs	r6, r6, r1, lsl #4
     260:	11010000 	tstne	r1, r0
     264:	019d1000 	orreqs	r1, sp, r0
     268:	5a010000 	bpl	40270 <DISABLE_IRQ+0x401f0>
     26c:	01000000 	tsteq	r0, r0
     270:	0000f662 	andeq	pc, r0, r2, ror #12
     274:	00110100 	andeqs	r0, r1, r0, lsl #2
     278:	01350112 	teqeq	r5, r2, lsl r1
     27c:	69010000 	stmvsdb	r1, {}
     280:	000000f6 	streqd	r0, [r0], -r6
     284:	00001101 	andeq	r1, r0, r1, lsl #2
     288:	0001bd13 	andeq	fp, r1, r3, lsl sp
     28c:	00006200 	andeq	r6, r0, r0, lsl #4
     290:	005b1400 	subeqs	r1, fp, r0, lsl #8
     294:	004e0000 	subeq	r0, lr, r0
     298:	00021315 	andeq	r1, r2, r5, lsl r3
     29c:	004a0100 	subeq	r0, sl, r0, lsl #2
     2a0:	6e010000 	cdpvs	0, 0, cr0, cr1, cr0, {0}
     2a4:	0000f601 	andeq	pc, r0, r1, lsl #12
     2a8:	00057400 	andeq	r7, r5, r0, lsl #8
     2ac:	0005e830 	andeq	lr, r5, r0, lsr r8
     2b0:	0f5d0130 	swieq	0x005d0130
     2b4:	000002ce 	andeq	r0, r0, lr, asr #5
     2b8:	00256d01 	eoreq	r6, r5, r1, lsl #26
     2bc:	55010000 	strpl	r0, [r1]
     2c0:	01006907 	tsteq	r0, r7, lsl #18
     2c4:	0000f66f 	andeq	pc, r0, pc, ror #12
     2c8:	10540100 	subnes	r0, r4, r0, lsl #2
     2cc:	00000203 	andeq	r0, r0, r3, lsl #4
     2d0:	00011201 	andeq	r1, r1, r1, lsl #4
     2d4:	f64b0100 	strnvb	r0, [fp], -r0, lsl #2
     2d8:	01000000 	tsteq	r0, r0
     2dc:	01120011 	tsteq	r2, r1, lsl r0
     2e0:	0000010b 	andeq	r0, r0, fp, lsl #2
     2e4:	00f67201 	rsceqs	r7, r6, r1, lsl #4
     2e8:	11010000 	tstne	r1, r0
     2ec:	7d060000 	stcvc	0, cr0, [r6]
     2f0:	01000002 	tsteq	r0, r2
     2f4:	00000080 	andeq	r0, r0, r0, lsl #1
     2f8:	e8017e01 	stmda	r1, {r0, r9, sl, fp, ip, sp, lr}
     2fc:	88300005 	ldmhida	r0!, {r0, r2}
     300:	01300006 	teqeq	r0, r6
     304:	01280f5d 	teqeq	r8, sp, asr pc
     308:	7d010000 	stcvc	0, cr0, [r1]
     30c:	00000069 	andeq	r0, r0, r9, rrx
     310:	4a105401 	bmi	41531c <DISABLE_IRQ+0x41529c>
     314:	01000002 	tsteq	r0, r2
     318:	000000d4 	ldreqd	r0, [r0], -r4
     31c:	00f67f01 	rsceqs	r7, r6, r1, lsl #30
     320:	11010000 	tstne	r1, r0
     324:	02671600 	rsbeq	r1, r7, #0	; 0x0
     328:	060c0000 	streq	r0, [ip], -r0
     32c:	06103000 	ldreq	r3, [r0], -r0
     330:	01123000 	tsteq	r2, r0
     334:	00000119 	andeq	r0, r0, r9, lsl r1
     338:	00f68001 	rsceqs	r8, r6, r1
     33c:	11010000 	tstne	r1, r0
     340:	18080000 	stmneda	r8, {}
     344:	12000000 	andne	r0, r0, #0	; 0x0
     348:	00011201 	andeq	r1, r1, r1, lsl #4
     34c:	f64b0100 	strnvb	r0, [fp], -r0, lsl #2
     350:	01000000 	tsteq	r0, r0
     354:	00000011 	andeq	r0, r0, r1, lsl r0
     358:	00031306 	andeq	r1, r3, r6, lsl #6
     35c:	009c0100 	addeqs	r0, ip, r0, lsl #2
     360:	8e010000 	cdphi	0, 0, cr0, cr1, cr0, {0}
     364:	00068801 	andeq	r8, r6, r1, lsl #16
     368:	0006f830 	andeq	pc, r6, r0, lsr r8
     36c:	0c5d0130 	ldfeqe	f0, [sp], {48}
     370:	8d010070 	stchi	0, cr0, [r1, #-448]
     374:	000000f4 	streqd	r0, [r0], -r4
     378:	69075001 	stmvsdb	r7, {r0, ip, lr}
     37c:	f68f0100 	strnv	r0, [pc], r0, lsl #2
     380:	01000000 	tsteq	r0, r0
     384:	00630755 	rsbeq	r0, r3, r5, asr r7
     388:	00629001 	rsbeq	r9, r2, r1
     38c:	54010000 	strpl	r0, [r1]
     390:	00012809 	andeq	r2, r1, r9, lsl #16
     394:	13910100 	orrnes	r0, r1, #0	; 0x0
     398:	02000003 	andeq	r0, r0, #3	; 0x3
     39c:	94170091 	ldrls	r0, [r7], #-145
     3a0:	f8300006 	ldmnvda	r0!, {r1, r2}
     3a4:	10300006 	eornes	r0, r0, r6
     3a8:	000002df 	ldreqd	r0, [r0], -pc
     3ac:	00011201 	andeq	r1, r1, r1, lsl #4
     3b0:	f64b0100 	strnvb	r0, [fp], -r0, lsl #2
     3b4:	01000000 	tsteq	r0, r0
     3b8:	a4170011 	ldrge	r0, [r7], #-17
     3bc:	cc300006 	ldcgt	0, cr0, [r0], #-24
     3c0:	10300006 	eornes	r0, r0, r6
     3c4:	000002fb 	streqd	r0, [r0], -fp
     3c8:	00007101 	andeq	r7, r0, r1, lsl #2
     3cc:	f6990100 	ldrnv	r0, [r9], r0, lsl #2
     3d0:	01000000 	tsteq	r0, r0
     3d4:	30080011 	andcc	r0, r8, r1, lsl r0
     3d8:	12000000 	andne	r0, r0, #0	; 0x0
     3dc:	00010601 	andeq	r0, r1, r1, lsl #12
     3e0:	f69b0100 	ldrnv	r0, [fp], r0, lsl #2
     3e4:	01000000 	tsteq	r0, r0
     3e8:	00000011 	andeq	r0, r0, r1, lsl r0
     3ec:	23130000 	tstcs	r3, #0	; 0x0
     3f0:	62000003 	andvs	r0, r0, #3	; 0x3
     3f4:	14000000 	strne	r0, [r0]
     3f8:	0000005b 	andeq	r0, r0, fp, asr r0
     3fc:	7006001d 	andvc	r0, r6, sp, lsl r0
     400:	01000003 	tsteq	r0, r3
     404:	0000001c 	andeq	r0, r0, ip, lsl r0
     408:	f801a801 	stmnvda	r1, {r0, fp, sp, pc}
     40c:	8c300006 	ldchi	0, cr0, [r0], #-24
     410:	01300007 	teqeq	r0, r7
     414:	034d105d 	cmpeq	sp, #93	; 0x5d
     418:	c9010000 	stmgtdb	r1, {}
     41c:	01000000 	tsteq	r0, r0
     420:	0000f6aa 	andeq	pc, r0, sl, lsr #13
     424:	00110100 	andeqs	r0, r1, r0, lsl #2
     428:	00036010 	andeq	r6, r3, r0, lsl r0
     42c:	00fd0100 	rsceqs	r0, sp, r0, lsl #2
     430:	ae010000 	cdpge	0, 0, cr0, cr1, cr0, {0}
     434:	000000f6 	streqd	r0, [r0], -r6
     438:	12001101 	andne	r1, r0, #1073741824	; 0x40000000
     43c:	00013001 	andeq	r3, r1, r1
     440:	f6b70100 	ldrnvt	r0, [r7], r0, lsl #2
     444:	01000000 	tsteq	r0, r0
     448:	13000011 	tstne	r0, #17	; 0x11
     44c:	0000037b 	andeq	r0, r0, fp, ror r3
     450:	0000037b 	andeq	r0, r0, fp, ror r3
     454:	ae020018 	mcrge	0, 0, r0, cr2, cr8, {0}
     458:	01000000 	tsteq	r0, r0
     45c:	00f61908 	rsceqs	r1, r6, r8, lsl #18
     460:	14030000 	strne	r0, [r3]
     464:	00000370 	andeq	r0, r0, r0, ror r3
     468:	611a0101 	tstvs	sl, r1, lsl #2
     46c:	01000000 	tsteq	r0, r0
     470:	00002c0e 	andeq	r2, r0, lr, lsl #24
     474:	03050100 	tsteq	r5, #0	; 0x0
     478:	30009c1c 	andcc	r9, r0, ip, lsl ip
     47c:	0001401a 	andeq	r4, r1, sl, lsl r0
     480:	69420100 	stmvsdb	r2, {r8}^
     484:	01000000 	tsteq	r0, r0
     488:	4b040305 	blmi	1010a4 <DISABLE_IRQ+0x101024>
     48c:	2a003000 	bcs	c494 <DISABLE_IRQ+0xc414>
     490:	02000003 	andeq	r0, r0, #3	; 0x3
     494:	0001e500 	andeq	lr, r1, r0, lsl #10
     498:	e7010400 	str	r0, [r1, -r0, lsl #8]
     49c:	88000001 	stmhida	r0, {r0}
     4a0:	8c300008 	ldchi	0, cr0, [r0], #-32
     4a4:	09300007 	ldmeqdb	r0!, {r0, r1, r2}
     4a8:	01000000 	tsteq	r0, r0
     4ac:	0000016e 	andeq	r0, r0, lr, ror #2
     4b0:	00000031 	andeq	r0, r0, r1, lsr r0
     4b4:	0007b202 	andeq	fp, r7, r2, lsl #4
     4b8:	03070400 	tsteq	r7, #0	; 0x0
     4bc:	00000055 	andeq	r0, r0, r5, asr r0
     4c0:	000000db 	ldreqd	r0, [r0], -fp
     4c4:	04050408 	streq	r0, [r5], #-1032
     4c8:	00000149 	andeq	r0, r0, r9, asr #2
     4cc:	00550604 	subeqs	r0, r5, r4, lsl #12
     4d0:	23020000 	tstcs	r2, #0	; 0x0
     4d4:	013b0400 	teqeq	fp, r0, lsl #8
     4d8:	07040000 	streq	r0, [r4, -r0]
     4dc:	00000055 	andeq	r0, r0, r5, asr r0
     4e0:	00042302 	andeq	r2, r4, r2, lsl #6
     4e4:	002c0405 	eoreq	r0, ip, r5, lsl #8
     4e8:	69060000 	stmvsdb	r6, {}
     4ec:	0400746e 	streq	r7, [r0], #-1134
     4f0:	00df0305 	sbceqs	r0, pc, r5, lsl #6
     4f4:	04ff0000 	ldreqbt	r0, [pc], #0	; 4fc <DISABLE_IRQ+0x47c>
     4f8:	032c0000 	teqeq	ip, #0	; 0x0
     4fc:	01c40443 	biceq	r0, r4, r3, asr #8
     500:	44030000 	strmi	r0, [r3]
     504:	0000005b 	andeq	r0, r0, fp, asr r0
     508:	04002302 	streq	r2, [r0], #-770
     50c:	000001ff 	streqd	r0, [r0], -pc
     510:	005b4503 	subeqs	r4, fp, r3, lsl #10
     514:	23020000 	tstcs	r2, #0	; 0x0
     518:	01ae0404 	moveq	r0, r4, lsl #8
     51c:	46030000 	strmi	r0, [r3], -r0
     520:	0000005b 	andeq	r0, r0, fp, asr r0
     524:	04082302 	streq	r2, [r8], #-770
     528:	000001cb 	andeq	r0, r0, fp, asr #3
     52c:	005b4703 	subeqs	r4, fp, r3, lsl #14
     530:	23020000 	tstcs	r2, #0	; 0x0
     534:	01bb040c 	moveqs	r0, ip, lsl #8
     538:	48030000 	stmmida	r3, {}
     53c:	000000df 	ldreqd	r0, [r0], -pc
     540:	04102302 	ldreq	r2, [r0], #-770
     544:	0000014e 	andeq	r0, r0, lr, asr #2
     548:	005b4b03 	subeqs	r4, fp, r3, lsl #22
     54c:	23020000 	tstcs	r2, #0	; 0x0
     550:	02060420 	andeq	r0, r6, #536870912	; 0x20000000
     554:	4c030000 	stcmi	0, cr0, [r3], {0}
     558:	0000005b 	andeq	r0, r0, fp, asr r0
     55c:	04242302 	streqt	r2, [r4], #-770
     560:	000001a0 	andeq	r0, r0, r0, lsr #3
     564:	005b4d03 	subeqs	r4, fp, r3, lsl #26
     568:	23020000 	tstcs	r2, #0	; 0x0
     56c:	ef070028 	swi	0x00070028
     570:	f6000000 	strnv	r0, [r0], -r0
     574:	08000000 	stmeqda	r0, {}
     578:	000000ef 	andeq	r0, r0, pc, ror #1
     57c:	b202000f 	andlt	r0, r2, #15	; 0xf
     580:	04000007 	streq	r0, [r0], #-7
     584:	00b70207 	adceqs	r0, r7, r7, lsl #4
     588:	08010000 	stmeqda	r1, {}
     58c:	00013403 	andeq	r3, r1, r3, lsl #8
     590:	00053e00 	andeq	r3, r5, r0, lsl #28
     594:	57030c00 	strpl	r0, [r3, -r0, lsl #24]
     598:	00016604 	andeq	r6, r1, r4, lsl #12
     59c:	5b580300 	blpl	16011a4 <DISABLE_IRQ+0x1601124>
     5a0:	02000000 	andeq	r0, r0, #0	; 0x0
     5a4:	80040023 	andhi	r0, r4, r3, lsr #32
     5a8:	03000001 	tsteq	r0, #1	; 0x1
     5ac:	00005b59 	andeq	r5, r0, r9, asr fp
     5b0:	04230200 	streqt	r0, [r3], #-512
     5b4:	00019304 	andeq	r9, r1, r4, lsl #6
     5b8:	345a0300 	ldrccb	r0, [sl], #-768
     5bc:	02000001 	andeq	r0, r0, #1	; 0x1
     5c0:	05000823 	streq	r0, [r0, #-2083]
     5c4:	00006204 	andeq	r6, r0, r4, lsl #4
     5c8:	018e0900 	orreq	r0, lr, r0, lsl #18
     5cc:	01870000 	orreq	r0, r7, r0
     5d0:	01140000 	tsteq	r4, r0
     5d4:	730a0802 	tstvc	sl, #131072	; 0x20000
     5d8:	09020070 	stmeqdb	r2, {r4, r5, r6}
     5dc:	00000025 	andeq	r0, r0, r5, lsr #32
     5e0:	0a002302 	beq	91f0 <DISABLE_IRQ+0x9170>
     5e4:	00646970 	rsbeq	r6, r4, r0, ror r9
     5e8:	00250a02 	eoreq	r0, r5, r2, lsl #20
     5ec:	23020000 	tstcs	r2, #0	; 0x0
     5f0:	01540404 	cmpeq	r4, r4, lsl #8
     5f4:	0b020000 	bleq	805fc <DISABLE_IRQ+0x8057c>
     5f8:	00000025 	andeq	r0, r0, r5, lsr #32
     5fc:	04082302 	streq	r2, [r8], #-770
     600:	000001f0 	streqd	r0, [r0], -r0
     604:	018e0c02 	orreq	r0, lr, r2, lsl #24
     608:	23020000 	tstcs	r2, #0	; 0x0
     60c:	0800040c 	stmeqda	r0, {r2, r3, sl}
     610:	0d020000 	stceq	0, cr0, [r2]
     614:	0000002c 	andeq	r0, r0, ip, lsr #32
     618:	028c2303 	addeq	r2, ip, #201326592	; 0xc000000
     61c:	019e0700 	orreqs	r0, lr, r0, lsl #14
     620:	019e0000 	orreqs	r0, lr, r0
     624:	ef080000 	swi	0x00080000
     628:	3f000000 	swicc	0x00000000
     62c:	fd040500 	stc2	5, cr0, [r4]
     630:	0b000000 	bleq	638 <DISABLE_IRQ+0x5b8>
     634:	000001cc 	andeq	r0, r0, ip, asr #3
     638:	00015a01 	andeq	r5, r1, r1, lsl #20
     63c:	010a0100 	tsteq	sl, r0, lsl #2
     640:	000001cc 	andeq	r0, r0, ip, asr #3
     644:	3000078c 	andcc	r0, r0, ip, lsl #15
     648:	30000798 	mulcc	r0, r8, r7
     64c:	730c5d01 	tstvc	ip, #64	; 0x40
     650:	0b010070 	bleq	40818 <DISABLE_IRQ+0x40798>
     654:	000001d2 	ldreqd	r0, [r0], -r2
     658:	05005d01 	streq	r5, [r0, #-3329]
     65c:	00013a04 	andeq	r3, r1, r4, lsl #20
     660:	07ad0200 	streq	r0, [sp, r0, lsl #4]!
     664:	07040000 	streq	r0, [r4, -r0]
     668:	0176010d 	cmneq	r6, sp, lsl #2
     66c:	10010000 	andne	r0, r1, r0
     670:	00079801 	andeq	r9, r7, r1, lsl #16
     674:	0007ac30 	andeq	sl, r7, r0, lsr ip
     678:	0d5d0130 	ldfeqe	f0, [sp, #-192]
     67c:	0001d901 	andeq	sp, r1, r1, lsl #18
     680:	01150100 	tsteq	r5, r0, lsl #2
     684:	300007ac 	andcc	r0, r0, ip, lsr #15
     688:	300007c4 	andcc	r0, r0, r4, asr #15
     68c:	010d5d01 	tsteq	sp, r1, lsl #26
     690:	000001e4 	andeq	r0, r0, r4, ror #3
     694:	c4011f01 	strgt	r1, [r1], #-3841
     698:	dc300007 	ldcle	0, cr0, [r0], #-28
     69c:	01300007 	teqeq	r0, r7
     6a0:	02580b5d 	subeqs	r0, r8, #95232	; 0x17400
     6a4:	15010000 	strne	r0, [r1]
     6a8:	01000002 	tsteq	r0, r2
     6ac:	0258012b 	subeqs	r0, r8, #-1073741814	; 0xc000000a
     6b0:	07dc0000 	ldreqb	r0, [ip, r0]
     6b4:	08083000 	stmeqda	r8, {ip, sp}
     6b8:	5d013000 	stcpl	0, cr3, [r1]
     6bc:	0002440e 	andeq	r4, r2, lr, lsl #8
     6c0:	00004800 	andeq	r4, r0, r0, lsl #16
     6c4:	008c0f00 	addeq	r0, ip, r0, lsl #30
     6c8:	2f010000 	swics	0x00010000
     6cc:	0000025a 	andeq	r0, r0, sl, asr r2
     6d0:	10005201 	andne	r5, r0, r1, lsl #4
     6d4:	00000068 	andeq	r0, r0, r8, rrx
     6d8:	00008c0f 	andeq	r8, r0, pc, lsl #24
     6dc:	5a2d0100 	bpl	b40ae4 <DISABLE_IRQ+0xb40a64>
     6e0:	01000002 	tsteq	r0, r2
     6e4:	11000053 	qaddne	r0, r3, r0
     6e8:	60040504 	andvs	r0, r4, r4, lsl #10
     6ec:	12000002 	andne	r0, r0, #2	; 0x2
     6f0:	0000002c 	andeq	r0, r0, ip, lsr #32
     6f4:	00028a13 	andeq	r8, r2, r3, lsl sl
     6f8:	01f50100 	mvneqs	r0, r0, lsl #2
     6fc:	33010000 	tstcc	r1, #0	; 0x0
     700:	00080801 	andeq	r0, r8, r1, lsl #16
     704:	00080c30 	andeq	r0, r8, r0, lsr ip
     708:	145d0130 	ldrneb	r0, [sp], #-304
     70c:	00000097 	muleq	r0, r7, r0
     710:	01cc3201 	biceq	r3, ip, r1, lsl #4
     714:	50010000 	andpl	r0, r1, r0
     718:	1e010d00 	cdpne	13, 0, cr0, cr1, cr0, {0}
     71c:	01000002 	tsteq	r0, r2
     720:	080c0138 	stmeqda	ip, {r3, r4, r5, r8}
     724:	08103000 	ldmeqda	r0, {ip, sp}
     728:	5d013000 	stcpl	0, cr3, [r1]
     72c:	0002d813 	andeq	sp, r2, r3, lsl r8
     730:	01a60100 	moveq	r0, r0, lsl #2
     734:	3d010000 	stccc	0, cr0, [r1]
     738:	00081001 	andeq	r1, r8, r1
     73c:	00084030 	andeq	r4, r8, r0, lsr r0
     740:	155d0130 	ldrneb	r0, [sp, #-304]
     744:	01007177 	tsteq	r0, r7, ror r1
     748:	0000553c 	andeq	r5, r0, ip, lsr r5
     74c:	16540100 	ldrneb	r0, [r4], -r0, lsl #2
     750:	3000081c 	andcc	r0, r0, ip, lsl r8
     754:	30000820 	andcc	r0, r0, r0, lsr #16
     758:	00008c0f 	andeq	r8, r0, pc, lsl #24
     75c:	5a3f0100 	bpl	fc0b64 <DISABLE_IRQ+0xfc0ae4>
     760:	01000002 	tsteq	r0, r2
     764:	13000055 	tstne	r0, #85	; 0x55
     768:	000002fc 	streqd	r0, [r0], -ip
     76c:	00020c01 	andeq	r0, r2, r1, lsl #24
     770:	01460100 	cmpeq	r6, r0, lsl #2
     774:	30000840 	andcc	r0, r0, r0, asr #16
     778:	30000888 	andcc	r0, r0, r8, lsl #17
     77c:	77155d01 	ldrvc	r5, [r5, -r1, lsl #26]
     780:	45010071 	strmi	r0, [r1, #-113]
     784:	00000055 	andeq	r0, r0, r5, asr r0
     788:	07005501 	streq	r5, [r0, -r1, lsl #10]
     78c:	00000307 	andeq	r0, r0, r7, lsl #6
     790:	00000307 	andeq	r0, r0, r7, lsl #6
     794:	ae020017 	mcrge	0, 0, r0, cr2, cr7, {0}
     798:	01000000 	tsteq	r0, r0
     79c:	00f61808 	rsceqs	r1, r6, r8, lsl #16
     7a0:	14050000 	strne	r0, [r5]
     7a4:	000002fc 	streqd	r0, [r0], -ip
     7a8:	74190101 	ldrvc	r0, [r9], #-257
     7ac:	0100706d 	tsteq	r0, sp, rrx
     7b0:	00005528 	andeq	r5, r0, r8, lsr #10
     7b4:	03050100 	tsteq	r5, #0	; 0x0
     7b8:	30009c24 	andcc	r9, r0, r4, lsr #24
     7bc:	0002da00 	andeq	sp, r2, r0, lsl #20
     7c0:	35000200 	strcc	r0, [r0, #-512]
     7c4:	04000003 	streq	r0, [r0], #-3
     7c8:	00028101 	andeq	r8, r2, r1, lsl #2
     7cc:	00096c00 	andeq	r6, r9, r0, lsl #24
     7d0:	00088830 	andeq	r8, r8, r0, lsr r8
     7d4:	00000930 	andeq	r0, r0, r0, lsr r9
     7d8:	026e0100 	rsbeq	r0, lr, #0	; 0x0
     7dc:	00310000 	eoreqs	r0, r1, r0
     7e0:	b2020000 	andlt	r0, r2, #0	; 0x0
     7e4:	04000007 	streq	r0, [r0], #-7
     7e8:	00550307 	subeqs	r0, r5, r7, lsl #6
     7ec:	00db0000 	sbceqs	r0, fp, r0
     7f0:	04080000 	streq	r0, [r8]
     7f4:	01490405 	cmpeq	r9, r5, lsl #8
     7f8:	06040000 	streq	r0, [r4], -r0
     7fc:	00000055 	andeq	r0, r0, r5, asr r0
     800:	04002302 	streq	r2, [r0], #-770
     804:	0000013b 	andeq	r0, r0, fp, lsr r1
     808:	00550704 	subeqs	r0, r5, r4, lsl #14
     80c:	23020000 	tstcs	r2, #0	; 0x0
     810:	04050004 	streq	r0, [r5], #-4
     814:	0000002c 	andeq	r0, r0, ip, lsr #32
     818:	746e6906 	strvcbt	r6, [lr], #-2310
     81c:	03050400 	tsteq	r5, #0	; 0x0
     820:	000000df 	ldreqd	r0, [r0], -pc
     824:	000004ff 	streqd	r0, [r0], -pc
     828:	0443032c 	streqb	r0, [r3], #-812
     82c:	000001c4 	andeq	r0, r0, r4, asr #3
     830:	005b4403 	subeqs	r4, fp, r3, lsl #8
     834:	23020000 	tstcs	r2, #0	; 0x0
     838:	01ff0400 	mvneqs	r0, r0, lsl #8
     83c:	45030000 	strmi	r0, [r3]
     840:	0000005b 	andeq	r0, r0, fp, asr r0
     844:	04042302 	streq	r2, [r4], #-770
     848:	000001ae 	andeq	r0, r0, lr, lsr #3
     84c:	005b4603 	subeqs	r4, fp, r3, lsl #12
     850:	23020000 	tstcs	r2, #0	; 0x0
     854:	01cb0408 	biceq	r0, fp, r8, lsl #8
     858:	47030000 	strmi	r0, [r3, -r0]
     85c:	0000005b 	andeq	r0, r0, fp, asr r0
     860:	040c2302 	streq	r2, [ip], #-770
     864:	000001bb 	streqh	r0, [r0], -fp
     868:	00df4803 	sbceqs	r4, pc, r3, lsl #16
     86c:	23020000 	tstcs	r2, #0	; 0x0
     870:	014e0410 	cmpeq	lr, r0, lsl r4
     874:	4b030000 	blmi	c087c <DISABLE_IRQ+0xc07fc>
     878:	0000005b 	andeq	r0, r0, fp, asr r0
     87c:	04202302 	streqt	r2, [r0], #-770
     880:	00000206 	andeq	r0, r0, r6, lsl #4
     884:	005b4c03 	subeqs	r4, fp, r3, lsl #24
     888:	23020000 	tstcs	r2, #0	; 0x0
     88c:	01a00424 	moveq	r0, r4, lsr #8
     890:	4d030000 	stcmi	0, cr0, [r3]
     894:	0000005b 	andeq	r0, r0, fp, asr r0
     898:	00282302 	eoreq	r2, r8, r2, lsl #6
     89c:	0000ef07 	andeq	lr, r0, r7, lsl #30
     8a0:	0000f600 	andeq	pc, r0, r0, lsl #12
     8a4:	00ef0800 	rsceq	r0, pc, r0, lsl #16
     8a8:	000f0000 	andeq	r0, pc, r0
     8ac:	0007b202 	andeq	fp, r7, r2, lsl #4
     8b0:	02070400 	andeq	r0, r7, #0	; 0x0
     8b4:	000000b7 	streqh	r0, [r0], -r7
     8b8:	34030801 	strcc	r0, [r3], #-2049
     8bc:	3e000001 	cdpcc	0, 0, cr0, cr0, cr1, {0}
     8c0:	0c000005 	stceq	0, cr0, [r0], {5}
     8c4:	66045703 	strvs	r5, [r4], -r3, lsl #14
     8c8:	03000001 	tsteq	r0, #1	; 0x1
     8cc:	00005b58 	andeq	r5, r0, r8, asr fp
     8d0:	00230200 	eoreq	r0, r3, r0, lsl #4
     8d4:	00018004 	andeq	r8, r1, r4
     8d8:	5b590300 	blpl	16414e0 <DISABLE_IRQ+0x1641460>
     8dc:	02000000 	andeq	r0, r0, #0	; 0x0
     8e0:	93040423 	tstls	r4, #587202560	; 0x23000000
     8e4:	03000001 	tsteq	r0, #1	; 0x1
     8e8:	0001345a 	andeq	r3, r1, sl, asr r4
     8ec:	08230200 	stmeqda	r3!, {r9}
     8f0:	62040500 	andvs	r0, r4, #0	; 0x0
     8f4:	09000000 	stmeqdb	r0, {}
     8f8:	0000018e 	andeq	r0, r0, lr, lsl #3
     8fc:	00000187 	andeq	r0, r0, r7, lsl #3
     900:	08020114 	stmeqda	r2, {r2, r4, r8}
     904:	0070730a 	rsbeqs	r7, r0, sl, lsl #6
     908:	00250902 	eoreq	r0, r5, r2, lsl #18
     90c:	23020000 	tstcs	r2, #0	; 0x0
     910:	69700a00 	ldmvsdb	r0!, {r9, fp}^
     914:	0a020064 	beq	80aac <DISABLE_IRQ+0x80a2c>
     918:	00000025 	andeq	r0, r0, r5, lsr #32
     91c:	04042302 	streq	r2, [r4], #-770
     920:	00000154 	andeq	r0, r0, r4, asr r1
     924:	00250b02 	eoreq	r0, r5, r2, lsl #22
     928:	23020000 	tstcs	r2, #0	; 0x0
     92c:	01f00408 	mvneqs	r0, r8, lsl #8
     930:	0c020000 	stceq	0, cr0, [r2], {0}
     934:	0000018e 	andeq	r0, r0, lr, lsl #3
     938:	040c2302 	streq	r2, [ip], #-770
     93c:	00000800 	andeq	r0, r0, r0, lsl #16
     940:	002c0d02 	eoreq	r0, ip, r2, lsl #26
     944:	23030000 	tstcs	r3, #0	; 0x0
     948:	0700028c 	streq	r0, [r0, -ip, lsl #5]
     94c:	0000019e 	muleq	r0, lr, r1
     950:	0000019e 	muleq	r0, lr, r1
     954:	0000ef08 	andeq	lr, r0, r8, lsl #30
     958:	05003f00 	streq	r3, [r0, #-3840]
     95c:	0000fd04 	andeq	pc, r0, r4, lsl #26
     960:	01de0b00 	biceqs	r0, lr, r0, lsl #22
     964:	27010000 	strcs	r0, [r1, -r0]
     968:	01000002 	tsteq	r0, r2
     96c:	01de0109 	biceqs	r0, lr, r9, lsl #2
     970:	08880000 	stmeqia	r8, {}
     974:	08a03000 	stmeqia	r0!, {ip, sp}
     978:	5d013000 	stcpl	0, cr3, [r1]
     97c:	00023c0c 	andeq	r3, r2, ip, lsl #24
     980:	5b0a0100 	blpl	280d88 <DISABLE_IRQ+0x280d08>
     984:	05000000 	streq	r0, [r0]
     988:	004b0803 	subeq	r0, fp, r3, lsl #16
     98c:	6d740d30 	ldcvsl	13, cr0, [r4, #-192]!
     990:	0c010070 	stceq	0, cr0, [r1], {112}
     994:	000001de 	ldreqd	r0, [r0], -lr
     998:	05005001 	streq	r5, [r0, #-1]
     99c:	00013a04 	andeq	r3, r1, r4, lsl #20
     9a0:	020b0b00 	andeq	r0, fp, #0	; 0x0
     9a4:	51010000 	tstpl	r1, r0
     9a8:	01000002 	tsteq	r0, r2
     9ac:	00250122 	eoreq	r0, r5, r2, lsr #2
     9b0:	08a00000 	stmeqia	r0!, {}
     9b4:	08a83000 	stmeqia	r8!, {ip, sp}
     9b8:	5d013000 	stcpl	0, cr3, [r1]
     9bc:	0100700d 	tsteq	r0, sp
     9c0:	00002523 	andeq	r2, r0, r3, lsr #10
     9c4:	00500100 	subeqs	r0, r0, r0, lsl #2
     9c8:	0002670b 	andeq	r6, r2, fp, lsl #14
     9cc:	025f0100 	subeqs	r0, pc, #0	; 0x0
     9d0:	2e010000 	cdpcs	0, 0, cr0, cr1, cr0, {0}
     9d4:	00005b01 	andeq	r5, r0, r1, lsl #22
     9d8:	0008a800 	andeq	sl, r8, r0, lsl #16
     9dc:	00094430 	andeq	r4, r9, r0, lsr r4
     9e0:	0e5d0130 	mrceq	1, 2, r0, cr13, cr0, {1}
     9e4:	01006e66 	tsteq	r0, r6, ror #28
     9e8:	0002752d 	andeq	r7, r2, sp, lsr #10
     9ec:	0f540100 	swieq	0x00540100
     9f0:	0000025a 	andeq	r0, r0, sl, asr r2
     9f4:	02732d01 	rsbeqs	r2, r3, #64	; 0x40
     9f8:	57010000 	strpl	r0, [r1, -r0]
     9fc:	6b73740d 	blvs	1cdda38 <DISABLE_IRQ+0x1cdd9b8>
     a00:	de2f0100 	suflee	f0, f7, f0
     a04:	01000001 	tsteq	r0, r1
     a08:	6d741055 	ldcvsl	0, cr1, [r4, #-340]!
     a0c:	2f010070 	swics	0x00010070
     a10:	000001de 	ldreqd	r0, [r0], -lr
     a14:	02670111 	rsbeq	r0, r7, #1073741828	; 0x40000004
     a18:	35010000 	strcc	r0, [r1]
     a1c:	0000005b 	andeq	r0, r0, fp, asr r0
     a20:	00001201 	andeq	r1, r0, r1, lsl #4
     a24:	00027313 	andeq	r7, r2, r3, lsl r3
     a28:	73140100 	tstvc	r4, #0	; 0x0
     a2c:	00000002 	andeq	r0, r0, r2
     a30:	04050415 	streq	r0, [r5], #-1045
     a34:	00000267 	andeq	r0, r0, r7, ror #4
     a38:	0002b10b 	andeq	fp, r2, fp, lsl #2
     a3c:	02750100 	rsbeqs	r0, r5, #0	; 0x0
     a40:	47010000 	strmi	r0, [r1, -r0]
     a44:	0002b101 	andeq	fp, r2, r1, lsl #2
     a48:	00094400 	andeq	r4, r9, r0, lsl #8
     a4c:	00096c30 	andeq	r6, r9, r0, lsr ip
     a50:	0f5d0130 	swieq	0x005d0130
     a54:	0000027a 	andeq	r0, r0, sl, ror r2
     a58:	02be4601 	adceqs	r4, lr, #1048576	; 0x100000
     a5c:	54010000 	strpl	r0, [r1]
     a60:	0004db0c 	andeq	sp, r4, ip, lsl #22
     a64:	b1480100 	cmplt	r8, r0, lsl #2
     a68:	01000002 	tsteq	r0, r2
     a6c:	04050055 	streq	r0, [r5], #-85
     a70:	000002b7 	streqh	r0, [r0], -r7
     a74:	0000ae02 	andeq	sl, r0, r2, lsl #28
     a78:	02080100 	andeq	r0, r8, #0	; 0x0
     a7c:	000007ad 	andeq	r0, r0, sp, lsr #15
     a80:	d0070704 	andle	r0, r7, r4, lsl #14
     a84:	b7000002 	strlt	r0, [r0, -r2]
     a88:	16000002 	strne	r0, [r0], -r2
     a8c:	00f61700 	rsceqs	r1, r6, r0, lsl #14
     a90:	14050000 	strne	r0, [r5]
     a94:	000002c5 	andeq	r0, r0, r5, asr #5
     a98:	c4000101 	strgt	r0, [r0], #-257
     a9c:	02000000 	andeq	r0, r0, #0	; 0x0
     aa0:	00045b00 	andeq	r5, r4, r0, lsl #22
     aa4:	12010400 	andne	r0, r1, #0	; 0x0
     aa8:	e4000003 	str	r0, [r0], #-3
     aac:	6c300009 	ldcvs	0, cr0, [r0], #-36
     ab0:	09300009 	ldmeqdb	r0!, {r0, r3}
     ab4:	01000000 	tsteq	r0, r0
     ab8:	0000028c 	andeq	r0, r0, ip, lsl #5
     abc:	00000031 	andeq	r0, r0, r1, lsr r0
     ac0:	00004c02 	andeq	r4, r0, r2, lsl #24
     ac4:	02920100 	addeqs	r0, r2, #0	; 0x0
     ac8:	20010000 	andcs	r0, r1, r0
     acc:	00004c01 	andeq	r4, r0, r1, lsl #24
     ad0:	00096c00 	andeq	r6, r9, r0, lsl #24
     ad4:	0009b830 	andeq	fp, r9, r0, lsr r8
     ad8:	035d0130 	cmpeq	sp, #12	; 0xc
     adc:	21010069 	tstcs	r1, r9, rrx
     ae0:	00000059 	andeq	r0, r0, r9, asr r0
     ae4:	04005201 	streq	r5, [r0], #-513
     ae8:	00005204 	andeq	r5, r0, r4, lsl #4
     aec:	07ad0500 	streq	r0, [sp, r0, lsl #10]!
     af0:	07040000 	streq	r0, [r4, -r0]
     af4:	746e6906 	strvcbt	r6, [lr], #-2310
     af8:	02050400 	andeq	r0, r5, #0	; 0x0
     afc:	00000096 	muleq	r0, r6, r0
     b00:	00029601 	andeq	r9, r2, r1, lsl #12
     b04:	01390100 	teqeq	r9, r0, lsl #2
     b08:	00000059 	andeq	r0, r0, r9, asr r0
     b0c:	300009b8 	strcch	r0, [r0], -r8
     b10:	300009e4 	andcc	r0, r0, r4, ror #19
     b14:	db075d01 	blle	1d7f20 <DISABLE_IRQ+0x1d7ea0>
     b18:	01000004 	tsteq	r0, r4
     b1c:	00004c38 	andeq	r4, r0, r8, lsr ip
     b20:	08500100 	ldmeqda	r0, {r8}^
     b24:	0000029b 	muleq	r0, fp, r2
     b28:	00593a01 	subeqs	r3, r9, r1, lsl #20
     b2c:	50010000 	andpl	r0, r1, r0
     b30:	00a70900 	adceq	r0, r7, r0, lsl #18
     b34:	00ae0000 	adceq	r0, lr, r0
     b38:	a70a0000 	strge	r0, [sl, -r0]
     b3c:	ff000000 	swinv	0x00000000
     b40:	b205003f 	andlt	r0, r5, #63	; 0x3f
     b44:	04000007 	streq	r0, [r0], #-7
     b48:	00ae0507 	adceq	r0, lr, r7, lsl #10
     b4c:	08010000 	stmeqda	r1, {}
     b50:	0002840b 	andeq	r8, r2, fp, lsl #8
     b54:	96110100 	ldrls	r0, [r1], -r0, lsl #2
     b58:	01000000 	tsteq	r0, r0
     b5c:	4c1c0305 	ldcmi	3, cr0, [ip], {5}
     b60:	3b003000 	blcc	cb68 <DISABLE_IRQ+0xcae8>
     b64:	02000002 	andeq	r0, r0, #2	; 0x2
     b68:	0004f700 	andeq	pc, r4, r0, lsl #14
     b6c:	55010400 	strpl	r0, [r1, #-1024]
     b70:	00000003 	andeq	r0, r0, r3
     b74:	e430000d 	ldrt	r0, [r0], #-13
     b78:	09300009 	ldmeqdb	r0!, {r0, r3}
     b7c:	01000000 	tsteq	r0, r0
     b80:	0000030a 	andeq	r0, r0, sl, lsl #6
     b84:	00000031 	andeq	r0, r0, r1, lsr r0
     b88:	00005902 	andeq	r5, r0, r2, lsl #18
     b8c:	02d40100 	sbceqs	r0, r4, #0	; 0x0
     b90:	0f010000 	swieq	0x00010000
     b94:	00005901 	andeq	r5, r0, r1, lsl #18
     b98:	0009e400 	andeq	lr, r9, r0, lsl #8
     b9c:	000a1030 	andeq	r1, sl, r0, lsr r0
     ba0:	035d0130 	cmpeq	sp, #12	; 0xc
     ba4:	10010070 	andne	r0, r1, r0, ror r0
     ba8:	00000060 	andeq	r0, r0, r0, rrx
     bac:	76035101 	strvc	r5, [r3], -r1, lsl #2
     bb0:	01006c61 	tsteq	r0, r1, ror #24
     bb4:	00005911 	andeq	r5, r0, r1, lsl r9
     bb8:	005c0100 	subeqs	r0, ip, r0, lsl #2
     bbc:	746e6904 	strvcbt	r6, [lr], #-2308
     bc0:	05050400 	streq	r0, [r5, #-1024]
     bc4:	00006604 	andeq	r6, r0, r4, lsl #12
     bc8:	00590600 	subeqs	r0, r9, r0, lsl #12
     bcc:	a8070000 	stmgeda	r7, {}
     bd0:	01000000 	tsteq	r0, r0
     bd4:	00000311 	andeq	r0, r0, r1, lsl r3
     bd8:	10013701 	andne	r3, r1, r1, lsl #14
     bdc:	3c30000a 	ldccc	0, cr0, [r0], #-40
     be0:	0130000a 	teqeq	r0, sl
     be4:	02c8085d 	sbceq	r0, r8, #6094848	; 0x5d0000
     be8:	38010000 	stmccda	r1, {}
     bec:	00000059 	andeq	r0, r0, r9, asr r0
     bf0:	ec080101 	stfs	f0, [r8], {1}
     bf4:	01000002 	tsteq	r0, r2
     bf8:	00005938 	andeq	r5, r0, r8, lsr r9
     bfc:	03010100 	tsteq	r1, #0	; 0x0
     c00:	39010070 	stmccdb	r1, {r4, r5, r6}
     c04:	000000a8 	andeq	r0, r0, r8, lsr #1
     c08:	05005301 	streq	r5, [r0, #-769]
     c0c:	00005904 	andeq	r5, r0, r4, lsl #18
     c10:	a0010900 	andge	r0, r1, r0, lsl #18
     c14:	01000002 	tsteq	r0, r2
     c18:	0a3c0140 	beq	f01120 <DISABLE_IRQ+0xf010a0>
     c1c:	0a543000 	beq	150cc24 <DISABLE_IRQ+0x150cba4>
     c20:	5d013000 	stcpl	0, cr3, [r1]
     c24:	031b0109 	tsteq	fp, #1073741826	; 0x40000002
     c28:	4b010000 	blmi	40c30 <DISABLE_IRQ+0x40bb0>
     c2c:	000a5401 	andeq	r5, sl, r1, lsl #8
     c30:	000a6830 	andeq	r6, sl, r0, lsr r8
     c34:	095d0130 	ldmeqdb	sp, {r4, r5, r8}^
     c38:	0002aa01 	andeq	sl, r2, r1, lsl #20
     c3c:	01500100 	cmpeq	r0, r0, lsl #2
     c40:	30000a68 	andcc	r0, r0, r8, ror #20
     c44:	30000a7c 	andcc	r0, r0, ip, ror sl
     c48:	18075d01 	stmneda	r7, {r0, r8, sl, fp, ip, lr}
     c4c:	01000001 	tsteq	r0, r1
     c50:	0000033a 	andeq	r0, r0, sl, lsr r3
     c54:	7c015501 	cfstr32vc	mvfx5, [r1], {1}
     c58:	c030000a 	eorgts	r0, r0, sl
     c5c:	0130000a 	teqeq	r0, sl
     c60:	6d630a5d 	fstmdbsvs	r3!, {s1-s93}
     c64:	54010064 	strpl	r0, [r1], #-100
     c68:	00000118 	andeq	r0, r0, r8, lsl r1
     c6c:	69035001 	stmvsdb	r3, {r0, ip, lr}
     c70:	66560100 	ldrvsb	r0, [r6], -r0, lsl #2
     c74:	02000000 	andeq	r0, r0, #0	; 0x0
     c78:	0b000091 	bleq	ec4 <DISABLE_IRQ+0xe44>
     c7c:	000000ae 	andeq	r0, r0, lr, lsr #1
     c80:	6a070801 	bvs	1c2c8c <DISABLE_IRQ+0x1c2c0c>
     c84:	01000001 	tsteq	r0, r1
     c88:	0000027a 	andeq	r0, r0, sl, ror r2
     c8c:	c0015c01 	andgt	r5, r1, r1, lsl #24
     c90:	dc30000a 	ldcle	0, cr0, [r0], #-40
     c94:	0130000b 	teqeq	r0, fp
     c98:	04db0c5d 	ldreqb	r0, [fp], #3165
     c9c:	5b010000 	blpl	40ca4 <DISABLE_IRQ+0x40c24>
     ca0:	0000016a 	andeq	r0, r0, sl, ror #2
     ca4:	63035001 	tstvs	r3, #1	; 0x1
     ca8:	01006c6f 	tsteq	r0, pc, ror #24
     cac:	00016a5d 	andeq	r6, r1, sp, asr sl
     cb0:	0d510100 	ldfeqe	f0, [r1]
     cb4:	0000029b 	muleq	r0, fp, r2
     cb8:	016a5e01 	cmneq	sl, r1, lsl #28
     cbc:	50010000 	andpl	r0, r1, r0
     cc0:	01006903 	tsteq	r0, r3, lsl #18
     cc4:	0000665f 	andeq	r6, r0, pc, asr r6
     cc8:	00910200 	addeqs	r0, r1, r0, lsl #4
     ccc:	07b20b00 	ldreq	r0, [r2, r0, lsl #22]!
     cd0:	07040000 	streq	r0, [r4, -r0]
     cd4:	02b80109 	adceqs	r0, r8, #1073741826	; 0x40000002
     cd8:	6f010000 	swivs	0x00010000
     cdc:	000bdc01 	andeq	sp, fp, r1, lsl #24
     ce0:	000bf030 	andeq	pc, fp, r0, lsr r0
     ce4:	0e5d0130 	mrceq	1, 2, r0, cr13, cr0, {1}
     ce8:	0002f601 	andeq	pc, r2, r1, lsl #12
     cec:	01740100 	cmneq	r4, r0, lsl #2
     cf0:	00000118 	andeq	r0, r0, r8, lsl r1
     cf4:	30000bf0 	strccd	r0, [r0], -r0
     cf8:	30000bfc 	strccd	r0, [r0], -ip
     cfc:	f2075d01 	andnv	r5, r7, #64	; 0x40
     d00:	01000001 	tsteq	r0, r1
     d04:	00000300 	andeq	r0, r0, r0, lsl #6
     d08:	fc017901 	stc2	9, cr7, [r1], {1}
     d0c:	ac30000b 	ldcge	0, cr0, [r0], #-44
     d10:	0130000c 	teqeq	r0, ip
     d14:	04db0c5d 	ldreqb	r0, [fp], #3165
     d18:	78010000 	stmvcda	r1, {}
     d1c:	0000016a 	andeq	r0, r0, sl, ror #2
     d20:	620a5601 	andvs	r5, sl, #1048576	; 0x100000
     d24:	01006675 	tsteq	r0, r5, ror r6
     d28:	0001f278 	andeq	pc, r1, r8, ror r2
     d2c:	0a5a0100 	beq	1681134 <DISABLE_IRQ+0x16810b4>
     d30:	006e656c 	rsbeq	r6, lr, ip, ror #10
     d34:	016a7801 	cmneq	sl, r1, lsl #16
     d38:	57010000 	strpl	r0, [r1, -r0]
     d3c:	6c6f6303 	stcvsl	3, cr6, [pc], #-12
     d40:	597a0100 	ldmpldb	sl!, {r8}^
     d44:	01000000 	tsteq	r0, r0
     d48:	00690354 	rsbeq	r0, r9, r4, asr r3
     d4c:	00597b01 	subeqs	r7, r9, r1, lsl #22
     d50:	55010000 	strpl	r0, [r1]
     d54:	18040500 	stmneda	r4, {r8, sl}
     d58:	0f000001 	swieq	0x00000001
     d5c:	00032701 	andeq	r2, r3, r1, lsl #14
     d60:	01230100 	teqeq	r3, r0, lsl #2
     d64:	30000cac 	andcc	r0, r0, ip, lsr #25
     d68:	30000d00 	andcc	r0, r0, r0, lsl #26
     d6c:	730a5d01 	tstvc	sl, #64	; 0x40
     d70:	01006372 	tsteq	r0, r2, ror r3
     d74:	0001f222 	andeq	pc, r1, r2, lsr #4
     d78:	0c550100 	ldfeqe	f0, [r5], {0}
     d7c:	000002e7 	andeq	r0, r0, r7, ror #5
     d80:	01f22201 	mvneqs	r2, r1, lsl #4
     d84:	56010000 	strpl	r0, [r1], -r0
     d88:	6e656c0a 	cdpvs	12, 6, cr6, cr5, cr10, {0}
     d8c:	6a220100 	bvs	881194 <DISABLE_IRQ+0x881114>
     d90:	01000001 	tsteq	r0, r1
     d94:	00690354 	rsbeq	r0, r9, r4, asr r3
     d98:	00592401 	subeqs	r2, r9, r1, lsl #8
     d9c:	52010000 	andpl	r0, r1, #0	; 0x0
     da0:	01f80000 	mvneqs	r0, r0
     da4:	00020000 	andeq	r0, r2, r0
     da8:	000005ef 	andeq	r0, r0, pc, ror #11
     dac:	03fd0104 	mvneqs	r0, #1	; 0x1
     db0:	0f840000 	swieq	0x00840000
     db4:	0d003000 	stceq	0, cr3, [r0]
     db8:	00093000 	andeq	r3, r9, r0
     dbc:	5b010000 	blpl	40dc4 <DISABLE_IRQ+0x40d44>
     dc0:	31000003 	tstcc	r0, r3
     dc4:	02000000 	andeq	r0, r0, #0	; 0x0
     dc8:	00036701 	andeq	r6, r3, r1, lsl #14
     dcc:	00450100 	subeq	r0, r5, r0, lsl #2
     dd0:	4c30000d 	ldcmi	0, cr0, [r0], #-52
     dd4:	0130000d 	teqeq	r0, sp
     dd8:	b301025d 	tstlt	r1, #-805306363	; 0xd0000005
     ddc:	01000003 	tsteq	r0, r3
     de0:	000d4c51 	andeq	r4, sp, r1, asr ip
     de4:	000dc030 	andeq	ip, sp, r0, lsr r0
     de8:	025d0130 	subeqs	r0, sp, #12	; 0xc
     dec:	00038101 	andeq	r8, r3, r1, lsl #2
     df0:	c0860100 	addgt	r0, r6, r0, lsl #2
     df4:	fc30000d 	ldc2	0, cr0, [r0], #-52
     df8:	0130000d 	teqeq	r0, sp
     dfc:	a001025d 	andge	r0, r1, sp, asr r2
     e00:	01000003 	tsteq	r0, r3
     e04:	000dfc8f 	andeq	pc, sp, pc, lsl #25
     e08:	000e2030 	andeq	r2, lr, r0, lsr r0
     e0c:	025d0130 	subeqs	r0, sp, #12	; 0xc
     e10:	00040c01 	andeq	r0, r4, r1, lsl #24
     e14:	20950100 	addcss	r0, r5, r0, lsl #2
     e18:	4830000e 	ldmmida	r0!, {r1, r2, r3}
     e1c:	0130000e 	teqeq	r0, lr
     e20:	00ee035d 	rsceq	r0, lr, sp, asr r3
     e24:	cc010000 	stcgt	0, cr0, [r1], {0}
     e28:	01000003 	tsteq	r0, r3
     e2c:	0e4801a7 	dvfeq<illegal precision>p	f0, f0, f7
     e30:	0ea03000 	cdpeq	0, 10, cr3, cr0, cr0, {0}
     e34:	5d013000 	stcpl	0, cr3, [r1]
     e38:	01007804 	tsteq	r0, r4, lsl #16
     e3c:	0000eea6 	andeq	lr, r0, r6, lsr #29
     e40:	04500100 	ldreqb	r0, [r0], #-256
     e44:	a6010079 	undefined
     e48:	000000ee 	andeq	r0, r0, lr, ror #1
     e4c:	75055101 	strvc	r5, [r5, #-257]
     e50:	01000003 	tsteq	r0, r3
     e54:	0000eea6 	andeq	lr, r0, r6, lsr #29
     e58:	065c0100 	ldreqb	r0, [ip], -r0, lsl #2
     e5c:	00646572 	rsbeq	r6, r4, r2, ror r5
     e60:	00f5a801 	rsceqs	sl, r5, r1, lsl #16
     e64:	51010000 	tstpl	r1, r0
     e68:	00037b07 	andeq	r7, r3, r7, lsl #22
     e6c:	f5a80100 	strnv	r0, [r8, #256]!
     e70:	01000000 	tsteq	r0, r0
     e74:	03560753 	cmpeq	r6, #21757952	; 0x14c0000
     e78:	a8010000 	stmgeda	r1, {}
     e7c:	000000f5 	streqd	r0, [r0], -r5
     e80:	db075301 	blle	1d5a8c <DISABLE_IRQ+0x1d5a0c>
     e84:	01000004 	tsteq	r0, r4
     e88:	0000fcaa 	andeq	pc, r0, sl, lsr #25
     e8c:	00530100 	subeqs	r0, r3, r0, lsl #2
     e90:	0007b208 	andeq	fp, r7, r8, lsl #4
     e94:	08070400 	stmeqda	r7, {sl}
     e98:	000000ae 	andeq	r0, r0, lr, lsr #1
     e9c:	04090801 	streq	r0, [r9], #-2049
     ea0:	00000102 	andeq	r0, r0, r2, lsl #2
     ea4:	00034308 	andeq	r4, r3, r8, lsl #6
     ea8:	03070200 	tsteq	r7, #0	; 0x0
     eac:	00000144 	andeq	r0, r0, r4, asr #2
     eb0:	0003f501 	andeq	pc, r3, r1, lsl #10
     eb4:	01ba0100 	moveqs	r0, r0, lsl #2
     eb8:	30000ea0 	andcc	r0, r0, r0, lsr #29
     ebc:	30000f0c 	andcc	r0, r0, ip, lsl #30
     ec0:	75055d01 	strvc	r5, [r5, #-3329]
     ec4:	01000003 	tsteq	r0, r3
     ec8:	0000eeb9 	streqh	lr, [r0], -r9
     ecc:	06560100 	ldreqb	r0, [r6], -r0, lsl #2
     ed0:	bb010078 	bllt	410b8 <DISABLE_IRQ+0x41038>
     ed4:	000000ee 	andeq	r0, r0, lr, ror #1
     ed8:	79065401 	stmvcdb	r6, {r0, sl, ip, lr}
     edc:	eebb0100 	frde	f0, f3, f0
     ee0:	01000000 	tsteq	r0, r0
     ee4:	b3030055 	tstlt	r3, #85	; 0x55
     ee8:	01000001 	tsteq	r0, r1
     eec:	00000402 	andeq	r0, r0, r2, lsl #8
     ef0:	0c01c401 	cfstrseq	mvf12, [r1], {1}
     ef4:	6430000f 	ldrvst	r0, [r0], #-15
     ef8:	0130000f 	teqeq	r0, pc
     efc:	0392055d 	orreqs	r0, r2, #390070272	; 0x17400000
     f00:	c2010000 	andgt	r0, r1, #0	; 0x0
     f04:	000000ee 	andeq	r0, r0, lr, ror #1
     f08:	d7055801 	strle	r5, [r5, -r1, lsl #16]
     f0c:	01000003 	tsteq	r0, r3
     f10:	0000eec2 	andeq	lr, r0, r2, asr #29
     f14:	05510100 	ldreqb	r0, [r1, #-256]
     f18:	000003ad 	andeq	r0, r0, sp, lsr #7
     f1c:	00eec301 	rsceq	ip, lr, r1, lsl #6
     f20:	56010000 	strpl	r0, [r1], -r0
     f24:	0003c605 	andeq	ip, r3, r5, lsl #12
     f28:	eec30100 	pols	f0, f3, f0
     f2c:	01000000 	tsteq	r0, r0
     f30:	0375055a 	cmneq	r5, #377487360	; 0x16800000
     f34:	c3010000 	tstgt	r1, #0	; 0x0
     f38:	000000ee 	andeq	r0, r0, lr, ror #1
     f3c:	78065701 	stmvcda	r6, {r0, r8, r9, sl, ip, lr}
     f40:	eec50100 	pols	f0, f5, f0
     f44:	01000000 	tsteq	r0, r0
     f48:	00790654 	rsbeqs	r0, r9, r4, asr r6
     f4c:	00eec501 	rsceq	ip, lr, r1, lsl #10
     f50:	55010000 	strpl	r0, [r1]
     f54:	ec010200 	sfm	f0, 4, [r1], {0}
     f58:	01000003 	tsteq	r0, r3
     f5c:	000f64cd 	andeq	r6, pc, sp, asr #9
     f60:	000f8430 	andeq	r8, pc, r0, lsr r4
     f64:	0a5d0130 	beq	174142c <DISABLE_IRQ+0x17413ac>
     f68:	000003df 	ldreqd	r0, [r0], -pc
     f6c:	00ee9a01 	rsceq	r9, lr, r1, lsl #20
     f70:	05010000 	streq	r0, [r1]
     f74:	004b1403 	subeq	r1, fp, r3, lsl #8
     f78:	039a0a30 	orreqs	r0, sl, #196608	; 0x30000
     f7c:	9b010000 	blls	40f84 <DISABLE_IRQ+0x40f04>
     f80:	000000ee 	andeq	r0, r0, lr, ror #1
     f84:	10030501 	andne	r0, r3, r1, lsl #10
     f88:	0a30004b 	beq	c010bc <DISABLE_IRQ+0xc0103c>
     f8c:	00000361 	andeq	r0, r0, r1, ror #6
     f90:	00ee9c01 	rsceq	r9, lr, r1, lsl #24
     f94:	05010000 	streq	r0, [r1]
     f98:	004b0c03 	subeq	r0, fp, r3, lsl #24
     f9c:	01d40030 	biceqs	r0, r4, r0, lsr r0
     fa0:	00020000 	andeq	r0, r2, r0
     fa4:	0000068e 	andeq	r0, r0, lr, lsl #13
     fa8:	04a40104 	streqt	r0, [r4], #260
     fac:	0fe00000 	swieq	0x00e00000
     fb0:	0f843000 	swieq	0x00843000
     fb4:	00093000 	andeq	r3, r9, r0
     fb8:	3e010000 	cdpcc	0, 0, cr0, cr1, cr0, {0}
     fbc:	31000004 	tstcc	r0, r4
     fc0:	02000000 	andeq	r0, r0, #0	; 0x0
     fc4:	000007b2 	streqh	r0, [r0], -r2
     fc8:	55030704 	strpl	r0, [r3, #-1796]
     fcc:	db000000 	blle	fd4 <DISABLE_IRQ+0xf54>
     fd0:	08000000 	stmeqda	r0, {}
     fd4:	49040502 	stmmidb	r4, {r1, r8, sl}
     fd8:	02000001 	andeq	r0, r0, #1	; 0x1
     fdc:	00005506 	andeq	r5, r0, r6, lsl #10
     fe0:	00230200 	eoreq	r0, r3, r0, lsl #4
     fe4:	00013b04 	andeq	r3, r1, r4, lsl #22
     fe8:	55070200 	strpl	r0, [r7, #-512]
     fec:	02000000 	andeq	r0, r0, #0	; 0x0
     ff0:	05000423 	streq	r0, [r0, #-1059]
     ff4:	00002c04 	andeq	r2, r0, r4, lsl #24
     ff8:	00b70200 	adceqs	r0, r7, r0, lsl #4
     ffc:	08010000 	stmeqda	r1, {}
    1000:	746e6906 	strvcbt	r6, [lr], #-2310
    1004:	02050400 	andeq	r0, r5, #0	; 0x0
    1008:	000007c9 	andeq	r0, r0, r9, asr #15
    100c:	95070504 	strls	r0, [r7, #-1284]
    1010:	01000000 	tsteq	r0, r0
    1014:	00000450 	andeq	r0, r0, r0, asr r4
    1018:	84010401 	strhi	r0, [r1], #-1025
    101c:	9030000f 	eorlss	r0, r0, pc
    1020:	0130000f 	teqeq	r0, pc
    1024:	006c085d 	rsbeq	r0, ip, sp, asr r8
    1028:	03010000 	tsteq	r1, #0	; 0x0
    102c:	00000055 	andeq	r0, r0, r5, asr r0
    1030:	07005001 	streq	r5, [r0, -r1]
    1034:	000000c7 	andeq	r0, r0, r7, asr #1
    1038:	00042501 	andeq	r2, r4, r1, lsl #10
    103c:	01230100 	teqeq	r3, r0, lsl #2
    1040:	30000f90 	mulcc	r0, r0, pc
    1044:	30000f9c 	mulcc	r0, ip, pc
    1048:	49085d01 	stmmidb	r8, {r0, r8, sl, fp, ip, lr}
    104c:	01000001 	tsteq	r0, r1
    1050:	00005522 	andeq	r5, r0, r2, lsr #10
    1054:	08500100 	ldmeqda	r0, {r8}^
    1058:	0000013b 	andeq	r0, r0, fp, lsr r1
    105c:	00552201 	subeqs	r2, r5, r1, lsl #4
    1060:	51010000 	tstpl	r1, r0
    1064:	00ec0700 	rsceq	r0, ip, r0, lsl #14
    1068:	27010000 	strcs	r0, [r1, -r0]
    106c:	01000004 	tsteq	r0, r4
    1070:	0f9c0129 	swieq	0x009c0129
    1074:	0fa43000 	swieq	0x00a43000
    1078:	5d013000 	stcpl	0, cr3, [r1]
    107c:	00012208 	andeq	r2, r1, r8, lsl #4
    1080:	55280100 	strpl	r0, [r8, #-256]!
    1084:	01000000 	tsteq	r0, r0
    1088:	15090050 	strne	r0, [r9, #-80]
    108c:	01000001 	tsteq	r0, r1
    1090:	0000041a 	andeq	r0, r0, sl, lsl r4
    1094:	62013001 	andvs	r3, r1, #1	; 0x1
    1098:	a4000000 	strge	r0, [r0]
    109c:	b830000f 	ldmltda	r0!, {r0, r1, r2, r3}
    10a0:	0130000f 	teqeq	r0, pc
    10a4:	006c085d 	rsbeq	r0, ip, sp, asr r8
    10a8:	2f010000 	swics	0x00010000
    10ac:	00000055 	andeq	r0, r0, r5, asr r0
    10b0:	07005001 	streq	r5, [r0, -r1]
    10b4:	00000154 	andeq	r0, r0, r4, asr r1
    10b8:	00044501 	andeq	r4, r4, r1, lsl #10
    10bc:	01370100 	teqeq	r7, r0, lsl #2
    10c0:	30000fb8 	strcch	r0, [r0], -r8
    10c4:	30000fcc 	andcc	r0, r0, ip, asr #31
    10c8:	6e0a5d01 	cdpvs	13, 0, cr5, cr10, cr1, {0}
    10cc:	01007765 	tsteq	r0, r5, ror #14
    10d0:	00005534 	andeq	r5, r0, r4, lsr r5
    10d4:	08500100 	ldmeqda	r0, {r8}^
    10d8:	00000149 	andeq	r0, r0, r9, asr #2
    10dc:	00553501 	subeqs	r3, r5, r1, lsl #10
    10e0:	51010000 	tstpl	r1, r0
    10e4:	00013b08 	andeq	r3, r1, r8, lsl #22
    10e8:	55360100 	ldrpl	r0, [r6, #-256]!
    10ec:	01000000 	tsteq	r0, r0
    10f0:	86070052 	undefined
    10f4:	01000001 	tsteq	r0, r1
    10f8:	00000447 	andeq	r0, r0, r7, asr #8
    10fc:	cc013f01 	stcgt	15, cr3, [r1], {1}
    1100:	d430000f 	ldrlet	r0, [r0], #-15
    1104:	0130000f 	teqeq	r0, pc
    1108:	656e0a5d 	strvsb	r0, [lr, #-2653]!
    110c:	3e010077 	mcrcc	0, 0, r0, cr1, cr7, {3}
    1110:	00000055 	andeq	r0, r0, r5, asr r0
    1114:	6c085001 	stcvs	0, cr5, [r8], {1}
    1118:	01000000 	tsteq	r0, r0
    111c:	0000553e 	andeq	r5, r0, lr, lsr r5
    1120:	00510100 	subeqs	r0, r1, r0, lsl #2
    1124:	0001b807 	andeq	fp, r1, r7, lsl #16
    1128:	04300100 	ldreqt	r0, [r0], #-256
    112c:	44010000 	strmi	r0, [r1]
    1130:	000fd401 	andeq	sp, pc, r1, lsl #8
    1134:	000fe030 	andeq	lr, pc, r0, lsr r0
    1138:	0a5d0130 	beq	1741600 <DISABLE_IRQ+0x1741580>
    113c:	0077656e 	rsbeqs	r6, r7, lr, ror #10
    1140:	00554301 	subeqs	r4, r5, r1, lsl #6
    1144:	50010000 	andpl	r0, r1, r0
    1148:	00006c08 	andeq	r6, r0, r8, lsl #24
    114c:	55430100 	strplb	r0, [r3, #-256]
    1150:	01000000 	tsteq	r0, r0
    1154:	c30b0051 	tstgt	fp, #81	; 0x51
    1158:	c3000001 	tstgt	r0, #1	; 0x1
    115c:	0c000001 	stceq	0, cr0, [r0], {1}
    1160:	00ae0200 	adceq	r0, lr, r0, lsl #4
    1164:	08010000 	stmeqda	r1, {}
    1168:	0000f60d 	andeq	pc, r0, sp, lsl #12
    116c:	b8140300 	ldmltda	r4, {r8, r9}
    1170:	01000001 	tsteq	r0, r1
    1174:	01000001 	tsteq	r0, r1
    1178:	00020000 	andeq	r0, r2, r0
    117c:	0000074c 	andeq	r0, r0, ip, asr #14
    1180:	05130104 	ldreq	r0, [r3, #-260]
    1184:	10b40000 	adcnes	r0, r4, r0
    1188:	0fe03000 	swieq	0x00e03000
    118c:	00093000 	andeq	r3, r9, r0
    1190:	5f010000 	swipl	0x00010000
    1194:	31000004 	tstcc	r0, r4
    1198:	02000000 	andeq	r0, r0, #0	; 0x0
    119c:	0000c901 	andeq	ip, r0, r1, lsl #18
    11a0:	010f0100 	tsteq	pc, r0, lsl #2
    11a4:	30000fe0 	andcc	r0, r0, r0, ror #31
    11a8:	3000102c 	andcc	r1, r0, ip, lsr #32
    11ac:	5b035d01 	blpl	d85b8 <DISABLE_IRQ+0xd8538>
    11b0:	01000000 	tsteq	r0, r0
    11b4:	00000106 	andeq	r0, r0, r6, lsl #2
    11b8:	2c011b01 	stccs	11, cr1, [r1], {1}
    11bc:	48300010 	ldmmida	r0!, {r4}
    11c0:	01300010 	teqeq	r0, r0, lsl r0
    11c4:	0063045d 	rsbeq	r0, r3, sp, asr r4
    11c8:	005b1a01 	subeqs	r1, fp, r1, lsl #20
    11cc:	50010000 	andpl	r0, r1, r0
    11d0:	00ae0500 	adceq	r0, lr, r0, lsl #10
    11d4:	08010000 	stmeqda	r1, {}
    11d8:	00710106 	rsbeqs	r0, r1, r6, lsl #2
    11dc:	22010000 	andcs	r0, r1, #0	; 0x0
    11e0:	00005b01 	andeq	r5, r0, r1, lsl #22
    11e4:	00104800 	andeqs	r4, r0, r0, lsl #16
    11e8:	00106030 	andeqs	r6, r0, r0, lsr r0
    11ec:	035d0130 	cmpeq	sp, #12	; 0xc
    11f0:	0000009c 	muleq	r0, ip, r0
    11f4:	00013001 	andeq	r3, r1, r1
    11f8:	01290100 	teqeq	r9, r0, lsl #2
    11fc:	30001060 	andcc	r1, r0, r0, rrx
    1200:	30001088 	andcc	r1, r0, r8, lsl #1
    1204:	73045d01 	tstvc	r4, #64	; 0x40
    1208:	9c280100 	stflss	f0, [r8]
    120c:	01000000 	tsteq	r0, r0
    1210:	04070054 	streq	r0, [r7], #-84
    1214:	0000005b 	andeq	r0, r0, fp, asr r0
    1218:	0000c908 	andeq	ip, r0, r8, lsl #18
    121c:	045a0100 	ldreqb	r0, [sl], #-256
    1220:	2f010000 	swics	0x00010000
    1224:	00009c01 	andeq	r9, r0, r1, lsl #24
    1228:	00108800 	andeqs	r8, r0, r0, lsl #16
    122c:	0010b430 	andeqs	fp, r0, r0, lsr r4
    1230:	045d0130 	ldreqb	r0, [sp], #-304
    1234:	2e010073 	mcrcs	0, 0, r0, cr1, cr3, {3}
    1238:	0000009c 	muleq	r0, ip, r0
    123c:	09005401 	stmeqdb	r0, {r0, sl, ip, lr}
    1240:	000000da 	ldreqd	r0, [r0], -sl
    1244:	0000005b 	andeq	r0, r0, fp, asr r0
    1248:	0000da0a 	andeq	sp, r0, sl, lsl #20
    124c:	0003ff00 	andeq	pc, r3, r0, lsl #30
    1250:	0007b205 	andeq	fp, r7, r5, lsl #4
    1254:	0b070400 	bleq	1c225c <DISABLE_IRQ+0x1c21dc>
    1258:	00000466 	andeq	r0, r0, r6, ror #8
    125c:	00c90701 	sbceq	r0, r9, r1, lsl #14
    1260:	03050000 	tsteq	r5, #0	; 0x0
    1264:	30008c1c 	andcc	r8, r0, ip, lsl ip
    1268:	0004710b 	andeq	r7, r4, fp, lsl #2
    126c:	c9080100 	stmgtdb	r8, {r8}
    1270:	05000000 	streq	r0, [r0]
    1274:	00901c03 	addeqs	r1, r0, r3, lsl #24
    1278:	06520030 	undefined
    127c:	00020000 	andeq	r0, r2, r0
    1280:	00000800 	andeq	r0, r0, r0, lsl #16
    1284:	05610104 	streqb	r0, [r1, #-260]!
    1288:	15ec0000 	strneb	r0, [ip]!
    128c:	10b43000 	adcnes	r3, r4, r0
    1290:	00093000 	andeq	r3, r9, r0
    1294:	15010000 	strne	r0, [r1]
    1298:	31000005 	tstcc	r0, r5
    129c:	02000000 	andeq	r0, r0, #0	; 0x0
    12a0:	00000078 	andeq	r0, r0, r8, ror r0
    12a4:	000004ff 	streqd	r0, [r0], -pc
    12a8:	03200244 	teqeq	r0, #1073741828	; 0x40000004
    12ac:	00000550 	andeq	r0, r0, r0, asr r5
    12b0:	00782202 	rsbeqs	r2, r8, r2, lsl #4
    12b4:	23020000 	tstcs	r2, #0	; 0x0
    12b8:	055c0300 	ldreqb	r0, [ip, #-768]
    12bc:	23020000 	tstcs	r2, #0	; 0x0
    12c0:	00000096 	muleq	r0, r6, r0
    12c4:	03342302 	teqeq	r4, #134217728	; 0x8000000
    12c8:	000005a3 	andeq	r0, r0, r3, lsr #11
    12cc:	00962502 	addeqs	r2, r6, r2, lsl #10
    12d0:	23020000 	tstcs	r2, #0	; 0x0
    12d4:	050f0338 	streq	r0, [pc, #-824]	; fa4 <DISABLE_IRQ+0xf24>
    12d8:	26020000 	strcs	r0, [r2], -r0
    12dc:	00000096 	muleq	r0, r6, r0
    12e0:	033c2302 	teqeq	ip, #134217728	; 0x8000000
    12e4:	00000584 	andeq	r0, r0, r4, lsl #11
    12e8:	00d42702 	sbceqs	r2, r4, r2, lsl #14
    12ec:	23020000 	tstcs	r2, #0	; 0x0
    12f0:	88040040 	stmhida	r4, {r6}
    12f4:	8f000000 	swihi	0x00000000
    12f8:	05000000 	streq	r0, [r0]
    12fc:	00000088 	andeq	r0, r0, r8, lsl #1
    1300:	b2060031 	andlt	r0, r6, #49	; 0x31
    1304:	04000007 	streq	r0, [r0], #-7
    1308:	00b70607 	adceqs	r0, r7, r7, lsl #12
    130c:	08010000 	stmeqda	r1, {}
    1310:	0007b206 	andeq	fp, r7, r6, lsl #4
    1314:	02070400 	andeq	r0, r7, #0	; 0x0
    1318:	000000d4 	ldreqd	r0, [r0], -r4
    131c:	000004e8 	andeq	r0, r0, r8, ror #9
    1320:	0327020c 	teqeq	r7, #-1073741824	; 0xc0000000
    1324:	000005c0 	andeq	r0, r0, r0, asr #11
    1328:	00fb2c02 	rsceqs	r2, fp, r2, lsl #24
    132c:	23020000 	tstcs	r2, #0	; 0x0
    1330:	050b0300 	streq	r0, [fp, #-768]
    1334:	2d020000 	stccs	0, cr0, [r2]
    1338:	00000111 	andeq	r0, r0, r1, lsl r1
    133c:	03042302 	tsteq	r4, #134217728	; 0x8000000
    1340:	00000550 	andeq	r0, r0, r0, asr r5
    1344:	00f53002 	rsceqs	r3, r5, r2
    1348:	23020000 	tstcs	r2, #0	; 0x0
    134c:	04070008 	streq	r0, [r7], #-8
    1350:	0000009d 	muleq	r0, sp, r0
    1354:	0000ef08 	andeq	lr, r0, r8, lsl #30
    1358:	00ef0100 	rsceq	r0, pc, r0, lsl #2
    135c:	d4090000 	strle	r0, [r9]
    1360:	09000000 	stmeqdb	r0, {}
    1364:	000000f5 	streqd	r0, [r0], -r5
    1368:	25040700 	strcs	r0, [r4, #-1792]
    136c:	07000000 	streq	r0, [r0, -r0]
    1370:	00008f04 	andeq	r8, r0, r4, lsl #30
    1374:	da040700 	ble	102f7c <DISABLE_IRQ+0x102efc>
    1378:	08000000 	stmeqda	r0, {}
    137c:	00000111 	andeq	r0, r0, r1, lsl r1
    1380:	00009601 	andeq	r9, r0, r1, lsl #12
    1384:	00ef0900 	rsceq	r0, pc, r0, lsl #18
    1388:	07000000 	streq	r0, [r0, -r0]
    138c:	00010104 	andeq	r0, r1, r4, lsl #2
    1390:	00ae0600 	adceq	r0, lr, r0, lsl #12
    1394:	08010000 	stmeqda	r1, {}
    1398:	00034306 	andeq	r4, r3, r6, lsl #6
    139c:	02070200 	andeq	r0, r7, #0	; 0x0
    13a0:	0000015c 	andeq	r0, r0, ip, asr r1
    13a4:	0000053e 	andeq	r0, r0, lr, lsr r5
    13a8:	030c040c 	tsteq	ip, #201326592	; 0xc000000
    13ac:	00000166 	andeq	r0, r0, r6, ror #2
    13b0:	015c0c01 	cmpeq	ip, r1, lsl #24
    13b4:	23020000 	tstcs	r2, #0	; 0x0
    13b8:	01800300 	orreq	r0, r0, r0, lsl #6
    13bc:	0d010000 	stceq	0, cr0, [r1]
    13c0:	0000015c 	andeq	r0, r0, ip, asr r1
    13c4:	03042302 	tsteq	r4, #134217728	; 0x8000000
    13c8:	00000193 	muleq	r0, r3, r1
    13cc:	00ef0e01 	rsceq	r0, pc, r1, lsl #28
    13d0:	23020000 	tstcs	r2, #0	; 0x0
    13d4:	690a0008 	stmvsdb	sl, {r3}
    13d8:	0400746e 	streq	r7, [r0], #-1134
    13dc:	01b60205 	moveqs	r0, r5, lsl #4
    13e0:	04e20000 	streqbt	r0, [r2]
    13e4:	01100000 	tsteq	r0, r0
    13e8:	047b0311 	ldreqbt	r0, [fp], #-785
    13ec:	12010000 	andne	r0, r1, #0	; 0x0
    13f0:	00000096 	muleq	r0, r6, r0
    13f4:	03002302 	tsteq	r0, #134217728	; 0x8000000
    13f8:	00000481 	andeq	r0, r0, r1, lsl #9
    13fc:	00961301 	addeqs	r1, r6, r1, lsl #6
    1400:	23020000 	tstcs	r2, #0	; 0x0
    1404:	05ae0304 	streq	r0, [lr, #772]!
    1408:	14010000 	strne	r0, [r1]
    140c:	00000096 	muleq	r0, r6, r0
    1410:	03082302 	tsteq	r8, #134217728	; 0x8000000
    1414:	000004c8 	andeq	r0, r0, r8, asr #9
    1418:	00961501 	addeqs	r1, r6, r1, lsl #10
    141c:	23020000 	tstcs	r2, #0	; 0x0
    1420:	0550030c 	ldreqb	r0, [r0, #-780]
    1424:	16010000 	strne	r0, [r1], -r0
    1428:	000001b6 	streqh	r0, [r0], -r6
    142c:	00102302 	andeqs	r2, r0, r2, lsl #6
    1430:	0001c504 	andeq	ip, r1, r4, lsl #10
    1434:	00008f00 	andeq	r8, r0, r0, lsl #30
    1438:	00880b00 	addeq	r0, r8, r0, lsl #22
    143c:	02000000 	andeq	r0, r0, #0	; 0x0
    1440:	00000218 	andeq	r0, r0, r8, lsl r2
    1444:	000004f9 	streqd	r0, [r0], -r9
    1448:	03190110 	tsteq	r9, #4	; 0x4
    144c:	0000013b 	andeq	r0, r0, fp, lsr r1
    1450:	00961a01 	addeqs	r1, r6, r1, lsl #20
    1454:	23020000 	tstcs	r2, #0	; 0x0
    1458:	057f0300 	ldreqb	r0, [pc, #-768]!	; 1160 <DISABLE_IRQ+0x10e0>
    145c:	1b010000 	blne	41464 <DISABLE_IRQ+0x413e4>
    1460:	00000096 	muleq	r0, r6, r0
    1464:	03042302 	tsteq	r4, #134217728	; 0x8000000
    1468:	000005ae 	andeq	r0, r0, lr, lsr #11
    146c:	00961c01 	addeqs	r1, r6, r1, lsl #24
    1470:	23020000 	tstcs	r2, #0	; 0x0
    1474:	04c80308 	streqb	r0, [r8], #776
    1478:	1d010000 	stcne	0, cr0, [r1]
    147c:	00000096 	muleq	r0, r6, r0
    1480:	030c2302 	tsteq	ip, #134217728	; 0x8000000
    1484:	00000550 	andeq	r0, r0, r0, asr r5
    1488:	02181e01 	andeqs	r1, r8, #16	; 0x10
    148c:	23020000 	tstcs	r2, #0	; 0x0
    1490:	27040010 	smladcs	r4, r0, r0, r0
    1494:	8f000002 	swihi	0x00000002
    1498:	0b000000 	bleq	14a0 <DISABLE_IRQ+0x1420>
    149c:	00000088 	andeq	r0, r0, r8, lsl #1
    14a0:	02720c00 	rsbeqs	r0, r2, #0	; 0x0
    14a4:	04960000 	ldreq	r0, [r6]
    14a8:	2b010000 	blcs	414b0 <DISABLE_IRQ+0x41430>
    14ac:	0000f501 	andeq	pc, r0, r1, lsl #10
    14b0:	0010b400 	andeqs	fp, r0, r0, lsl #8
    14b4:	00110830 	andeqs	r0, r1, r0, lsr r8
    14b8:	0d5d0130 	ldfeqe	f0, [sp, #-192]
    14bc:	00706d74 	rsbeqs	r6, r0, r4, ror sp
    14c0:	00f52b01 	rsceqs	r2, r5, r1, lsl #22
    14c4:	56010000 	strpl	r0, [r1], -r0
    14c8:	7269640d 	rsbvc	r6, r9, #218103808	; 0xd000000
    14cc:	f52b0100 	strnv	r0, [fp, #-256]!
    14d0:	01000000 	tsteq	r0, r0
    14d4:	006e0e54 	rsbeq	r0, lr, r4, asr lr
    14d8:	00962c01 	addeqs	r2, r6, r1, lsl #24
    14dc:	52010000 	andpl	r0, r1, #0	; 0x0
    14e0:	0100700e 	tsteq	r0, lr
    14e4:	0000f52d 	andeq	pc, r0, sp, lsr #10
    14e8:	00550100 	subeqs	r0, r5, r0, lsl #2
    14ec:	0002b70f 	andeq	fp, r2, pc, lsl #14
    14f0:	05050100 	streq	r0, [r5, #-256]
    14f4:	48010000 	stmmida	r1, {}
    14f8:	00009601 	andeq	r9, r0, r1, lsl #12
    14fc:	00110800 	andeqs	r0, r1, r0, lsl #16
    1500:	00114c30 	andeqs	r4, r1, r0, lsr ip
    1504:	105d0130 	subnes	r0, sp, r0, lsr r1
    1508:	00000500 	andeq	r0, r0, r0, lsl #10
    150c:	00ef4801 	rsceq	r4, pc, r1, lsl #16
    1510:	54010000 	strpl	r0, [r1]
    1514:	0005a911 	andeq	sl, r5, r1, lsl r9
    1518:	5c490100 	stfple	f0, [r9], {0}
    151c:	01000001 	tsteq	r0, r1
    1520:	12011255 	andne	r1, r1, #1342177285	; 0x50000005
    1524:	01000001 	tsteq	r0, r1
    1528:	00015c4b 	andeq	r5, r1, fp, asr #24
    152c:	00130100 	andeqs	r0, r3, r0, lsl #2
    1530:	03c41400 	biceq	r1, r4, #0	; 0x0
    1534:	b3010000 	tstlt	r1, #0	; 0x0
    1538:	01000005 	tsteq	r0, r5
    153c:	114c0155 	cmpne	ip, r5, asr r1
    1540:	13f43000 	mvnnes	r3, #0	; 0x0
    1544:	5d013000 	stcpl	0, cr3, [r1]
    1548:	0004ff10 	andeq	pc, r4, r0, lsl pc
    154c:	ef540100 	swi	0x00540100
    1550:	01000000 	tsteq	r0, r0
    1554:	04ee105b 	streqbt	r1, [lr], #91
    1558:	54010000 	strpl	r0, [r1]
    155c:	000000d4 	ldreqd	r0, [r0], -r4
    1560:	640d5101 	strvs	r5, [sp], #-257
    1564:	01007269 	tsteq	r0, r9, ror #4
    1568:	0000f554 	andeq	pc, r0, r4, asr r5
    156c:	0e580100 	rdfeqe	f0, f0, f0
    1570:	56010070 	undefined
    1574:	000003c4 	andeq	r0, r0, r4, asr #7
    1578:	e0155701 	ands	r5, r5, r1, lsl #14
    157c:	01000004 	tsteq	r0, r4
    1580:	0003ca57 	andeq	ip, r3, r7, asr sl
    1584:	6d740e00 	ldcvsl	14, cr0, [r4]
    1588:	59010070 	stmpldb	r1, {r4, r5, r6}
    158c:	00000096 	muleq	r0, r6, r0
    1590:	3b115601 	blcc	456d9c <DISABLE_IRQ+0x456d1c>
    1594:	01000001 	tsteq	r0, r1
    1598:	00009659 	andeq	r9, r0, r9, asr r6
    159c:	16540100 	ldrneb	r0, [r4], -r0, lsl #2
    15a0:	006d756e 	rsbeq	r7, sp, lr, ror #10
    15a4:	00965901 	addeqs	r5, r6, r1, lsl #18
    15a8:	50110000 	andpls	r0, r1, r0
    15ac:	01000005 	tsteq	r0, r5
    15b0:	0003d05a 	andeq	sp, r3, sl, asr r0
    15b4:	84910300 	ldrhi	r0, [r1], #768
    15b8:	04871101 	streq	r1, [r7], #257
    15bc:	5a010000 	bpl	415c4 <DISABLE_IRQ+0x41544>
    15c0:	000003d0 	ldreqd	r0, [r0], -r0
    15c4:	17049102 	strne	r9, [r4, -r2, lsl #2]
    15c8:	00000360 	andeq	r0, r0, r0, ror #6
    15cc:	00011201 	andeq	r1, r1, r1, lsl #4
    15d0:	5c4b0100 	stfple	f0, [fp], {0}
    15d4:	01000001 	tsteq	r0, r1
    15d8:	c6180013 	undefined
    15dc:	01000005 	tsteq	r0, r5
    15e0:	001368bd 	ldreqh	r6, [r3], -sp
    15e4:	048d1830 	streq	r1, [sp], #2096
    15e8:	a7010000 	strge	r0, [r1, -r0]
    15ec:	30001320 	andcc	r1, r0, r0, lsr #6
    15f0:	00056f18 	andeq	r6, r5, r8, lsl pc
    15f4:	58d80100 	ldmplia	r8, {r8}^
    15f8:	18300013 	ldmneda	r0!, {r0, r1, r4}
    15fc:	0000058a 	andeq	r0, r0, sl, lsl #11
    1600:	1358d601 	cmpne	r8, #1048576	; 0x100000
    1604:	62183000 	andvss	r3, r8, #0	; 0x0
    1608:	01000005 	tsteq	r0, r5
    160c:	001358da 	ldreqsb	r5, [r3], -sl
    1610:	03e01930 	mvneq	r1, #786432	; 0xc0000
    1614:	11680000 	cmnne	r8, r0
    1618:	119c3000 	orrnes	r3, ip, r0
    161c:	f11a3000 	tstnv	sl, r0
    1620:	1a000003 	bne	1634 <DISABLE_IRQ+0x15b4>
    1624:	000003fa 	streqd	r0, [r0], -sl
    1628:	0000801b 	andeq	r8, r0, fp, lsl r0
    162c:	04051c00 	streq	r1, [r5], #-3072
    1630:	52010000 	andpl	r0, r1, #0	; 0x0
    1634:	0004101c 	andeq	r1, r4, ip, lsl r0
    1638:	005c0100 	subeqs	r0, ip, r0, lsl #2
    163c:	04070000 	streq	r0, [r7]
    1640:	000001c5 	andeq	r0, r0, r5, asr #3
    1644:	01630407 	cmneq	r3, r7, lsl #8
    1648:	e0040000 	and	r0, r4, r0
    164c:	8f000003 	swihi	0x00000003
    1650:	05000000 	streq	r0, [r0]
    1654:	00000088 	andeq	r0, r0, r8, lsl #1
    1658:	1c1d007f 	ldcne	0, cr0, [sp], {127}
    165c:	43000004 	tstmi	r0, #4	; 0x4
    1660:	01000005 	tsteq	r0, r5
    1664:	00f50138 	rsceqs	r0, r5, r8, lsr r1
    1668:	1e010000 	cdpne	0, 0, cr0, cr1, cr0, {0}
    166c:	38010070 	stmccda	r1, {r4, r5, r6}
    1670:	000000f5 	streqd	r0, [r0], -r5
    1674:	0005501f 	andeq	r5, r5, pc, lsl r0
    1678:	f5380100 	ldrnv	r0, [r8, #-256]!
    167c:	16000000 	strne	r0, [r0], -r0
    1680:	00706d74 	rsbeqs	r6, r0, r4, ror sp
    1684:	00f53901 	rsceqs	r3, r5, r1, lsl #18
    1688:	ad150000 	ldcge	0, cr0, [r5]
    168c:	01000004 	tsteq	r0, r4
    1690:	00015c3a 	andeq	r5, r1, sl, lsr ip
    1694:	690f0000 	stmvsdb	pc, {}
    1698:	01000004 	tsteq	r0, r4
    169c:	00000045 	andeq	r0, r0, r5, asr #32
    16a0:	5c01e201 	sfmpl	f6, 1, [r1], {1}
    16a4:	f4000001 	strnv	r0, [r0], #-1
    16a8:	74300013 	ldrvct	r0, [r0], #-19
    16ac:	01300014 	teqeq	r0, r4, lsl r0
    16b0:	0076105d 	rsbeqs	r1, r6, sp, asr r0
    16b4:	e1010000 	tst	r1, r0
    16b8:	00000469 	andeq	r0, r0, r9, ror #8
    16bc:	5c105601 	ldcpl	6, cr5, [r0], {1}
    16c0:	01000005 	tsteq	r0, r5
    16c4:	00015ce1 	andeq	r5, r1, r1, ror #25
    16c8:	0e570100 	rdfeqs	f0, f7, f0
    16cc:	e3010069 	tst	r1, #105	; 0x69
    16d0:	0000015c 	andeq	r0, r0, ip, asr r1
    16d4:	660e5401 	strvs	r5, [lr], -r1, lsl #8
    16d8:	e3010064 	tst	r1, #100	; 0x64
    16dc:	0000015c 	andeq	r0, r0, ip, asr r1
    16e0:	07005501 	streq	r5, [r0, -r1, lsl #10]
    16e4:	00046f04 	andeq	r6, r4, r4, lsl #30
    16e8:	008f2000 	addeq	r2, pc, r0
    16ec:	f60f0000 	strnv	r0, [pc], -r0
    16f0:	01000004 	tsteq	r0, r4
    16f4:	00000305 	andeq	r0, r0, r5, lsl #6
    16f8:	5c01fa01 	stcpl	10, cr15, [r1], {1}
    16fc:	74000001 	strvc	r0, [r0], #-1
    1700:	08300014 	ldmeqda	r0!, {r2, r4}
    1704:	01300015 	teqeq	r0, r5, lsl r0
    1708:	64660d5d 	strvsbt	r0, [r6], #-3421
    170c:	5cf90100 	ldfple	f0, [r9]
    1710:	01000001 	tsteq	r0, r1
    1714:	04a61054 	streqt	r1, [r6], #84
    1718:	f9010000 	stmnvdb	r1, {}
    171c:	000000f5 	streqd	r0, [r0], -r5
    1720:	9b105801 	blls	41772c <DISABLE_IRQ+0x4176ac>
    1724:	01000004 	tsteq	r0, r4
    1728:	00015cf9 	streqd	r5, [r1], -r9
    172c:	16520100 	ldrneb	r0, [r2], -r0, lsl #2
    1730:	fb010069 	blx	418de <DISABLE_IRQ+0x4185e>
    1734:	0000015c 	andeq	r0, r0, ip, asr r1
    1738:	0004d111 	andeq	sp, r4, r1, lsl r1
    173c:	96fc0100 	ldrlsbt	r0, [ip], r0, lsl #2
    1740:	01000000 	tsteq	r0, r0
    1744:	05551155 	ldreqb	r1, [r5, #-341]
    1748:	fe010000 	cdp2	0, 0, cr0, cr1, cr0, {0}
    174c:	000000ef 	andeq	r0, r0, pc, ror #1
    1750:	a1215701 	teqge	r1, r1, lsl #14
    1754:	01000004 	tsteq	r0, r4
    1758:	00f50102 	rsceqs	r0, r5, r2, lsl #2
    175c:	54010000 	strpl	r0, [r1]
    1760:	01120112 	tsteq	r2, r2, lsl r1
    1764:	4b010000 	blmi	4176c <DISABLE_IRQ+0x416ec>
    1768:	0000015c 	andeq	r0, r0, ip, asr r1
    176c:	00001301 	andeq	r1, r0, r1, lsl #6
    1770:	00052022 	andeq	r2, r5, r2, lsr #32
    1774:	01350100 	teqeq	r5, r0, lsl #2
    1778:	1e010000 	cdpne	0, 0, cr0, cr1, cr0, {0}
    177c:	015c0101 	cmpeq	ip, r1, lsl #2
    1780:	15080000 	strne	r0, [r8]
    1784:	153c3000 	ldrne	r3, [ip]!
    1788:	5d013000 	stcpl	0, cr3, [r1]
    178c:	00646623 	rsbeq	r6, r4, r3, lsr #12
    1790:	5c011d01 	stcpl	13, cr1, [r1], {1}
    1794:	01000001 	tsteq	r0, r1
    1798:	cf240055 	swigt	0x00240055
    179c:	01000005 	tsteq	r0, r5
    17a0:	00000119 	andeq	r0, r0, r9, lsl r1
    17a4:	01012901 	tsteq	r1, r1, lsl #18
    17a8:	3000153c 	andcc	r1, r0, ip, lsr r5
    17ac:	300015ec 	andcc	r1, r0, ip, ror #11
    17b0:	70255d01 	eorvc	r5, r5, r1, lsl #26
    17b4:	012a0100 	teqeq	sl, r0, lsl #2
    17b8:	000003c4 	andeq	r0, r0, r4, asr #7
    17bc:	e0265601 	eor	r5, r6, r1, lsl #12
    17c0:	01000004 	tsteq	r0, r4
    17c4:	03ca012b 	biceq	r0, sl, #-1073741814	; 0xc000000a
    17c8:	74250000 	strvct	r0, [r5]
    17cc:	0100706d 	tsteq	r0, sp, rrx
    17d0:	0096012d 	addeqs	r0, r6, sp, lsr #2
    17d4:	54010000 	strpl	r0, [r1]
    17d8:	00013b21 	andeq	r3, r1, r1, lsr #22
    17dc:	012d0100 	teqeq	sp, r0, lsl #2
    17e0:	00000096 	muleq	r0, r6, r0
    17e4:	6e275c01 	cdpvs	12, 2, cr5, cr7, cr1, {0}
    17e8:	01006d75 	tsteq	r0, r5, ror sp
    17ec:	0096012d 	addeqs	r0, r6, sp, lsr #2
    17f0:	50210000 	eorpl	r0, r1, r0
    17f4:	01000005 	tsteq	r0, r5
    17f8:	03d0012e 	biceqs	r0, r0, #-2147483637	; 0x8000000b
    17fc:	91030000 	tstls	r3, r0
    1800:	87210180 	strhi	r0, [r1, -r0, lsl #3]!
    1804:	01000004 	tsteq	r0, r4
    1808:	03d0012e 	biceqs	r0, r0, #-2147483637	; 0x8000000b
    180c:	91020000 	tstls	r2, r0
    1810:	05aa1700 	streq	r1, [sl, #1792]!
    1814:	12010000 	andne	r0, r1, #0	; 0x0
    1818:	01000001 	tsteq	r0, r1
    181c:	00015c4b 	andeq	r5, r1, fp, asr #24
    1820:	00130100 	andeqs	r0, r3, r0, lsl #2
    1824:	00056f28 	andeq	r6, r5, r8, lsr #30
    1828:	015c0100 	cmpeq	ip, r0, lsl #2
    182c:	300015cc 	andcc	r1, r0, ip, asr #11
    1830:	00058a28 	andeq	r8, r5, r8, lsr #20
    1834:	015a0100 	cmpeq	sl, r0, lsl #2
    1838:	300015cc 	andcc	r1, r0, ip, asr #11
    183c:	00056228 	andeq	r6, r5, r8, lsr #4
    1840:	015e0100 	cmpeq	lr, r0, lsl #2
    1844:	300015cc 	andcc	r1, r0, ip, asr #11
    1848:	05da0400 	ldreqb	r0, [sl, #1024]
    184c:	01170000 	tsteq	r7, r0
    1850:	00290000 	eoreq	r0, r9, r0
    1854:	0000f62a 	andeq	pc, r0, sl, lsr #12
    1858:	cf140300 	swigt	0x00140300
    185c:	01000005 	tsteq	r0, r5
    1860:	04f92b01 	ldreqbt	r2, [r9], #2817
    1864:	51010000 	tstpl	r1, r0
    1868:	000001c5 	andeq	r0, r0, r5, asr #3
    186c:	98030501 	stmlsda	r3, {r0, r8, sl}
    1870:	2b30009c 	blcs	c01ae8 <DISABLE_IRQ+0xc01a68>
    1874:	000004e2 	andeq	r0, r0, r2, ror #9
    1878:	01635201 	cmneq	r3, r1, lsl #4
    187c:	05010000 	streq	r0, [r1]
    1880:	009c4403 	addeqs	r4, ip, r3, lsl #8
    1884:	04f42b30 	ldreqbt	r2, [r4], #2864
    1888:	de010000 	cdple	0, 0, cr0, cr1, cr0, {0}
    188c:	00000025 	andeq	r0, r0, r5, lsr #32
    1890:	54030501 	strpl	r0, [r3], #-1281
    1894:	2b30009c 	blcs	c01b0c <DISABLE_IRQ+0xc01a8c>
    1898:	00000538 	andeq	r0, r0, r8, lsr r5
    189c:	0125df01 	teqeq	r5, r1, lsl #30
    18a0:	05010000 	streq	r0, [r1]
    18a4:	009c3803 	addeqs	r3, ip, r3, lsl #16
    18a8:	04b32c30 	ldreqt	r2, [r3], #3120
    18ac:	25010000 	strcs	r0, [r1]
    18b0:	0001c501 	andeq	ip, r1, r1, lsl #10
    18b4:	03050100 	tsteq	r5, #0	; 0x0
    18b8:	30009c28 	andcc	r9, r0, r8, lsr #24
    18bc:	00051d2c 	andeq	r1, r5, ip, lsr #26
    18c0:	01260100 	teqeq	r6, r0, lsl #2
    18c4:	00000163 	andeq	r0, r0, r3, ror #2
    18c8:	a8030501 	stmgeda	r3, {r0, r8, sl}
    18cc:	0030009c 	mlaeqs	r0, ip, r0, r0
    18d0:	00000716 	andeq	r0, r0, r6, lsl r7
    18d4:	0a610002 	beq	18418e4 <DISABLE_IRQ+0x1841864>
    18d8:	01040000 	tsteq	r4, r0
    18dc:	000006a1 	andeq	r0, r0, r1, lsr #13
    18e0:	30002478 	andcc	r2, r0, r8, ror r4
    18e4:	300015ec 	andcc	r1, r0, ip, ror #11
    18e8:	00000009 	andeq	r0, r0, r9
    18ec:	00069101 	andeq	r9, r6, r1, lsl #2
    18f0:	00003100 	andeq	r3, r0, r0, lsl #2
    18f4:	00940200 	addeqs	r0, r4, r0, lsl #4
    18f8:	06210000 	streqt	r0, [r1], -r0
    18fc:	022c0000 	eoreq	r0, ip, #0	; 0x0
    1900:	05cc0327 	streqb	r0, [ip, #807]
    1904:	28020000 	stmcsda	r2, {}
    1908:	00000094 	muleq	r0, r4, r0
    190c:	03002302 	tsteq	r0, #134217728	; 0x8000000
    1910:	00000619 	andeq	r0, r0, r9, lsl r6
    1914:	00942902 	addeqs	r2, r4, r2, lsl #18
    1918:	23020000 	tstcs	r2, #0	; 0x0
    191c:	06820301 	streq	r0, [r2], r1, lsl #6
    1920:	2a020000 	bcs	81928 <DISABLE_IRQ+0x818a8>
    1924:	0000009b 	muleq	r0, fp, r0
    1928:	03022302 	tsteq	r2, #134217728	; 0x8000000
    192c:	00000714 	andeq	r0, r0, r4, lsl r7
    1930:	00a22b02 	adceq	r2, r2, r2, lsl #22
    1934:	23020000 	tstcs	r2, #0	; 0x0
    1938:	064b0304 	streqb	r0, [fp], -r4, lsl #6
    193c:	2c020000 	stccs	0, cr0, [r2], {0}
    1940:	000000b9 	streqh	r0, [r0], -r9
    1944:	03142302 	tsteq	r4, #134217728	; 0x8000000
    1948:	00000654 	andeq	r0, r0, r4, asr r6
    194c:	00c92d02 	sbceq	r2, r9, r2, lsl #26
    1950:	23020000 	tstcs	r2, #0	; 0x0
    1954:	05d40324 	ldreqb	r0, [r4, #804]
    1958:	2e020000 	cdpcs	0, 0, cr0, cr2, cr0, {0}
    195c:	000000c9 	andeq	r0, r0, r9, asr #1
    1960:	00282302 	eoreq	r2, r8, r2, lsl #6
    1964:	0000ae04 	andeq	sl, r0, r4, lsl #28
    1968:	04080100 	streq	r0, [r8], #-256
    196c:	00000343 	andeq	r0, r0, r3, asr #6
    1970:	b2050702 	andlt	r0, r5, #524288	; 0x80000
    1974:	94000000 	strls	r0, [r0]
    1978:	06000000 	streq	r0, [r0], -r0
    197c:	000000b2 	streqh	r0, [r0], -r2
    1980:	b204000f 	andlt	r0, r4, #15	; 0xf
    1984:	04000007 	streq	r0, [r0], #-7
    1988:	00c90507 	sbceq	r0, r9, r7, lsl #10
    198c:	00c90000 	sbceq	r0, r9, r0
    1990:	b2060000 	andlt	r0, r6, #0	; 0x0
    1994:	03000000 	tsteq	r0, #0	; 0x0
    1998:	07b20400 	ldreq	r0, [r2, r0, lsl #8]!
    199c:	07040000 	streq	r0, [r4, -r0]
    19a0:	0000b704 	andeq	fp, r0, r4, lsl #14
    19a4:	07080100 	streq	r0, [r8, -r0, lsl #2]
    19a8:	0000016d 	andeq	r0, r0, sp, ror #2
    19ac:	00062901 	andeq	r2, r6, r1, lsl #18
    19b0:	01f10100 	mvneqs	r0, r0, lsl #2
    19b4:	000000c9 	andeq	r0, r0, r9, asr #1
    19b8:	300015ec 	andcc	r1, r0, ip, ror #11
    19bc:	300016f0 	strccd	r1, [r0], -r0
    19c0:	63085d01 	tstvs	r8, #64	; 0x40
    19c4:	0100646d 	tsteq	r0, sp, ror #8
    19c8:	00016df0 	streqd	r6, [r1], -r0
    19cc:	09500100 	ldmeqdb	r0, {r8}^
    19d0:	000006e9 	andeq	r0, r0, r9, ror #13
    19d4:	016df001 	msreq	SPSR_fsc, r1
    19d8:	51010000 	tstpl	r1, r0
    19dc:	0005e80a 	andeq	lr, r5, sl, lsl #16
    19e0:	6df20100 	ldfvse	f0, [r2]
    19e4:	01000001 	tsteq	r0, r1
    19e8:	01360b52 	teqeq	r6, r2, asr fp
    19ec:	15f80000 	ldrneb	r0, [r8]!
    19f0:	16243000 	strnet	r3, [r4], -r0
    19f4:	010c3000 	tsteq	ip, r0
    19f8:	00000112 	andeq	r0, r0, r2, lsl r1
    19fc:	016d4a01 	cmneq	sp, r1, lsl #20
    1a00:	0d010000 	stceq	0, cr0, [r1]
    1a04:	530b0000 	tstpl	fp, #0	; 0x0
    1a08:	94000001 	strls	r0, [r0], #-1
    1a0c:	a8300016 	ldmgeda	r0!, {r1, r2, r4}
    1a10:	0c300016 	ldceq	0, cr0, [r0], #-88
    1a14:	00011201 	andeq	r1, r1, r1, lsl #4
    1a18:	6d4a0100 	stfvse	f0, [sl]
    1a1c:	01000001 	tsteq	r0, r1
    1a20:	0e00000d 	cdpeq	0, 0, cr0, cr0, cr13, {0}
    1a24:	300016d4 	ldrccd	r1, [r0], -r4
    1a28:	300016f0 	strccd	r1, [r0], -r0
    1a2c:	0112010c 	tsteq	r2, ip, lsl #2
    1a30:	4a010000 	bmi	41a38 <DISABLE_IRQ+0x419b8>
    1a34:	0000016d 	andeq	r0, r0, sp, ror #2
    1a38:	00000d01 	andeq	r0, r0, r1, lsl #26
    1a3c:	6e690f00 	cdpvs	15, 6, cr0, cr9, cr0, {0}
    1a40:	05040074 	streq	r0, [r4, #-116]
    1a44:	00019f10 	andeq	r9, r1, r0, lsl pc
    1a48:	06660100 	streqbt	r0, [r6], -r0, lsl #2
    1a4c:	b8010000 	stmltda	r1, {}
    1a50:	009b0101 	addeqs	r0, fp, r1, lsl #2
    1a54:	16f00000 	ldrnebt	r0, [r0], r0
    1a58:	17383000 	ldrne	r3, [r8, -r0]!
    1a5c:	5d013000 	stcpl	0, cr3, [r1]
    1a60:	00068411 	andeq	r8, r6, r1, lsl r4
    1a64:	01b70100 	moveqs	r0, r0, lsl #2
    1a68:	0000009b 	muleq	r0, fp, r0
    1a6c:	10005001 	andne	r5, r0, r1
    1a70:	000001d8 	ldreqd	r0, [r0], -r8
    1a74:	0006f601 	andeq	pc, r6, r1, lsl #12
    1a78:	019b0100 	orreqs	r0, fp, r0, lsl #2
    1a7c:	00009401 	andeq	r9, r0, r1, lsl #8
    1a80:	00173800 	andeqs	r3, r7, r0, lsl #16
    1a84:	00179430 	andeqs	r9, r7, r0, lsr r4
    1a88:	115d0130 	cmpne	sp, r0, lsr r1
    1a8c:	00000684 	andeq	r0, r0, r4, lsl #13
    1a90:	9b019a01 	blls	6829c <DISABLE_IRQ+0x6821c>
    1a94:	01000000 	tsteq	r0, r0
    1a98:	07581150 	undefined
    1a9c:	9a010000 	bls	41aa4 <DISABLE_IRQ+0x41a24>
    1aa0:	0001d801 	andeq	sp, r1, r1, lsl #16
    1aa4:	00550100 	subeqs	r0, r5, r0, lsl #2
    1aa8:	00c90412 	sbceq	r0, r9, r2, lsl r4
    1aac:	17100000 	ldrne	r0, [r0, -r0]
    1ab0:	01000002 	tsteq	r0, r2
    1ab4:	000006e4 	andeq	r0, r0, r4, ror #13
    1ab8:	01016701 	tsteq	r1, r1, lsl #14
    1abc:	00000094 	muleq	r0, r4, r0
    1ac0:	30001794 	mulcc	r0, r4, r7
    1ac4:	30001818 	andcc	r1, r0, r8, lsl r8
    1ac8:	6c115d01 	ldcvs	13, cr5, [r1], {1}
    1acc:	01000006 	tsteq	r0, r6
    1ad0:	009b0166 	addeqs	r0, fp, r6, ror #2
    1ad4:	56010000 	strpl	r0, [r1], -r0
    1ad8:	00068411 	andeq	r8, r6, r1, lsl r4
    1adc:	01660100 	cmneq	r6, r0, lsl #2
    1ae0:	00000217 	andeq	r0, r0, r7, lsl r2
    1ae4:	12005501 	andne	r5, r0, #4194304	; 0x400000
    1ae8:	00009b04 	andeq	r9, r0, r4, lsl #22
    1aec:	02481000 	subeq	r1, r8, #0	; 0x0
    1af0:	df010000 	swile	0x00010000
    1af4:	01000006 	tsteq	r0, r6
    1af8:	9401014b 	strls	r0, [r1], #-331
    1afc:	18000000 	stmneda	r0, {}
    1b00:	0c300018 	ldceq	0, cr0, [r0], #-96
    1b04:	01300019 	teqeq	r0, r9, lsl r0
    1b08:	0768115d 	undefined
    1b0c:	4a010000 	bmi	41b14 <DISABLE_IRQ+0x41a94>
    1b10:	00024801 	andeq	r4, r2, r1, lsl #16
    1b14:	00540100 	subeqs	r0, r4, r0, lsl #2
    1b18:	00940412 	addeqs	r0, r4, r2, lsl r4
    1b1c:	01130000 	tsteq	r3, r0
    1b20:	000006d5 	ldreqd	r0, [r0], -r5
    1b24:	01012e01 	tsteq	r1, r1, lsl #28
    1b28:	3000190c 	andcc	r1, r0, ip, lsl #18
    1b2c:	3000193c 	andcc	r1, r0, ip, lsr r9
    1b30:	01145d01 	tsteq	r4, r1, lsl #26
    1b34:	000006da 	ldreqd	r0, [r0], -sl
    1b38:	01013801 	tsteq	r1, r1, lsl #16
    1b3c:	00000094 	muleq	r0, r4, r0
    1b40:	3000193c 	andcc	r1, r0, ip, lsr r9
    1b44:	30001994 	mulcc	r0, r4, r9
    1b48:	a3105d01 	tstge	r0, #64	; 0x40
    1b4c:	01000002 	tsteq	r0, r2
    1b50:	000006fb 	streqd	r0, [r0], -fp
    1b54:	01022c01 	tsteq	r2, r1, lsl #24
    1b58:	000000c9 	andeq	r0, r0, r9, asr #1
    1b5c:	30001994 	mulcc	r0, r4, r9
    1b60:	300019c0 	andcc	r1, r0, r0, asr #19
    1b64:	69155d01 	ldmvsdb	r5, {r0, r8, sl, fp, ip, lr}
    1b68:	022d0100 	eoreq	r0, sp, #0	; 0x0
    1b6c:	0000016d 	andeq	r0, r0, sp, ror #2
    1b70:	10005401 	andne	r5, r0, r1, lsl #8
    1b74:	000002dc 	ldreqd	r0, [r0], -ip
    1b78:	0006f101 	andeq	pc, r6, r1, lsl #2
    1b7c:	017f0100 	cmneq	pc, r0, lsl #2
    1b80:	00009401 	andeq	r9, r0, r1, lsl #8
    1b84:	0019c000 	andeqs	ip, r9, r0
    1b88:	001a5430 	andeqs	r5, sl, r0, lsr r4
    1b8c:	115d0130 	cmpne	sp, r0, lsr r1
    1b90:	0000072d 	andeq	r0, r0, sp, lsr #14
    1b94:	94017e01 	strls	r7, [r1], #-3585
    1b98:	01000000 	tsteq	r0, r0
    1b9c:	06841152 	pkhtbeq	r1, r4, r2, ASR #2
    1ba0:	7e010000 	cdpvc	0, 0, cr0, cr1, cr0, {0}
    1ba4:	00009b01 	andeq	r9, r0, r1, lsl #22
    1ba8:	00530100 	subeqs	r0, r3, r0, lsl #2
    1bac:	00031510 	andeq	r1, r3, r0, lsl r5
    1bb0:	06060100 	streq	r0, [r6], -r0, lsl #2
    1bb4:	48010000 	stmmida	r1, {}
    1bb8:	00940102 	addeqs	r0, r4, r2, lsl #2
    1bbc:	1a540000 	bne	1501bc4 <DISABLE_IRQ+0x1501b44>
    1bc0:	1a743000 	bne	1d0dbc8 <DISABLE_IRQ+0x1d0db48>
    1bc4:	5d013000 	stcpl	0, cr3, [r1]
    1bc8:	0006b911 	andeq	fp, r6, r1, lsl r9
    1bcc:	02470100 	subeq	r0, r7, #0	; 0x0
    1bd0:	00000094 	muleq	r0, r4, r0
    1bd4:	cc115001 	ldcgt	0, cr5, [r1], {1}
    1bd8:	01000006 	tsteq	r0, r6
    1bdc:	009b0247 	addeqs	r0, fp, r7, asr #4
    1be0:	51010000 	tstpl	r1, r0
    1be4:	60011400 	andvs	r1, r1, r0, lsl #8
    1be8:	01000006 	tsteq	r0, r6
    1bec:	940101ab 	strls	r0, [r1], #-427
    1bf0:	74000000 	strvc	r0, [r0]
    1bf4:	ac30001a 	ldcge	0, cr0, [r0], #-104
    1bf8:	0130001a 	teqeq	r0, sl, lsl r0
    1bfc:	0358105d 	cmpeq	r8, #93	; 0x5d
    1c00:	76010000 	strvc	r0, [r1], -r0
    1c04:	01000006 	tsteq	r0, r6
    1c08:	940101c5 	strls	r0, [r1], #-453
    1c0c:	ac000000 	stcge	0, cr0, [r0], {0}
    1c10:	e030001a 	eors	r0, r0, sl, lsl r0
    1c14:	0130001a 	teqeq	r0, sl, lsl r0
    1c18:	04db115d 	ldreqb	r1, [fp], #349
    1c1c:	c4010000 	strgt	r0, [r1]
    1c20:	0000c901 	andeq	ip, r0, r1, lsl #18
    1c24:	005c0100 	subeqs	r0, ip, r0, lsl #2
    1c28:	00038310 	andeq	r8, r3, r0, lsl r3
    1c2c:	067c0100 	ldreqbt	r0, [ip], -r0, lsl #2
    1c30:	d2010000 	andle	r0, r1, #0	; 0x0
    1c34:	00940101 	addeqs	r0, r4, r1, lsl #2
    1c38:	1ae00000 	bne	ff801c40 <CLKDIVN+0xb3801c2c>
    1c3c:	1b143000 	blne	50dc44 <DISABLE_IRQ+0x50dbc4>
    1c40:	5d013000 	stcpl	0, cr3, [r1]
    1c44:	0004db11 	andeq	sp, r4, r1, lsl fp
    1c48:	01d10100 	biceqs	r0, r1, r0, lsl #2
    1c4c:	000000c9 	andeq	r0, r0, r9, asr #1
    1c50:	10005c01 	andne	r5, r0, r1, lsl #24
    1c54:	000003e4 	andeq	r0, r0, r4, ror #7
    1c58:	0005f001 	andeq	pc, r5, r1
    1c5c:	02650100 	rsbeq	r0, r5, #0	; 0x0
    1c60:	00009401 	andeq	r9, r0, r1, lsl #8
    1c64:	001b1400 	andeqs	r1, fp, r0, lsl #8
    1c68:	001c3c30 	andeqs	r3, ip, r0, lsr ip
    1c6c:	165d0130 	undefined
    1c70:	00667562 	rsbeq	r7, r6, r2, ror #10
    1c74:	d8026401 	stmleda	r2, {r0, sl, sp, lr}
    1c78:	01000001 	tsteq	r0, r1
    1c7c:	04db115a 	ldreqb	r1, [fp], #346
    1c80:	64010000 	strvs	r0, [r1]
    1c84:	0000c902 	andeq	ip, r0, r2, lsl #18
    1c88:	11550100 	cmpne	r5, r0, lsl #2
    1c8c:	00000748 	andeq	r0, r0, r8, asr #14
    1c90:	c9026401 	stmgtdb	r2, {r0, sl, sp, lr}
    1c94:	01000000 	tsteq	r0, r0
    1c98:	00691558 	rsbeq	r1, r9, r8, asr r5
    1c9c:	c9026601 	stmgtdb	r2, {r0, r9, sl, sp, lr}
    1ca0:	01000000 	tsteq	r0, r0
    1ca4:	05ff1757 	ldreqb	r1, [pc, #1879]!	; 2403 <DISABLE_IRQ+0x2383>
    1ca8:	67010000 	strvs	r0, [r1, -r0]
    1cac:	0000c902 	andeq	ip, r0, r2, lsl #18
    1cb0:	00530100 	subeqs	r0, r3, r0, lsl #2
    1cb4:	00040f10 	andeq	r0, r4, r0, lsl pc
    1cb8:	07520100 	ldreqb	r0, [r2, -r0, lsl #2]
    1cbc:	df010000 	swile	0x00010000
    1cc0:	00940101 	addeqs	r0, r4, r1, lsl #2
    1cc4:	1c3c0000 	ldcne	0, cr0, [ip]
    1cc8:	1c6c3000 	stcnel	0, cr3, [ip]
    1ccc:	5d013000 	stcpl	0, cr3, [r1]
    1cd0:	0004db11 	andeq	sp, r4, r1, lsl fp
    1cd4:	01de0100 	biceqs	r0, lr, r0, lsl #2
    1cd8:	000000c9 	andeq	r0, r0, r9, asr #1
    1cdc:	10005c01 	andne	r5, r0, r1, lsl #24
    1ce0:	0000043a 	andeq	r0, r0, sl, lsr r4
    1ce4:	00070e01 	andeq	r0, r7, r1, lsl #28
    1ce8:	01ec0100 	mvneq	r0, r0, lsl #2
    1cec:	00009401 	andeq	r9, r0, r1, lsl #8
    1cf0:	001c6c00 	andeqs	r6, ip, r0, lsl #24
    1cf4:	001ca030 	andeqs	sl, ip, r0, lsr r0
    1cf8:	115d0130 	cmpne	sp, r0, lsr r1
    1cfc:	000004db 	ldreqd	r0, [r0], -fp
    1d00:	c901eb01 	stmgtdb	r1, {r0, r8, r9, fp, sp, lr, pc}
    1d04:	01000000 	tsteq	r0, r0
    1d08:	9b10005c 	blls	401e80 <DISABLE_IRQ+0x401e00>
    1d0c:	01000004 	tsteq	r0, r4
    1d10:	0000071d 	andeq	r0, r0, sp, lsl r7
    1d14:	0102a301 	tsteq	r2, r1, lsl #6
    1d18:	00000094 	muleq	r0, r4, r0
    1d1c:	30001ca0 	andcc	r1, r0, r0, lsr #25
    1d20:	30001d8c 	andcc	r1, r0, ip, lsl #27
    1d24:	62165d01 	andvss	r5, r6, #64	; 0x40
    1d28:	01006675 	tsteq	r0, r5, ror r6
    1d2c:	01d802a2 	biceqs	r0, r8, r2, lsr #5
    1d30:	58010000 	stmplda	r1, {}
    1d34:	0004db11 	andeq	sp, r4, r1, lsl fp
    1d38:	02a20100 	adceq	r0, r2, #0	; 0x0
    1d3c:	000000c9 	andeq	r0, r0, r9, asr #1
    1d40:	48115401 	ldmmida	r1, {r0, sl, ip, lr}
    1d44:	01000007 	tsteq	r0, r7
    1d48:	00c902a2 	sbceq	r0, r9, r2, lsr #5
    1d4c:	5a010000 	bpl	41d54 <DISABLE_IRQ+0x41cd4>
    1d50:	01006915 	tsteq	r0, r5, lsl r9
    1d54:	009b02a4 	addeqs	r0, fp, r4, lsr #5
    1d58:	55010000 	strpl	r0, [r1]
    1d5c:	0005ff17 	andeq	pc, r5, r7, lsl pc
    1d60:	02a50100 	adceq	r0, r5, #0	; 0x0
    1d64:	000000c9 	andeq	r0, r0, r9, asr #1
    1d68:	10005101 	andne	r5, r0, r1, lsl #2
    1d6c:	000004c6 	andeq	r0, r0, r6, asr #9
    1d70:	0006aa01 	andeq	sl, r6, r1, lsl #20
    1d74:	01f90100 	mvneqs	r0, r0, lsl #2
    1d78:	00009401 	andeq	r9, r0, r1, lsl #8
    1d7c:	001d8c00 	andeqs	r8, sp, r0, lsl #24
    1d80:	001dc830 	andeqs	ip, sp, r0, lsr r8
    1d84:	115d0130 	cmpne	sp, r0, lsr r1
    1d88:	00000684 	andeq	r0, r0, r4, lsl #13
    1d8c:	9b01f801 	blls	7fd98 <DISABLE_IRQ+0x7fd18>
    1d90:	01000000 	tsteq	r0, r0
    1d94:	ff100050 	swinv	0x00100050
    1d98:	01000004 	tsteq	r0, r4
    1d9c:	00000645 	andeq	r0, r0, r5, asr #12
    1da0:	01020501 	tsteq	r2, r1, lsl #10
    1da4:	00000094 	muleq	r0, r4, r0
    1da8:	30001dc8 	andcc	r1, r0, r8, asr #27
    1dac:	30001e34 	andcc	r1, r0, r4, lsr lr
    1db0:	3c115d01 	ldccc	13, cr5, [r1], {1}
    1db4:	01000006 	tsteq	r0, r6
    1db8:	00940204 	addeqs	r0, r4, r4, lsl #4
    1dbc:	54010000 	strpl	r0, [r1]
    1dc0:	00068411 	andeq	r8, r6, r1, lsl r4
    1dc4:	02040100 	andeq	r0, r4, #0	; 0x0
    1dc8:	0000009b 	muleq	r0, fp, r0
    1dcc:	10005101 	andne	r5, r0, r1, lsl #2
    1dd0:	00000546 	andeq	r0, r0, r6, asr #10
    1dd4:	00073301 	andeq	r3, r7, r1, lsl #6
    1dd8:	02510100 	subeqs	r0, r1, #0	; 0x0
    1ddc:	00009401 	andeq	r9, r0, r1, lsl #8
    1de0:	001e3400 	andeqs	r3, lr, r0, lsl #8
    1de4:	001e6c30 	andeqs	r6, lr, r0, lsr ip
    1de8:	115d0130 	cmpne	sp, r0, lsr r1
    1dec:	000005de 	ldreqd	r0, [r0], -lr
    1df0:	94025001 	strls	r5, [r2], #-1
    1df4:	01000000 	tsteq	r0, r0
    1df8:	063b1150 	undefined
    1dfc:	50010000 	andpl	r0, r1, r0
    1e00:	00009402 	andeq	r9, r0, r2, lsl #8
    1e04:	11510100 	cmpne	r1, r0, lsl #2
    1e08:	00000684 	andeq	r0, r0, r4, lsl #13
    1e0c:	9b025001 	blls	95e18 <DISABLE_IRQ+0x95d98>
    1e10:	01000000 	tsteq	r0, r0
    1e14:	7f100052 	swivc	0x00100052
    1e18:	01000005 	tsteq	r0, r5
    1e1c:	00000741 	andeq	r0, r0, r1, asr #14
    1e20:	01021401 	tsteq	r2, r1, lsl #8
    1e24:	00000094 	muleq	r0, r4, r0
    1e28:	30001e6c 	andcc	r1, r0, ip, ror #28
    1e2c:	30001f24 	andcc	r1, r0, r4, lsr #30
    1e30:	84115d01 	ldrhi	r5, [r1], #-3329
    1e34:	01000006 	tsteq	r0, r6
    1e38:	009b0213 	addeqs	r0, fp, r3, lsl r2
    1e3c:	50010000 	andpl	r0, r1, r0
    1e40:	00068917 	andeq	r8, r6, r7, lsl r9
    1e44:	02150100 	andeqs	r0, r5, #0	; 0x0
    1e48:	00000094 	muleq	r0, r4, r0
    1e4c:	18005001 	stmneda	r0, {r0, ip, lr}
    1e50:	000005a4 	andeq	r0, r0, r4, lsr #11
    1e54:	00075d01 	andeq	r5, r7, r1, lsl #26
    1e58:	02ce0100 	sbceq	r0, lr, #0	; 0x0
    1e5c:	001f2401 	andeqs	r2, pc, r1, lsl #8
    1e60:	001f3030 	andeqs	r3, pc, r0, lsr r0
    1e64:	165d0130 	undefined
    1e68:	cd010069 	stcgt	0, cr0, [r1, #-420]
    1e6c:	0000c902 	andeq	ip, r0, r2, lsl #18
    1e70:	00500100 	subeqs	r0, r0, r0, lsl #2
    1e74:	0005cd10 	andeq	ip, r5, r0, lsl sp
    1e78:	06960100 	ldreq	r0, [r6], r0, lsl #2
    1e7c:	39010000 	stmccdb	r1, {}
    1e80:	00c90102 	sbceq	r0, r9, r2, lsl #2
    1e84:	1f300000 	swine	0x00300000
    1e88:	1f943000 	swine	0x00943000
    1e8c:	5d013000 	stcpl	0, cr3, [r1]
    1e90:	01006915 	tsteq	r0, r5, lsl r9
    1e94:	016d023a 	cmneq	sp, sl, lsr r2
    1e98:	54010000 	strpl	r0, [r1]
    1e9c:	06021900 	streq	r1, [r2], -r0, lsl #18
    1ea0:	fd010000 	stc2	0, cr0, [r1]
    1ea4:	01000000 	tsteq	r0, r0
    1ea8:	00009480 	andeq	r9, r0, r0, lsl #9
    1eac:	001f9400 	andeqs	r9, pc, r0, lsl #8
    1eb0:	00233830 	eoreq	r3, r3, r0, lsr r8
    1eb4:	1a5d0130 	bne	174237c <DISABLE_IRQ+0x17422fc>
    1eb8:	81010069 	tsthi	r1, r9, rrx
    1ebc:	0000016d 	andeq	r0, r0, sp, ror #2
    1ec0:	010c5c01 	tsteq	ip, r1, lsl #24
    1ec4:	00000112 	andeq	r0, r0, r2, lsl r1
    1ec8:	016d4a01 	cmneq	sp, r1, lsl #20
    1ecc:	0d010000 	stceq	0, cr0, [r1]
    1ed0:	d2190000 	andles	r0, r9, #0	; 0x0
    1ed4:	01000006 	tsteq	r0, r6
    1ed8:	000006a1 	andeq	r0, r0, r1, lsr #13
    1edc:	016d4501 	cmneq	sp, r1, lsl #10
    1ee0:	23380000 	teqcs	r8, #0	; 0x0
    1ee4:	24783000 	ldrcsbt	r3, [r8]
    1ee8:	5d013000 	stcpl	0, cr3, [r1]
    1eec:	0100691a 	tsteq	r0, sl, lsl r9
    1ef0:	0000c946 	andeq	ip, r0, r6, asr #18
    1ef4:	0b540100 	bleq	15022fc <DISABLE_IRQ+0x150227c>
    1ef8:	00000644 	andeq	r0, r0, r4, asr #12
    1efc:	30002348 	andcc	r2, r0, r8, asr #6
    1f00:	30002354 	andcc	r2, r0, r4, asr r3
    1f04:	0112010c 	tsteq	r2, ip, lsl #2
    1f08:	4a010000 	bmi	41f10 <DISABLE_IRQ+0x41e90>
    1f0c:	0000016d 	andeq	r0, r0, sp, ror #2
    1f10:	00000d01 	andeq	r0, r0, r1, lsl #26
    1f14:	0006610b 	andeq	r6, r6, fp, lsl #2
    1f18:	00239800 	eoreq	r9, r3, r0, lsl #16
    1f1c:	0023a030 	eoreq	sl, r3, r0, lsr r0
    1f20:	12010c30 	andne	r0, r1, #12288	; 0x3000
    1f24:	01000001 	tsteq	r0, r1
    1f28:	00016d4a 	andeq	r6, r1, sl, asr #26
    1f2c:	000d0100 	andeq	r0, sp, r0, lsl #2
    1f30:	067e0b00 	ldreqbt	r0, [lr], -r0, lsl #22
    1f34:	23b80000 	movcss	r0, #0	; 0x0
    1f38:	24283000 	strcst	r3, [r8]
    1f3c:	010c3000 	tsteq	ip, r0
    1f40:	00000112 	andeq	r0, r0, r2, lsl r1
    1f44:	016d4a01 	cmneq	sp, r1, lsl #20
    1f48:	0d010000 	stceq	0, cr0, [r1]
    1f4c:	9b0b0000 	blls	2c1f54 <DISABLE_IRQ+0x2c1ed4>
    1f50:	2c000006 	stccs	0, cr0, [r0], {6}
    1f54:	30300024 	eorccs	r0, r0, r4, lsr #32
    1f58:	0c300024 	ldceq	0, cr0, [r0], #-144
    1f5c:	00011201 	andeq	r1, r1, r1, lsl #4
    1f60:	6d4a0100 	stfvse	f0, [sl]
    1f64:	01000001 	tsteq	r0, r1
    1f68:	0b00000d 	bleq	1fa4 <DISABLE_IRQ+0x1f24>
    1f6c:	000006b8 	streqh	r0, [r0], -r8
    1f70:	30002430 	andcc	r2, r0, r0, lsr r4
    1f74:	30002444 	andcc	r2, r0, r4, asr #8
    1f78:	0112010c 	tsteq	r2, ip, lsl #2
    1f7c:	4a010000 	bmi	41f84 <DISABLE_IRQ+0x41f04>
    1f80:	0000016d 	andeq	r0, r0, sp, ror #2
    1f84:	00000d01 	andeq	r0, r0, r1, lsl #26
    1f88:	0024440e 	eoreq	r4, r4, lr, lsl #8
    1f8c:	00247830 	eoreq	r7, r4, r0, lsr r8
    1f90:	12010c30 	andne	r0, r1, #12288	; 0x3000
    1f94:	01000001 	tsteq	r0, r1
    1f98:	00016d4a 	andeq	r6, r1, sl, asr #26
    1f9c:	000d0100 	andeq	r0, sp, r0, lsl #2
    1fa0:	e3050000 	tst	r5, #0	; 0x0
    1fa4:	94000006 	strls	r0, [r0], #-6
    1fa8:	1b000000 	blne	1fb0 <DISABLE_IRQ+0x1f30>
    1fac:	000000b2 	streqh	r0, [r0], -r2
    1fb0:	1c0001ff 	stfnes	f0, [r0], {255}
    1fb4:	000006b0 	streqh	r0, [r0], -r0
    1fb8:	06d24001 	ldreqb	r4, [r2], r1
    1fbc:	05010000 	streq	r0, [r1]
    1fc0:	009eb803 	addeqs	fp, lr, r3, lsl #16
    1fc4:	06c31c30 	undefined
    1fc8:	41010000 	tstmi	r1, r0
    1fcc:	000006d2 	ldreqd	r0, [r0], -r2
    1fd0:	b8030501 	stmltda	r3, {r0, r8, sl}
    1fd4:	1c30009c 	ldcne	0, cr0, [r0], #-624
    1fd8:	00000707 	andeq	r0, r0, r7, lsl #14
    1fdc:	00254201 	eoreq	r4, r5, r1, lsl #4
    1fe0:	05010000 	streq	r0, [r1]
    1fe4:	00a0b803 	adceq	fp, r0, r3, lsl #16
    1fe8:	00420030 	subeq	r0, r2, r0, lsr r0
    1fec:	00020000 	andeq	r0, r2, r0
    1ff0:	00000c0c 	andeq	r0, r0, ip, lsl #24
    1ff4:	09820104 	stmeqib	r2, {r2, r8}
    1ff8:	24800000 	strcs	r0, [r0]
    1ffc:	25ac3000 	strcs	r3, [ip]!
    2000:	69643000 	stmvsdb	r4!, {ip, sp}^
    2004:	2e343676 	cfmsuba32cs	mvax3, mvax3, mvfx4, mvfx6
    2008:	6d2f0053 	stcvs	0, cr0, [pc, #-332]!
    200c:	682f746e 	stmvsda	pc!, {r1, r2, r3, r5, r6, sl, ip, sp, lr}
    2010:	2f736667 	swics	0x00736667
    2014:	6d797341 	ldcvsl	3, cr7, [r9, #-260]!
    2018:	746f7470 	strvcbt	r7, [pc], #1136	; 2020 <DISABLE_IRQ+0x1fa0>
    201c:	696c2f65 	stmvsdb	ip!, {r0, r2, r5, r6, r8, r9, sl, fp, sp}^
    2020:	4e470062 	cdpmi	0, 4, cr0, cr7, cr2, {3}
    2024:	53412055 	cmppl	r1, #85	; 0x55
    2028:	312e3220 	teqcc	lr, r0, lsr #4
    202c:	80010035 	andhi	r0, r1, r5, lsr r0
    2030:	00000046 	andeq	r0, r0, r6, asr #32
    2034:	0c200002 	stceq	0, cr0, [r0], #-8
    2038:	01040000 	tsteq	r4, r0
    203c:	00000a06 	andeq	r0, r0, r6, lsl #20
    2040:	300025b0 	strcch	r2, [r0], -r0
    2044:	30002960 	andcc	r2, r0, r0, ror #18
    2048:	3162696c 	cmncc	r2, ip, ror #18
    204c:	636e7566 	cmnvs	lr, #427819008	; 0x19800000
    2050:	00532e73 	subeqs	r2, r3, r3, ror lr
    2054:	746e6d2f 	strvcbt	r6, [lr], #-3375
    2058:	6667682f 	strvsbt	r6, [r7], -pc, lsr #16
    205c:	73412f73 	cmpvc	r1, #460	; 0x1cc
    2060:	74706d79 	ldrvcbt	r6, [r0], #-3449
    2064:	2f65746f 	swics	0x0065746f
    2068:	0062696c 	rsbeq	r6, r2, ip, ror #18
    206c:	20554e47 	subcss	r4, r5, r7, asr #28
    2070:	32205341 	eorcc	r5, r0, #67108865	; 0x4000001
    2074:	0035312e 	eoreqs	r3, r5, lr, lsr #2
    2078:	00528001 	subeqs	r8, r2, r1
    207c:	00020000 	andeq	r0, r2, r0
    2080:	00000c34 	andeq	r0, r0, r4, lsr ip
    2084:	0ab30104 	beq	fecc249c <CLKDIVN+0xb2cc2488>
    2088:	29600000 	stmcsdb	r0!, {}^
    208c:	29603000 	stmcsdb	r0!, {ip, sp}^
    2090:	00093000 	andeq	r3, r9, r0
    2094:	72010000 	andvc	r0, r1, #0	; 0x0
    2098:	7a000007 	bvc	20bc <DISABLE_IRQ+0x203c>
    209c:	02000007 	andeq	r0, r0, #7	; 0x7
    20a0:	00000035 	andeq	r0, r0, r5, lsr r0
    20a4:	0000003c 	andeq	r0, r0, ip, lsr r0
    20a8:	00003503 	andeq	r3, r0, r3, lsl #10
    20ac:	0400ff00 	streq	pc, [r0], #-3840
    20b0:	000007b2 	streqh	r0, [r0], -r2
    20b4:	ae040704 	cdpge	7, 0, cr0, cr4, cr4, {0}
    20b8:	01000000 	tsteq	r0, r0
    20bc:	00f60508 	rsceqs	r0, r6, r8, lsl #10
    20c0:	09010000 	stmeqdb	r1, {}
    20c4:	00000025 	andeq	r0, r0, r5, lsr #32
    20c8:	18030501 	stmneda	r3, {r0, r8, sl}
    20cc:	0030004b 	eoreqs	r0, r0, fp, asr #32
    20d0:	0000015f 	andeq	r0, r0, pc, asr r1
    20d4:	0c760002 	ldceql	0, cr0, [r6], #-8
    20d8:	01040000 	tsteq	r4, r0
    20dc:	00000ad8 	ldreqd	r0, [r0], -r8
    20e0:	300029b0 	strcch	r2, [r0], -r0
    20e4:	30002960 	andcc	r2, r0, r0, ror #18
    20e8:	00000009 	andeq	r0, r0, r9
    20ec:	0007eb01 	andeq	lr, r7, r1, lsl #22
    20f0:	00077a00 	andeq	r7, r7, r0, lsl #20
    20f4:	00ae0200 	adceq	r0, lr, r0, lsl #4
    20f8:	08010000 	stmeqda	r1, {}
    20fc:	0007d303 	andeq	sp, r7, r3, lsl #6
    2100:	37080200 	strcc	r0, [r8, -r0, lsl #4]
    2104:	04000000 	streq	r0, [r0]
    2108:	00746e69 	rsbeqs	r6, r4, r9, ror #28
    210c:	d2030504 	andle	r0, r3, #16777216	; 0x1000000
    2110:	02000007 	andeq	r0, r0, #7	; 0x7
    2114:	00004909 	andeq	r4, r0, r9, lsl #18
    2118:	07b20200 	ldreq	r0, [r2, r0, lsl #4]!
    211c:	07040000 	streq	r0, [r4, -r0]
    2120:	0007e403 	andeq	lr, r7, r3, lsl #8
    2124:	5b0a0200 	blpl	28292c <DISABLE_IRQ+0x2828ac>
    2128:	02000000 	andeq	r0, r0, #0	; 0x0
    212c:	000007c4 	andeq	r0, r0, r4, asr #15
    2130:	a8020508 	stmgeda	r2, {r3, r8, sl}
    2134:	08000007 	stmeqda	r0, {r0, r1, r2}
    2138:	00920507 	addeqs	r0, r2, r7, lsl #10
    213c:	079a0000 	ldreq	r0, [sl, r0]
    2140:	02080000 	andeq	r0, r8, #0	; 0x0
    2144:	6f6c0611 	swivs	0x006c0611
    2148:	11020077 	tstne	r2, r7, ror r0
    214c:	0000002c 	andeq	r0, r0, ip, lsr #32
    2150:	07002302 	streq	r2, [r0, -r2, lsl #6]
    2154:	000007a3 	andeq	r0, r0, r3, lsr #15
    2158:	002c1102 	eoreq	r1, ip, r2, lsl #2
    215c:	23020000 	tstcs	r2, #0	; 0x0
    2160:	ae080004 	cdpge	0, 0, cr0, cr8, cr4, {0}
    2164:	08000000 	stmeqda	r0, {}
    2168:	73091802 	tstvc	r9, #131072	; 0x20000
    216c:	69160200 	ldmvsdb	r6, {r9}
    2170:	09000000 	stmeqdb	r0, {}
    2174:	02006c6c 	andeq	r6, r0, #27648	; 0x6c00
    2178:	00005017 	andeq	r5, r0, r7, lsl r0
    217c:	92030000 	andls	r0, r3, #0	; 0x0
    2180:	02000007 	andeq	r0, r0, #7	; 0x7
    2184:	00009218 	andeq	r9, r0, r8, lsl r2
    2188:	f4010a00 	strnv	r0, [r1], #-2560
    218c:	01000007 	tsteq	r0, r7
    2190:	00500140 	subeqs	r0, r0, r0, asr #2
    2194:	29600000 	stmcsdb	r0!, {}^
    2198:	29b03000 	ldmcsib	r0!, {ip, sp}
    219c:	5d013000 	stcpl	0, cr3, [r1]
    21a0:	0100750b 	tsteq	r0, fp, lsl #10
    21a4:	0000503f 	andeq	r5, r0, pc, lsr r0
    21a8:	93500600 	cmpls	r0, #0	; 0x0
    21ac:	04935104 	ldreq	r5, [r3], #260
    21b0:	0100760b 	tsteq	r0, fp, lsl #12
    21b4:	0000503f 	andeq	r5, r0, pc, lsr r0
    21b8:	93520600 	cmpls	r2, #0	; 0x0
    21bc:	04935304 	ldreq	r5, [r3], #772
    21c0:	0100770c 	tsteq	r0, ip, lsl #14
    21c4:	0000ae41 	andeq	sl, r0, r1, asr #28
    21c8:	93500600 	cmpls	r0, #0	; 0x0
    21cc:	04935104 	ldreq	r5, [r3], #260
    21d0:	0075750d 	rsbeqs	r7, r5, sp, lsl #10
    21d4:	00ae4201 	adceq	r4, lr, r1, lsl #4
    21d8:	760d0000 	strvc	r0, [sp], -r0
    21dc:	42010076 	andmi	r0, r1, #118	; 0x76
    21e0:	000000ae 	andeq	r0, r0, lr, lsr #1
    21e4:	00296c0e 	eoreq	r6, r9, lr, lsl #24
    21e8:	0029a030 	eoreq	sl, r9, r0, lsr r0
    21ec:	5f5f0c30 	swipl	0x005f0c30
    21f0:	47010077 	smlsdxmi	r1, r7, r0, r0
    21f4:	000000ae 	andeq	r0, r0, lr, lsr #1
    21f8:	04935406 	ldreq	r5, [r3], #1030
    21fc:	0e049355 	mcreq	3, 0, r9, cr4, cr5, {2}
    2200:	3000296c 	andcc	r2, r0, ip, ror #18
    2204:	300029a0 	andcc	r2, r0, r0, lsr #19
    2208:	0007da0f 	andeq	sp, r7, pc, lsl #20
    220c:	3e470100 	dvfccs	f0, f7, f0
    2210:	01000000 	tsteq	r0, r0
    2214:	07df0f58 	undefined
    2218:	47010000 	strmi	r0, [r1, -r0]
    221c:	0000003e 	andeq	r0, r0, lr, lsr r0
    2220:	bf0f5701 	swilt	0x000f5701
    2224:	01000007 	tsteq	r0, r7
    2228:	00003e47 	andeq	r3, r0, r7, asr #28
    222c:	00560100 	subeqs	r0, r6, r0, lsl #2
    2230:	2e000000 	cdpcs	0, 0, cr0, cr0, cr0, {0}
    2234:	02000001 	andeq	r0, r0, #1	; 0x1
    2238:	000d4e00 	andeq	r4, sp, r0, lsl #28
    223c:	45010400 	strmi	r0, [r1, #-1024]
    2240:	6000000b 	andvs	r0, r0, fp
    2244:	b030002a 	eorlts	r0, r0, sl, lsr #32
    2248:	09300029 	ldmeqdb	r0!, {r0, r3, r5}
    224c:	01000000 	tsteq	r0, r0
    2250:	00000999 	muleq	r0, r9, r9
    2254:	0000077a 	andeq	r0, r0, sl, ror r7
    2258:	0007b202 	andeq	fp, r7, r2, lsl #4
    225c:	03070400 	tsteq	r7, #0	; 0x0
    2260:	000007fd 	streqd	r0, [r0], -sp
    2264:	00370e02 	eoreqs	r0, r7, r2, lsl #28
    2268:	04040000 	streq	r0, [r4]
    226c:	0000003d 	andeq	r0, r0, sp, lsr r0
    2270:	0000b702 	andeq	fp, r0, r2, lsl #14
    2274:	05080100 	streq	r0, [r8, #-256]
    2278:	00000092 	muleq	r0, r2, r0
    227c:	00011201 	andeq	r1, r1, r1, lsl #4
    2280:	01110100 	tsteq	r1, r0, lsl #2
    2284:	00000092 	muleq	r0, r2, r0
    2288:	300029b0 	strcch	r2, [r0], -r0
    228c:	30002a08 	andcc	r2, r0, r8, lsl #20
    2290:	66065d01 	strvs	r5, [r6], -r1, lsl #26
    2294:	0100746d 	tsteq	r0, sp, ror #8
    2298:	00009910 	andeq	r9, r0, r0, lsl r9
    229c:	10910200 	addnes	r0, r1, r0, lsl #4
    22a0:	00690807 	rsbeq	r0, r9, r7, lsl #16
    22a4:	00921201 	addeqs	r1, r2, r1, lsl #4
    22a8:	54010000 	strpl	r0, [r1]
    22ac:	6e656c08 	cdpvs	12, 6, cr6, cr5, cr8, {0}
    22b0:	92130100 	andlss	r0, r3, #0	; 0x0
    22b4:	01000000 	tsteq	r0, r0
    22b8:	025a0956 	subeqs	r0, sl, #1409024	; 0x158000
    22bc:	14010000 	strne	r0, [r1]
    22c0:	0000002c 	andeq	r0, r0, ip, lsr #32
    22c4:	6e690a00 	fmulsvs	s1, s18, s0
    22c8:	05040074 	streq	r0, [r4, #-116]
    22cc:	009f0404 	addeqs	r0, pc, r4, lsl #8
    22d0:	3d0b0000 	stccc	0, cr0, [fp]
    22d4:	05000000 	streq	r0, [r0]
    22d8:	000000f0 	streqd	r0, [r0], -r0
    22dc:	00096e01 	andeq	r6, r9, r1, lsl #28
    22e0:	01230100 	teqeq	r3, r0, lsl #2
    22e4:	00000092 	muleq	r0, r2, r0
    22e8:	30002a08 	andcc	r2, r0, r8, lsl #20
    22ec:	30002a60 	andcc	r2, r0, r0, ror #20
    22f0:	66065d01 	strvs	r5, [r6], -r1, lsl #26
    22f4:	0100746d 	tsteq	r0, sp, ror #8
    22f8:	00009922 	andeq	r9, r0, r2, lsr #18
    22fc:	0c910200 	lfmeq	f0, 4, [r1], {0}
    2300:	00690807 	rsbeq	r0, r9, r7, lsl #16
    2304:	00922401 	addeqs	r2, r2, r1, lsl #8
    2308:	54010000 	strpl	r0, [r1]
    230c:	01006308 	tsteq	r0, r8, lsl #6
    2310:	0000f025 	andeq	pc, r0, r5, lsr #32
    2314:	09500100 	ldmeqdb	r0, {r8}^
    2318:	0000025a 	andeq	r0, r0, sl, asr r2
    231c:	002c2601 	eoreq	r2, ip, r1, lsl #12
    2320:	02000000 	andeq	r0, r0, #0	; 0x0
    2324:	000000ae 	andeq	r0, r0, lr, lsr #1
    2328:	080c0801 	stmeqda	ip, {r0, fp}
    232c:	f0000001 	andnv	r0, r0, r1
    2330:	0d000000 	stceq	0, cr0, [r0]
    2334:	00000108 	andeq	r0, r0, r8, lsl #2
    2338:	020003ff 	andeq	r0, r0, #-67108861	; 0xfc000003
    233c:	000007b2 	streqh	r0, [r0], -r2
    2340:	660e0704 	strvs	r0, [lr], -r4, lsl #14
    2344:	01000004 	tsteq	r0, r4
    2348:	0000f70c 	andeq	pc, r0, ip, lsl #14
    234c:	1c030500 	cfstr32ne	mvfx0, [r3], {0}
    2350:	0e300094 	mrceq	0, 1, r0, cr0, cr4, {4}
    2354:	00000471 	andeq	r0, r0, r1, ror r4
    2358:	00f70d01 	rsceqs	r0, r7, r1, lsl #26
    235c:	03050000 	tsteq	r5, #0	; 0x0
    2360:	3000981c 	andcc	r9, r0, ip, lsl r8
    2364:	00080200 	andeq	r0, r8, r0, lsl #4
    2368:	ff000200 	swinv	0x00000200
    236c:	0400000d 	streq	r0, [r0], #-13
    2370:	000ba601 	andeq	sl, fp, r1, lsl #12
    2374:	00301800 	eoreqs	r1, r0, r0, lsl #16
    2378:	002a6030 	eoreq	r6, sl, r0, lsr r0
    237c:	00000930 	andeq	r0, r0, r0, lsr r9
    2380:	08460100 	stmeqda	r6, {r8}^
    2384:	077a0000 	ldreqb	r0, [sl, -r0]!
    2388:	1b020000 	blne	82390 <DISABLE_IRQ+0x82310>
    238c:	03000008 	tsteq	r0, #8	; 0x8
    2390:	0000300b 	andeq	r3, r0, fp
    2394:	07b20300 	ldreq	r0, [r2, r0, lsl #6]!
    2398:	07040000 	streq	r0, [r4, -r0]
    239c:	0000be04 	andeq	fp, r0, r4, lsl #28
    23a0:	08b90100 	ldmeqia	r9!, {r8}
    23a4:	1f010000 	swine	0x00010000
    23a8:	0000be01 	andeq	fp, r0, r1, lsl #28
    23ac:	002a6000 	eoreq	r6, sl, r0
    23b0:	002aec30 	eoreq	lr, sl, r0, lsr ip
    23b4:	055d0130 	ldreqb	r0, [sp, #-304]
    23b8:	01003173 	tsteq	r0, r3, ror r1
    23bc:	0000c51e 	andeq	ip, r0, lr, lsl r5
    23c0:	05570100 	ldreqb	r0, [r7, #-256]
    23c4:	01003273 	tsteq	r0, r3, ror r2
    23c8:	0000c51e 	andeq	ip, r0, lr, lsl r5
    23cc:	05560100 	ldreqb	r0, [r6, #-256]
    23d0:	006e656c 	rsbeq	r6, lr, ip, ror #10
    23d4:	00251e01 	eoreq	r1, r5, r1, lsl #28
    23d8:	52010000 	andpl	r0, r1, #0	; 0x0
    23dc:	00316306 	eoreqs	r6, r1, r6, lsl #6
    23e0:	00d72101 	sbceqs	r2, r7, r1, lsl #2
    23e4:	5e010000 	cdppl	0, 0, cr0, cr1, cr0, {0}
    23e8:	00326306 	eoreqs	r6, r2, r6, lsl #6
    23ec:	00d72101 	sbceqs	r2, r7, r1, lsl #2
    23f0:	5c010000 	stcpl	0, cr0, [r1], {0}
    23f4:	0000a807 	andeq	sl, r0, r7, lsl #16
    23f8:	0000de00 	andeq	sp, r0, r0, lsl #28
    23fc:	002a8400 	eoreq	r8, sl, r0, lsl #8
    2400:	002a8830 	eoreq	r8, sl, r0, lsr r8
    2404:	00ef0830 	rsceq	r0, pc, r0, lsr r8
    2408:	51010000 	tstpl	r1, r0
    240c:	00de0900 	sbceqs	r0, lr, r0, lsl #18
    2410:	2a980000 	bcs	fe602418 <CLKDIVN+0xb2602404>
    2414:	2a9c3000 	bcs	fe70e41c <CLKDIVN+0xb270e408>
    2418:	ef083000 	swi	0x00083000
    241c:	01000000 	tsteq	r0, r0
    2420:	0a000054 	beq	2578 <DISABLE_IRQ+0x24f8>
    2424:	00746e69 	rsbeqs	r6, r4, r9, ror #28
    2428:	040b0504 	streq	r0, [fp], #-1284
    242c:	000000cb 	andeq	r0, r0, fp, asr #1
    2430:	0000d00c 	andeq	sp, r0, ip
    2434:	00b70300 	adceqs	r0, r7, r0, lsl #6
    2438:	07010000 	streq	r0, [r1, -r0]
    243c:	0000ae03 	andeq	sl, r0, r3, lsl #28
    2440:	0d080100 	stfeqs	f0, [r8]
    2444:	000000f9 	streqd	r0, [r0], -r9
    2448:	0000084f 	andeq	r0, r0, pc, asr #16
    244c:	d7012302 	strle	r2, [r1, -r2, lsl #6]
    2450:	03000000 	tsteq	r0, #0	; 0x0
    2454:	0200630e 	andeq	r6, r0, #939524096	; 0x38000000
    2458:	0000d722 	andeq	sp, r0, r2, lsr #14
    245c:	3c040000 	stccc	0, cr0, [r4], {0}
    2460:	01000001 	tsteq	r0, r1
    2464:	00000869 	andeq	r0, r0, r9, ror #16
    2468:	3c014101 	stfccs	f4, [r1], {1}
    246c:	ec000001 	stc	0, cr0, [r0], {1}
    2470:	0830002a 	ldmeqda	r0!, {r1, r3, r5}
    2474:	0130002b 	teqeq	r0, fp, lsr #32
    2478:	02e70f5d 	rsceq	r0, r7, #372	; 0x174
    247c:	40010000 	andmi	r0, r1, r0
    2480:	0000013c 	andeq	r0, r0, ip, lsr r1
    2484:	73055001 	tstvc	r5, #1	; 0x1
    2488:	01006372 	tsteq	r0, r2, ror r3
    248c:	0000c540 	andeq	ip, r0, r0, asr #10
    2490:	06510100 	ldreqb	r0, [r1], -r0, lsl #2
    2494:	00706d74 	rsbeqs	r6, r0, r4, ror sp
    2498:	013c4201 	teqeq	ip, r1, lsl #4
    249c:	52010000 	andpl	r0, r1, #0	; 0x0
    24a0:	d0040b00 	andle	r0, r4, r0, lsl #22
    24a4:	04000000 	streq	r0, [r0]
    24a8:	00000192 	muleq	r0, r2, r1
    24ac:	00087701 	andeq	r7, r8, r1, lsl #14
    24b0:	01560100 	cmpeq	r6, r0, lsl #2
    24b4:	0000013c 	andeq	r0, r0, ip, lsr r1
    24b8:	30002b08 	andcc	r2, r0, r8, lsl #22
    24bc:	30002b2c 	andcc	r2, r0, ip, lsr #22
    24c0:	e70f5d01 	str	r5, [pc, -r1, lsl #26]
    24c4:	01000002 	tsteq	r0, r2
    24c8:	00013c55 	andeq	r3, r1, r5, asr ip
    24cc:	05500100 	ldreqb	r0, [r0, #-256]
    24d0:	00637273 	rsbeq	r7, r3, r3, ror r2
    24d4:	00c55501 	sbceq	r5, r5, r1, lsl #10
    24d8:	51010000 	tstpl	r1, r0
    24dc:	00049b0f 	andeq	r9, r4, pc, lsl #22
    24e0:	25550100 	ldrcsb	r0, [r5, #-256]
    24e4:	01000000 	tsteq	r0, r0
    24e8:	6d740652 	ldcvsl	6, cr0, [r4, #-328]!
    24ec:	57010070 	smlsdxpl	r1, r0, r0, r0
    24f0:	0000013c 	andeq	r0, r0, ip, lsr r1
    24f4:	04005c01 	streq	r5, [r0], #-3073
    24f8:	000001d5 	ldreqd	r0, [r0], -r5
    24fc:	00087001 	andeq	r7, r8, r1
    2500:	01670100 	cmneq	r7, r0, lsl #2
    2504:	0000013c 	andeq	r0, r0, ip, lsr r1
    2508:	30002b2c 	andcc	r2, r0, ip, lsr #22
    250c:	30002b5c 	andcc	r2, r0, ip, asr fp
    2510:	e70f5d01 	str	r5, [pc, -r1, lsl #26]
    2514:	01000002 	tsteq	r0, r2
    2518:	00013c66 	andeq	r3, r1, r6, ror #24
    251c:	05500100 	ldreqb	r0, [r0, #-256]
    2520:	00637273 	rsbeq	r7, r3, r3, ror r2
    2524:	00c56601 	sbceq	r6, r5, r1, lsl #12
    2528:	51010000 	tstpl	r1, r0
    252c:	706d7406 	rsbvc	r7, sp, r6, lsl #8
    2530:	3c680100 	stfcce	f0, [r8]
    2534:	01000001 	tsteq	r0, r1
    2538:	25040052 	strcs	r0, [r4, #-82]
    253c:	01000002 	tsteq	r0, r2
    2540:	0000088e 	andeq	r0, r0, lr, lsl #17
    2544:	3c017e01 	stccc	14, cr7, [r1], {1}
    2548:	5c000001 	stcpl	0, cr0, [r0], {1}
    254c:	a030002b 	eorges	r0, r0, fp, lsr #32
    2550:	0130002b 	teqeq	r0, fp, lsr #32
    2554:	02e70f5d 	rsceq	r0, r7, #372	; 0x174
    2558:	7d010000 	stcvc	0, cr0, [r1]
    255c:	0000013c 	andeq	r0, r0, ip, lsr r1
    2560:	73055001 	tstvc	r5, #1	; 0x1
    2564:	01006372 	tsteq	r0, r2, ror r3
    2568:	0000c57d 	andeq	ip, r0, sp, ror r5
    256c:	0f510100 	swieq	0x00510100
    2570:	0000049b 	muleq	r0, fp, r4
    2574:	00257d01 	eoreq	r7, r5, r1, lsl #26
    2578:	52010000 	andpl	r0, r1, #0	; 0x0
    257c:	706d7406 	rsbvc	r7, sp, r6, lsl #8
    2580:	3c7f0100 	ldfcce	f0, [pc]
    2584:	01000001 	tsteq	r0, r1
    2588:	6604005c 	undefined
    258c:	01000002 	tsteq	r0, r2
    2590:	000000d4 	ldreqd	r0, [r0], -r4
    2594:	be019701 	cdplt	7, 0, cr9, cr1, cr1, {0}
    2598:	a0000000 	andge	r0, r0, r0
    259c:	d030002b 	eorles	r0, r0, fp, lsr #32
    25a0:	0130002b 	teqeq	r0, fp, lsr #32
    25a4:	7363055d 	cmnvc	r3, #390070272	; 0x17400000
    25a8:	c5960100 	ldrgt	r0, [r6, #256]
    25ac:	01000000 	tsteq	r0, r0
    25b0:	74630550 	strvcbt	r0, [r3], #-1360
    25b4:	c5960100 	ldrgt	r0, [r6, #256]
    25b8:	01000000 	tsteq	r0, r0
    25bc:	08c21051 	stmeqia	r2, {r0, r4, r6, ip}^
    25c0:	98010000 	stmlsda	r1, {}
    25c4:	00000266 	andeq	r0, r0, r6, ror #4
    25c8:	03005301 	tsteq	r0, #67108864	; 0x4000000
    25cc:	000000b0 	streqh	r0, [r0], -r0
    25d0:	bb040601 	bllt	103ddc <DISABLE_IRQ+0x103d5c>
    25d4:	01000002 	tsteq	r0, r2
    25d8:	000008c8 	andeq	r0, r0, r8, asr #17
    25dc:	be01ab01 	fmacdlt	d10, d1, d1
    25e0:	d0000000 	andle	r0, r0, r0
    25e4:	1830002b 	ldmneda	r0!, {r0, r1, r3, r5}
    25e8:	0130002c 	teqeq	r0, ip, lsr #32
    25ec:	7363055d 	cmnvc	r3, #390070272	; 0x17400000
    25f0:	c5aa0100 	strgt	r0, [sl, #256]!
    25f4:	01000000 	tsteq	r0, r0
    25f8:	74630550 	strvcbt	r0, [r3], #-1360
    25fc:	c5aa0100 	strgt	r0, [sl, #256]!
    2600:	01000000 	tsteq	r0, r0
    2604:	049b0f51 	ldreq	r0, [fp], #3921
    2608:	aa010000 	bge	42610 <DISABLE_IRQ+0x42590>
    260c:	00000025 	andeq	r0, r0, r5, lsr #32
    2610:	c2105201 	andgts	r5, r0, #268435456	; 0x10000000
    2614:	01000008 	tsteq	r0, r8
    2618:	000266ac 	andeq	r6, r2, ip, lsr #13
    261c:	00530100 	subeqs	r0, r3, r0, lsl #2
    2620:	0002ed04 	andeq	lr, r2, r4, lsl #26
    2624:	08220100 	stmeqda	r2!, {r8}
    2628:	bf010000 	swilt	0x00010000
    262c:	00013c01 	andeq	r3, r1, r1, lsl #24
    2630:	002c1800 	eoreq	r1, ip, r0, lsl #16
    2634:	002c4c30 	eoreq	r4, ip, r0, lsr ip
    2638:	055d0130 	ldreqb	r0, [sp, #-304]
    263c:	be010073 	mcrlt	0, 0, r0, cr1, cr3, {3}
    2640:	000000c5 	andeq	r0, r0, r5, asr #1
    2644:	63055301 	tstvs	r5, #67108864	; 0x4000000
    2648:	bebe0100 	frdlte	f0, f6, f0
    264c:	01000000 	tsteq	r0, r0
    2650:	20040051 	andcs	r0, r4, r1, asr r0
    2654:	01000003 	tsteq	r0, r3
    2658:	0000005a 	andeq	r0, r0, sl, asr r0
    265c:	2501de01 	strcs	sp, [r1, #-3585]
    2660:	4c000000 	stcmi	0, cr0, [r0], {0}
    2664:	7030002c 	eorvcs	r0, r0, ip, lsr #32
    2668:	0130002c 	teqeq	r0, ip, lsr #32
    266c:	0073055d 	rsbeqs	r0, r3, sp, asr r5
    2670:	00c5dd01 	sbceq	sp, r5, r1, lsl #26
    2674:	52010000 	andpl	r0, r1, #0	; 0x0
    2678:	00637306 	rsbeq	r7, r3, r6, lsl #6
    267c:	00c5df01 	sbceq	sp, r5, r1, lsl #30
    2680:	50010000 	andpl	r0, r1, r0
    2684:	035d0400 	cmpeq	sp, #0	; 0x0
    2688:	d0010000 	andle	r0, r1, r0
    268c:	01000008 	tsteq	r0, r8
    2690:	013c01ce 	teqeq	ip, lr, asr #3
    2694:	2c700000 	ldccsl	0, cr0, [r0]
    2698:	2ca83000 	stccs	0, cr3, [r8]
    269c:	5d013000 	stcpl	0, cr3, [r1]
    26a0:	01007305 	tsteq	r0, r5, lsl #6
    26a4:	0000c5cd 	andeq	ip, r0, sp, asr #11
    26a8:	05550100 	ldreqb	r0, [r5, #-256]
    26ac:	cd010063 	stcgt	0, cr0, [r1, #-396]
    26b0:	000000be 	streqh	r0, [r0], -lr
    26b4:	70065401 	andvc	r5, r6, r1, lsl #8
    26b8:	c5cf0100 	strgtb	r0, [pc, #256]	; 27c0 <DISABLE_IRQ+0x2740>
    26bc:	01000000 	tsteq	r0, r0
    26c0:	9d040050 	stcls	0, cr0, [r4, #-320]
    26c4:	01000003 	tsteq	r0, r3
    26c8:	0000089b 	muleq	r0, fp, r8
    26cc:	2501ee01 	strcs	lr, [r1, #-3585]
    26d0:	a8000000 	stmgeda	r0, {}
    26d4:	e830002c 	ldmda	r0!, {r2, r3, r5}
    26d8:	0130002c 	teqeq	r0, ip, lsr #32
    26dc:	0073055d 	rsbeqs	r0, r3, sp, asr r5
    26e0:	00c5ed01 	sbceq	lr, r5, r1, lsl #26
    26e4:	52010000 	andpl	r0, r1, #0	; 0x0
    26e8:	00049b0f 	andeq	r9, r4, pc, lsl #22
    26ec:	25ed0100 	strcsb	r0, [sp, #256]!
    26f0:	01000000 	tsteq	r0, r0
    26f4:	63730651 	cmnvs	r3, #84934656	; 0x5100000
    26f8:	c5ef0100 	strgtb	r0, [pc, #256]!	; 2800 <DISABLE_IRQ+0x2780>
    26fc:	01000000 	tsteq	r0, r0
    2700:	f7040050 	smlsdnv	r4, r0, r0, r0
    2704:	01000003 	tsteq	r0, r3
    2708:	000008b2 	streqh	r0, [r0], -r2
    270c:	2501ff01 	strcs	pc, [r1, #-3841]
    2710:	e8000000 	stmda	r0, {}
    2714:	5c30002c 	ldcpl	0, cr0, [r0], #-176
    2718:	0130002d 	teqeq	r0, sp, lsr #32
    271c:	0073055d 	rsbeqs	r0, r3, sp, asr r5
    2720:	00c5fe01 	sbceq	pc, r5, r1, lsl #28
    2724:	50010000 	andpl	r0, r1, r0
    2728:	0008140f 	andeq	r1, r8, pc, lsl #8
    272c:	c5fe0100 	ldrgtb	r0, [lr, #256]!
    2730:	01000000 	tsteq	r0, r0
    2734:	00701151 	rsbeqs	r1, r0, r1, asr r1
    2738:	c5010001 	strgt	r0, [r1, #-1]
    273c:	01000000 	tsteq	r0, r0
    2740:	00611150 	rsbeq	r1, r1, r0, asr r1
    2744:	c5010101 	strgt	r0, [r1, #-257]
    2748:	01000000 	tsteq	r0, r0
    274c:	049b1252 	ldreq	r1, [fp], #594
    2750:	02010000 	andeq	r0, r1, #0	; 0x0
    2754:	00002501 	andeq	r2, r0, r1, lsl #10
    2758:	005e0100 	subeqs	r0, lr, r0, lsl #2
    275c:	00044a13 	andeq	r4, r4, r3, lsl sl
    2760:	08860100 	stmeqia	r6, {r8}
    2764:	19010000 	stmnedb	r1, {}
    2768:	013c0101 	teqeq	ip, r1, lsl #2
    276c:	2d5c0000 	ldccsl	0, cr0, [ip]
    2770:	2da83000 	stccs	0, cr3, [r8]
    2774:	5d013000 	stcpl	0, cr3, [r1]
    2778:	00736314 	rsbeqs	r6, r3, r4, lsl r3
    277c:	c5011801 	strgt	r1, [r1, #-2049]
    2780:	01000000 	tsteq	r0, r0
    2784:	74631450 	strvcbt	r1, [r3], #-1104
    2788:	01180100 	tsteq	r8, r0, lsl #2
    278c:	000000c5 	andeq	r0, r0, r5, asr #1
    2790:	73115101 	tstvc	r1, #1073741824	; 0x40000000
    2794:	01003163 	tsteq	r0, r3, ror #2
    2798:	00c5011a 	sbceq	r0, r5, sl, lsl r1
    279c:	50010000 	andpl	r0, r1, r0
    27a0:	32637311 	rsbcc	r7, r3, #1140850688	; 0x44000000
    27a4:	011a0100 	tsteq	sl, r0, lsl #2
    27a8:	000000c5 	andeq	r0, r0, r5, asr #1
    27ac:	13005201 	tstne	r0, #268435456	; 0x10000000
    27b0:	0000049c 	muleq	r0, ip, r4
    27b4:	00085c01 	andeq	r5, r8, r1, lsl #24
    27b8:	012f0100 	teqeq	pc, r0, lsl #2
    27bc:	00013c01 	andeq	r3, r1, r1, lsl #24
    27c0:	002da800 	eoreq	sl, sp, r0, lsl #16
    27c4:	002e2c30 	eoreq	r2, lr, r0, lsr ip
    27c8:	145d0130 	ldrneb	r0, [sp], #-304
    27cc:	2e010073 	mcrcs	0, 0, r0, cr1, cr3, {3}
    27d0:	00013c01 	andeq	r3, r1, r1, lsl #24
    27d4:	14500100 	ldrneb	r0, [r0], #-256
    27d8:	01007463 	tsteq	r0, r3, ror #8
    27dc:	00c5012e 	sbceq	r0, r5, lr, lsr #2
    27e0:	55010000 	strpl	r0, [r1]
    27e4:	0008ab12 	andeq	sl, r8, r2, lsl fp
    27e8:	01300100 	teqeq	r0, r0, lsl #2
    27ec:	0000013c 	andeq	r0, r0, ip, lsr r1
    27f0:	96125401 	ldrls	r5, [r2], -r1, lsl #8
    27f4:	01000008 	tsteq	r0, r8
    27f8:	013c0130 	teqeq	ip, r0, lsr r1
    27fc:	50010000 	andpl	r0, r1, r0
    2800:	04ee1300 	streqbt	r1, [lr], #768
    2804:	05010000 	streq	r0, [r1]
    2808:	01000008 	tsteq	r0, r8
    280c:	3c010150 	stfccs	f0, [r1], {80}
    2810:	2c000001 	stccs	0, cr0, [r0], {1}
    2814:	6430002e 	ldrvst	r0, [r0], #-46
    2818:	0130002e 	teqeq	r0, lr, lsr #32
    281c:	0073145d 	rsbeqs	r1, r3, sp, asr r4
    2820:	ee014f01 	cdp	15, 0, cr4, cr1, cr1, {0}
    2824:	01000004 	tsteq	r0, r4
    2828:	74631455 	strvcbt	r1, [r3], #-1109
    282c:	014f0100 	cmpeq	pc, r0, lsl #2
    2830:	000000c5 	andeq	r0, r0, r5, asr #1
    2834:	ab125101 	blge	496c40 <DISABLE_IRQ+0x496bc0>
    2838:	01000008 	tsteq	r0, r8
    283c:	013c0151 	teqeq	ip, r1, asr r1
    2840:	54010000 	strpl	r0, [r1]
    2844:	646e6511 	strvsbt	r6, [lr], #-1297
    2848:	01510100 	cmpeq	r1, r0, lsl #2
    284c:	0000013c 	andeq	r0, r0, ip, lsr r1
    2850:	0b005001 	bleq	1685c <DISABLE_IRQ+0x167dc>
    2854:	00013c04 	andeq	r3, r1, r4, lsl #24
    2858:	05441300 	streqb	r1, [r4, #-768]
    285c:	67010000 	strvs	r0, [r1, -r0]
    2860:	01000002 	tsteq	r0, r2
    2864:	44010169 	strmi	r0, [r1], #-361
    2868:	64000005 	strvs	r0, [r0], #-5
    286c:	8830002e 	ldmhida	r0!, {r1, r2, r3, r5}
    2870:	0130002e 	teqeq	r0, lr, lsr #32
    2874:	0073145d 	rsbeqs	r1, r3, sp, asr r4
    2878:	44016801 	strmi	r6, [r1], #-2049
    287c:	01000005 	tsteq	r0, r5
    2880:	00631450 	rsbeq	r1, r3, r0, asr r4
    2884:	be016801 	cdplt	8, 0, cr6, cr1, cr1, {0}
    2888:	01000000 	tsteq	r0, r0
    288c:	049b1551 	ldreq	r1, [fp], #1361
    2890:	68010000 	stmvsda	r1, {}
    2894:	00002501 	andeq	r2, r0, r1, lsl #10
    2898:	11520100 	cmpne	r2, r0, lsl #2
    289c:	01007378 	tsteq	r0, r8, ror r3
    28a0:	013c016a 	teqeq	ip, sl, ror #2
    28a4:	53010000 	tstpl	r1, #0	; 0x0
    28a8:	17041600 	strne	r1, [r4, -r0, lsl #12]
    28ac:	000005a5 	andeq	r0, r0, r5, lsr #11
    28b0:	00086301 	andeq	r6, r8, r1, lsl #6
    28b4:	01810100 	orreq	r0, r1, r0, lsl #2
    28b8:	002e8801 	eoreq	r8, lr, r1, lsl #16
    28bc:	002ea830 	eoreq	sl, lr, r0, lsr r8
    28c0:	145d0130 	ldrneb	r0, [sp], #-304
    28c4:	00637273 	rsbeq	r7, r3, r3, ror r2
    28c8:	a5018001 	strge	r8, [r1, #-1]
    28cc:	01000005 	tsteq	r0, r5
    28d0:	02e71550 	rsceq	r1, r7, #335544320	; 0x14000000
    28d4:	80010000 	andhi	r0, r1, r0
    28d8:	00054401 	andeq	r4, r5, r1, lsl #8
    28dc:	15510100 	ldrneb	r0, [r1, #-256]
    28e0:	0000049b 	muleq	r0, fp, r4
    28e4:	25018001 	strcs	r8, [r1, #-1]
    28e8:	01000000 	tsteq	r0, r0
    28ec:	08a31252 	stmeqia	r3!, {r1, r4, r6, r9, ip}
    28f0:	82010000 	andhi	r0, r1, #0	; 0x0
    28f4:	00013c01 	andeq	r3, r1, r1, lsl #24
    28f8:	12510100 	subnes	r0, r1, #0	; 0x0
    28fc:	0000087f 	andeq	r0, r0, pc, ror r8
    2900:	3c018301 	stccc	3, cr8, [r1], {1}
    2904:	01000001 	tsteq	r0, r1
    2908:	040b0050 	streq	r0, [fp], #-80
    290c:	000005ab 	andeq	r0, r0, fp, lsr #11
    2910:	060d1318 	undefined
    2914:	0b010000 	bleq	4291c <DISABLE_IRQ+0x4289c>
    2918:	01000001 	tsteq	r0, r1
    291c:	44010195 	strmi	r0, [r1], #-405
    2920:	a8000005 	stmgeda	r0, {r0, r2}
    2924:	d030002e 	eorles	r0, r0, lr, lsr #32
    2928:	0130002e 	teqeq	r0, lr, lsr #32
    292c:	02e7155d 	rsceq	r1, r7, #390070272	; 0x17400000
    2930:	94010000 	strls	r0, [r1]
    2934:	00054401 	andeq	r4, r5, r1, lsl #8
    2938:	14500100 	ldrneb	r0, [r0], #-256
    293c:	00637273 	rsbeq	r7, r3, r3, ror r2
    2940:	a5019401 	strge	r9, [r1, #-1025]
    2944:	01000005 	tsteq	r0, r5
    2948:	049b1551 	ldreq	r1, [fp], #1361
    294c:	94010000 	strls	r0, [r1]
    2950:	00002501 	andeq	r2, r0, r1, lsl #10
    2954:	11520100 	cmpne	r2, r0, lsl #2
    2958:	00706d74 	rsbeqs	r6, r0, r4, ror sp
    295c:	3c019601 	stccc	6, cr9, [r1], {1}
    2960:	01000001 	tsteq	r0, r1
    2964:	0073115c 	rsbeqs	r1, r3, ip, asr r1
    2968:	3c019601 	stccc	6, cr9, [r1], {1}
    296c:	01000001 	tsteq	r0, r1
    2970:	6e130051 	mrcvs	0, 0, r0, cr3, cr1, {2}
    2974:	01000006 	tsteq	r0, r6
    2978:	0000080c 	andeq	r0, r0, ip, lsl #16
    297c:	0101a901 	tsteq	r1, r1, lsl #18
    2980:	00000544 	andeq	r0, r0, r4, asr #10
    2984:	30002ed0 	ldrccd	r2, [r0], -r0
    2988:	30002f28 	andcc	r2, r0, r8, lsr #30
    298c:	e7155d01 	ldr	r5, [r5, -r1, lsl #26]
    2990:	01000002 	tsteq	r0, r2
    2994:	054401a8 	streqb	r0, [r4, #-424]
    2998:	50010000 	andpl	r0, r1, r0
    299c:	63727314 	cmnvs	r2, #1342177280	; 0x50000000
    29a0:	01a80100 	moveq	r0, r0, lsl #2
    29a4:	000005a5 	andeq	r0, r0, r5, lsr #11
    29a8:	9b155101 	blls	556db4 <DISABLE_IRQ+0x556d34>
    29ac:	01000004 	tsteq	r0, r4
    29b0:	002501a8 	eoreq	r0, r5, r8, lsr #3
    29b4:	52010000 	andpl	r0, r1, #0	; 0x0
    29b8:	706d7411 	rsbvc	r7, sp, r1, lsl r4
    29bc:	01aa0100 	moveq	r0, r0, lsl #2
    29c0:	0000013c 	andeq	r0, r0, ip, lsr r1
    29c4:	73115c01 	tstvc	r1, #256	; 0x100
    29c8:	01aa0100 	moveq	r0, r0, lsl #2
    29cc:	0000013c 	andeq	r0, r0, ip, lsr r1
    29d0:	13005101 	tstne	r0, #1073741824	; 0x40000000
    29d4:	000006dd 	ldreqd	r0, [r0], -sp
    29d8:	00082901 	andeq	r2, r8, r1, lsl #18
    29dc:	01c50100 	biceq	r0, r5, r0, lsl #2
    29e0:	0000be01 	andeq	fp, r0, r1, lsl #28
    29e4:	002f2800 	eoreq	r2, pc, r0, lsl #16
    29e8:	002f5c30 	eoreq	r5, pc, r0, lsr ip
    29ec:	145d0130 	ldrneb	r0, [sp], #-304
    29f0:	01007363 	tsteq	r0, r3, ror #6
    29f4:	05a501c4 	streq	r0, [r5, #452]!
    29f8:	50010000 	andpl	r0, r1, r0
    29fc:	00746314 	rsbeqs	r6, r4, r4, lsl r3
    2a00:	a501c401 	strge	ip, [r1, #-1025]
    2a04:	01000005 	tsteq	r0, r5
    2a08:	049b1551 	ldreq	r1, [fp], #1361
    2a0c:	c4010000 	strgt	r0, [r1]
    2a10:	00002501 	andeq	r2, r0, r1, lsl #10
    2a14:	115c0100 	cmpne	ip, r0, lsl #2
    2a18:	00317573 	eoreqs	r7, r1, r3, ror r5
    2a1c:	dd01c601 	stcle	6, cr12, [r1, #-4]
    2a20:	01000006 	tsteq	r0, r6
    2a24:	75731150 	ldrvcb	r1, [r3, #-336]!
    2a28:	c6010032 	undefined
    2a2c:	0006dd01 	andeq	sp, r6, r1, lsl #26
    2a30:	11510100 	cmpne	r1, r0, lsl #2
    2a34:	00736572 	rsbeqs	r6, r3, r2, ror r5
    2a38:	be01c701 	cdplt	7, 0, cr12, cr1, cr1, {0}
    2a3c:	01000000 	tsteq	r0, r0
    2a40:	040b0052 	streq	r0, [fp], #-82
    2a44:	000006e3 	andeq	r0, r0, r3, ror #13
    2a48:	0000d70c 	andeq	sp, r0, ip, lsl #14
    2a4c:	07391300 	ldreq	r1, [r9, -r0, lsl #6]!
    2a50:	3e010000 	cdpcc	0, 0, cr0, cr1, cr0, {0}
    2a54:	01000008 	tsteq	r0, r8
    2a58:	440101db 	strmi	r0, [r1], #-475
    2a5c:	5c000005 	stcpl	0, cr0, [r0], {5}
    2a60:	8030002f 	eorhis	r0, r0, pc, lsr #32
    2a64:	0130002f 	teqeq	r0, pc, lsr #32
    2a68:	04db155d 	ldreqb	r1, [fp], #1373
    2a6c:	da010000 	ble	42a74 <DISABLE_IRQ+0x429f4>
    2a70:	00054401 	andeq	r4, r5, r1, lsl #8
    2a74:	14500100 	ldrneb	r0, [r0], #-256
    2a78:	da010063 	ble	42c0c <DISABLE_IRQ+0x42b8c>
    2a7c:	0000be01 	andeq	fp, r0, r1, lsl #28
    2a80:	15510100 	ldrneb	r0, [r1, #-256]
    2a84:	000005ae 	andeq	r0, r0, lr, lsr #11
    2a88:	2501da01 	strcs	sp, [r1, #-2561]
    2a8c:	01000000 	tsteq	r0, r0
    2a90:	00701152 	rsbeqs	r1, r0, r2, asr r1
    2a94:	3901dc01 	stmccdb	r1, {r0, sl, fp, ip, lr, pc}
    2a98:	01000007 	tsteq	r0, r7
    2a9c:	040b0050 	streq	r0, [fp], #-80
    2aa0:	000000d7 	ldreqd	r0, [r0], -r7
    2aa4:	00078e13 	andeq	r8, r7, r3, lsl lr
    2aa8:	08300100 	ldmeqda	r0!, {r8}
    2aac:	ef010000 	swi	0x00010000
    2ab0:	013c0101 	teqeq	ip, r1, lsl #2
    2ab4:	2f800000 	swics	0x00800000
    2ab8:	2fe83000 	swics	0x00e83000
    2abc:	5d013000 	stcpl	0, cr3, [r1]
    2ac0:	00317314 	eoreqs	r7, r1, r4, lsl r3
    2ac4:	c501ee01 	strgt	lr, [r1, #-3585]
    2ac8:	01000000 	tsteq	r0, r0
    2acc:	32731455 	rsbccs	r1, r3, #1426063360	; 0x55000000
    2ad0:	01ee0100 	mvneq	r0, r0, lsl #2
    2ad4:	000000c5 	andeq	r0, r0, r5, asr #1
    2ad8:	6c115701 	ldcvs	7, cr5, [r1], {1}
    2adc:	f0010031 	andnv	r0, r1, r1, lsr r0
    2ae0:	0000be01 	andeq	fp, r0, r1, lsl #28
    2ae4:	19540100 	ldmnedb	r4, {r8}^
    2ae8:	0100326c 	tsteq	r0, ip, ror #4
    2aec:	00be01f0 	ldreqsh	r0, [lr], r0
    2af0:	13000000 	tstne	r0, #0	; 0x0
    2af4:	000007db 	ldreqd	r0, [r0], -fp
    2af8:	00083701 	andeq	r3, r8, r1, lsl #14
    2afc:	020b0100 	andeq	r0, fp, #0	; 0x0
    2b00:	00054401 	andeq	r4, r5, r1, lsl #8
    2b04:	002fe800 	eoreq	lr, pc, r0, lsl #16
    2b08:	00301830 	eoreqs	r1, r0, r0, lsr r8
    2b0c:	145d0130 	ldrneb	r0, [sp], #-304
    2b10:	0a010073 	beq	42ce4 <DISABLE_IRQ+0x42c64>
    2b14:	0005a502 	andeq	sl, r5, r2, lsl #10
    2b18:	14500100 	ldrneb	r0, [r0], #-256
    2b1c:	0a010063 	beq	42cb0 <DISABLE_IRQ+0x42c30>
    2b20:	0000be02 	andeq	fp, r0, r2, lsl #28
    2b24:	14510100 	ldrneb	r0, [r1], #-256
    2b28:	0a01006e 	beq	42ce8 <DISABLE_IRQ+0x42c68>
    2b2c:	00002502 	andeq	r2, r0, r2, lsl #10
    2b30:	11520100 	cmpne	r2, r0, lsl #2
    2b34:	0c010070 	stceq	0, cr0, [r1], {112}
    2b38:	0006dd02 	andeq	sp, r6, r2, lsl #26
    2b3c:	00500100 	subeqs	r0, r0, r0, lsl #2
    2b40:	0007e61a 	andeq	lr, r7, sl, lsl r6
    2b44:	0000d700 	andeq	sp, r0, r0, lsl #14
    2b48:	1c001b00 	stcne	11, cr1, [r0], {0}
    2b4c:	000000f6 	streqd	r0, [r0], -r6
    2b50:	07db0f02 	ldreqb	r0, [fp, r2, lsl #30]
    2b54:	01010000 	tsteq	r1, r0
    2b58:	0008591d 	andeq	r5, r8, sp, lsl r9
    2b5c:	3c380100 	ldfccs	f0, [r8]
    2b60:	01000001 	tsteq	r0, r1
    2b64:	a0e40305 	rscge	r0, r4, r5, lsl #6
    2b68:	7b003000 	blvc	eb70 <DISABLE_IRQ+0xeaf0>
    2b6c:	02000009 	andeq	r0, r0, #9	; 0x9
    2b70:	000f9100 	andeq	r9, pc, r0, lsl #2
    2b74:	1a010400 	bne	43b7c <DISABLE_IRQ+0x43afc>
    2b78:	d800000d 	stmleda	r0, {r0, r2, r3}
    2b7c:	18300043 	ldmneda	r0!, {r0, r1, r6}
    2b80:	09300030 	ldmeqdb	r0!, {r4, r5}
    2b84:	01000000 	tsteq	r0, r0
    2b88:	00000997 	muleq	r0, r7, r9
    2b8c:	0000077a 	andeq	r0, r0, sl, ror r7
    2b90:	00081b02 	andeq	r1, r8, r2, lsl #22
    2b94:	300b0300 	andcc	r0, fp, r0, lsl #6
    2b98:	03000000 	tsteq	r0, #0	; 0x0
    2b9c:	000007b2 	streqh	r0, [r0], -r2
    2ba0:	fd020704 	stc2	7, cr0, [r2, #-16]
    2ba4:	04000007 	streq	r0, [r0], #-7
    2ba8:	0000420e 	andeq	r4, r0, lr, lsl #4
    2bac:	48040400 	stmmida	r4, {sl}
    2bb0:	03000000 	tsteq	r0, #0	; 0x0
    2bb4:	000000b7 	streqh	r0, [r0], -r7
    2bb8:	f2050801 	andnv	r0, r5, #65536	; 0x10000
    2bbc:	01000000 	tsteq	r0, r0
    2bc0:	000008e2 	andeq	r0, r0, r2, ror #17
    2bc4:	f2012601 	andnv	r2, r1, #1048576	; 0x100000
    2bc8:	18000000 	stmneda	r0, {}
    2bcc:	10300030 	eornes	r0, r0, r0, lsr r0
    2bd0:	01300031 	teqeq	r0, r1, lsr r0
    2bd4:	7063065d 	rsbvc	r0, r3, sp, asr r6
    2bd8:	f9250100 	stmnvdb	r5!, {r8}
    2bdc:	01000000 	tsteq	r0, r0
    2be0:	09740750 	ldmeqdb	r4!, {r4, r6, r8, r9, sl}^
    2be4:	25010000 	strcs	r0, [r1]
    2be8:	00000104 	andeq	r0, r0, r4, lsl #2
    2bec:	39075401 	stmccdb	r7, {r0, sl, ip, lr}
    2bf0:	01000009 	tsteq	r0, r9
    2bf4:	00003025 	andeq	r3, r0, r5, lsr #32
    2bf8:	085e0100 	ldmeqda	lr, {r8}^
    2bfc:	00000990 	muleq	r0, r0, r9
    2c00:	00f22701 	rsceqs	r2, r2, r1, lsl #14
    2c04:	51010000 	tstpl	r1, r0
    2c08:	0008fe08 	andeq	pc, r8, r8, lsl #28
    2c0c:	f2270100 	eornv	r0, r7, #0	; 0x0
    2c10:	01000000 	tsteq	r0, r0
    2c14:	00c3095c 	sbceq	r0, r3, ip, asr r9
    2c18:	010a0000 	tsteq	sl, r0
    2c1c:	304c0000 	subcc	r0, ip, r0
    2c20:	30583000 	subccs	r3, r8, r0
    2c24:	1b0a3000 	blne	28ec2c <DISABLE_IRQ+0x28ebac>
    2c28:	01000001 	tsteq	r0, r1
    2c2c:	dc090053 	stcle	0, cr0, [r9], {83}
    2c30:	0a000000 	beq	2c38 <DISABLE_IRQ+0x2bb8>
    2c34:	a8000001 	stmgeda	r0, {r0}
    2c38:	c0300030 	eorgts	r0, r0, r0, lsr r0
    2c3c:	0a300030 	beq	c02d04 <DISABLE_IRQ+0xc02c84>
    2c40:	0000011b 	andeq	r0, r0, fp, lsl r1
    2c44:	0b005201 	bleq	17450 <DISABLE_IRQ+0x173d0>
    2c48:	0000010a 	andeq	r0, r0, sl, lsl #2
    2c4c:	300030cc 	andcc	r3, r0, ip, asr #1
    2c50:	300030e8 	andcc	r3, r0, r8, ror #1
    2c54:	00011b0a 	andeq	r1, r1, sl, lsl #22
    2c58:	00520100 	subeqs	r0, r2, r0, lsl #2
    2c5c:	07ad0300 	streq	r0, [sp, r0, lsl #6]!
    2c60:	07040000 	streq	r0, [r4, -r0]
    2c64:	00ff0404 	rsceqs	r0, pc, r4, lsl #8
    2c68:	480c0000 	stmmida	ip, {}
    2c6c:	04000000 	streq	r0, [r0]
    2c70:	00004204 	andeq	r4, r0, r4, lsl #4
    2c74:	01250d00 	teqeq	r5, r0, lsl #26
    2c78:	093e0000 	ldmeqdb	lr!, {}
    2c7c:	2a020000 	bcs	82c84 <DISABLE_IRQ+0x82c04>
    2c80:	00012501 	andeq	r2, r1, r1, lsl #10
    2c84:	630e0300 	tstvs	lr, #0	; 0x0
    2c88:	25290200 	strcs	r0, [r9, #-512]!
    2c8c:	00000001 	andeq	r0, r0, r1
    2c90:	0000ae03 	andeq	sl, r0, r3, lsl #28
    2c94:	05080100 	streq	r0, [r8, #-256]
    2c98:	0000016e 	andeq	r0, r0, lr, ror #2
    2c9c:	00090401 	andeq	r0, r9, r1, lsl #8
    2ca0:	014a0100 	cmpeq	sl, r0, lsl #2
    2ca4:	0000016e 	andeq	r0, r0, lr, ror #2
    2ca8:	30003110 	andcc	r3, r0, r0, lsl r1
    2cac:	30003138 	andcc	r3, r0, r8, lsr r1
    2cb0:	63065d01 	tstvs	r6, #64	; 0x40
    2cb4:	49010070 	stmmidb	r1, {r4, r5, r6}
    2cb8:	000000f9 	streqd	r0, [r0], -r9
    2cbc:	74075c01 	strvc	r5, [r7], #-3073
    2cc0:	01000009 	tsteq	r0, r9
    2cc4:	00010449 	andeq	r0, r1, r9, asr #8
    2cc8:	07510100 	ldreqb	r0, [r1, -r0, lsl #2]
    2ccc:	00000939 	andeq	r0, r0, r9, lsr r9
    2cd0:	00304901 	eoreqs	r4, r0, r1, lsl #18
    2cd4:	52010000 	andpl	r0, r1, #0	; 0x0
    2cd8:	07c90300 	streqb	r0, [r9, r0, lsl #6]
    2cdc:	05040000 	streq	r0, [r4]
    2ce0:	00022205 	andeq	r2, r2, r5, lsl #4
    2ce4:	094d0100 	stmeqdb	sp, {r8}^
    2ce8:	59010000 	stmpldb	r1, {}
    2cec:	00022201 	andeq	r2, r2, r1, lsl #4
    2cf0:	00313800 	eoreqs	r3, r1, r0, lsl #16
    2cf4:	00328030 	eoreqs	r8, r2, r0, lsr r0
    2cf8:	065d0130 	undefined
    2cfc:	01007063 	tsteq	r0, r3, rrx
    2d00:	0000f958 	andeq	pc, r0, r8, asr r9
    2d04:	07580100 	ldreqb	r0, [r8, -r0, lsl #2]
    2d08:	00000974 	andeq	r0, r0, r4, ror r9
    2d0c:	01045801 	tsteq	r4, r1, lsl #16
    2d10:	59010000 	stmpldb	r1, {}
    2d14:	00093907 	andeq	r3, r9, r7, lsl #18
    2d18:	30580100 	subccs	r0, r8, r0, lsl #2
    2d1c:	01000000 	tsteq	r0, r0
    2d20:	0990085e 	ldmeqib	r0, {r1, r2, r3, r4, r6, fp}
    2d24:	5a010000 	bpl	42d2c <DISABLE_IRQ+0x42cac>
    2d28:	00000222 	andeq	r0, r0, r2, lsr #4
    2d2c:	04935a06 	ldreq	r5, [r3], #2566
    2d30:	0804935b 	stmeqda	r4, {r0, r1, r3, r4, r6, r8, r9, ip, pc}
    2d34:	000008fe 	streqd	r0, [r0], -lr
    2d38:	02225a01 	eoreq	r5, r2, #4096	; 0x1000
    2d3c:	54060000 	strpl	r0, [r6]
    2d40:	93550493 	cmpls	r5, #-1828716544	; 0x93000000
    2d44:	01f30904 	mvneqs	r0, r4, lsl #18
    2d48:	010a0000 	tsteq	sl, r0
    2d4c:	31780000 	cmncc	r8, r0
    2d50:	31803000 	orrcc	r3, r0, r0
    2d54:	1b0a3000 	blne	28ed5c <DISABLE_IRQ+0x28ecdc>
    2d58:	01000001 	tsteq	r0, r1
    2d5c:	0c090053 	stceq	0, cr0, [r9], {83}
    2d60:	0a000002 	beq	2d70 <DISABLE_IRQ+0x2cf0>
    2d64:	14000001 	strne	r0, [r0], #-1
    2d68:	2c300032 	ldccs	0, cr0, [r0], #-200
    2d6c:	0a300032 	beq	c02e3c <DISABLE_IRQ+0xc02dbc>
    2d70:	0000011b 	andeq	r0, r0, fp, lsl r1
    2d74:	0b005201 	bleq	17580 <DISABLE_IRQ+0x17500>
    2d78:	0000010a 	andeq	r0, r0, sl, lsl #2
    2d7c:	30003238 	andcc	r3, r0, r8, lsr r2
    2d80:	30003254 	andcc	r3, r0, r4, asr r2
    2d84:	00011b0a 	andeq	r1, r1, sl, lsl #22
    2d88:	00520100 	subeqs	r0, r2, r0, lsl #2
    2d8c:	07a80300 	streq	r0, [r8, r0, lsl #6]!
    2d90:	07080000 	streq	r0, [r8, -r0]
    2d94:	00026b05 	andeq	r6, r2, r5, lsl #22
    2d98:	095d0100 	ldmeqdb	sp, {r8}^
    2d9c:	7d010000 	stcvc	0, cr0, [r1]
    2da0:	00026b01 	andeq	r6, r2, r1, lsl #22
    2da4:	00328000 	eoreqs	r8, r2, r0
    2da8:	0032ac30 	eoreqs	sl, r2, r0, lsr ip
    2dac:	065d0130 	undefined
    2db0:	01007063 	tsteq	r0, r3, rrx
    2db4:	0000f97c 	andeq	pc, r0, ip, ror r9
    2db8:	075c0100 	ldreqb	r0, [ip, -r0, lsl #2]
    2dbc:	00000974 	andeq	r0, r0, r4, ror r9
    2dc0:	01047c01 	tsteq	r4, r1, lsl #24
    2dc4:	51010000 	tstpl	r1, r0
    2dc8:	00093907 	andeq	r3, r9, r7, lsl #18
    2dcc:	307c0100 	rsbccs	r0, ip, r0, lsl #2
    2dd0:	01000000 	tsteq	r0, r0
    2dd4:	c4030052 	strgt	r0, [r3], #-82
    2dd8:	08000007 	stmeqda	r0, {r0, r1, r2}
    2ddc:	02a30f05 	adceq	r0, r3, #20	; 0x14
    2de0:	09120000 	ldmeqdb	r2, {}
    2de4:	84010000 	strhi	r0, [r1]
    2de8:	0002a301 	andeq	sl, r2, r1, lsl #6
    2dec:	0032ac00 	eoreqs	sl, r2, r0, lsl #24
    2df0:	0032fc30 	eoreqs	pc, r2, r0, lsr ip
    2df4:	065d0130 	undefined
    2df8:	83010073 	tsthi	r1, #115	; 0x73
    2dfc:	000002aa 	andeq	r0, r0, sl, lsr #5
    2e00:	69105e01 	ldmvsdb	r0, {r0, r9, sl, fp, ip, lr}
    2e04:	a3850100 	orrge	r0, r5, #0	; 0x0
    2e08:	01000002 	tsteq	r0, r2
    2e0c:	69110050 	ldmvsdb	r1, {r4, r6}
    2e10:	0400746e 	streq	r7, [r0], #-1134
    2e14:	f9040405 	stmnvdb	r4, {r0, r2, sl}
    2e18:	0f000000 	swieq	0x00000000
    2e1c:	000003d6 	ldreqd	r0, [r0], -r6
    2e20:	000009a9 	andeq	r0, r0, r9, lsr #19
    2e24:	42019501 	andmi	r9, r1, #4194304	; 0x400000
    2e28:	fc000000 	stc2	0, cr0, [r0], {0}
    2e2c:	e4300032 	ldrt	r0, [r0], #-50
    2e30:	01300035 	teqeq	r0, r5, lsr r0
    2e34:	7562065d 	strvcb	r0, [r2, #-1629]!
    2e38:	94010066 	strls	r0, [r1], #-102
    2e3c:	00000042 	andeq	r0, r0, r2, asr #32
    2e40:	65065501 	strvs	r5, [r6, #-1281]
    2e44:	0100646e 	tsteq	r0, lr, ror #8
    2e48:	00004294 	muleq	r0, r4, r2
    2e4c:	06590100 	ldreqb	r0, [r9], -r0, lsl #2
    2e50:	006d756e 	rsbeq	r7, sp, lr, ror #10
    2e54:	02229401 	eoreq	r9, r2, #16777216	; 0x1000000
    2e58:	56060000 	strpl	r0, [r6], -r0
    2e5c:	93570493 	cmpls	r7, #-1828716544	; 0x93000000
    2e60:	09390704 	ldmeqdb	r9!, {r2, r8, r9, sl}
    2e64:	94010000 	strls	r0, [r1]
    2e68:	000002a3 	andeq	r0, r0, r3, lsr #5
    2e6c:	00f89103 	rsceqs	r9, r8, r3, lsl #2
    2e70:	0005ae07 	andeq	sl, r5, r7, lsl #28
    2e74:	a3940100 	orrges	r0, r4, #0	; 0x0
    2e78:	01000002 	tsteq	r0, r2
    2e7c:	09b00758 	ldmeqib	r0!, {r3, r4, r6, r8, r9, sl}
    2e80:	94010000 	strls	r0, [r1]
    2e84:	000002a3 	andeq	r0, r0, r3, lsr #5
    2e88:	e6075b01 	str	r5, [r7], -r1, lsl #22
    2e8c:	01000007 	tsteq	r0, r7
    2e90:	0002a394 	muleq	r2, r4, r3
    2e94:	84910300 	ldrhi	r0, [r1], #768
    2e98:	00631001 	rsbeq	r1, r3, r1
    2e9c:	00489601 	subeq	r9, r8, r1, lsl #12
    2ea0:	91020000 	tstls	r2, r0
    2ea4:	09cf080c 	stmeqib	pc, {r2, r3, fp}^
    2ea8:	96010000 	strls	r0, [r1], -r0
    2eac:	00000048 	andeq	r0, r0, r8, asr #32
    2eb0:	10089102 	andne	r9, r8, r2, lsl #2
    2eb4:	00706d74 	rsbeqs	r6, r0, r4, ror sp
    2eb8:	03d69601 	biceqs	r9, r6, #1048576	; 0x100000
    2ebc:	91020000 	tstls	r2, r0
    2ec0:	08f70810 	ldmeqia	r7!, {r4, fp}^
    2ec4:	97010000 	strls	r0, [r1, -r0]
    2ec8:	000000f9 	streqd	r0, [r0], -r9
    2ecc:	08049102 	stmeqda	r4, {r1, r8, ip, pc}
    2ed0:	00000979 	andeq	r0, r0, r9, ror r9
    2ed4:	03fd9801 	mvneqs	r9, #65536	; 0x10000
    2ed8:	03050000 	tsteq	r5, #0	; 0x0
    2edc:	300043d8 	ldrccd	r4, [r0], -r8
    2ee0:	0008f108 	andeq	pc, r8, r8, lsl #2
    2ee4:	12990100 	addnes	r0, r9, #0	; 0x0
    2ee8:	05000004 	streq	r0, [r0, #-4]
    2eec:	00440003 	subeq	r0, r4, r3
    2ef0:	00691030 	rsbeq	r1, r9, r0, lsr r0
    2ef4:	02a39a01 	adceq	r9, r3, #4096	; 0x1000
    2ef8:	5a010000 	bpl	42f00 <DISABLE_IRQ+0x42e80>
    2efc:	0000a812 	andeq	sl, r0, r2, lsl r8
    2f00:	09370800 	ldmeqdb	r7!, {fp}
    2f04:	ba010000 	blt	42f0c <DISABLE_IRQ+0x42e8c>
    2f08:	00000030 	andeq	r0, r0, r0, lsr r0
    2f0c:	5f105401 	swipl	0x00105401
    2f10:	01006e5f 	tsteq	r0, pc, asr lr
    2f14:	000222ba 	streqh	r2, [r2], -sl
    2f18:	93500600 	cmpls	r0, #0	; 0x0
    2f1c:	04935104 	ldreq	r5, [r3], #260
    2f20:	0008c208 	andeq	ip, r8, r8, lsl #4
    2f24:	22ba0100 	adccss	r0, sl, #0	; 0x0
    2f28:	06000002 	streq	r0, [r0], -r2
    2f2c:	53049352 	tstpl	r4, #1207959553	; 0x48000001
    2f30:	c6080493 	undefined
    2f34:	01000009 	tsteq	r0, r9
    2f38:	000030ba 	streqh	r3, [r0], -sl
    2f3c:	00510100 	subeqs	r0, r1, r0, lsl #2
    2f40:	03e61300 	mvneq	r1, #0	; 0x0
    2f44:	00480000 	subeq	r0, r8, r0
    2f48:	e6140000 	ldr	r0, [r4], -r0
    2f4c:	41000003 	tstmi	r0, r3
    2f50:	07b20300 	ldreq	r0, [r2, r0, lsl #6]!
    2f54:	07040000 	streq	r0, [r4, -r0]
    2f58:	0003fd13 	andeq	pc, r3, r3, lsl sp
    2f5c:	0000ff00 	andeq	pc, r0, r0, lsl #30
    2f60:	03e61400 	mvneq	r1, #0	; 0x0
    2f64:	00240000 	eoreq	r0, r4, r0
    2f68:	0003ed0c 	andeq	lr, r3, ip, lsl #26
    2f6c:	04121300 	ldreq	r1, [r2], #-768
    2f70:	00ff0000 	rsceqs	r0, pc, r0
    2f74:	e6140000 	ldr	r0, [r4], -r0
    2f78:	24000003 	strcs	r0, [r0], #-3
    2f7c:	04020c00 	streq	r0, [r2], #-3072
    2f80:	54150000 	ldrpl	r0, [r5]
    2f84:	01000005 	tsteq	r0, r5
    2f88:	000008d8 	ldreqd	r0, [r0], -r8
    2f8c:	01010401 	tsteq	r1, r1, lsl #8
    2f90:	000002a3 	andeq	r0, r0, r3, lsr #5
    2f94:	300035e4 	andcc	r3, r0, r4, ror #11
    2f98:	30003c10 	andcc	r3, r0, r0, lsl ip
    2f9c:	62165d01 	andvss	r5, r6, #64	; 0x40
    2fa0:	01006675 	tsteq	r0, r5, ror r6
    2fa4:	00420103 	subeq	r0, r2, r3, lsl #2
    2fa8:	5a010000 	bpl	42fb0 <DISABLE_IRQ+0x42f30>
    2fac:	0005ae17 	andeq	sl, r5, r7, lsl lr
    2fb0:	01030100 	tsteq	r3, r0, lsl #2
    2fb4:	00000025 	andeq	r0, r0, r5, lsr #32
    2fb8:	16109102 	ldrne	r9, [r0], -r2, lsl #2
    2fbc:	00746d66 	rsbeqs	r6, r4, r6, ror #26
    2fc0:	f9010301 	stmnvdb	r1, {r0, r8, r9}
    2fc4:	02000000 	andeq	r0, r0, #0	; 0x0
    2fc8:	5a171491 	bpl	5c8214 <DISABLE_IRQ+0x5c8194>
    2fcc:	01000002 	tsteq	r0, r2
    2fd0:	00370103 	eoreqs	r0, r7, r3, lsl #2
    2fd4:	59010000 	stmpldb	r1, {}
    2fd8:	6e656c18 	mcrvs	12, 3, r6, cr5, cr8, {0}
    2fdc:	01050100 	tsteq	r5, r0, lsl #2
    2fe0:	000002a3 	andeq	r0, r0, r3, lsr #5
    2fe4:	6e185001 	wxorvs	wr5, wr8, wr1
    2fe8:	01006d75 	tsteq	r0, r5, ror sp
    2fec:	02220106 	eoreq	r0, r2, #-2147483647	; 0x80000001
    2ff0:	51060000 	tstpl	r6, r0
    2ff4:	93520493 	cmpls	r2, #-1828716544	; 0x93000000
    2ff8:	00691804 	rsbeq	r1, r9, r4, lsl #16
    2ffc:	a3010701 	tstge	r1, #262144	; 0x40000
    3000:	01000002 	tsteq	r0, r2
    3004:	09391952 	ldmeqdb	r9!, {r1, r4, r6, r8, fp, ip}
    3008:	07010000 	streq	r0, [r1, -r0]
    300c:	0002a301 	andeq	sl, r2, r1, lsl #6
    3010:	185e0100 	ldmneda	lr, {r8}^
    3014:	00727473 	rsbeqs	r7, r2, r3, ror r4
    3018:	42010801 	andmi	r0, r1, #65536	; 0x10000
    301c:	01000000 	tsteq	r0, r0
    3020:	6e651854 	mcrvs	8, 3, r1, cr5, cr4, {2}
    3024:	08010064 	stmeqda	r1, {r2, r5, r6}
    3028:	00004201 	andeq	r4, r0, r1, lsl #4
    302c:	18570100 	ldmneda	r7, {r8}^
    3030:	08010063 	stmeqda	r1, {r0, r1, r5, r6}
    3034:	00004801 	andeq	r4, r0, r1, lsl #16
    3038:	18530100 	ldmneda	r3, {r8}^
    303c:	09010073 	stmeqdb	r1, {r0, r1, r4, r5, r6}
    3040:	0000f901 	andeq	pc, r0, r1, lsl #18
    3044:	19560100 	ldmnedb	r6, {r8}^
    3048:	0000055c 	andeq	r0, r0, ip, asr r5
    304c:	a3010b01 	tstge	r1, #1024	; 0x400
    3050:	01000002 	tsteq	r0, r2
    3054:	09ba1955 	ldmeqib	sl!, {r0, r2, r4, r6, r8, fp, ip}
    3058:	0d010000 	stceq	0, cr0, [r1]
    305c:	0002a301 	andeq	sl, r2, r1, lsl #6
    3060:	19580100 	ldmnedb	r8, {r8}^
    3064:	000009b0 	streqh	r0, [r0], -r0
    3068:	a3010e01 	tstge	r1, #16	; 0x10
    306c:	01000002 	tsteq	r0, r2
    3070:	0986195b 	stmeqib	r6, {r0, r1, r3, r4, r6, r8, fp, ip}
    3074:	10010000 	andne	r0, r1, r0
    3078:	0002a301 	andeq	sl, r2, r1, lsl #6
    307c:	1a520100 	bne	1483484 <DISABLE_IRQ+0x1483404>
    3080:	000009a2 	andeq	r0, r0, r2, lsr #19
    3084:	b8013201 	stmltda	r1, {r0, r9, ip, sp}
    3088:	1b300036 	blne	c03168 <DISABLE_IRQ+0xc030e8>
    308c:	0000053c 	andeq	r0, r0, ip, lsr r5
    3090:	000000c0 	andeq	r0, r0, r0, asr #1
    3094:	00094819 	andeq	r4, r9, r9, lsl r8
    3098:	01170100 	tsteq	r7, r0, lsl #2
    309c:	000002a3 	andeq	r0, r0, r3, lsr #5
    30a0:	4c180305 	ldcmi	3, cr0, [r8], {5}
    30a4:	1c003000 	stcne	0, cr3, [r0], {0}
    30a8:	30003b58 	andcc	r3, r0, r8, asr fp
    30ac:	30003b68 	andcc	r3, r0, r8, ror #22
    30b0:	00706918 	rsbeqs	r6, r0, r8, lsl r9
    30b4:	5401a801 	strpl	sl, [r1], #-2049
    30b8:	01000005 	tsteq	r0, r5
    30bc:	04000052 	streq	r0, [r0], #-82
    30c0:	0002a304 	andeq	sl, r2, r4, lsl #6
    30c4:	05bb1500 	ldreq	r1, [fp, #1280]!
    30c8:	2c010000 	stccs	0, cr0, [r1], {0}
    30cc:	01000009 	tsteq	r0, r9
    30d0:	a3010201 	tstge	r1, #268435456	; 0x10000000
    30d4:	10000002 	andne	r0, r0, r2
    30d8:	3030003c 	eorccs	r0, r0, ip, lsr r0
    30dc:	0130003c 	teqeq	r0, ip, lsr r0
    30e0:	7562165d 	strvcb	r1, [r2, #-1629]!
    30e4:	00010066 	andeq	r0, r1, r6, rrx
    30e8:	00004202 	andeq	r4, r0, r2, lsl #4
    30ec:	17500100 	ldrneb	r0, [r0, -r0, lsl #2]
    30f0:	000005ae 	andeq	r0, r0, lr, lsr #11
    30f4:	25020001 	strcs	r0, [r2, #-1]
    30f8:	01000000 	tsteq	r0, r0
    30fc:	6d661654 	stcvsl	6, cr1, [r6, #-336]!
    3100:	00010074 	andeq	r0, r1, r4, ror r0
    3104:	0000f902 	andeq	pc, r0, r2, lsl #18
    3108:	17520100 	ldrneb	r0, [r2, -r0, lsl #2]
    310c:	0000025a 	andeq	r0, r0, sl, asr r2
    3110:	37020001 	strcc	r0, [r2, -r1]
    3114:	01000000 	tsteq	r0, r0
    3118:	00691853 	rsbeq	r1, r9, r3, asr r8
    311c:	a3020201 	tstge	r2, #268435456	; 0x10000000
    3120:	01000002 	tsteq	r0, r2
    3124:	1a150050 	bne	54326c <DISABLE_IRQ+0x5431ec>
    3128:	01000006 	tsteq	r0, r6
    312c:	000008d9 	ldreqd	r0, [r0], -r9
    3130:	01021701 	tsteq	r2, r1, lsl #14
    3134:	000002a3 	andeq	r0, r0, r3, lsr #5
    3138:	30003c30 	andcc	r3, r0, r0, lsr ip
    313c:	30003c50 	andcc	r3, r0, r0, asr ip
    3140:	62165d01 	andvss	r5, r6, #64	; 0x40
    3144:	01006675 	tsteq	r0, r5, ror r6
    3148:	00420216 	subeq	r0, r2, r6, lsl r2
    314c:	50010000 	andpl	r0, r1, r0
    3150:	0005ae17 	andeq	sl, r5, r7, lsl lr
    3154:	02160100 	andeqs	r0, r6, #0	; 0x0
    3158:	00000025 	andeq	r0, r0, r5, lsr #32
    315c:	66165101 	ldrvs	r5, [r6], -r1, lsl #2
    3160:	0100746d 	tsteq	r0, sp, ror #8
    3164:	00f90216 	rsceqs	r0, r9, r6, lsl r2
    3168:	91020000 	tstls	r2, r0
    316c:	5a1e1d04 	bpl	78a584 <DISABLE_IRQ+0x78a504>
    3170:	01000002 	tsteq	r0, r2
    3174:	00370218 	eoreqs	r0, r7, r8, lsl r2
    3178:	691f0000 	ldmvsdb	pc, {}
    317c:	02190100 	andeqs	r0, r9, #0	; 0x0
    3180:	000002a3 	andeq	r0, r0, r3, lsr #5
    3184:	067b1500 	ldreqbt	r1, [fp], -r0, lsl #10
    3188:	2d010000 	stccs	0, cr0, [r1]
    318c:	01000009 	tsteq	r0, r9
    3190:	a3010230 	tstge	r1, #3	; 0x3
    3194:	50000002 	andpl	r0, r0, r2
    3198:	8430003c 	ldrhit	r0, [r0], #-60
    319c:	0130003c 	teqeq	r0, ip, lsr r0
    31a0:	7562165d 	strvcb	r1, [r2, #-1629]!
    31a4:	2f010066 	swics	0x00010066
    31a8:	00004202 	andeq	r4, r0, r2, lsl #4
    31ac:	17500100 	ldrneb	r0, [r0, -r0, lsl #2]
    31b0:	000005ae 	andeq	r0, r0, lr, lsr #11
    31b4:	25022f01 	strcs	r2, [r2, #-3841]
    31b8:	01000000 	tsteq	r0, r0
    31bc:	6d661654 	stcvsl	6, cr1, [r6, #-336]!
    31c0:	2f010074 	swics	0x00010074
    31c4:	0000f902 	andeq	pc, r0, r2, lsl #18
    31c8:	08910200 	ldmeqia	r1, {r9}
    31cc:	025a1e1d 	subeqs	r1, sl, #464	; 0x1d0
    31d0:	31010000 	tstcc	r1, r0
    31d4:	00003702 	andeq	r3, r0, r2, lsl #14
    31d8:	00691800 	rsbeq	r1, r9, r0, lsl #16
    31dc:	a3023201 	tstge	r2, #268435456	; 0x10000000
    31e0:	01000002 	tsteq	r0, r2
    31e4:	c2150050 	andgts	r0, r5, #80	; 0x50
    31e8:	01000006 	tsteq	r0, r6
    31ec:	000009d4 	ldreqd	r0, [r0], -r4
    31f0:	01024901 	tsteq	r2, r1, lsl #18
    31f4:	000002a3 	andeq	r0, r0, r3, lsr #5
    31f8:	30003c84 	andcc	r3, r0, r4, lsl #25
    31fc:	30003c94 	mulcc	r0, r4, ip
    3200:	62165d01 	andvss	r5, r6, #64	; 0x40
    3204:	01006675 	tsteq	r0, r5, ror r6
    3208:	00420248 	subeq	r0, r2, r8, asr #4
    320c:	50010000 	andpl	r0, r1, r0
    3210:	746d6616 	strvcbt	r6, [sp], #-1558
    3214:	02480100 	subeq	r0, r8, #0	; 0x0
    3218:	000000f9 	streqd	r0, [r0], -r9
    321c:	5a175101 	bpl	5d7628 <DISABLE_IRQ+0x5d75a8>
    3220:	01000002 	tsteq	r0, r2
    3224:	00370248 	eoreqs	r0, r7, r8, asr #4
    3228:	53010000 	tstpl	r1, #0	; 0x0
    322c:	07131500 	ldreq	r1, [r3, -r0, lsl #10]
    3230:	d5010000 	strle	r0, [r1]
    3234:	01000009 	tsteq	r0, r9
    3238:	a301025a 	tstge	r1, #-1610612731	; 0xa0000005
    323c:	94000002 	strls	r0, [r0], #-2
    3240:	b430003c 	ldrltt	r0, [r0], #-60
    3244:	0130003c 	teqeq	r0, ip, lsr r0
    3248:	7562165d 	strvcb	r1, [r2, #-1629]!
    324c:	59010066 	stmpldb	r1, {r1, r2, r5, r6}
    3250:	00004202 	andeq	r4, r0, r2, lsl #4
    3254:	16500100 	ldrneb	r0, [r0], -r0, lsl #2
    3258:	00746d66 	rsbeqs	r6, r4, r6, ror #26
    325c:	f9025901 	stmnvdb	r2, {r0, r8, fp, ip, lr}
    3260:	02000000 	andeq	r0, r0, #0	; 0x0
    3264:	1e1d0491 	cfcmpsne	r0, mvf13, mvf1
    3268:	0000025a 	andeq	r0, r0, sl, asr r2
    326c:	37025b01 	strcc	r5, [r2, -r1, lsl #22]
    3270:	1f000000 	swine	0x00000000
    3274:	5c010069 	stcpl	0, cr0, [r1], {105}
    3278:	0002a302 	andeq	sl, r2, r2, lsl #6
    327c:	d6150000 	ldrle	r0, [r5], -r0
    3280:	01000008 	tsteq	r0, r8
    3284:	0000096c 	andeq	r0, r0, ip, ror #18
    3288:	01027501 	tsteq	r2, r1, lsl #10
    328c:	000002a3 	andeq	r0, r0, r3, lsr #5
    3290:	30003cb4 	strcch	r3, [r0], -r4
    3294:	300043b8 	strcch	r4, [r0], -r8
    3298:	62165d01 	andvss	r5, r6, #64	; 0x40
    329c:	01006675 	tsteq	r0, r5, ror r6
    32a0:	00f90274 	rsceqs	r0, r9, r4, ror r2
    32a4:	58010000 	stmplda	r1, {}
    32a8:	746d6616 	strvcbt	r6, [sp], #-1558
    32ac:	02740100 	rsbeqs	r0, r4, #0	; 0x0
    32b0:	000000f9 	streqd	r0, [r0], -r9
    32b4:	17049102 	strne	r9, [r4, -r2, lsl #2]
    32b8:	0000025a 	andeq	r0, r0, sl, asr r2
    32bc:	37027401 	strcc	r7, [r2, -r1, lsl #8]
    32c0:	01000000 	tsteq	r0, r0
    32c4:	74731855 	ldrvcbt	r1, [r3], #-2133
    32c8:	76010072 	undefined
    32cc:	0000f902 	andeq	pc, r0, r2, lsl #18
    32d0:	19540100 	ldmnedb	r4, {r8}^
    32d4:	0000013b 	andeq	r0, r0, fp, lsr r1
    32d8:	42027701 	andmi	r7, r2, #262144	; 0x40000
    32dc:	02000000 	andeq	r0, r0, #0	; 0x0
    32e0:	1c190091 	ldcne	0, cr0, [r9], {145}
    32e4:	01000009 	tsteq	r0, r9
    32e8:	00480278 	subeq	r0, r8, r8, ror r2
    32ec:	51010000 	tstpl	r1, r0
    32f0:	6d756e18 	ldcvsl	14, cr6, [r5, #-96]!
    32f4:	02790100 	rsbeqs	r0, r9, #0	; 0x0
    32f8:	000002a3 	andeq	r0, r0, r3, lsr #5
    32fc:	86195701 	ldrhi	r5, [r9], -r1, lsl #14
    3300:	01000009 	tsteq	r0, r9
    3304:	02a3027a 	adceq	r0, r3, #-1610612729	; 0xa0000007
    3308:	5e010000 	cdppl	0, 0, cr0, cr1, cr0, {0}
    330c:	00093919 	andeq	r3, r9, r9, lsl r9
    3310:	027b0100 	rsbeqs	r0, fp, #0	; 0x0
    3314:	000002a3 	andeq	r0, r0, r3, lsr #5
    3318:	ba195201 	blt	657b24 <DISABLE_IRQ+0x657aa4>
    331c:	01000009 	tsteq	r0, r9
    3320:	02a3027c 	adceq	r0, r3, #-1073741817	; 0xc0000007
    3324:	50010000 	andpl	r0, r1, r0
    3328:	0009cc19 	andeq	ip, r9, r9, lsl ip
    332c:	027d0100 	rsbeqs	r0, sp, #0	; 0x0
    3330:	000002a3 	andeq	r0, r0, r3, lsr #5
    3334:	e5205601 	str	r5, [r0, #-1537]!
    3338:	74000007 	strvc	r0, [r0], #-7
    333c:	8430003f 	ldrhit	r0, [r0], #-63
    3340:	1830003f 	ldmneda	r0!, {r0, r1, r2, r3, r4, r5}
    3344:	35010069 	strcc	r0, [r1, #-105]
    3348:	00055403 	andeq	r5, r5, r3, lsl #8
    334c:	00540100 	subeqs	r0, r4, r0, lsl #2
    3350:	0007fb1b 	andeq	pc, r7, fp, lsl fp
    3354:	0000e000 	andeq	lr, r0, r0
    3358:	00691800 	rsbeq	r1, r9, r0, lsl #16
    335c:	d6033801 	strle	r3, [r3], -r1, lsl #16
    3360:	01000008 	tsteq	r0, r8
    3364:	111b0054 	tstne	fp, r4, asr r0
    3368:	f8000008 	stmnvda	r0, {r3}
    336c:	18000000 	stmneda	r0, {}
    3370:	c9010073 	stmgtdb	r1, {r0, r1, r4, r5, r6}
    3374:	00004202 	andeq	r4, r0, r2, lsl #4
    3378:	005c0100 	subeqs	r0, ip, r0, lsl #2
    337c:	00082b20 	andeq	r2, r8, r0, lsr #22
    3380:	0041c400 	subeq	ip, r1, r0, lsl #8
    3384:	0041f830 	subeq	pc, r1, r0, lsr r8
    3388:	00731830 	rsbeqs	r1, r3, r0, lsr r8
    338c:	4202be01 	andmi	fp, r2, #16	; 0x10
    3390:	01000000 	tsteq	r0, r0
    3394:	45200053 	strmi	r0, [r0, #-83]!
    3398:	1c000008 	stcne	0, cr0, [r0], {8}
    339c:	2c300042 	ldccs	0, cr0, [r0], #-264
    33a0:	18300042 	ldmneda	r0!, {r1, r6}
    33a4:	db010069 	blle	43550 <DISABLE_IRQ+0x434d0>
    33a8:	00055402 	andeq	r5, r5, r2, lsl #8
    33ac:	00520100 	subeqs	r0, r2, r0, lsl #2
    33b0:	00085f20 	andeq	r5, r8, r0, lsr #30
    33b4:	00424800 	subeq	r4, r2, r0, lsl #16
    33b8:	00425830 	subeq	r5, r2, r0, lsr r8
    33bc:	00731830 	rsbeqs	r1, r3, r0, lsr r8
    33c0:	dc031301 	stcle	3, cr1, [r3], {1}
    33c4:	01000008 	tsteq	r0, r8
    33c8:	751b0054 	ldrvc	r0, [fp, #-84]
    33cc:	18000008 	stmneda	r0, {r3}
    33d0:	18000001 	stmneda	r0, {r0}
    33d4:	16010073 	undefined
    33d8:	0008e903 	andeq	lr, r8, r3, lsl #18
    33dc:	00540100 	subeqs	r0, r4, r0, lsl #2
    33e0:	00088f20 	andeq	r8, r8, r0, lsr #30
    33e4:	00427000 	subeq	r7, r2, r0
    33e8:	00428030 	subeq	r8, r2, r0, lsr r0
    33ec:	006c1830 	rsbeq	r1, ip, r0, lsr r8
    33f0:	f6032501 	strnv	r2, [r3], -r1, lsl #10
    33f4:	01000008 	tsteq	r0, r8
    33f8:	a51b0054 	ldrge	r0, [fp, #-84]
    33fc:	40000008 	andmi	r0, r0, r8
    3400:	18000001 	stmneda	r0, {r0}
    3404:	2801006c 	stmcsda	r1, {r2, r3, r5, r6}
    3408:	0008fc03 	andeq	pc, r8, r3, lsl #24
    340c:	00540100 	subeqs	r0, r4, r0, lsl #2
    3410:	0008bf20 	andeq	fp, r8, r0, lsr #30
    3414:	00429000 	subeq	r9, r2, r0
    3418:	0042a030 	subeq	sl, r2, r0, lsr r0
    341c:	00731830 	rsbeqs	r1, r3, r0, lsr r8
    3420:	02030a01 	andeq	r0, r3, #4096	; 0x1000
    3424:	01000009 	tsteq	r0, r9
    3428:	4c1c0054 	ldcmi	0, cr0, [ip], {84}
    342c:	5c300043 	ldcpl	0, cr0, [r0], #-268
    3430:	18300043 	ldmneda	r0!, {r0, r1, r6}
    3434:	0d010073 	stceq	0, cr0, [r1, #-460]
    3438:	00090f03 	andeq	r0, r9, r3, lsl #30
    343c:	00540100 	subeqs	r0, r4, r0, lsl #2
    3440:	30040400 	andcc	r0, r4, r0, lsl #8
    3444:	04000000 	streq	r0, [r0]
    3448:	0008e204 	andeq	lr, r8, r4, lsl #4
    344c:	09220300 	stmeqdb	r2!, {r8, r9}
    3450:	05020000 	streq	r0, [r2]
    3454:	08ef0404 	stmeqia	pc!, {r2, sl}^
    3458:	43030000 	tstmi	r3, #0	; 0x0
    345c:	02000003 	andeq	r0, r0, #3	; 0x3
    3460:	6b040407 	blvs	104484 <DISABLE_IRQ+0x104404>
    3464:	04000002 	streq	r0, [r0], #-2
    3468:	00022204 	andeq	r2, r2, r4, lsl #4
    346c:	08040400 	stmeqda	r4, {sl}
    3470:	03000009 	tsteq	r0, #9	; 0x9
    3474:	000000b0 	streqh	r0, [r0], -r0
    3478:	04040601 	streq	r0, [r4], #-1537
    347c:	00000125 	andeq	r0, r0, r5, lsr #2
    3480:	00096615 	andeq	r6, r9, r5, lsl r6
    3484:	096d0100 	stmeqdb	sp!, {r8}^
    3488:	4f010000 	swimi	0x00010000
    348c:	02a30103 	adceq	r0, r3, #-1073741824	; 0xc0000000
    3490:	43b80000 	movmis	r0, #0	; 0x0
    3494:	43d83000 	bicmis	r3, r8, #0	; 0x0
    3498:	5d013000 	stcpl	0, cr3, [r1]
    349c:	66756216 	undefined
    34a0:	034e0100 	cmpeq	lr, #0	; 0x0
    34a4:	000000f9 	streqd	r0, [r0], -r9
    34a8:	66165001 	ldrvs	r5, [r6], -r1
    34ac:	0100746d 	tsteq	r0, sp, ror #8
    34b0:	00f9034e 	rsceqs	r0, r9, lr, asr #6
    34b4:	91020000 	tstls	r2, r0
    34b8:	5a1e1d04 	bpl	78a8d0 <DISABLE_IRQ+0x78a850>
    34bc:	01000002 	tsteq	r0, r2
    34c0:	00370350 	eoreqs	r0, r7, r0, asr r3
    34c4:	691f0000 	ldmvsdb	pc, {}
    34c8:	03510100 	cmpeq	r1, #0	; 0x0
    34cc:	000002a3 	andeq	r0, r0, r3, lsr #5
    34d0:	09711300 	ldmeqdb	r1!, {r8, r9, ip}^
    34d4:	01250000 	teqeq	r5, r0
    34d8:	00210000 	eoreq	r0, r1, r0
    34dc:	0000f622 	andeq	pc, r0, r2, lsr #12
    34e0:	660f0200 	strvs	r0, [pc], -r0, lsl #4
    34e4:	01000009 	tsteq	r0, r9
    34e8:	Address 0x34e8 is out of bounds.

Disassembly of section .debug_abbrev:

00000000 <.debug_abbrev>:
       0:	10001101 	andne	r1, r0, r1, lsl #2
       4:	12011106 	andne	r1, r1, #-2147483647	; 0x80000001
       8:	1b080301 	blne	200c14 <DISABLE_IRQ+0x200b94>
       c:	13082508 	tstne	r8, #33554432	; 0x2000000
      10:	00000005 	andeq	r0, r0, r5
      14:	10011101 	andne	r1, r1, r1, lsl #2
      18:	11011206 	tstne	r1, r6, lsl #4
      1c:	130e2501 	tstne	lr, #4194304	; 0x400000
      20:	1b0e030b 	blne	380c54 <DISABLE_IRQ+0x380bd4>
      24:	0200000e 	andeq	r0, r0, #14	; 0xe
      28:	0c3f002e 	ldceq	0, cr0, [pc], #-184
      2c:	0b3a0e03 	bleq	e83840 <DISABLE_IRQ+0xe837c0>
      30:	01110b3b 	tsteq	r1, fp, lsr fp
      34:	0a400112 	beq	1000484 <DISABLE_IRQ+0x1000404>
      38:	2e030000 	cdpcs	0, 0, cr0, cr3, cr0, {0}
      3c:	3f130101 	swicc	0x00130101
      40:	3a0e030c 	bcc	380c78 <DISABLE_IRQ+0x380bf8>
      44:	270b3b0b 	strcs	r3, [fp, -fp, lsl #22]
      48:	1201110c 	andne	r1, r1, #3	; 0x3
      4c:	000a4001 	andeq	r4, sl, r1
      50:	00340400 	eoreqs	r0, r4, r0, lsl #8
      54:	0b3a0803 	bleq	e82068 <DISABLE_IRQ+0xe81fe8>
      58:	13490b3b 	cmpne	r9, #60416	; 0xec00
      5c:	00000a02 	andeq	r0, r0, r2, lsl #20
      60:	49003505 	stmmidb	r0, {r0, r2, r8, sl, ip, sp}
      64:	06000013 	undefined
      68:	0e030024 	cdpeq	0, 0, cr0, cr3, cr4, {1}
      6c:	0b3e0b0b 	bleq	f82ca0 <DISABLE_IRQ+0xf82c20>
      70:	2e070000 	cdpcs	0, 0, cr0, cr7, cr0, {0}
      74:	030c3f00 	tsteq	ip, #0	; 0x0
      78:	3b0b3a0e 	blcc	2ce8b8 <DISABLE_IRQ+0x2ce838>
      7c:	110c270b 	tstne	ip, fp, lsl #14
      80:	40011201 	andmi	r1, r1, r1, lsl #4
      84:	0000000a 	andeq	r0, r0, sl
      88:	10011101 	andne	r1, r1, r1, lsl #2
      8c:	11011206 	tstne	r1, r6, lsl #4
      90:	130e2501 	tstne	lr, #4194304	; 0x400000
      94:	1b0e030b 	blne	380cc8 <DISABLE_IRQ+0x380c48>
      98:	0200000e 	andeq	r0, r0, #14	; 0xe
      9c:	0e030024 	cdpeq	0, 0, cr0, cr3, cr4, {1}
      a0:	0b3e0b0b 	bleq	f82cd4 <DISABLE_IRQ+0xf82c54>
      a4:	13030000 	tstne	r3, #0	; 0x0
      a8:	03130101 	tsteq	r3, #1073741824	; 0x40000000
      ac:	3a0b0b0e 	bcc	2c2cec <DISABLE_IRQ+0x2c2c6c>
      b0:	000b3b0b 	andeq	r3, fp, fp, lsl #22
      b4:	000d0400 	andeq	r0, sp, r0, lsl #8
      b8:	0b3a0e03 	bleq	e838cc <DISABLE_IRQ+0xe8384c>
      bc:	13490b3b 	cmpne	r9, #60416	; 0xec00
      c0:	00000a38 	andeq	r0, r0, r8, lsr sl
      c4:	0b000f05 	bleq	3ce0 <DISABLE_IRQ+0x3c60>
      c8:	0013490b 	andeqs	r4, r3, fp, lsl #18
      cc:	012e0600 	teqeq	lr, r0, lsl #12
      d0:	0c3f1301 	ldceq	3, cr1, [pc], #-4
      d4:	0b3a0e03 	bleq	e838e8 <DISABLE_IRQ+0xe83868>
      d8:	0c270b3b 	stceq	11, cr0, [r7], #-236
      dc:	01120111 	tsteq	r2, r1, lsl r1
      e0:	00000a40 	andeq	r0, r0, r0, asr #20
      e4:	03003407 	tsteq	r0, #117440512	; 0x7000000
      e8:	3b0b3a08 	blcc	2ce910 <DISABLE_IRQ+0x2ce890>
      ec:	0213490b 	andeqs	r4, r3, #180224	; 0x2c000
      f0:	0800000a 	stmeqda	r0, {r1, r3}
      f4:	0655010b 	ldreqb	r0, [r5], -fp, lsl #2
      f8:	34090000 	strcc	r0, [r9]
      fc:	3a0e0300 	bcc	380d04 <DISABLE_IRQ+0x380c84>
     100:	490b3b0b 	stmmidb	fp, {r0, r1, r3, r8, r9, fp, ip, sp}
     104:	000a0213 	andeq	r0, sl, r3, lsl r2
     108:	00260a00 	eoreq	r0, r6, r0, lsl #20
     10c:	00001349 	andeq	r1, r0, r9, asr #6
     110:	3f002e0b 	swicc	0x00002e0b
     114:	3a0e030c 	bcc	380d4c <DISABLE_IRQ+0x380ccc>
     118:	270b3b0b 	strcs	r3, [fp, -fp, lsl #22]
     11c:	1201110c 	andne	r1, r1, #3	; 0x3
     120:	000a4001 	andeq	r4, sl, r1
     124:	00050c00 	andeq	r0, r5, r0, lsl #24
     128:	0b3a0803 	bleq	e8213c <DISABLE_IRQ+0xe820bc>
     12c:	13490b3b 	cmpne	r9, #60416	; 0xec00
     130:	00000a02 	andeq	r0, r0, r2, lsl #20
     134:	0b000f0d 	bleq	3d70 <DISABLE_IRQ+0x3cf0>
     138:	0e00000b 	cdpeq	0, 0, cr0, cr0, cr11, {0}
     13c:	08030024 	stmeqda	r3, {r2, r5}
     140:	0b3e0b0b 	bleq	f82d74 <DISABLE_IRQ+0xf82cf4>
     144:	050f0000 	streq	r0, [pc, #0]	; 14c <DISABLE_IRQ+0xcc>
     148:	3a0e0300 	bcc	380d50 <DISABLE_IRQ+0x380cd0>
     14c:	490b3b0b 	stmmidb	fp, {r0, r1, r3, r8, r9, fp, ip, sp}
     150:	000a0213 	andeq	r0, sl, r3, lsl r2
     154:	012e1000 	teqeq	lr, r0
     158:	0c3f1301 	ldceq	3, cr1, [pc], #-4
     15c:	0b3a0e03 	bleq	e83970 <DISABLE_IRQ+0xe838f0>
     160:	13490b3b 	cmpne	r9, #60416	; 0xec00
     164:	00000c3c 	andeq	r0, r0, ip, lsr ip
     168:	00001811 	andeq	r1, r0, r1, lsl r8
     16c:	012e1200 	teqeq	lr, r0, lsl #4
     170:	0e030c3f 	mcreq	12, 0, r0, cr3, cr15, {1}
     174:	0b3b0b3a 	bleq	ec2e64 <DISABLE_IRQ+0xec2de4>
     178:	0c3c1349 	ldceq	3, cr1, [ip], #-292
     17c:	01130000 	tsteq	r3, r0
     180:	49130101 	ldmmidb	r3, {r0, r8}
     184:	14000013 	strne	r0, [r0], #-19
     188:	13490021 	cmpne	r9, #33	; 0x21
     18c:	00000b2f 	andeq	r0, r0, pc, lsr #22
     190:	01012e15 	tsteq	r1, r5, lsl lr
     194:	030c3f13 	tsteq	ip, #76	; 0x4c
     198:	3b0b3a0e 	blcc	2ce9d8 <DISABLE_IRQ+0x2ce958>
     19c:	490c270b 	stmmidb	ip, {r0, r1, r3, r8, r9, sl, sp}
     1a0:	12011113 	andne	r1, r1, #-1073741820	; 0xc0000004
     1a4:	000a4001 	andeq	r4, sl, r1
     1a8:	010b1600 	tsteq	fp, r0, lsl #12
     1ac:	01111301 	tsteq	r1, r1, lsl #6
     1b0:	00000112 	andeq	r0, r0, r2, lsl r1
     1b4:	11010b17 	tstne	r1, r7, lsl fp
     1b8:	00011201 	andeq	r1, r1, r1, lsl #4
     1bc:	00211800 	eoreq	r1, r1, r0, lsl #16
     1c0:	34190000 	ldrcc	r0, [r9]
     1c4:	3a0e0300 	bcc	380dcc <DISABLE_IRQ+0x380d4c>
     1c8:	490b3b0b 	stmmidb	fp, {r0, r1, r3, r8, r9, fp, ip, sp}
     1cc:	3c0c3f13 	stccc	15, cr3, [ip], {19}
     1d0:	1a00000c 	bne	208 <DISABLE_IRQ+0x188>
     1d4:	0e030034 	mcreq	0, 0, r0, cr3, cr4, {1}
     1d8:	0b3b0b3a 	bleq	ec2ec8 <DISABLE_IRQ+0xec2e48>
     1dc:	0c3f1349 	ldceq	3, cr1, [pc], #-292
     1e0:	00000a02 	andeq	r0, r0, r2, lsl #20
     1e4:	01110100 	tsteq	r1, r0, lsl #2
     1e8:	01120610 	tsteq	r2, r0, lsl r6
     1ec:	0e250111 	mcreq	1, 1, r0, cr5, cr1, {0}
     1f0:	0e030b13 	mcreq	11, 0, r0, cr3, cr3, {0}
     1f4:	00000e1b 	andeq	r0, r0, fp, lsl lr
     1f8:	03002402 	tsteq	r0, #33554432	; 0x2000000
     1fc:	3e0b0b0e 	fmacdcc	d0, d11, d14
     200:	0300000b 	tsteq	r0, #11	; 0xb
     204:	13010113 	tstne	r1, #-1073741820	; 0xc0000004
     208:	0b0b0e03 	bleq	2c3a1c <DISABLE_IRQ+0x2c399c>
     20c:	0b3b0b3a 	bleq	ec2efc <DISABLE_IRQ+0xec2e7c>
     210:	0d040000 	stceq	0, cr0, [r4]
     214:	3a0e0300 	bcc	380e1c <DISABLE_IRQ+0x380d9c>
     218:	490b3b0b 	stmmidb	fp, {r0, r1, r3, r8, r9, fp, ip, sp}
     21c:	000a3813 	andeq	r3, sl, r3, lsl r8
     220:	000f0500 	andeq	r0, pc, r0, lsl #10
     224:	13490b0b 	cmpne	r9, #11264	; 0x2c00
     228:	24060000 	strcs	r0, [r6]
     22c:	0b080300 	bleq	200e34 <DISABLE_IRQ+0x200db4>
     230:	000b3e0b 	andeq	r3, fp, fp, lsl #28
     234:	01010700 	tsteq	r1, r0, lsl #14
     238:	13491301 	cmpne	r9, #67108864	; 0x4000000
     23c:	21080000 	tstcs	r8, r0
     240:	2f134900 	swics	0x00134900
     244:	0900000b 	stmeqdb	r0, {r0, r1, r3}
     248:	13010113 	tstne	r1, #-1073741820	; 0xc0000004
     24c:	050b0e03 	streq	r0, [fp, #-3587]
     250:	0b3b0b3a 	bleq	ec2f40 <DISABLE_IRQ+0xec2ec0>
     254:	0d0a0000 	stceq	0, cr0, [sl]
     258:	3a080300 	bcc	200e60 <DISABLE_IRQ+0x200de0>
     25c:	490b3b0b 	stmmidb	fp, {r0, r1, r3, r8, r9, fp, ip, sp}
     260:	000a3813 	andeq	r3, sl, r3, lsl r8
     264:	012e0b00 	teqeq	lr, r0, lsl #22
     268:	0c3f1301 	ldceq	3, cr1, [pc], #-4
     26c:	0b3a0e03 	bleq	e83a80 <DISABLE_IRQ+0xe83a00>
     270:	0c270b3b 	stceq	11, cr0, [r7], #-236
     274:	01111349 	tsteq	r1, r9, asr #6
     278:	0a400112 	beq	10006c8 <DISABLE_IRQ+0x1000648>
     27c:	340c0000 	strcc	r0, [ip]
     280:	3a080300 	bcc	200e88 <DISABLE_IRQ+0x200e08>
     284:	490b3b0b 	stmmidb	fp, {r0, r1, r3, r8, r9, fp, ip, sp}
     288:	000a0213 	andeq	r0, sl, r3, lsl r2
     28c:	002e0d00 	eoreq	r0, lr, r0, lsl #26
     290:	0e030c3f 	mcreq	12, 0, r0, cr3, cr15, {1}
     294:	0b3b0b3a 	bleq	ec2f84 <DISABLE_IRQ+0xec2f04>
     298:	01110c27 	tsteq	r1, r7, lsr #24
     29c:	0a400112 	beq	10006ec <DISABLE_IRQ+0x100066c>
     2a0:	0b0e0000 	bleq	3802a8 <DISABLE_IRQ+0x380228>
     2a4:	55130101 	ldrpl	r0, [r3, #-257]
     2a8:	0f000006 	swieq	0x00000006
     2ac:	0e030034 	mcreq	0, 0, r0, cr3, cr4, {1}
     2b0:	0b3b0b3a 	bleq	ec2fa0 <DISABLE_IRQ+0xec2f20>
     2b4:	0a021349 	beq	84fe0 <DISABLE_IRQ+0x84f60>
     2b8:	0b100000 	bleq	4002c0 <DISABLE_IRQ+0x400240>
     2bc:	00065501 	andeq	r5, r6, r1, lsl #10
     2c0:	000f1100 	andeq	r1, pc, r0, lsl #2
     2c4:	00000b0b 	andeq	r0, r0, fp, lsl #22
     2c8:	49002612 	stmmidb	r0, {r1, r4, r9, sl, sp}
     2cc:	13000013 	tstne	r0, #19	; 0x13
     2d0:	1301012e 	tstne	r1, #-2147483637	; 0x8000000b
     2d4:	0e030c3f 	mcreq	12, 0, r0, cr3, cr15, {1}
     2d8:	0b3b0b3a 	bleq	ec2fc8 <DISABLE_IRQ+0xec2f48>
     2dc:	01110c27 	tsteq	r1, r7, lsr #24
     2e0:	0a400112 	beq	1000730 <DISABLE_IRQ+0x10006b0>
     2e4:	05140000 	ldreq	r0, [r4]
     2e8:	3a0e0300 	bcc	380ef0 <DISABLE_IRQ+0x380e70>
     2ec:	490b3b0b 	stmmidb	fp, {r0, r1, r3, r8, r9, fp, ip, sp}
     2f0:	000a0213 	andeq	r0, sl, r3, lsl r2
     2f4:	00051500 	andeq	r1, r5, r0, lsl #10
     2f8:	0b3a0803 	bleq	e8230c <DISABLE_IRQ+0xe8228c>
     2fc:	13490b3b 	cmpne	r9, #60416	; 0xec00
     300:	00000a02 	andeq	r0, r0, r2, lsl #20
     304:	11010b16 	tstne	r1, r6, lsl fp
     308:	00011201 	andeq	r1, r1, r1, lsl #4
     30c:	00211700 	eoreq	r1, r1, r0, lsl #14
     310:	34180000 	ldrcc	r0, [r8]
     314:	3a0e0300 	bcc	380f1c <DISABLE_IRQ+0x380e9c>
     318:	490b3b0b 	stmmidb	fp, {r0, r1, r3, r8, r9, fp, ip, sp}
     31c:	3c0c3f13 	stccc	15, cr3, [ip], {19}
     320:	1900000c 	stmnedb	r0, {r2, r3}
     324:	08030034 	stmeqda	r3, {r2, r4, r5}
     328:	0b3b0b3a 	bleq	ec3018 <DISABLE_IRQ+0xec2f98>
     32c:	0c3f1349 	ldceq	3, cr1, [pc], #-292
     330:	00000a02 	andeq	r0, r0, r2, lsl #20
     334:	01110100 	tsteq	r1, r0, lsl #2
     338:	01120610 	tsteq	r2, r0, lsl r6
     33c:	0e250111 	mcreq	1, 1, r0, cr5, cr1, {0}
     340:	0e030b13 	mcreq	11, 0, r0, cr3, cr3, {0}
     344:	00000e1b 	andeq	r0, r0, fp, lsl lr
     348:	03002402 	tsteq	r0, #33554432	; 0x2000000
     34c:	3e0b0b0e 	fmacdcc	d0, d11, d14
     350:	0300000b 	tsteq	r0, #11	; 0xb
     354:	13010113 	tstne	r1, #-1073741820	; 0xc0000004
     358:	0b0b0e03 	bleq	2c3b6c <DISABLE_IRQ+0x2c3aec>
     35c:	0b3b0b3a 	bleq	ec304c <DISABLE_IRQ+0xec2fcc>
     360:	0d040000 	stceq	0, cr0, [r4]
     364:	3a0e0300 	bcc	380f6c <DISABLE_IRQ+0x380eec>
     368:	490b3b0b 	stmmidb	fp, {r0, r1, r3, r8, r9, fp, ip, sp}
     36c:	000a3813 	andeq	r3, sl, r3, lsl r8
     370:	000f0500 	andeq	r0, pc, r0, lsl #10
     374:	13490b0b 	cmpne	r9, #11264	; 0x2c00
     378:	24060000 	strcs	r0, [r6]
     37c:	0b080300 	bleq	200f84 <DISABLE_IRQ+0x200f04>
     380:	000b3e0b 	andeq	r3, fp, fp, lsl #28
     384:	01010700 	tsteq	r1, r0, lsl #14
     388:	13491301 	cmpne	r9, #67108864	; 0x4000000
     38c:	21080000 	tstcs	r8, r0
     390:	2f134900 	swics	0x00134900
     394:	0900000b 	stmeqdb	r0, {r0, r1, r3}
     398:	13010113 	tstne	r1, #-1073741820	; 0xc0000004
     39c:	050b0e03 	streq	r0, [fp, #-3587]
     3a0:	0b3b0b3a 	bleq	ec3090 <DISABLE_IRQ+0xec3010>
     3a4:	0d0a0000 	stceq	0, cr0, [sl]
     3a8:	3a080300 	bcc	200fb0 <DISABLE_IRQ+0x200f30>
     3ac:	490b3b0b 	stmmidb	fp, {r0, r1, r3, r8, r9, fp, ip, sp}
     3b0:	000a3813 	andeq	r3, sl, r3, lsl r8
     3b4:	012e0b00 	teqeq	lr, r0, lsl #22
     3b8:	0c3f1301 	ldceq	3, cr1, [pc], #-4
     3bc:	0b3a0e03 	bleq	e83bd0 <DISABLE_IRQ+0xe83b50>
     3c0:	0c270b3b 	stceq	11, cr0, [r7], #-236
     3c4:	01111349 	tsteq	r1, r9, asr #6
     3c8:	0a400112 	beq	1000818 <DISABLE_IRQ+0x1000798>
     3cc:	340c0000 	strcc	r0, [ip]
     3d0:	3a0e0300 	bcc	380fd8 <DISABLE_IRQ+0x380f58>
     3d4:	490b3b0b 	stmmidb	fp, {r0, r1, r3, r8, r9, fp, ip, sp}
     3d8:	000a0213 	andeq	r0, sl, r3, lsl r2
     3dc:	00340d00 	eoreqs	r0, r4, r0, lsl #26
     3e0:	0b3a0803 	bleq	e823f4 <DISABLE_IRQ+0xe82374>
     3e4:	13490b3b 	cmpne	r9, #60416	; 0xec00
     3e8:	00000a02 	andeq	r0, r0, r2, lsl #20
     3ec:	0300050e 	tsteq	r0, #58720256	; 0x3800000
     3f0:	3b0b3a08 	blcc	2cec18 <DISABLE_IRQ+0x2ceb98>
     3f4:	0213490b 	andeqs	r4, r3, #180224	; 0x2c000
     3f8:	0f00000a 	swieq	0x0000000a
     3fc:	0e030005 	cdpeq	0, 0, cr0, cr3, cr5, {0}
     400:	0b3b0b3a 	bleq	ec30f0 <DISABLE_IRQ+0xec3070>
     404:	0a021349 	beq	85130 <DISABLE_IRQ+0x850b0>
     408:	34100000 	ldrcc	r0, [r0]
     40c:	3a080300 	bcc	201014 <DISABLE_IRQ+0x200f94>
     410:	490b3b0b 	stmmidb	fp, {r0, r1, r3, r8, r9, fp, ip, sp}
     414:	11000013 	tstne	r0, r3, lsl r0
     418:	0c3f012e 	ldfeqs	f0, [pc], #-184
     41c:	0b3a0e03 	bleq	e83c30 <DISABLE_IRQ+0xe83bb0>
     420:	13490b3b 	cmpne	r9, #60416	; 0xec00
     424:	00000c3c 	andeq	r0, r0, ip, lsr ip
     428:	00001812 	andeq	r1, r0, r2, lsl r8
     42c:	01151300 	tsteq	r5, r0, lsl #6
     430:	0c271301 	stceq	3, cr1, [r7], #-4
     434:	05140000 	ldreq	r0, [r4]
     438:	00134900 	andeqs	r4, r3, r0, lsl #18
     43c:	000f1500 	andeq	r1, pc, r0, lsl #10
     440:	00000b0b 	andeq	r0, r0, fp, lsl #22
     444:	00002116 	andeq	r2, r0, r6, lsl r1
     448:	00341700 	eoreqs	r1, r4, r0, lsl #14
     44c:	0b3a0e03 	bleq	e83c60 <DISABLE_IRQ+0xe83be0>
     450:	13490b3b 	cmpne	r9, #60416	; 0xec00
     454:	0c3c0c3f 	ldceq	12, cr0, [ip], #-252
     458:	01000000 	tsteq	r0, r0
     45c:	06100111 	undefined
     460:	01110112 	tsteq	r1, r2, lsl r1
     464:	0b130e25 	bleq	4c3d00 <DISABLE_IRQ+0x4c3c80>
     468:	0e1b0e03 	cdpeq	14, 1, cr0, cr11, cr3, {0}
     46c:	2e020000 	cdpcs	0, 0, cr0, cr2, cr0, {0}
     470:	3f130101 	swicc	0x00130101
     474:	3a0e030c 	bcc	3810ac <DISABLE_IRQ+0x38102c>
     478:	270b3b0b 	strcs	r3, [fp, -fp, lsl #22]
     47c:	1113490c 	tstne	r3, ip, lsl #18
     480:	40011201 	andmi	r1, r1, r1, lsl #4
     484:	0300000a 	tsteq	r0, #10	; 0xa
     488:	08030034 	stmeqda	r3, {r2, r4, r5}
     48c:	0b3b0b3a 	bleq	ec317c <DISABLE_IRQ+0xec30fc>
     490:	0a021349 	beq	851bc <DISABLE_IRQ+0x8513c>
     494:	0f040000 	swieq	0x00040000
     498:	490b0b00 	stmmidb	fp, {r8, r9, fp}
     49c:	05000013 	streq	r0, [r0, #-19]
     4a0:	0e030024 	cdpeq	0, 0, cr0, cr3, cr4, {1}
     4a4:	0b3e0b0b 	bleq	f830d8 <DISABLE_IRQ+0xf83058>
     4a8:	24060000 	strcs	r0, [r6]
     4ac:	0b080300 	bleq	2010b4 <DISABLE_IRQ+0x201034>
     4b0:	000b3e0b 	andeq	r3, fp, fp, lsl #28
     4b4:	00050700 	andeq	r0, r5, r0, lsl #14
     4b8:	0b3a0e03 	bleq	e83ccc <DISABLE_IRQ+0xe83c4c>
     4bc:	13490b3b 	cmpne	r9, #60416	; 0xec00
     4c0:	00000a02 	andeq	r0, r0, r2, lsl #20
     4c4:	03003408 	tsteq	r0, #134217728	; 0x8000000
     4c8:	3b0b3a0e 	blcc	2ced08 <DISABLE_IRQ+0x2cec88>
     4cc:	0213490b 	andeqs	r4, r3, #180224	; 0x2c000
     4d0:	0900000a 	stmeqdb	r0, {r1, r3}
     4d4:	13010101 	tstne	r1, #1073741824	; 0x40000000
     4d8:	00001349 	andeq	r1, r0, r9, asr #6
     4dc:	4900210a 	stmmidb	r0, {r1, r3, r8, sp}
     4e0:	00052f13 	andeq	r2, r5, r3, lsl pc
     4e4:	00340b00 	eoreqs	r0, r4, r0, lsl #22
     4e8:	0b3a0e03 	bleq	e83cfc <DISABLE_IRQ+0xe83c7c>
     4ec:	13490b3b 	cmpne	r9, #60416	; 0xec00
     4f0:	0a020c3f 	beq	835f4 <DISABLE_IRQ+0x83574>
     4f4:	01000000 	tsteq	r0, r0
     4f8:	06100111 	undefined
     4fc:	01110112 	tsteq	r1, r2, lsl r1
     500:	0b130e25 	bleq	4c3d9c <DISABLE_IRQ+0x4c3d1c>
     504:	0e1b0e03 	cdpeq	14, 1, cr0, cr11, cr3, {0}
     508:	2e020000 	cdpcs	0, 0, cr0, cr2, cr0, {0}
     50c:	3f130101 	swicc	0x00130101
     510:	3a0e030c 	bcc	381148 <DISABLE_IRQ+0x3810c8>
     514:	270b3b0b 	strcs	r3, [fp, -fp, lsl #22]
     518:	1113490c 	tstne	r3, ip, lsl #18
     51c:	40011201 	andmi	r1, r1, r1, lsl #4
     520:	0300000a 	tsteq	r0, #10	; 0xa
     524:	08030034 	stmeqda	r3, {r2, r4, r5}
     528:	0b3b0b3a 	bleq	ec3218 <DISABLE_IRQ+0xec3198>
     52c:	0a021349 	beq	85258 <DISABLE_IRQ+0x851d8>
     530:	24040000 	strcs	r0, [r4]
     534:	0b080300 	bleq	20113c <DISABLE_IRQ+0x2010bc>
     538:	000b3e0b 	andeq	r3, fp, fp, lsl #28
     53c:	000f0500 	andeq	r0, pc, r0, lsl #10
     540:	13490b0b 	cmpne	r9, #11264	; 0x2c00
     544:	35060000 	strcc	r0, [r6]
     548:	00134900 	andeqs	r4, r3, r0, lsl #18
     54c:	012e0700 	teqeq	lr, r0, lsl #14
     550:	0c3f1301 	ldceq	3, cr1, [pc], #-4
     554:	0b3a0e03 	bleq	e83d68 <DISABLE_IRQ+0xe83ce8>
     558:	0c270b3b 	stceq	11, cr0, [r7], #-236
     55c:	01120111 	tsteq	r2, r1, lsl r1
     560:	00000a40 	andeq	r0, r0, r0, asr #20
     564:	03003408 	tsteq	r0, #134217728	; 0x8000000
     568:	3b0b3a0e 	blcc	2ceda8 <DISABLE_IRQ+0x2ced28>
     56c:	3f13490b 	swicc	0x0013490b
     570:	000c3c0c 	andeq	r3, ip, ip, lsl #24
     574:	002e0900 	eoreq	r0, lr, r0, lsl #18
     578:	0e030c3f 	mcreq	12, 0, r0, cr3, cr15, {1}
     57c:	0b3b0b3a 	bleq	ec326c <DISABLE_IRQ+0xec31ec>
     580:	01110c27 	tsteq	r1, r7, lsr #24
     584:	0a400112 	beq	10009d4 <DISABLE_IRQ+0x1000954>
     588:	050a0000 	streq	r0, [sl]
     58c:	3a080300 	bcc	201194 <DISABLE_IRQ+0x201114>
     590:	490b3b0b 	stmmidb	fp, {r0, r1, r3, r8, r9, fp, ip, sp}
     594:	000a0213 	andeq	r0, sl, r3, lsl r2
     598:	00240b00 	eoreq	r0, r4, r0, lsl #22
     59c:	0b0b0e03 	bleq	2c3db0 <DISABLE_IRQ+0x2c3d30>
     5a0:	00000b3e 	andeq	r0, r0, lr, lsr fp
     5a4:	0300050c 	tsteq	r0, #50331648	; 0x3000000
     5a8:	3b0b3a0e 	blcc	2cede8 <DISABLE_IRQ+0x2ced68>
     5ac:	0213490b 	andeqs	r4, r3, #180224	; 0x2c000
     5b0:	0d00000a 	stceq	0, cr0, [r0, #-40]
     5b4:	0e030034 	mcreq	0, 0, r0, cr3, cr4, {1}
     5b8:	0b3b0b3a 	bleq	ec32a8 <DISABLE_IRQ+0xec3228>
     5bc:	0a021349 	beq	852e8 <DISABLE_IRQ+0x85268>
     5c0:	2e0e0000 	cdpcs	0, 0, cr0, cr14, cr0, {0}
     5c4:	030c3f00 	tsteq	ip, #0	; 0x0
     5c8:	3b0b3a0e 	blcc	2cee08 <DISABLE_IRQ+0x2ced88>
     5cc:	490c270b 	stmmidb	ip, {r0, r1, r3, r8, r9, sl, sp}
     5d0:	12011113 	andne	r1, r1, #-1073741820	; 0xc0000004
     5d4:	000a4001 	andeq	r4, sl, r1
     5d8:	012e0f00 	teqeq	lr, r0, lsl #30
     5dc:	0e030c3f 	mcreq	12, 0, r0, cr3, cr15, {1}
     5e0:	0b3b0b3a 	bleq	ec32d0 <DISABLE_IRQ+0xec3250>
     5e4:	01110c27 	tsteq	r1, r7, lsr #24
     5e8:	0a400112 	beq	1000a38 <DISABLE_IRQ+0x10009b8>
     5ec:	01000000 	tsteq	r0, r0
     5f0:	06100111 	undefined
     5f4:	01110112 	tsteq	r1, r2, lsl r1
     5f8:	0b130e25 	bleq	4c3e94 <DISABLE_IRQ+0x4c3e14>
     5fc:	0e1b0e03 	cdpeq	14, 1, cr0, cr11, cr3, {0}
     600:	2e020000 	cdpcs	0, 0, cr0, cr2, cr0, {0}
     604:	030c3f00 	tsteq	ip, #0	; 0x0
     608:	3b0b3a0e 	blcc	2cee48 <DISABLE_IRQ+0x2cedc8>
     60c:	1201110b 	andne	r1, r1, #-1073741822	; 0xc0000002
     610:	000a4001 	andeq	r4, sl, r1
     614:	012e0300 	teqeq	lr, r0, lsl #6
     618:	0c3f1301 	ldceq	3, cr1, [pc], #-4
     61c:	0b3a0e03 	bleq	e83e30 <DISABLE_IRQ+0xe83db0>
     620:	0c270b3b 	stceq	11, cr0, [r7], #-236
     624:	01120111 	tsteq	r2, r1, lsl r1
     628:	00000a40 	andeq	r0, r0, r0, asr #20
     62c:	03000504 	tsteq	r0, #16777216	; 0x1000000
     630:	3b0b3a08 	blcc	2cee58 <DISABLE_IRQ+0x2cedd8>
     634:	0213490b 	andeqs	r4, r3, #180224	; 0x2c000
     638:	0500000a 	streq	r0, [r0, #-10]
     63c:	0e030005 	cdpeq	0, 0, cr0, cr3, cr5, {0}
     640:	0b3b0b3a 	bleq	ec3330 <DISABLE_IRQ+0xec32b0>
     644:	0a021349 	beq	85370 <DISABLE_IRQ+0x852f0>
     648:	34060000 	strcc	r0, [r6]
     64c:	3a080300 	bcc	201254 <DISABLE_IRQ+0x2011d4>
     650:	490b3b0b 	stmmidb	fp, {r0, r1, r3, r8, r9, fp, ip, sp}
     654:	000a0213 	andeq	r0, sl, r3, lsl r2
     658:	00340700 	eoreqs	r0, r4, r0, lsl #14
     65c:	0b3a0e03 	bleq	e83e70 <DISABLE_IRQ+0xe83df0>
     660:	13490b3b 	cmpne	r9, #60416	; 0xec00
     664:	00000a02 	andeq	r0, r0, r2, lsl #20
     668:	03002408 	tsteq	r0, #134217728	; 0x8000000
     66c:	3e0b0b0e 	fmacdcc	d0, d11, d14
     670:	0900000b 	stmeqdb	r0, {r0, r1, r3}
     674:	0b0b000f 	bleq	2c06b8 <DISABLE_IRQ+0x2c0638>
     678:	00001349 	andeq	r1, r0, r9, asr #6
     67c:	0300340a 	tsteq	r0, #167772160	; 0xa000000
     680:	3b0b3a0e 	blcc	2ceec0 <DISABLE_IRQ+0x2cee40>
     684:	3f13490b 	swicc	0x0013490b
     688:	000a020c 	andeq	r0, sl, ip, lsl #4
     68c:	11010000 	tstne	r1, r0
     690:	12061001 	andne	r1, r6, #1	; 0x1
     694:	25011101 	strcs	r1, [r1, #-257]
     698:	030b130e 	tsteq	fp, #939524096	; 0x38000000
     69c:	000e1b0e 	andeq	r1, lr, lr, lsl #22
     6a0:	00240200 	eoreq	r0, r4, r0, lsl #4
     6a4:	0b0b0e03 	bleq	2c3eb8 <DISABLE_IRQ+0x2c3e38>
     6a8:	00000b3e 	andeq	r0, r0, lr, lsr fp
     6ac:	01011303 	tsteq	r1, r3, lsl #6
     6b0:	0b0e0313 	bleq	381304 <DISABLE_IRQ+0x381284>
     6b4:	3b0b3a0b 	blcc	2ceee8 <DISABLE_IRQ+0x2cee68>
     6b8:	0400000b 	streq	r0, [r0], #-11
     6bc:	0e03000d 	cdpeq	0, 0, cr0, cr3, cr13, {0}
     6c0:	0b3b0b3a 	bleq	ec33b0 <DISABLE_IRQ+0xec3330>
     6c4:	0a381349 	beq	e053f0 <DISABLE_IRQ+0xe05370>
     6c8:	0f050000 	swieq	0x00050000
     6cc:	490b0b00 	stmmidb	fp, {r8, r9, fp}
     6d0:	06000013 	undefined
     6d4:	08030024 	stmeqda	r3, {r2, r5}
     6d8:	0b3e0b0b 	bleq	f8330c <DISABLE_IRQ+0xf8328c>
     6dc:	2e070000 	cdpcs	0, 0, cr0, cr7, cr0, {0}
     6e0:	3f130101 	swicc	0x00130101
     6e4:	3a0e030c 	bcc	38131c <DISABLE_IRQ+0x38129c>
     6e8:	270b3b0b 	strcs	r3, [fp, -fp, lsl #22]
     6ec:	1201110c 	andne	r1, r1, #3	; 0x3
     6f0:	000a4001 	andeq	r4, sl, r1
     6f4:	00050800 	andeq	r0, r5, r0, lsl #16
     6f8:	0b3a0e03 	bleq	e83f0c <DISABLE_IRQ+0xe83e8c>
     6fc:	13490b3b 	cmpne	r9, #60416	; 0xec00
     700:	00000a02 	andeq	r0, r0, r2, lsl #20
     704:	01012e09 	tsteq	r1, r9, lsl #28
     708:	030c3f13 	tsteq	ip, #76	; 0x4c
     70c:	3b0b3a0e 	blcc	2cef4c <DISABLE_IRQ+0x2ceecc>
     710:	490c270b 	stmmidb	ip, {r0, r1, r3, r8, r9, sl, sp}
     714:	12011113 	andne	r1, r1, #-1073741820	; 0xc0000004
     718:	000a4001 	andeq	r4, sl, r1
     71c:	00050a00 	andeq	r0, r5, r0, lsl #20
     720:	0b3a0803 	bleq	e82734 <DISABLE_IRQ+0xe826b4>
     724:	13490b3b 	cmpne	r9, #60416	; 0xec00
     728:	00000a02 	andeq	r0, r0, r2, lsl #20
     72c:	0101010b 	tsteq	r1, fp, lsl #2
     730:	00134913 	andeqs	r4, r3, r3, lsl r9
     734:	00210c00 	eoreq	r0, r1, r0, lsl #24
     738:	340d0000 	strcc	r0, [sp]
     73c:	3a0e0300 	bcc	381344 <DISABLE_IRQ+0x3812c4>
     740:	490b3b0b 	stmmidb	fp, {r0, r1, r3, r8, r9, fp, ip, sp}
     744:	3c0c3f13 	stccc	15, cr3, [ip], {19}
     748:	0000000c 	andeq	r0, r0, ip
     74c:	10011101 	andne	r1, r1, r1, lsl #2
     750:	11011206 	tstne	r1, r6, lsl #4
     754:	130e2501 	tstne	lr, #4194304	; 0x400000
     758:	1b0e030b 	blne	38138c <DISABLE_IRQ+0x38130c>
     75c:	0200000e 	andeq	r0, r0, #14	; 0xe
     760:	0c3f002e 	ldceq	0, cr0, [pc], #-184
     764:	0b3a0e03 	bleq	e83f78 <DISABLE_IRQ+0xe83ef8>
     768:	0c270b3b 	stceq	11, cr0, [r7], #-236
     76c:	01120111 	tsteq	r2, r1, lsl r1
     770:	00000a40 	andeq	r0, r0, r0, asr #20
     774:	01012e03 	tsteq	r1, r3, lsl #28
     778:	030c3f13 	tsteq	ip, #76	; 0x4c
     77c:	3b0b3a0e 	blcc	2cefbc <DISABLE_IRQ+0x2cef3c>
     780:	110c270b 	tstne	ip, fp, lsl #14
     784:	40011201 	andmi	r1, r1, r1, lsl #4
     788:	0400000a 	streq	r0, [r0], #-10
     78c:	08030005 	stmeqda	r3, {r0, r2}
     790:	0b3b0b3a 	bleq	ec3480 <DISABLE_IRQ+0xec3400>
     794:	0a021349 	beq	854c0 <DISABLE_IRQ+0x85440>
     798:	24050000 	strcs	r0, [r5]
     79c:	0b0e0300 	bleq	3813a4 <DISABLE_IRQ+0x381324>
     7a0:	000b3e0b 	andeq	r3, fp, fp, lsl #28
     7a4:	002e0600 	eoreq	r0, lr, r0, lsl #12
     7a8:	0e030c3f 	mcreq	12, 0, r0, cr3, cr15, {1}
     7ac:	0b3b0b3a 	bleq	ec349c <DISABLE_IRQ+0xec341c>
     7b0:	13490c27 	cmpne	r9, #9984	; 0x2700
     7b4:	01120111 	tsteq	r2, r1, lsl r1
     7b8:	00000a40 	andeq	r0, r0, r0, asr #20
     7bc:	0b000f07 	bleq	43e0 <DISABLE_IRQ+0x4360>
     7c0:	0013490b 	andeqs	r4, r3, fp, lsl #18
     7c4:	012e0800 	teqeq	lr, r0, lsl #16
     7c8:	0c3f1301 	ldceq	3, cr1, [pc], #-4
     7cc:	0b3a0e03 	bleq	e83fe0 <DISABLE_IRQ+0xe83f60>
     7d0:	0c270b3b 	stceq	11, cr0, [r7], #-236
     7d4:	01111349 	tsteq	r1, r9, asr #6
     7d8:	0a400112 	beq	1000c28 <DISABLE_IRQ+0x1000ba8>
     7dc:	01090000 	tsteq	r9, r0
     7e0:	49130101 	ldmmidb	r3, {r0, r8}
     7e4:	0a000013 	beq	838 <DISABLE_IRQ+0x7b8>
     7e8:	13490021 	cmpne	r9, #33	; 0x21
     7ec:	0000052f 	andeq	r0, r0, pc, lsr #10
     7f0:	0300340b 	tsteq	r0, #184549376	; 0xb000000
     7f4:	3b0b3a0e 	blcc	2cf034 <DISABLE_IRQ+0x2cefb4>
     7f8:	0213490b 	andeqs	r4, r3, #180224	; 0x2c000
     7fc:	0000000a 	andeq	r0, r0, sl
     800:	10011101 	andne	r1, r1, r1, lsl #2
     804:	11011206 	tstne	r1, r6, lsl #4
     808:	130e2501 	tstne	lr, #4194304	; 0x400000
     80c:	1b0e030b 	blne	381440 <DISABLE_IRQ+0x3813c0>
     810:	0200000e 	andeq	r0, r0, #14	; 0xe
     814:	13010113 	tstne	r1, #-1073741820	; 0xc0000004
     818:	0b0b0e03 	bleq	2c402c <DISABLE_IRQ+0x2c3fac>
     81c:	0b3b0b3a 	bleq	ec350c <DISABLE_IRQ+0xec348c>
     820:	0d030000 	stceq	0, cr0, [r3]
     824:	3a0e0300 	bcc	38142c <DISABLE_IRQ+0x3813ac>
     828:	490b3b0b 	stmmidb	fp, {r0, r1, r3, r8, r9, fp, ip, sp}
     82c:	000a3813 	andeq	r3, sl, r3, lsl r8
     830:	01010400 	tsteq	r1, r0, lsl #8
     834:	13491301 	cmpne	r9, #67108864	; 0x4000000
     838:	21050000 	tstcs	r5, r0
     83c:	2f134900 	swics	0x00134900
     840:	0600000b 	streq	r0, [r0], -fp
     844:	0e030024 	cdpeq	0, 0, cr0, cr3, cr4, {1}
     848:	0b3e0b0b 	bleq	f8347c <DISABLE_IRQ+0xf833fc>
     84c:	0f070000 	swieq	0x00070000
     850:	490b0b00 	stmmidb	fp, {r8, r9, fp}
     854:	08000013 	stmeqda	r0, {r0, r1, r4}
     858:	13010115 	tstne	r1, #1073741829	; 0x40000005
     85c:	13490c27 	cmpne	r9, #9984	; 0x2700
     860:	05090000 	streq	r0, [r9]
     864:	00134900 	andeqs	r4, r3, r0, lsl #18
     868:	00240a00 	eoreq	r0, r4, r0, lsl #20
     86c:	0b0b0803 	bleq	2c2880 <DISABLE_IRQ+0x2c2800>
     870:	00000b3e 	andeq	r0, r0, lr, lsr fp
     874:	4900210b 	stmmidb	r0, {r0, r1, r3, r8, sp}
     878:	0c000013 	stceq	0, cr0, [r0], {19}
     87c:	1301012e 	tstne	r1, #-2147483637	; 0x8000000b
     880:	0b3a0e03 	bleq	e84094 <DISABLE_IRQ+0xe84014>
     884:	0c270b3b 	stceq	11, cr0, [r7], #-236
     888:	01111349 	tsteq	r1, r9, asr #6
     88c:	0a400112 	beq	1000cdc <DISABLE_IRQ+0x1000c5c>
     890:	050d0000 	streq	r0, [sp]
     894:	3a080300 	bcc	20149c <DISABLE_IRQ+0x20141c>
     898:	490b3b0b 	stmmidb	fp, {r0, r1, r3, r8, r9, fp, ip, sp}
     89c:	000a0213 	andeq	r0, sl, r3, lsl r2
     8a0:	00340e00 	eoreqs	r0, r4, r0, lsl #28
     8a4:	0b3a0803 	bleq	e828b8 <DISABLE_IRQ+0xe82838>
     8a8:	13490b3b 	cmpne	r9, #60416	; 0xec00
     8ac:	00000a02 	andeq	r0, r0, r2, lsl #20
     8b0:	01012e0f 	tsteq	r1, pc, lsl #28
     8b4:	030c3f13 	tsteq	ip, #76	; 0x4c
     8b8:	3b0b3a0e 	blcc	2cf0f8 <DISABLE_IRQ+0x2cf078>
     8bc:	490c270b 	stmmidb	ip, {r0, r1, r3, r8, r9, sl, sp}
     8c0:	12011113 	andne	r1, r1, #-1073741820	; 0xc0000004
     8c4:	000a4001 	andeq	r4, sl, r1
     8c8:	00051000 	andeq	r1, r5, r0
     8cc:	0b3a0e03 	bleq	e840e0 <DISABLE_IRQ+0xe84060>
     8d0:	13490b3b 	cmpne	r9, #60416	; 0xec00
     8d4:	00000a02 	andeq	r0, r0, r2, lsl #20
     8d8:	03003411 	tsteq	r0, #285212672	; 0x11000000
     8dc:	3b0b3a0e 	blcc	2cf11c <DISABLE_IRQ+0x2cf09c>
     8e0:	0213490b 	andeqs	r4, r3, #180224	; 0x2c000
     8e4:	1200000a 	andne	r0, r0, #10	; 0xa
     8e8:	0c3f012e 	ldfeqs	f0, [pc], #-184
     8ec:	0b3a0e03 	bleq	e84100 <DISABLE_IRQ+0xe84080>
     8f0:	13490b3b 	cmpne	r9, #60416	; 0xec00
     8f4:	00000c3c 	andeq	r0, r0, ip, lsr ip
     8f8:	00001813 	andeq	r1, r0, r3, lsl r8
     8fc:	012e1400 	teqeq	lr, r0, lsl #8
     900:	0c3f1301 	ldceq	3, cr1, [pc], #-4
     904:	0b3a0e03 	bleq	e84118 <DISABLE_IRQ+0xe84098>
     908:	0c270b3b 	stceq	11, cr0, [r7], #-236
     90c:	01120111 	tsteq	r2, r1, lsl r1
     910:	00000a40 	andeq	r0, r0, r0, asr #20
     914:	03003415 	tsteq	r0, #352321536	; 0x15000000
     918:	3b0b3a0e 	blcc	2cf158 <DISABLE_IRQ+0x2cf0d8>
     91c:	0013490b 	andeqs	r4, r3, fp, lsl #18
     920:	00341600 	eoreqs	r1, r4, r0, lsl #12
     924:	0b3a0803 	bleq	e82938 <DISABLE_IRQ+0xe828b8>
     928:	13490b3b 	cmpne	r9, #60416	; 0xec00
     92c:	2e170000 	wxorcs	wr0, wr7, wr0
     930:	3f130101 	swicc	0x00130101
     934:	3a0e030c 	bcc	38156c <DISABLE_IRQ+0x3814ec>
     938:	490b3b0b 	stmmidb	fp, {r0, r1, r3, r8, r9, fp, ip, sp}
     93c:	000c3c13 	andeq	r3, ip, r3, lsl ip
     940:	000a1800 	andeq	r1, sl, r0, lsl #16
     944:	0b3a0e03 	bleq	e84158 <DISABLE_IRQ+0xe840d8>
     948:	01110b3b 	tsteq	r1, fp, lsr fp
     94c:	1d190000 	ldcne	0, cr0, [r9]
     950:	11133101 	tstne	r3, r1, lsl #2
     954:	00011201 	andeq	r1, r1, r1, lsl #4
     958:	00051a00 	andeq	r1, r5, r0, lsl #20
     95c:	00001331 	andeq	r1, r0, r1, lsr r3
     960:	55010b1b 	strpl	r0, [r1, #-2843]
     964:	1c000006 	stcne	0, cr0, [r0], {6}
     968:	13310034 	teqne	r1, #52	; 0x34
     96c:	00000a02 	andeq	r0, r0, r2, lsl #20
     970:	01012e1d 	tsteq	r1, sp, lsl lr
     974:	3a0e0313 	bcc	3815c8 <DISABLE_IRQ+0x381548>
     978:	270b3b0b 	strcs	r3, [fp, -fp, lsl #22]
     97c:	2013490c 	andcss	r4, r3, ip, lsl #18
     980:	1e00000b 	cdpne	0, 0, cr0, cr0, cr11, {0}
     984:	08030005 	stmeqda	r3, {r0, r2}
     988:	0b3b0b3a 	bleq	ec3678 <DISABLE_IRQ+0xec35f8>
     98c:	00001349 	andeq	r1, r0, r9, asr #6
     990:	0300051f 	tsteq	r0, #130023424	; 0x7c00000
     994:	3b0b3a0e 	blcc	2cf1d4 <DISABLE_IRQ+0x2cf154>
     998:	0013490b 	andeqs	r4, r3, fp, lsl #18
     99c:	00262000 	eoreq	r2, r6, r0
     9a0:	00001349 	andeq	r1, r0, r9, asr #6
     9a4:	03003421 	tsteq	r0, #553648128	; 0x21000000
     9a8:	3b0b3a0e 	blcc	2cf1e8 <DISABLE_IRQ+0x2cf168>
     9ac:	02134905 	andeqs	r4, r3, #81920	; 0x14000
     9b0:	2200000a 	andcs	r0, r0, #10	; 0xa
     9b4:	1301012e 	tstne	r1, #-2147483637	; 0x8000000b
     9b8:	0e030c3f 	mcreq	12, 0, r0, cr3, cr15, {1}
     9bc:	053b0b3a 	ldreq	r0, [fp, #-2874]!
     9c0:	13490c27 	cmpne	r9, #9984	; 0x2700
     9c4:	01120111 	tsteq	r2, r1, lsl r1
     9c8:	00000a40 	andeq	r0, r0, r0, asr #20
     9cc:	03000523 	tsteq	r0, #146800640	; 0x8c00000
     9d0:	3b0b3a08 	blcc	2cf1f8 <DISABLE_IRQ+0x2cf178>
     9d4:	02134905 	andeqs	r4, r3, #81920	; 0x14000
     9d8:	2400000a 	strcs	r0, [r0], #-10
     9dc:	1301012e 	tstne	r1, #-2147483637	; 0x8000000b
     9e0:	0e030c3f 	mcreq	12, 0, r0, cr3, cr15, {1}
     9e4:	053b0b3a 	ldreq	r0, [fp, #-2874]!
     9e8:	01110c27 	tsteq	r1, r7, lsr #24
     9ec:	0a400112 	beq	1000e3c <DISABLE_IRQ+0x1000dbc>
     9f0:	34250000 	strcct	r0, [r5]
     9f4:	3a080300 	bcc	2015fc <DISABLE_IRQ+0x20157c>
     9f8:	49053b0b 	stmmidb	r5, {r0, r1, r3, r8, r9, fp, ip, sp}
     9fc:	000a0213 	andeq	r0, sl, r3, lsl r2
     a00:	00342600 	eoreqs	r2, r4, r0, lsl #12
     a04:	0b3a0e03 	bleq	e84218 <DISABLE_IRQ+0xe84198>
     a08:	1349053b 	cmpne	r9, #247463936	; 0xec00000
     a0c:	34270000 	strcct	r0, [r7]
     a10:	3a080300 	bcc	201618 <DISABLE_IRQ+0x201598>
     a14:	49053b0b 	stmmidb	r5, {r0, r1, r3, r8, r9, fp, ip, sp}
     a18:	28000013 	stmcsda	r0, {r0, r1, r4}
     a1c:	0e03000a 	cdpeq	0, 0, cr0, cr3, cr10, {0}
     a20:	053b0b3a 	ldreq	r0, [fp, #-2874]!
     a24:	00000111 	andeq	r0, r0, r1, lsl r1
     a28:	00002129 	andeq	r2, r0, r9, lsr #2
     a2c:	00342a00 	eoreqs	r2, r4, r0, lsl #20
     a30:	0b3a0e03 	bleq	e84244 <DISABLE_IRQ+0xe841c4>
     a34:	13490b3b 	cmpne	r9, #60416	; 0xec00
     a38:	0c3c0c3f 	ldceq	12, cr0, [ip], #-252
     a3c:	342b0000 	strcct	r0, [fp]
     a40:	3a0e0300 	bcc	381648 <DISABLE_IRQ+0x3815c8>
     a44:	490b3b0b 	stmmidb	fp, {r0, r1, r3, r8, r9, fp, ip, sp}
     a48:	020c3f13 	andeq	r3, ip, #76	; 0x4c
     a4c:	2c00000a 	stccs	0, cr0, [r0], {10}
     a50:	0e030034 	mcreq	0, 0, r0, cr3, cr4, {1}
     a54:	053b0b3a 	ldreq	r0, [fp, #-2874]!
     a58:	0c3f1349 	ldceq	3, cr1, [pc], #-292
     a5c:	00000a02 	andeq	r0, r0, r2, lsl #20
     a60:	01110100 	tsteq	r1, r0, lsl #2
     a64:	01120610 	tsteq	r2, r0, lsl r6
     a68:	0e250111 	mcreq	1, 1, r0, cr5, cr1, {0}
     a6c:	0e030b13 	mcreq	11, 0, r0, cr3, cr3, {0}
     a70:	00000e1b 	andeq	r0, r0, fp, lsl lr
     a74:	01011302 	tsteq	r1, r2, lsl #6
     a78:	0b0e0313 	bleq	3816cc <DISABLE_IRQ+0x38164c>
     a7c:	3b0b3a0b 	blcc	2cf2b0 <DISABLE_IRQ+0x2cf230>
     a80:	0300000b 	tsteq	r0, #11	; 0xb
     a84:	0e03000d 	cdpeq	0, 0, cr0, cr3, cr13, {0}
     a88:	0b3b0b3a 	bleq	ec3778 <DISABLE_IRQ+0xec36f8>
     a8c:	0a381349 	beq	e057b8 <DISABLE_IRQ+0xe05738>
     a90:	24040000 	strcs	r0, [r4]
     a94:	0b0e0300 	bleq	38169c <DISABLE_IRQ+0x38161c>
     a98:	000b3e0b 	andeq	r3, fp, fp, lsl #28
     a9c:	01010500 	tsteq	r1, r0, lsl #10
     aa0:	13491301 	cmpne	r9, #67108864	; 0x4000000
     aa4:	21060000 	tstcs	r6, r0
     aa8:	2f134900 	swics	0x00134900
     aac:	0700000b 	streq	r0, [r0, -fp]
     ab0:	1301012e 	tstne	r1, #-2147483637	; 0x8000000b
     ab4:	0e030c3f 	mcreq	12, 0, r0, cr3, cr15, {1}
     ab8:	0b3b0b3a 	bleq	ec37a8 <DISABLE_IRQ+0xec3728>
     abc:	13490c27 	cmpne	r9, #9984	; 0x2700
     ac0:	01120111 	tsteq	r2, r1, lsl r1
     ac4:	00000a40 	andeq	r0, r0, r0, asr #20
     ac8:	03000508 	tsteq	r0, #33554432	; 0x2000000
     acc:	3b0b3a08 	blcc	2cf2f4 <DISABLE_IRQ+0x2cf274>
     ad0:	0213490b 	andeqs	r4, r3, #180224	; 0x2c000
     ad4:	0900000a 	stmeqdb	r0, {r1, r3}
     ad8:	0e030005 	cdpeq	0, 0, cr0, cr3, cr5, {0}
     adc:	0b3b0b3a 	bleq	ec37cc <DISABLE_IRQ+0xec374c>
     ae0:	0a021349 	beq	8580c <DISABLE_IRQ+0x8578c>
     ae4:	340a0000 	strcc	r0, [sl]
     ae8:	3a0e0300 	bcc	3816f0 <DISABLE_IRQ+0x381670>
     aec:	490b3b0b 	stmmidb	fp, {r0, r1, r3, r8, r9, fp, ip, sp}
     af0:	000a0213 	andeq	r0, sl, r3, lsl r2
     af4:	010b0b00 	tsteq	fp, r0, lsl #22
     af8:	01111301 	tsteq	r1, r1, lsl #6
     afc:	00000112 	andeq	r0, r0, r2, lsl r1
     b00:	3f012e0c 	swicc	0x00012e0c
     b04:	3a0e030c 	bcc	38173c <DISABLE_IRQ+0x3816bc>
     b08:	490b3b0b 	stmmidb	fp, {r0, r1, r3, r8, r9, fp, ip, sp}
     b0c:	000c3c13 	andeq	r3, ip, r3, lsl ip
     b10:	00180d00 	andeqs	r0, r8, r0, lsl #26
     b14:	0b0e0000 	bleq	380b1c <DISABLE_IRQ+0x380a9c>
     b18:	12011101 	andne	r1, r1, #1073741824	; 0x40000000
     b1c:	0f000001 	swieq	0x00000001
     b20:	08030024 	stmeqda	r3, {r2, r5}
     b24:	0b3e0b0b 	bleq	f83758 <DISABLE_IRQ+0xf836d8>
     b28:	2e100000 	wxorcs	wr0, wr0, wr0
     b2c:	3f130101 	swicc	0x00130101
     b30:	3a0e030c 	bcc	381768 <DISABLE_IRQ+0x3816e8>
     b34:	27053b0b 	strcs	r3, [r5, -fp, lsl #22]
     b38:	1113490c 	tstne	r3, ip, lsl #18
     b3c:	40011201 	andmi	r1, r1, r1, lsl #4
     b40:	1100000a 	tstne	r0, sl
     b44:	0e030005 	cdpeq	0, 0, cr0, cr3, cr5, {0}
     b48:	053b0b3a 	ldreq	r0, [fp, #-2874]!
     b4c:	0a021349 	beq	85878 <DISABLE_IRQ+0x857f8>
     b50:	0f120000 	swieq	0x00120000
     b54:	490b0b00 	stmmidb	fp, {r8, r9, fp}
     b58:	13000013 	tstne	r0, #19	; 0x13
     b5c:	0c3f002e 	ldceq	0, cr0, [pc], #-184
     b60:	0b3a0e03 	bleq	e84374 <DISABLE_IRQ+0xe842f4>
     b64:	0c27053b 	cfstr32eq	mvfx0, [r7], #-236
     b68:	01120111 	tsteq	r2, r1, lsl r1
     b6c:	00000a40 	andeq	r0, r0, r0, asr #20
     b70:	3f002e14 	swicc	0x00002e14
     b74:	3a0e030c 	bcc	3817ac <DISABLE_IRQ+0x38172c>
     b78:	27053b0b 	strcs	r3, [r5, -fp, lsl #22]
     b7c:	1113490c 	tstne	r3, ip, lsl #18
     b80:	40011201 	andmi	r1, r1, r1, lsl #4
     b84:	1500000a 	strne	r0, [r0, #-10]
     b88:	08030034 	stmeqda	r3, {r2, r4, r5}
     b8c:	053b0b3a 	ldreq	r0, [fp, #-2874]!
     b90:	0a021349 	beq	858bc <DISABLE_IRQ+0x8583c>
     b94:	05160000 	ldreq	r0, [r6]
     b98:	3a080300 	bcc	2017a0 <DISABLE_IRQ+0x201720>
     b9c:	49053b0b 	stmmidb	r5, {r0, r1, r3, r8, r9, fp, ip, sp}
     ba0:	000a0213 	andeq	r0, sl, r3, lsl r2
     ba4:	00341700 	eoreqs	r1, r4, r0, lsl #14
     ba8:	0b3a0e03 	bleq	e843bc <DISABLE_IRQ+0xe8433c>
     bac:	1349053b 	cmpne	r9, #247463936	; 0xec00000
     bb0:	00000a02 	andeq	r0, r0, r2, lsl #20
     bb4:	01012e18 	tsteq	r1, r8, lsl lr
     bb8:	030c3f13 	tsteq	ip, #76	; 0x4c
     bbc:	3b0b3a0e 	blcc	2cf3fc <DISABLE_IRQ+0x2cf37c>
     bc0:	110c2705 	tstne	ip, r5, lsl #14
     bc4:	40011201 	andmi	r1, r1, r1, lsl #4
     bc8:	1900000a 	stmnedb	r0, {r1, r3}
     bcc:	1301012e 	tstne	r1, #-2147483637	; 0x8000000b
     bd0:	0e030c3f 	mcreq	12, 0, r0, cr3, cr15, {1}
     bd4:	0b3b0b3a 	bleq	ec38c4 <DISABLE_IRQ+0xec3844>
     bd8:	01111349 	tsteq	r1, r9, asr #6
     bdc:	0a400112 	beq	100102c <DISABLE_IRQ+0x1000fac>
     be0:	341a0000 	ldrcc	r0, [sl]
     be4:	3a080300 	bcc	2017ec <DISABLE_IRQ+0x20176c>
     be8:	490b3b0b 	stmmidb	fp, {r0, r1, r3, r8, r9, fp, ip, sp}
     bec:	000a0213 	andeq	r0, sl, r3, lsl r2
     bf0:	00211b00 	eoreq	r1, r1, r0, lsl #22
     bf4:	052f1349 	streq	r1, [pc, #-841]!	; 8b3 <DISABLE_IRQ+0x833>
     bf8:	341c0000 	ldrcc	r0, [ip]
     bfc:	3a0e0300 	bcc	381804 <DISABLE_IRQ+0x381784>
     c00:	490b3b0b 	stmmidb	fp, {r0, r1, r3, r8, r9, fp, ip, sp}
     c04:	020c3f13 	andeq	r3, ip, #76	; 0x4c
     c08:	0000000a 	andeq	r0, r0, sl
     c0c:	10001101 	andne	r1, r0, r1, lsl #2
     c10:	12011106 	andne	r1, r1, #-2147483647	; 0x80000001
     c14:	1b080301 	blne	201820 <DISABLE_IRQ+0x2017a0>
     c18:	13082508 	tstne	r8, #33554432	; 0x2000000
     c1c:	00000005 	andeq	r0, r0, r5
     c20:	10001101 	andne	r1, r0, r1, lsl #2
     c24:	12011106 	andne	r1, r1, #-2147483647	; 0x80000001
     c28:	1b080301 	blne	201834 <DISABLE_IRQ+0x2017b4>
     c2c:	13082508 	tstne	r8, #33554432	; 0x2000000
     c30:	00000005 	andeq	r0, r0, r5
     c34:	10011101 	andne	r1, r1, r1, lsl #2
     c38:	11011206 	tstne	r1, r6, lsl #4
     c3c:	130e2501 	tstne	lr, #4194304	; 0x400000
     c40:	1b0e030b 	blne	381874 <DISABLE_IRQ+0x3817f4>
     c44:	0200000e 	andeq	r0, r0, #14	; 0xe
     c48:	13010101 	tstne	r1, #1073741824	; 0x40000000
     c4c:	00001349 	andeq	r1, r0, r9, asr #6
     c50:	49002103 	stmmidb	r0, {r0, r1, r8, sp}
     c54:	000b2f13 	andeq	r2, fp, r3, lsl pc
     c58:	00240400 	eoreq	r0, r4, r0, lsl #8
     c5c:	0b0b0e03 	bleq	2c4470 <DISABLE_IRQ+0x2c43f0>
     c60:	00000b3e 	andeq	r0, r0, lr, lsr fp
     c64:	03003405 	tsteq	r0, #83886080	; 0x5000000
     c68:	3b0b3a0e 	blcc	2cf4a8 <DISABLE_IRQ+0x2cf428>
     c6c:	3f13490b 	swicc	0x0013490b
     c70:	000a020c 	andeq	r0, sl, ip, lsl #4
     c74:	11010000 	tstne	r1, r0
     c78:	12061001 	andne	r1, r6, #1	; 0x1
     c7c:	25011101 	strcs	r1, [r1, #-257]
     c80:	030b130e 	tsteq	fp, #939524096	; 0x38000000
     c84:	000e1b0e 	andeq	r1, lr, lr, lsl #22
     c88:	00240200 	eoreq	r0, r4, r0, lsl #4
     c8c:	0b0b0e03 	bleq	2c44a0 <DISABLE_IRQ+0x2c4420>
     c90:	00000b3e 	andeq	r0, r0, lr, lsr fp
     c94:	03001603 	tsteq	r0, #3145728	; 0x300000
     c98:	3b0b3a0e 	blcc	2cf4d8 <DISABLE_IRQ+0x2cf458>
     c9c:	0013490b 	andeqs	r4, r3, fp, lsl #18
     ca0:	00240400 	eoreq	r0, r4, r0, lsl #8
     ca4:	0b0b0803 	bleq	2c2cb8 <DISABLE_IRQ+0x2c2c38>
     ca8:	00000b3e 	andeq	r0, r0, lr, lsr fp
     cac:	01011305 	tsteq	r1, r5, lsl #6
     cb0:	0b0e0313 	bleq	381904 <DISABLE_IRQ+0x381884>
     cb4:	3b0b3a0b 	blcc	2cf4e8 <DISABLE_IRQ+0x2cf468>
     cb8:	0600000b 	streq	r0, [r0], -fp
     cbc:	0803000d 	stmeqda	r3, {r0, r2, r3}
     cc0:	0b3b0b3a 	bleq	ec39b0 <DISABLE_IRQ+0xec3930>
     cc4:	0a381349 	beq	e059f0 <DISABLE_IRQ+0xe05970>
     cc8:	0d070000 	stceq	0, cr0, [r7]
     ccc:	3a0e0300 	bcc	3818d4 <DISABLE_IRQ+0x381854>
     cd0:	490b3b0b 	stmmidb	fp, {r0, r1, r3, r8, r9, fp, ip, sp}
     cd4:	000a3813 	andeq	r3, sl, r3, lsl r8
     cd8:	01170800 	tsteq	r7, r0, lsl #16
     cdc:	0b0b1301 	bleq	2c58e8 <DISABLE_IRQ+0x2c5868>
     ce0:	0b3b0b3a 	bleq	ec39d0 <DISABLE_IRQ+0xec3950>
     ce4:	0d090000 	stceq	0, cr0, [r9]
     ce8:	3a080300 	bcc	2018f0 <DISABLE_IRQ+0x201870>
     cec:	490b3b0b 	stmmidb	fp, {r0, r1, r3, r8, r9, fp, ip, sp}
     cf0:	0a000013 	beq	d44 <DISABLE_IRQ+0xcc4>
     cf4:	0c3f012e 	ldfeqs	f0, [pc], #-184
     cf8:	0b3a0e03 	bleq	e8450c <DISABLE_IRQ+0xe8448c>
     cfc:	0c270b3b 	stceq	11, cr0, [r7], #-236
     d00:	01111349 	tsteq	r1, r9, asr #6
     d04:	0a400112 	beq	1001154 <DISABLE_IRQ+0x10010d4>
     d08:	050b0000 	streq	r0, [fp]
     d0c:	3a080300 	bcc	201914 <DISABLE_IRQ+0x201894>
     d10:	490b3b0b 	stmmidb	fp, {r0, r1, r3, r8, r9, fp, ip, sp}
     d14:	000a0213 	andeq	r0, sl, r3, lsl r2
     d18:	00340c00 	eoreqs	r0, r4, r0, lsl #24
     d1c:	0b3a0803 	bleq	e82d30 <DISABLE_IRQ+0xe82cb0>
     d20:	13490b3b 	cmpne	r9, #60416	; 0xec00
     d24:	00000a02 	andeq	r0, r0, r2, lsl #20
     d28:	0300340d 	tsteq	r0, #218103808	; 0xd000000
     d2c:	3b0b3a08 	blcc	2cf554 <DISABLE_IRQ+0x2cf4d4>
     d30:	0013490b 	andeqs	r4, r3, fp, lsl #18
     d34:	010b0e00 	tsteq	fp, r0, lsl #28
     d38:	01120111 	tsteq	r2, r1, lsl r1
     d3c:	340f0000 	strcc	r0, [pc], #0	; d44 <DISABLE_IRQ+0xcc4>
     d40:	3a0e0300 	bcc	381948 <DISABLE_IRQ+0x3818c8>
     d44:	490b3b0b 	stmmidb	fp, {r0, r1, r3, r8, r9, fp, ip, sp}
     d48:	000a0213 	andeq	r0, sl, r3, lsl r2
     d4c:	11010000 	tstne	r1, r0
     d50:	12061001 	andne	r1, r6, #1	; 0x1
     d54:	25011101 	strcs	r1, [r1, #-257]
     d58:	030b130e 	tsteq	fp, #939524096	; 0x38000000
     d5c:	000e1b0e 	andeq	r1, lr, lr, lsl #22
     d60:	00240200 	eoreq	r0, r4, r0, lsl #4
     d64:	0b0b0e03 	bleq	2c4578 <DISABLE_IRQ+0x2c44f8>
     d68:	00000b3e 	andeq	r0, r0, lr, lsr fp
     d6c:	03001603 	tsteq	r0, #3145728	; 0x300000
     d70:	3b0b3a0e 	blcc	2cf5b0 <DISABLE_IRQ+0x2cf530>
     d74:	0013490b 	andeqs	r4, r3, fp, lsl #18
     d78:	000f0400 	andeq	r0, pc, r0, lsl #8
     d7c:	13490b0b 	cmpne	r9, #11264	; 0x2c00
     d80:	2e050000 	cdpcs	0, 0, cr0, cr5, cr0, {0}
     d84:	3f130101 	swicc	0x00130101
     d88:	3a0e030c 	bcc	3819c0 <DISABLE_IRQ+0x381940>
     d8c:	270b3b0b 	strcs	r3, [fp, -fp, lsl #22]
     d90:	1113490c 	tstne	r3, ip, lsl #18
     d94:	40011201 	andmi	r1, r1, r1, lsl #4
     d98:	0600000a 	streq	r0, [r0], -sl
     d9c:	08030005 	stmeqda	r3, {r0, r2}
     da0:	0b3b0b3a 	bleq	ec3a90 <DISABLE_IRQ+0xec3a10>
     da4:	0a021349 	beq	85ad0 <DISABLE_IRQ+0x85a50>
     da8:	18070000 	stmneda	r7, {}
     dac:	08000000 	stmeqda	r0, {}
     db0:	08030034 	stmeqda	r3, {r2, r4, r5}
     db4:	0b3b0b3a 	bleq	ec3aa4 <DISABLE_IRQ+0xec3a24>
     db8:	0a021349 	beq	85ae4 <DISABLE_IRQ+0x85a64>
     dbc:	34090000 	strcc	r0, [r9]
     dc0:	3a0e0300 	bcc	3819c8 <DISABLE_IRQ+0x381948>
     dc4:	490b3b0b 	stmmidb	fp, {r0, r1, r3, r8, r9, fp, ip, sp}
     dc8:	0a000013 	beq	e1c <DISABLE_IRQ+0xd9c>
     dcc:	08030024 	stmeqda	r3, {r2, r5}
     dd0:	0b3e0b0b 	bleq	f83a04 <DISABLE_IRQ+0xf83984>
     dd4:	260b0000 	strcs	r0, [fp], -r0
     dd8:	00134900 	andeqs	r4, r3, r0, lsl #18
     ddc:	01010c00 	tsteq	r1, r0, lsl #24
     de0:	13491301 	cmpne	r9, #67108864	; 0x4000000
     de4:	210d0000 	tstcs	sp, r0
     de8:	2f134900 	swics	0x00134900
     dec:	0e000005 	cdpeq	0, 0, cr0, cr0, cr5, {0}
     df0:	0e030034 	mcreq	0, 0, r0, cr3, cr4, {1}
     df4:	0b3b0b3a 	bleq	ec3ae4 <DISABLE_IRQ+0xec3a64>
     df8:	0a021349 	beq	85b24 <DISABLE_IRQ+0x85aa4>
     dfc:	01000000 	tsteq	r0, r0
     e00:	06100111 	undefined
     e04:	01110112 	tsteq	r1, r2, lsl r1
     e08:	0b130e25 	bleq	4c46a4 <DISABLE_IRQ+0x4c4624>
     e0c:	0e1b0e03 	cdpeq	14, 1, cr0, cr11, cr3, {0}
     e10:	16020000 	strne	r0, [r2], -r0
     e14:	3a0e0300 	bcc	381a1c <DISABLE_IRQ+0x38199c>
     e18:	490b3b0b 	stmmidb	fp, {r0, r1, r3, r8, r9, fp, ip, sp}
     e1c:	03000013 	tsteq	r0, #19	; 0x13
     e20:	0e030024 	cdpeq	0, 0, cr0, cr3, cr4, {1}
     e24:	0b3e0b0b 	bleq	f83a58 <DISABLE_IRQ+0xf839d8>
     e28:	2e040000 	cdpcs	0, 0, cr0, cr4, cr0, {0}
     e2c:	3f130101 	swicc	0x00130101
     e30:	3a0e030c 	bcc	381a68 <DISABLE_IRQ+0x3819e8>
     e34:	270b3b0b 	strcs	r3, [fp, -fp, lsl #22]
     e38:	1113490c 	tstne	r3, ip, lsl #18
     e3c:	40011201 	andmi	r1, r1, r1, lsl #4
     e40:	0500000a 	streq	r0, [r0, #-10]
     e44:	08030005 	stmeqda	r3, {r0, r2}
     e48:	0b3b0b3a 	bleq	ec3b38 <DISABLE_IRQ+0xec3ab8>
     e4c:	0a021349 	beq	85b78 <DISABLE_IRQ+0x85af8>
     e50:	34060000 	strcc	r0, [r6]
     e54:	3a080300 	bcc	201a5c <DISABLE_IRQ+0x2019dc>
     e58:	490b3b0b 	stmmidb	fp, {r0, r1, r3, r8, r9, fp, ip, sp}
     e5c:	000a0213 	andeq	r0, sl, r3, lsl r2
     e60:	011d0700 	tsteq	sp, r0, lsl #14
     e64:	13311301 	teqne	r1, #67108864	; 0x4000000
     e68:	01120111 	tsteq	r2, r1, lsl r1
     e6c:	05080000 	streq	r0, [r8]
     e70:	02133100 	andeqs	r3, r3, #0	; 0x0
     e74:	0900000a 	stmeqdb	r0, {r1, r3}
     e78:	1331011d 	teqne	r1, #1073741831	; 0x40000007
     e7c:	01120111 	tsteq	r2, r1, lsl r1
     e80:	240a0000 	strcs	r0, [sl]
     e84:	0b080300 	bleq	201a8c <DISABLE_IRQ+0x201a0c>
     e88:	000b3e0b 	andeq	r3, fp, fp, lsl #28
     e8c:	000f0b00 	andeq	r0, pc, r0, lsl #22
     e90:	13490b0b 	cmpne	r9, #11264	; 0x2c00
     e94:	260c0000 	strcs	r0, [ip], -r0
     e98:	00134900 	andeqs	r4, r3, r0, lsl #18
     e9c:	012e0d00 	teqeq	lr, r0, lsl #26
     ea0:	0e031301 	cdpeq	3, 0, cr1, cr3, cr1, {0}
     ea4:	0b3b0b3a 	bleq	ec3b94 <DISABLE_IRQ+0xec3b14>
     ea8:	13490c27 	cmpne	r9, #9984	; 0x2700
     eac:	00000b20 	andeq	r0, r0, r0, lsr #22
     eb0:	0300050e 	tsteq	r0, #58720256	; 0x3800000
     eb4:	3b0b3a08 	blcc	2cf6dc <DISABLE_IRQ+0x2cf65c>
     eb8:	0013490b 	andeqs	r4, r3, fp, lsl #18
     ebc:	00050f00 	andeq	r0, r5, r0, lsl #30
     ec0:	0b3a0e03 	bleq	e846d4 <DISABLE_IRQ+0xe84654>
     ec4:	13490b3b 	cmpne	r9, #60416	; 0xec00
     ec8:	00000a02 	andeq	r0, r0, r2, lsl #20
     ecc:	03003410 	tsteq	r0, #268435456	; 0x10000000
     ed0:	3b0b3a0e 	blcc	2cf710 <DISABLE_IRQ+0x2cf690>
     ed4:	0213490b 	andeqs	r4, r3, #180224	; 0x2c000
     ed8:	1100000a 	tstne	r0, sl
     edc:	08030034 	stmeqda	r3, {r2, r4, r5}
     ee0:	053b0b3a 	ldreq	r0, [fp, #-2874]!
     ee4:	0a021349 	beq	85c10 <DISABLE_IRQ+0x85b90>
     ee8:	34120000 	ldrcc	r0, [r2]
     eec:	3a0e0300 	bcc	381af4 <DISABLE_IRQ+0x381a74>
     ef0:	49053b0b 	stmmidb	r5, {r0, r1, r3, r8, r9, fp, ip, sp}
     ef4:	000a0213 	andeq	r0, sl, r3, lsl r2
     ef8:	012e1300 	teqeq	lr, r0, lsl #6
     efc:	0c3f1301 	ldceq	3, cr1, [pc], #-4
     f00:	0b3a0e03 	bleq	e84714 <DISABLE_IRQ+0xe84694>
     f04:	0c27053b 	cfstr32eq	mvfx0, [r7], #-236
     f08:	01111349 	tsteq	r1, r9, asr #6
     f0c:	0a400112 	beq	100135c <DISABLE_IRQ+0x10012dc>
     f10:	05140000 	ldreq	r0, [r4]
     f14:	3a080300 	bcc	201b1c <DISABLE_IRQ+0x201a9c>
     f18:	49053b0b 	stmmidb	r5, {r0, r1, r3, r8, r9, fp, ip, sp}
     f1c:	000a0213 	andeq	r0, sl, r3, lsl r2
     f20:	00051500 	andeq	r1, r5, r0, lsl #10
     f24:	0b3a0e03 	bleq	e84738 <DISABLE_IRQ+0xe846b8>
     f28:	1349053b 	cmpne	r9, #247463936	; 0xec00000
     f2c:	00000a02 	andeq	r0, r0, r2, lsl #20
     f30:	0b000f16 	bleq	4b90 <DISABLE_IRQ+0x4b10>
     f34:	1700000b 	strne	r0, [r0, -fp]
     f38:	1301012e 	tstne	r1, #-2147483637	; 0x8000000b
     f3c:	0e030c3f 	mcreq	12, 0, r0, cr3, cr15, {1}
     f40:	053b0b3a 	ldreq	r0, [fp, #-2874]!
     f44:	01110c27 	tsteq	r1, r7, lsr #24
     f48:	0a400112 	beq	1001398 <DISABLE_IRQ+0x1001318>
     f4c:	26180000 	ldrcs	r0, [r8], -r0
     f50:	19000000 	stmnedb	r0, {}
     f54:	08030034 	stmeqda	r3, {r2, r4, r5}
     f58:	053b0b3a 	ldreq	r0, [fp, #-2874]!
     f5c:	00001349 	andeq	r1, r0, r9, asr #6
     f60:	0101011a 	tsteq	r1, sl, lsl r1
     f64:	00134913 	andeqs	r4, r3, r3, lsl r9
     f68:	00211b00 	eoreq	r1, r1, r0, lsl #22
     f6c:	341c0000 	ldrcc	r0, [ip]
     f70:	3a0e0300 	bcc	381b78 <DISABLE_IRQ+0x381af8>
     f74:	490b3b0b 	stmmidb	fp, {r0, r1, r3, r8, r9, fp, ip, sp}
     f78:	3c0c3f13 	stccc	15, cr3, [ip], {19}
     f7c:	1d00000c 	stcne	0, cr0, [r0, #-48]
     f80:	0e030034 	mcreq	0, 0, r0, cr3, cr4, {1}
     f84:	0b3b0b3a 	bleq	ec3c74 <DISABLE_IRQ+0xec3bf4>
     f88:	0c3f1349 	ldceq	3, cr1, [pc], #-292
     f8c:	00000a02 	andeq	r0, r0, r2, lsl #20
     f90:	01110100 	tsteq	r1, r0, lsl #2
     f94:	01120610 	tsteq	r2, r0, lsl r6
     f98:	0e250111 	mcreq	1, 1, r0, cr5, cr1, {0}
     f9c:	0e030b13 	mcreq	11, 0, r0, cr3, cr3, {0}
     fa0:	00000e1b 	andeq	r0, r0, fp, lsl lr
     fa4:	03001602 	tsteq	r0, #2097152	; 0x200000
     fa8:	3b0b3a0e 	blcc	2cf7e8 <DISABLE_IRQ+0x2cf768>
     fac:	0013490b 	andeqs	r4, r3, fp, lsl #18
     fb0:	00240300 	eoreq	r0, r4, r0, lsl #6
     fb4:	0b0b0e03 	bleq	2c47c8 <DISABLE_IRQ+0x2c4748>
     fb8:	00000b3e 	andeq	r0, r0, lr, lsr fp
     fbc:	0b000f04 	bleq	4bd4 <DISABLE_IRQ+0x4b54>
     fc0:	0013490b 	andeqs	r4, r3, fp, lsl #18
     fc4:	012e0500 	teqeq	lr, r0, lsl #10
     fc8:	0c3f1301 	ldceq	3, cr1, [pc], #-4
     fcc:	0b3a0e03 	bleq	e847e0 <DISABLE_IRQ+0xe84760>
     fd0:	0c270b3b 	stceq	11, cr0, [r7], #-236
     fd4:	01111349 	tsteq	r1, r9, asr #6
     fd8:	0a400112 	beq	1001428 <DISABLE_IRQ+0x10013a8>
     fdc:	05060000 	streq	r0, [r6]
     fe0:	3a080300 	bcc	201be8 <DISABLE_IRQ+0x201b68>
     fe4:	490b3b0b 	stmmidb	fp, {r0, r1, r3, r8, r9, fp, ip, sp}
     fe8:	000a0213 	andeq	r0, sl, r3, lsl r2
     fec:	00050700 	andeq	r0, r5, r0, lsl #14
     ff0:	0b3a0e03 	bleq	e84804 <DISABLE_IRQ+0xe84784>
     ff4:	13490b3b 	cmpne	r9, #60416	; 0xec00
     ff8:	00000a02 	andeq	r0, r0, r2, lsl #20
     ffc:	03003408 	tsteq	r0, #134217728	; 0x8000000
    1000:	3b0b3a0e 	blcc	2cf840 <DISABLE_IRQ+0x2cf7c0>
    1004:	0213490b 	andeqs	r4, r3, #180224	; 0x2c000
    1008:	0900000a 	stmeqdb	r0, {r1, r3}
    100c:	1301011d 	tstne	r1, #1073741831	; 0x40000007
    1010:	01111331 	tsteq	r1, r1, lsr r3
    1014:	00000112 	andeq	r0, r0, r2, lsl r1
    1018:	3100050a 	tstcc	r0, sl, lsl #10
    101c:	000a0213 	andeq	r0, sl, r3, lsl r2
    1020:	011d0b00 	tsteq	sp, r0, lsl #22
    1024:	01111331 	tsteq	r1, r1, lsr r3
    1028:	00000112 	andeq	r0, r0, r2, lsl r1
    102c:	4900260c 	stmmidb	r0, {r2, r3, r9, sl, sp}
    1030:	0d000013 	stceq	0, cr0, [r0, #-76]
    1034:	1301012e 	tstne	r1, #-2147483637	; 0x8000000b
    1038:	0b3a0e03 	bleq	e8484c <DISABLE_IRQ+0xe847cc>
    103c:	0c270b3b 	stceq	11, cr0, [r7], #-236
    1040:	0b201349 	bleq	805d6c <DISABLE_IRQ+0x805cec>
    1044:	050e0000 	streq	r0, [lr]
    1048:	3a080300 	bcc	201c50 <DISABLE_IRQ+0x201bd0>
    104c:	490b3b0b 	stmmidb	fp, {r0, r1, r3, r8, r9, fp, ip, sp}
    1050:	0f000013 	swieq	0x00000013
    1054:	1301012e 	tstne	r1, #-2147483637	; 0x8000000b
    1058:	0b3a0e03 	bleq	e8486c <DISABLE_IRQ+0xe847ec>
    105c:	0c270b3b 	stceq	11, cr0, [r7], #-236
    1060:	01111349 	tsteq	r1, r9, asr #6
    1064:	0a400112 	beq	10014b4 <DISABLE_IRQ+0x1001434>
    1068:	34100000 	ldrcc	r0, [r0]
    106c:	3a080300 	bcc	201c74 <DISABLE_IRQ+0x201bf4>
    1070:	490b3b0b 	stmmidb	fp, {r0, r1, r3, r8, r9, fp, ip, sp}
    1074:	000a0213 	andeq	r0, sl, r3, lsl r2
    1078:	00241100 	eoreq	r1, r4, r0, lsl #2
    107c:	0b0b0803 	bleq	2c3090 <DISABLE_IRQ+0x2c3010>
    1080:	00000b3e 	andeq	r0, r0, lr, lsr fp
    1084:	55010b12 	strpl	r0, [r1, #-2834]
    1088:	13000006 	tstne	r0, #6	; 0x6
    108c:	13010101 	tstne	r1, #1073741824	; 0x40000000
    1090:	00001349 	andeq	r1, r0, r9, asr #6
    1094:	49002114 	stmmidb	r0, {r2, r4, r8, sp}
    1098:	000b2f13 	andeq	r2, fp, r3, lsl pc
    109c:	012e1500 	teqeq	lr, r0, lsl #10
    10a0:	0c3f1301 	ldceq	3, cr1, [pc], #-4
    10a4:	0b3a0e03 	bleq	e848b8 <DISABLE_IRQ+0xe84838>
    10a8:	0c27053b 	cfstr32eq	mvfx0, [r7], #-236
    10ac:	01111349 	tsteq	r1, r9, asr #6
    10b0:	0a400112 	beq	1001500 <DISABLE_IRQ+0x1001480>
    10b4:	05160000 	ldreq	r0, [r6]
    10b8:	3a080300 	bcc	201cc0 <DISABLE_IRQ+0x201c40>
    10bc:	49053b0b 	stmmidb	r5, {r0, r1, r3, r8, r9, fp, ip, sp}
    10c0:	000a0213 	andeq	r0, sl, r3, lsl r2
    10c4:	00051700 	andeq	r1, r5, r0, lsl #14
    10c8:	0b3a0e03 	bleq	e848dc <DISABLE_IRQ+0xe8485c>
    10cc:	1349053b 	cmpne	r9, #247463936	; 0xec00000
    10d0:	00000a02 	andeq	r0, r0, r2, lsl #20
    10d4:	03003418 	tsteq	r0, #402653184	; 0x18000000
    10d8:	3b0b3a08 	blcc	2cf900 <DISABLE_IRQ+0x2cf880>
    10dc:	02134905 	andeqs	r4, r3, #81920	; 0x14000
    10e0:	1900000a 	stmnedb	r0, {r1, r3}
    10e4:	0e030034 	mcreq	0, 0, r0, cr3, cr4, {1}
    10e8:	053b0b3a 	ldreq	r0, [fp, #-2874]!
    10ec:	0a021349 	beq	85e18 <DISABLE_IRQ+0x85d98>
    10f0:	0a1a0000 	beq	6810f8 <DISABLE_IRQ+0x681078>
    10f4:	3a0e0300 	bcc	381cfc <DISABLE_IRQ+0x381c7c>
    10f8:	11053b0b 	tstne	r5, fp, lsl #22
    10fc:	1b000001 	blne	1108 <DISABLE_IRQ+0x1088>
    1100:	1301010b 	tstne	r1, #-1073741822	; 0xc0000002
    1104:	00000655 	andeq	r0, r0, r5, asr r6
    1108:	11010b1c 	tstne	r1, ip, lsl fp
    110c:	00011201 	andeq	r1, r1, r1, lsl #4
    1110:	00181d00 	andeqs	r1, r8, r0, lsl #26
    1114:	341e0000 	ldrcc	r0, [lr]
    1118:	3a0e0300 	bcc	381d20 <DISABLE_IRQ+0x381ca0>
    111c:	49053b0b 	stmmidb	r5, {r0, r1, r3, r8, r9, fp, ip, sp}
    1120:	1f000013 	swine	0x00000013
    1124:	08030034 	stmeqda	r3, {r2, r4, r5}
    1128:	053b0b3a 	ldreq	r0, [fp, #-2874]!
    112c:	00001349 	andeq	r1, r0, r9, asr #6
    1130:	01010b20 	tsteq	r1, r0, lsr #22
    1134:	12011113 	andne	r1, r1, #-1073741820	; 0xc0000004
    1138:	21000001 	tstcs	r0, r1
    113c:	00000021 	andeq	r0, r0, r1, lsr #32
    1140:	03003422 	tsteq	r0, #570425344	; 0x22000000
    1144:	3b0b3a0e 	blcc	2cf984 <DISABLE_IRQ+0x2cf904>
    1148:	3f13490b 	swicc	0x0013490b
    114c:	000c3c0c 	andeq	r3, ip, ip, lsl #24
	...
Disassembly of section .debug_aranges:

00000000 <.debug_aranges>:
   0:	0000001c 	andeq	r0, r0, ip, lsl r0
   4:	00000002 	andeq	r0, r0, r2
   8:	00040000 	andeq	r0, r4, r0
   c:	00000000 	andeq	r0, r0, r0
  10:	30000000 	andcc	r0, r0, r0
  14:	0000021c 	andeq	r0, r0, ip, lsl r2
	...
  20:	0000001c 	andeq	r0, r0, ip, lsl r0
  24:	00410002 	subeq	r0, r1, r2
  28:	00040000 	andeq	r0, r4, r0
  2c:	00000000 	andeq	r0, r0, r0
  30:	30000220 	andcc	r0, r0, r0, lsr #4
  34:	00000130 	andeq	r0, r0, r0, lsr r1
	...
  40:	0000001c 	andeq	r0, r0, ip, lsl r0
  44:	00db0002 	sbceqs	r0, fp, r2
  48:	00040000 	andeq	r0, r4, r0
  4c:	00000000 	andeq	r0, r0, r0
  50:	30000350 	andcc	r0, r0, r0, asr r3
  54:	0000043c 	andeq	r0, r0, ip, lsr r4
	...
  60:	0000001c 	andeq	r0, r0, ip, lsl r0
  64:	048f0002 	streq	r0, [pc], #2	; 6c <DISABLE_FIQ+0x2c>
  68:	00040000 	andeq	r0, r4, r0
  6c:	00000000 	andeq	r0, r0, r0
  70:	3000078c 	andcc	r0, r0, ip, lsl #15
  74:	000000fc 	streqd	r0, [r0], -ip
	...
  80:	0000001c 	andeq	r0, r0, ip, lsl r0
  84:	07bd0002 	ldreq	r0, [sp, r2]!
  88:	00040000 	andeq	r0, r4, r0
  8c:	00000000 	andeq	r0, r0, r0
  90:	30000888 	andcc	r0, r0, r8, lsl #17
  94:	000000e4 	andeq	r0, r0, r4, ror #1
	...
  a0:	0000001c 	andeq	r0, r0, ip, lsl r0
  a4:	0a9b0002 	beq	fe6c00b4 <CLKDIVN+0xb26c00a0>
  a8:	00040000 	andeq	r0, r4, r0
  ac:	00000000 	andeq	r0, r0, r0
  b0:	3000096c 	andcc	r0, r0, ip, ror #18
  b4:	00000078 	andeq	r0, r0, r8, ror r0
	...
  c0:	0000001c 	andeq	r0, r0, ip, lsl r0
  c4:	0b630002 	bleq	18c00d4 <DISABLE_IRQ+0x18c0054>
  c8:	00040000 	andeq	r0, r4, r0
  cc:	00000000 	andeq	r0, r0, r0
  d0:	300009e4 	andcc	r0, r0, r4, ror #19
  d4:	0000031c 	andeq	r0, r0, ip, lsl r3
	...
  e0:	0000001c 	andeq	r0, r0, ip, lsl r0
  e4:	0da20002 	stceq	0, cr0, [r2, #8]!
  e8:	00040000 	andeq	r0, r4, r0
  ec:	00000000 	andeq	r0, r0, r0
  f0:	30000d00 	andcc	r0, r0, r0, lsl #26
  f4:	00000284 	andeq	r0, r0, r4, lsl #5
	...
 100:	0000001c 	andeq	r0, r0, ip, lsl r0
 104:	0f9e0002 	swieq	0x009e0002
 108:	00040000 	andeq	r0, r4, r0
 10c:	00000000 	andeq	r0, r0, r0
 110:	30000f84 	andcc	r0, r0, r4, lsl #31
 114:	0000005c 	andeq	r0, r0, ip, asr r0
	...
 120:	0000001c 	andeq	r0, r0, ip, lsl r0
 124:	11760002 	cmnne	r6, r2
 128:	00040000 	andeq	r0, r4, r0
 12c:	00000000 	andeq	r0, r0, r0
 130:	30000fe0 	andcc	r0, r0, r0, ror #31
 134:	000000d4 	ldreqd	r0, [r0], -r4
	...
 140:	0000001c 	andeq	r0, r0, ip, lsl r0
 144:	127a0002 	rsbnes	r0, sl, #2	; 0x2
 148:	00040000 	andeq	r0, r4, r0
 14c:	00000000 	andeq	r0, r0, r0
 150:	300010b4 	strcch	r1, [r0], -r4
 154:	00000538 	andeq	r0, r0, r8, lsr r5
	...
 160:	0000001c 	andeq	r0, r0, ip, lsl r0
 164:	18d00002 	ldmneia	r0, {r1}^
 168:	00040000 	andeq	r0, r4, r0
 16c:	00000000 	andeq	r0, r0, r0
 170:	300015ec 	andcc	r1, r0, ip, ror #11
 174:	00000e8c 	andeq	r0, r0, ip, lsl #29
	...
 180:	0000001c 	andeq	r0, r0, ip, lsl r0
 184:	1fea0002 	swine	0x00ea0002
 188:	00040000 	andeq	r0, r4, r0
 18c:	00000000 	andeq	r0, r0, r0
 190:	30002480 	andcc	r2, r0, r0, lsl #9
 194:	0000012c 	andeq	r0, r0, ip, lsr #2
	...
 1a0:	0000001c 	andeq	r0, r0, ip, lsl r0
 1a4:	20300002 	eorcss	r0, r0, r2
 1a8:	00040000 	andeq	r0, r4, r0
 1ac:	00000000 	andeq	r0, r0, r0
 1b0:	300025b0 	strcch	r2, [r0], -r0
 1b4:	000003b0 	streqh	r0, [r0], -r0
	...
 1c0:	0000001c 	andeq	r0, r0, ip, lsl r0
 1c4:	20d00002 	sbccss	r0, r0, r2
 1c8:	00040000 	andeq	r0, r4, r0
 1cc:	00000000 	andeq	r0, r0, r0
 1d0:	30002960 	andcc	r2, r0, r0, ror #18
 1d4:	00000050 	andeq	r0, r0, r0, asr r0
	...
 1e0:	0000001c 	andeq	r0, r0, ip, lsl r0
 1e4:	22330002 	eorcss	r0, r3, #2	; 0x2
 1e8:	00040000 	andeq	r0, r4, r0
 1ec:	00000000 	andeq	r0, r0, r0
 1f0:	300029b0 	strcch	r2, [r0], -r0
 1f4:	000000b0 	streqh	r0, [r0], -r0
	...
 200:	0000001c 	andeq	r0, r0, ip, lsl r0
 204:	23650002 	cmncs	r5, #2	; 0x2
 208:	00040000 	andeq	r0, r4, r0
 20c:	00000000 	andeq	r0, r0, r0
 210:	30002a60 	andcc	r2, r0, r0, ror #20
 214:	000005b8 	streqh	r0, [r0], -r8
	...
 220:	0000001c 	andeq	r0, r0, ip, lsl r0
 224:	2b6b0002 	blcs	1ac0234 <DISABLE_IRQ+0x1ac01b4>
 228:	00040000 	andeq	r0, r4, r0
 22c:	00000000 	andeq	r0, r0, r0
 230:	30003018 	andcc	r3, r0, r8, lsl r0
 234:	000013c0 	andeq	r1, r0, r0, asr #7
	...
Disassembly of section .debug_frame:

00000000 <.debug_frame>:
   0:	0000000c 	andeq	r0, r0, ip
   4:	ffffffff 	swinv	0x00ffffff
   8:	7c010001 	stcvc	0, cr0, [r1], {1}
   c:	000d0c0e 	andeq	r0, sp, lr, lsl #24
  10:	0000000c 	andeq	r0, r0, ip
  14:	00000000 	andeq	r0, r0, r0
  18:	30000220 	andcc	r0, r0, r0, lsr #4
  1c:	00000034 	andeq	r0, r0, r4, lsr r0
  20:	00000010 	andeq	r0, r0, r0, lsl r0
  24:	00000000 	andeq	r0, r0, r0
  28:	30000254 	andcc	r0, r0, r4, asr r2
  2c:	00000078 	andeq	r0, r0, r8, ror r0
  30:	00080e44 	andeq	r0, r8, r4, asr #28
  34:	0000000c 	andeq	r0, r0, ip
  38:	00000000 	andeq	r0, r0, r0
  3c:	300002cc 	andcc	r0, r0, ip, asr #5
  40:	00000048 	andeq	r0, r0, r8, asr #32
  44:	0000000c 	andeq	r0, r0, ip
  48:	00000000 	andeq	r0, r0, r0
  4c:	30000314 	andcc	r0, r0, r4, lsl r3
  50:	0000003c 	andeq	r0, r0, ip, lsr r0
  54:	0000000c 	andeq	r0, r0, ip
  58:	ffffffff 	swinv	0x00ffffff
  5c:	7c010001 	stcvc	0, cr0, [r1], {1}
  60:	000d0c0e 	andeq	r0, sp, lr, lsl #24
  64:	00000014 	andeq	r0, r0, r4, lsl r0
  68:	00000054 	andeq	r0, r0, r4, asr r0
  6c:	30000350 	andcc	r0, r0, r0, asr r3
  70:	00000088 	andeq	r0, r0, r8, lsl #1
  74:	68040e44 	stmvsda	r4, {r2, r6, r9, sl, fp}
  78:	018e080e 	orreq	r0, lr, lr, lsl #16
  7c:	0000000c 	andeq	r0, r0, ip
  80:	00000054 	andeq	r0, r0, r4, asr r0
  84:	300003d8 	ldrccd	r0, [r0], -r8
  88:	00000020 	andeq	r0, r0, r0, lsr #32
  8c:	0000001c 	andeq	r0, r0, ip, lsl r0
  90:	00000054 	andeq	r0, r0, r4, asr r0
  94:	300003f8 	strccd	r0, [r0], -r8
  98:	00000084 	andeq	r0, r0, r4, lsl #1
  9c:	8e100e44 	cdphi	14, 1, cr0, cr0, cr4, {2}
  a0:	85028601 	strhi	r8, [r2, #-1537]
  a4:	50048403 	andpl	r8, r4, r3, lsl #8
  a8:	0000140e 	andeq	r1, r0, lr, lsl #8
  ac:	0000001c 	andeq	r0, r0, ip, lsl r0
  b0:	00000054 	andeq	r0, r0, r4, asr r0
  b4:	3000047c 	andcc	r0, r0, ip, ror r4
  b8:	000000f8 	streqd	r0, [r0], -r8
  bc:	8e140e44 	cdphi	14, 1, cr0, cr4, cr4, {2}
  c0:	86028701 	strhi	r8, [r2], -r1, lsl #14
  c4:	84048503 	strhi	r8, [r4], #-1283
  c8:	640e5005 	strvs	r5, [lr], #-5
  cc:	00000018 	andeq	r0, r0, r8, lsl r0
  d0:	00000054 	andeq	r0, r0, r4, asr r0
  d4:	30000574 	andcc	r0, r0, r4, ror r5
  d8:	00000074 	andeq	r0, r0, r4, ror r0
  dc:	8e0c0e44 	cdphi	14, 0, cr0, cr12, cr4, {2}
  e0:	84028501 	strhi	r8, [r2], #-1281
  e4:	00000003 	andeq	r0, r0, r3
  e8:	00000014 	andeq	r0, r0, r4, lsl r0
  ec:	00000054 	andeq	r0, r0, r4, asr r0
  f0:	300005e8 	andcc	r0, r0, r8, ror #11
  f4:	000000a0 	andeq	r0, r0, r0, lsr #1
  f8:	8e080e44 	cdphi	14, 0, cr0, cr8, cr4, {2}
  fc:	00028401 	andeq	r8, r2, r1, lsl #8
 100:	0000001c 	andeq	r0, r0, ip, lsl r0
 104:	00000054 	andeq	r0, r0, r4, asr r0
 108:	30000688 	andcc	r0, r0, r8, lsl #13
 10c:	00000070 	andeq	r0, r0, r0, ror r0
 110:	44100e44 	ldrmi	r0, [r0], #-3652
 114:	018e300e 	orreq	r3, lr, lr
 118:	03850286 	orreq	r0, r5, #1610612744	; 0x60000008
 11c:	00000484 	andeq	r0, r0, r4, lsl #9
 120:	00000018 	andeq	r0, r0, r8, lsl r0
 124:	00000054 	andeq	r0, r0, r4, asr r0
 128:	300006f8 	strccd	r0, [r0], -r8
 12c:	00000094 	muleq	r0, r4, r0
 130:	8e0c0e44 	cdphi	14, 0, cr0, cr12, cr4, {2}
 134:	84028501 	strhi	r8, [r2], #-1281
 138:	100e4c03 	andne	r4, lr, r3, lsl #24
 13c:	0000000c 	andeq	r0, r0, ip
 140:	ffffffff 	swinv	0x00ffffff
 144:	7c010001 	stcvc	0, cr0, [r1], {1}
 148:	000d0c0e 	andeq	r0, sp, lr, lsl #24
 14c:	0000000c 	andeq	r0, r0, ip
 150:	0000013c 	andeq	r0, r0, ip, lsr r1
 154:	3000078c 	andcc	r0, r0, ip, lsl #15
 158:	0000000c 	andeq	r0, r0, ip
 15c:	00000014 	andeq	r0, r0, r4, lsl r0
 160:	0000013c 	andeq	r0, r0, ip, lsr r1
 164:	30000798 	mulcc	r0, r8, r7
 168:	00000014 	andeq	r0, r0, r4, lsl r0
 16c:	8e040e44 	cdphi	14, 0, cr0, cr4, cr4, {2}
 170:	00000001 	andeq	r0, r0, r1
 174:	00000014 	andeq	r0, r0, r4, lsl r0
 178:	0000013c 	andeq	r0, r0, ip, lsr r1
 17c:	300007ac 	andcc	r0, r0, ip, lsr #15
 180:	00000018 	andeq	r0, r0, r8, lsl r0
 184:	84040e44 	strhi	r0, [r4], #-3652
 188:	00000001 	andeq	r0, r0, r1
 18c:	00000014 	andeq	r0, r0, r4, lsl r0
 190:	0000013c 	andeq	r0, r0, ip, lsr r1
 194:	300007c4 	andcc	r0, r0, r4, asr #15
 198:	00000018 	andeq	r0, r0, r8, lsl r0
 19c:	84040e44 	strhi	r0, [r4], #-3652
 1a0:	00000001 	andeq	r0, r0, r1
 1a4:	00000014 	andeq	r0, r0, r4, lsl r0
 1a8:	0000013c 	andeq	r0, r0, ip, lsr r1
 1ac:	300007dc 	ldrccd	r0, [r0], -ip
 1b0:	0000002c 	andeq	r0, r0, ip, lsr #32
 1b4:	8e040e44 	cdphi	14, 0, cr0, cr4, cr4, {2}
 1b8:	00000001 	andeq	r0, r0, r1
 1bc:	0000000c 	andeq	r0, r0, ip
 1c0:	0000013c 	andeq	r0, r0, ip, lsr r1
 1c4:	30000808 	andcc	r0, r0, r8, lsl #16
 1c8:	00000004 	andeq	r0, r0, r4
 1cc:	0000000c 	andeq	r0, r0, ip
 1d0:	0000013c 	andeq	r0, r0, ip, lsr r1
 1d4:	3000080c 	andcc	r0, r0, ip, lsl #16
 1d8:	00000004 	andeq	r0, r0, r4
 1dc:	00000018 	andeq	r0, r0, r8, lsl r0
 1e0:	0000013c 	andeq	r0, r0, ip, lsr r1
 1e4:	30000810 	andcc	r0, r0, r0, lsl r8
 1e8:	00000030 	andeq	r0, r0, r0, lsr r0
 1ec:	8e0c0e44 	cdphi	14, 0, cr0, cr12, cr4, {2}
 1f0:	84028501 	strhi	r8, [r2], #-1281
 1f4:	00000003 	andeq	r0, r0, r3
 1f8:	00000018 	andeq	r0, r0, r8, lsl r0
 1fc:	0000013c 	andeq	r0, r0, ip, lsr r1
 200:	30000840 	andcc	r0, r0, r0, asr #16
 204:	00000048 	andeq	r0, r0, r8, asr #32
 208:	8e0c0e44 	cdphi	14, 0, cr0, cr12, cr4, {2}
 20c:	84028501 	strhi	r8, [r2], #-1281
 210:	00000003 	andeq	r0, r0, r3
 214:	0000000c 	andeq	r0, r0, ip
 218:	ffffffff 	swinv	0x00ffffff
 21c:	7c010001 	stcvc	0, cr0, [r1], {1}
 220:	000d0c0e 	andeq	r0, sp, lr, lsl #24
 224:	0000000c 	andeq	r0, r0, ip
 228:	00000214 	andeq	r0, r0, r4, lsl r2
 22c:	30000888 	andcc	r0, r0, r8, lsl #17
 230:	00000018 	andeq	r0, r0, r8, lsl r0
 234:	0000000c 	andeq	r0, r0, ip
 238:	00000214 	andeq	r0, r0, r4, lsl r2
 23c:	300008a0 	andcc	r0, r0, r0, lsr #17
 240:	00000008 	andeq	r0, r0, r8
 244:	0000001c 	andeq	r0, r0, ip, lsl r0
 248:	00000214 	andeq	r0, r0, r4, lsl r2
 24c:	300008a8 	andcc	r0, r0, r8, lsr #17
 250:	0000009c 	muleq	r0, ip, r0
 254:	8e140e44 	cdphi	14, 1, cr0, cr4, cr4, {2}
 258:	86028701 	strhi	r8, [r2], -r1, lsl #14
 25c:	84048503 	strhi	r8, [r4], #-1283
 260:	00000005 	andeq	r0, r0, r5
 264:	00000018 	andeq	r0, r0, r8, lsl r0
 268:	00000214 	andeq	r0, r0, r4, lsl r2
 26c:	30000944 	andcc	r0, r0, r4, asr #18
 270:	00000028 	andeq	r0, r0, r8, lsr #32
 274:	8e0c0e44 	cdphi	14, 0, cr0, cr12, cr4, {2}
 278:	84028501 	strhi	r8, [r2], #-1281
 27c:	00000003 	andeq	r0, r0, r3
 280:	0000000c 	andeq	r0, r0, ip
 284:	ffffffff 	swinv	0x00ffffff
 288:	7c010001 	stcvc	0, cr0, [r1], {1}
 28c:	000d0c0e 	andeq	r0, sp, lr, lsl #24
 290:	0000000c 	andeq	r0, r0, ip
 294:	00000280 	andeq	r0, r0, r0, lsl #5
 298:	3000096c 	andcc	r0, r0, ip, ror #18
 29c:	0000004c 	andeq	r0, r0, ip, asr #32
 2a0:	0000000c 	andeq	r0, r0, ip
 2a4:	00000280 	andeq	r0, r0, r0, lsl #5
 2a8:	300009b8 	strcch	r0, [r0], -r8
 2ac:	0000002c 	andeq	r0, r0, ip, lsr #32
 2b0:	0000000c 	andeq	r0, r0, ip
 2b4:	ffffffff 	swinv	0x00ffffff
 2b8:	7c010001 	stcvc	0, cr0, [r1], {1}
 2bc:	000d0c0e 	andeq	r0, sp, lr, lsl #24
 2c0:	0000000c 	andeq	r0, r0, ip
 2c4:	000002b0 	streqh	r0, [r0], -r0
 2c8:	300009e4 	andcc	r0, r0, r4, ror #19
 2cc:	0000002c 	andeq	r0, r0, ip, lsr #32
 2d0:	0000000c 	andeq	r0, r0, ip
 2d4:	000002b0 	streqh	r0, [r0], -r0
 2d8:	30000a10 	andcc	r0, r0, r0, lsl sl
 2dc:	0000002c 	andeq	r0, r0, ip, lsr #32
 2e0:	0000000c 	andeq	r0, r0, ip
 2e4:	000002b0 	streqh	r0, [r0], -r0
 2e8:	30000a3c 	andcc	r0, r0, ip, lsr sl
 2ec:	00000018 	andeq	r0, r0, r8, lsl r0
 2f0:	0000000c 	andeq	r0, r0, ip
 2f4:	000002b0 	streqh	r0, [r0], -r0
 2f8:	30000a54 	andcc	r0, r0, r4, asr sl
 2fc:	00000014 	andeq	r0, r0, r4, lsl r0
 300:	0000000c 	andeq	r0, r0, ip
 304:	000002b0 	streqh	r0, [r0], -r0
 308:	30000a68 	andcc	r0, r0, r8, ror #20
 30c:	00000014 	andeq	r0, r0, r4, lsl r0
 310:	00000010 	andeq	r0, r0, r0, lsl r0
 314:	000002b0 	streqh	r0, [r0], -r0
 318:	30000a7c 	andcc	r0, r0, ip, ror sl
 31c:	00000044 	andeq	r0, r0, r4, asr #32
 320:	00040e44 	andeq	r0, r4, r4, asr #28
 324:	00000010 	andeq	r0, r0, r0, lsl r0
 328:	000002b0 	streqh	r0, [r0], -r0
 32c:	30000ac0 	andcc	r0, r0, r0, asr #21
 330:	0000011c 	andeq	r0, r0, ip, lsl r1
 334:	00040e54 	andeq	r0, r4, r4, asr lr
 338:	0000000c 	andeq	r0, r0, ip
 33c:	000002b0 	streqh	r0, [r0], -r0
 340:	30000bdc 	ldrccd	r0, [r0], -ip
 344:	00000014 	andeq	r0, r0, r4, lsl r0
 348:	0000000c 	andeq	r0, r0, ip
 34c:	000002b0 	streqh	r0, [r0], -r0
 350:	30000bf0 	strccd	r0, [r0], -r0
 354:	0000000c 	andeq	r0, r0, ip
 358:	00000020 	andeq	r0, r0, r0, lsr #32
 35c:	000002b0 	streqh	r0, [r0], -r0
 360:	30000bfc 	strccd	r0, [r0], -ip
 364:	000000b0 	streqh	r0, [r0], -r0
 368:	8e1c0e44 	cdphi	14, 1, cr0, cr12, cr4, {2}
 36c:	88028a01 	stmhida	r2, {r0, r9, fp, pc}
 370:	86048703 	strhi	r8, [r4], -r3, lsl #14
 374:	84068505 	strhi	r8, [r6], #-1285
 378:	00000007 	andeq	r0, r0, r7
 37c:	00000018 	andeq	r0, r0, r8, lsl r0
 380:	000002b0 	streqh	r0, [r0], -r0
 384:	30000cac 	andcc	r0, r0, ip, lsr #25
 388:	00000054 	andeq	r0, r0, r4, asr r0
 38c:	8e100e44 	cdphi	14, 1, cr0, cr0, cr4, {2}
 390:	85028601 	strhi	r8, [r2, #-1537]
 394:	00048403 	andeq	r8, r4, r3, lsl #8
 398:	0000000c 	andeq	r0, r0, ip
 39c:	ffffffff 	swinv	0x00ffffff
 3a0:	7c010001 	stcvc	0, cr0, [r1], {1}
 3a4:	000d0c0e 	andeq	r0, sp, lr, lsl #24
 3a8:	0000000c 	andeq	r0, r0, ip
 3ac:	00000398 	muleq	r0, r8, r3
 3b0:	30000d00 	andcc	r0, r0, r0, lsl #26
 3b4:	0000004c 	andeq	r0, r0, ip, asr #32
 3b8:	00000014 	andeq	r0, r0, r4, lsl r0
 3bc:	00000398 	muleq	r0, r8, r3
 3c0:	30000d4c 	andcc	r0, r0, ip, asr #26
 3c4:	00000074 	andeq	r0, r0, r4, ror r0
 3c8:	8e080e44 	cdphi	14, 0, cr0, cr8, cr4, {2}
 3cc:	00028401 	andeq	r8, r2, r1, lsl #8
 3d0:	0000000c 	andeq	r0, r0, ip
 3d4:	00000398 	muleq	r0, r8, r3
 3d8:	30000dc0 	andcc	r0, r0, r0, asr #27
 3dc:	0000003c 	andeq	r0, r0, ip, lsr r0
 3e0:	0000000c 	andeq	r0, r0, ip
 3e4:	00000398 	muleq	r0, r8, r3
 3e8:	30000dfc 	strccd	r0, [r0], -ip
 3ec:	00000024 	andeq	r0, r0, r4, lsr #32
 3f0:	0000000c 	andeq	r0, r0, ip
 3f4:	00000398 	muleq	r0, r8, r3
 3f8:	30000e20 	andcc	r0, r0, r0, lsr #28
 3fc:	00000028 	andeq	r0, r0, r8, lsr #32
 400:	00000014 	andeq	r0, r0, r4, lsl r0
 404:	00000398 	muleq	r0, r8, r3
 408:	30000e48 	andcc	r0, r0, r8, asr #28
 40c:	00000058 	andeq	r0, r0, r8, asr r0
 410:	8e040e44 	cdphi	14, 0, cr0, cr4, cr4, {2}
 414:	00000001 	andeq	r0, r0, r1
 418:	0000001c 	andeq	r0, r0, ip, lsl r0
 41c:	00000398 	muleq	r0, r8, r3
 420:	30000ea0 	andcc	r0, r0, r0, lsr #29
 424:	0000006c 	andeq	r0, r0, ip, rrx
 428:	8e180e44 	cdphi	14, 1, cr0, cr8, cr4, {2}
 42c:	87028801 	strhi	r8, [r2, -r1, lsl #16]
 430:	85048603 	strhi	r8, [r4, #-1539]
 434:	00068405 	andeq	r8, r6, r5, lsl #8
 438:	00000020 	andeq	r0, r0, r0, lsr #32
 43c:	00000398 	muleq	r0, r8, r3
 440:	30000f0c 	andcc	r0, r0, ip, lsl #30
 444:	00000058 	andeq	r0, r0, r8, asr r0
 448:	8e1c0e44 	cdphi	14, 1, cr0, cr12, cr4, {2}
 44c:	88028a01 	stmhida	r2, {r0, r9, fp, pc}
 450:	86048703 	strhi	r8, [r4], -r3, lsl #14
 454:	84068505 	strhi	r8, [r6], #-1285
 458:	00000007 	andeq	r0, r0, r7
 45c:	00000014 	andeq	r0, r0, r4, lsl r0
 460:	00000398 	muleq	r0, r8, r3
 464:	30000f64 	andcc	r0, r0, r4, ror #30
 468:	00000020 	andeq	r0, r0, r0, lsr #32
 46c:	8e040e44 	cdphi	14, 0, cr0, cr4, cr4, {2}
 470:	00000001 	andeq	r0, r0, r1
 474:	0000000c 	andeq	r0, r0, ip
 478:	ffffffff 	swinv	0x00ffffff
 47c:	7c010001 	stcvc	0, cr0, [r1], {1}
 480:	000d0c0e 	andeq	r0, sp, lr, lsl #24
 484:	0000000c 	andeq	r0, r0, ip
 488:	00000474 	andeq	r0, r0, r4, ror r4
 48c:	30000f84 	andcc	r0, r0, r4, lsl #31
 490:	0000000c 	andeq	r0, r0, ip
 494:	0000000c 	andeq	r0, r0, ip
 498:	00000474 	andeq	r0, r0, r4, ror r4
 49c:	30000f90 	mulcc	r0, r0, pc
 4a0:	0000000c 	andeq	r0, r0, ip
 4a4:	0000000c 	andeq	r0, r0, ip
 4a8:	00000474 	andeq	r0, r0, r4, ror r4
 4ac:	30000f9c 	mulcc	r0, ip, pc
 4b0:	00000008 	andeq	r0, r0, r8
 4b4:	0000000c 	andeq	r0, r0, ip
 4b8:	00000474 	andeq	r0, r0, r4, ror r4
 4bc:	30000fa4 	andcc	r0, r0, r4, lsr #31
 4c0:	00000014 	andeq	r0, r0, r4, lsl r0
 4c4:	0000000c 	andeq	r0, r0, ip
 4c8:	00000474 	andeq	r0, r0, r4, ror r4
 4cc:	30000fb8 	strcch	r0, [r0], -r8
 4d0:	00000014 	andeq	r0, r0, r4, lsl r0
 4d4:	0000000c 	andeq	r0, r0, ip
 4d8:	00000474 	andeq	r0, r0, r4, ror r4
 4dc:	30000fcc 	andcc	r0, r0, ip, asr #31
 4e0:	00000008 	andeq	r0, r0, r8
 4e4:	0000000c 	andeq	r0, r0, ip
 4e8:	00000474 	andeq	r0, r0, r4, ror r4
 4ec:	30000fd4 	ldrccd	r0, [r0], -r4
 4f0:	0000000c 	andeq	r0, r0, ip
 4f4:	0000000c 	andeq	r0, r0, ip
 4f8:	ffffffff 	swinv	0x00ffffff
 4fc:	7c010001 	stcvc	0, cr0, [r1], {1}
 500:	000d0c0e 	andeq	r0, sp, lr, lsl #24
 504:	0000000c 	andeq	r0, r0, ip
 508:	000004f4 	streqd	r0, [r0], -r4
 50c:	30000fe0 	andcc	r0, r0, r0, ror #31
 510:	0000004c 	andeq	r0, r0, ip, asr #32
 514:	0000000c 	andeq	r0, r0, ip
 518:	000004f4 	streqd	r0, [r0], -r4
 51c:	3000102c 	andcc	r1, r0, ip, lsr #32
 520:	0000001c 	andeq	r0, r0, ip, lsl r0
 524:	0000000c 	andeq	r0, r0, ip
 528:	000004f4 	streqd	r0, [r0], -r4
 52c:	30001048 	andcc	r1, r0, r8, asr #32
 530:	00000018 	andeq	r0, r0, r8, lsl r0
 534:	00000014 	andeq	r0, r0, r4, lsl r0
 538:	000004f4 	streqd	r0, [r0], -r4
 53c:	30001060 	andcc	r1, r0, r0, rrx
 540:	00000028 	andeq	r0, r0, r8, lsr #32
 544:	8e080e44 	cdphi	14, 0, cr0, cr8, cr4, {2}
 548:	00028401 	andeq	r8, r2, r1, lsl #8
 54c:	00000014 	andeq	r0, r0, r4, lsl r0
 550:	000004f4 	streqd	r0, [r0], -r4
 554:	30001088 	andcc	r1, r0, r8, lsl #1
 558:	0000002c 	andeq	r0, r0, ip, lsr #32
 55c:	8e080e44 	cdphi	14, 0, cr0, cr8, cr4, {2}
 560:	00028401 	andeq	r8, r2, r1, lsl #8
 564:	0000000c 	andeq	r0, r0, ip
 568:	ffffffff 	swinv	0x00ffffff
 56c:	7c010001 	stcvc	0, cr0, [r1], {1}
 570:	000d0c0e 	andeq	r0, sp, lr, lsl #24
 574:	00000018 	andeq	r0, r0, r8, lsl r0
 578:	00000564 	andeq	r0, r0, r4, ror #10
 57c:	300010b4 	strcch	r1, [r0], -r4
 580:	00000054 	andeq	r0, r0, r4, asr r0
 584:	8e100e44 	cdphi	14, 1, cr0, cr0, cr4, {2}
 588:	85028601 	strhi	r8, [r2, #-1537]
 58c:	00048403 	andeq	r8, r4, r3, lsl #8
 590:	00000018 	andeq	r0, r0, r8, lsl r0
 594:	00000564 	andeq	r0, r0, r4, ror #10
 598:	30001108 	andcc	r1, r0, r8, lsl #2
 59c:	00000044 	andeq	r0, r0, r4, asr #32
 5a0:	8e0c0e44 	cdphi	14, 0, cr0, cr12, cr4, {2}
 5a4:	84028501 	strhi	r8, [r2], #-1281
 5a8:	00000003 	andeq	r0, r0, r3
 5ac:	00000028 	andeq	r0, r0, r8, lsr #32
 5b0:	00000564 	andeq	r0, r0, r4, ror #10
 5b4:	3000114c 	andcc	r1, r0, ip, asr #2
 5b8:	000002a8 	andeq	r0, r0, r8, lsr #5
 5bc:	8e240e44 	cdphi	14, 2, cr0, cr4, cr4, {2}
 5c0:	8a028b01 	bhi	a31cc <DISABLE_IRQ+0xa314c>
 5c4:	88048903 	stmhida	r4, {r0, r1, r8, fp, pc}
 5c8:	86068705 	strhi	r8, [r6], -r5, lsl #14
 5cc:	84088507 	strhi	r8, [r8], #-1287
 5d0:	a80e5409 	stmgeda	lr, {r0, r3, sl, ip, lr}
 5d4:	00000002 	andeq	r0, r0, r2
 5d8:	0000001c 	andeq	r0, r0, ip, lsl r0
 5dc:	00000564 	andeq	r0, r0, r4, ror #10
 5e0:	300013f4 	strccd	r1, [r0], -r4
 5e4:	00000080 	andeq	r0, r0, r0, lsl #1
 5e8:	8e140e44 	cdphi	14, 1, cr0, cr4, cr4, {2}
 5ec:	86028701 	strhi	r8, [r2], -r1, lsl #14
 5f0:	84048503 	strhi	r8, [r4], #-1283
 5f4:	00000005 	andeq	r0, r0, r5
 5f8:	0000001c 	andeq	r0, r0, ip, lsl r0
 5fc:	00000564 	andeq	r0, r0, r4, ror #10
 600:	30001474 	andcc	r1, r0, r4, ror r4
 604:	00000094 	muleq	r0, r4, r0
 608:	8e180e44 	cdphi	14, 1, cr0, cr8, cr4, {2}
 60c:	87028801 	strhi	r8, [r2, -r1, lsl #16]
 610:	85048603 	strhi	r8, [r4, #-1539]
 614:	00068405 	andeq	r8, r6, r5, lsl #8
 618:	00000018 	andeq	r0, r0, r8, lsl r0
 61c:	00000564 	andeq	r0, r0, r4, ror #10
 620:	30001508 	andcc	r1, r0, r8, lsl #10
 624:	00000034 	andeq	r0, r0, r4, lsr r0
 628:	8e0c0e44 	cdphi	14, 0, cr0, cr12, cr4, {2}
 62c:	84028501 	strhi	r8, [r2], #-1281
 630:	00000003 	andeq	r0, r0, r3
 634:	0000001c 	andeq	r0, r0, ip, lsl r0
 638:	00000564 	andeq	r0, r0, r4, ror #10
 63c:	3000153c 	andcc	r1, r0, ip, lsr r5
 640:	000000b0 	streqh	r0, [r0], -r0
 644:	8e100e44 	cdphi	14, 1, cr0, cr0, cr4, {2}
 648:	85028601 	strhi	r8, [r2, #-1537]
 64c:	4c048403 	cfstrsmi	mvf8, [r4], {3}
 650:	0002900e 	andeq	r9, r2, lr
 654:	0000000c 	andeq	r0, r0, ip
 658:	ffffffff 	swinv	0x00ffffff
 65c:	7c010001 	stcvc	0, cr0, [r1], {1}
 660:	000d0c0e 	andeq	r0, sp, lr, lsl #24
 664:	00000014 	andeq	r0, r0, r4, lsl r0
 668:	00000654 	andeq	r0, r0, r4, asr r6
 66c:	300015ec 	andcc	r1, r0, ip, ror #11
 670:	00000104 	andeq	r0, r0, r4, lsl #2
 674:	8e080e48 	cdphi	14, 0, cr0, cr8, cr8, {2}
 678:	00028401 	andeq	r8, r2, r1, lsl #8
 67c:	00000014 	andeq	r0, r0, r4, lsl r0
 680:	00000654 	andeq	r0, r0, r4, asr r6
 684:	300016f0 	strccd	r1, [r0], -r0
 688:	00000048 	andeq	r0, r0, r8, asr #32
 68c:	8e080e48 	cdphi	14, 0, cr0, cr8, cr8, {2}
 690:	00028401 	andeq	r8, r2, r1, lsl #8
 694:	00000018 	andeq	r0, r0, r8, lsl r0
 698:	00000654 	andeq	r0, r0, r4, asr r6
 69c:	30001738 	andcc	r1, r0, r8, lsr r7
 6a0:	0000005c 	andeq	r0, r0, ip, asr r0
 6a4:	8e0c0e48 	cdphi	14, 0, cr0, cr12, cr8, {2}
 6a8:	84028501 	strhi	r8, [r2], #-1281
 6ac:	00000003 	andeq	r0, r0, r3
 6b0:	00000018 	andeq	r0, r0, r8, lsl r0
 6b4:	00000654 	andeq	r0, r0, r4, asr r6
 6b8:	30001794 	mulcc	r0, r4, r7
 6bc:	00000084 	andeq	r0, r0, r4, lsl #1
 6c0:	8e100e48 	cdphi	14, 1, cr0, cr0, cr8, {2}
 6c4:	85028601 	strhi	r8, [r2, #-1537]
 6c8:	00048403 	andeq	r8, r4, r3, lsl #8
 6cc:	00000018 	andeq	r0, r0, r8, lsl r0
 6d0:	00000654 	andeq	r0, r0, r4, asr r6
 6d4:	30001818 	andcc	r1, r0, r8, lsl r8
 6d8:	000000f4 	streqd	r0, [r0], -r4
 6dc:	8e0c0e48 	cdphi	14, 0, cr0, cr12, cr8, {2}
 6e0:	84028501 	strhi	r8, [r2], #-1281
 6e4:	00000003 	andeq	r0, r0, r3
 6e8:	00000014 	andeq	r0, r0, r4, lsl r0
 6ec:	00000654 	andeq	r0, r0, r4, asr r6
 6f0:	3000190c 	andcc	r1, r0, ip, lsl #18
 6f4:	00000030 	andeq	r0, r0, r0, lsr r0
 6f8:	8e080e44 	cdphi	14, 0, cr0, cr8, cr4, {2}
 6fc:	00028401 	andeq	r8, r2, r1, lsl #8
 700:	00000014 	andeq	r0, r0, r4, lsl r0
 704:	00000654 	andeq	r0, r0, r4, asr r6
 708:	3000193c 	andcc	r1, r0, ip, lsr r9
 70c:	00000058 	andeq	r0, r0, r8, asr r0
 710:	8e080e50 	mcrhi	14, 0, r0, cr8, cr0, {2}
 714:	00028401 	andeq	r8, r2, r1, lsl #8
 718:	00000014 	andeq	r0, r0, r4, lsl r0
 71c:	00000654 	andeq	r0, r0, r4, asr r6
 720:	30001994 	mulcc	r0, r4, r9
 724:	0000002c 	andeq	r0, r0, ip, lsr #32
 728:	8e080e44 	cdphi	14, 0, cr0, cr8, cr4, {2}
 72c:	00028401 	andeq	r8, r2, r1, lsl #8
 730:	00000018 	andeq	r0, r0, r8, lsl r0
 734:	00000654 	andeq	r0, r0, r4, asr r6
 738:	300019c0 	andcc	r1, r0, r0, asr #19
 73c:	00000094 	muleq	r0, r4, r0
 740:	8e0c0e4c 	cdphi	14, 0, cr0, cr12, cr12, {2}
 744:	84028501 	strhi	r8, [r2], #-1281
 748:	00000003 	andeq	r0, r0, r3
 74c:	00000014 	andeq	r0, r0, r4, lsl r0
 750:	00000654 	andeq	r0, r0, r4, asr r6
 754:	30001a54 	andcc	r1, r0, r4, asr sl
 758:	00000020 	andeq	r0, r0, r0, lsr #32
 75c:	8e040e48 	cdphi	14, 0, cr0, cr4, cr8, {2}
 760:	00000001 	andeq	r0, r0, r1
 764:	00000014 	andeq	r0, r0, r4, lsl r0
 768:	00000654 	andeq	r0, r0, r4, asr r6
 76c:	30001a74 	andcc	r1, r0, r4, ror sl
 770:	00000038 	andeq	r0, r0, r8, lsr r0
 774:	8e080e44 	cdphi	14, 0, cr0, cr8, cr4, {2}
 778:	00028401 	andeq	r8, r2, r1, lsl #8
 77c:	00000014 	andeq	r0, r0, r4, lsl r0
 780:	00000654 	andeq	r0, r0, r4, asr r6
 784:	30001aac 	andcc	r1, r0, ip, lsr #21
 788:	00000034 	andeq	r0, r0, r4, lsr r0
 78c:	8e040e54 	mcrhi	14, 0, r0, cr4, cr4, {2}
 790:	00000001 	andeq	r0, r0, r1
 794:	00000014 	andeq	r0, r0, r4, lsl r0
 798:	00000654 	andeq	r0, r0, r4, asr r6
 79c:	30001ae0 	andcc	r1, r0, r0, ror #21
 7a0:	00000034 	andeq	r0, r0, r4, lsr r0
 7a4:	8e040e54 	mcrhi	14, 0, r0, cr4, cr4, {2}
 7a8:	00000001 	andeq	r0, r0, r1
 7ac:	00000020 	andeq	r0, r0, r0, lsr #32
 7b0:	00000654 	andeq	r0, r0, r4, asr r6
 7b4:	30001b14 	andcc	r1, r0, r4, lsl fp
 7b8:	00000128 	andeq	r0, r0, r8, lsr #2
 7bc:	8e1c0e44 	cdphi	14, 1, cr0, cr12, cr4, {2}
 7c0:	88028a01 	stmhida	r2, {r0, r9, fp, pc}
 7c4:	86048703 	strhi	r8, [r4], -r3, lsl #14
 7c8:	84068505 	strhi	r8, [r6], #-1285
 7cc:	00000007 	andeq	r0, r0, r7
 7d0:	00000014 	andeq	r0, r0, r4, lsl r0
 7d4:	00000654 	andeq	r0, r0, r4, asr r6
 7d8:	30001c3c 	andcc	r1, r0, ip, lsr ip
 7dc:	00000030 	andeq	r0, r0, r0, lsr r0
 7e0:	8e040e50 	mcrhi	14, 0, r0, cr4, cr0, {2}
 7e4:	00000001 	andeq	r0, r0, r1
 7e8:	00000014 	andeq	r0, r0, r4, lsl r0
 7ec:	00000654 	andeq	r0, r0, r4, asr r6
 7f0:	30001c6c 	andcc	r1, r0, ip, ror #24
 7f4:	00000034 	andeq	r0, r0, r4, lsr r0
 7f8:	8e040e54 	mcrhi	14, 0, r0, cr4, cr4, {2}
 7fc:	00000001 	andeq	r0, r0, r1
 800:	00000020 	andeq	r0, r0, r0, lsr #32
 804:	00000654 	andeq	r0, r0, r4, asr r6
 808:	30001ca0 	andcc	r1, r0, r0, lsr #25
 80c:	000000ec 	andeq	r0, r0, ip, ror #1
 810:	8e1c0e44 	cdphi	14, 1, cr0, cr12, cr4, {2}
 814:	88028a01 	stmhida	r2, {r0, r9, fp, pc}
 818:	86048703 	strhi	r8, [r4], -r3, lsl #14
 81c:	84068505 	strhi	r8, [r6], #-1285
 820:	00000007 	andeq	r0, r0, r7
 824:	00000014 	andeq	r0, r0, r4, lsl r0
 828:	00000654 	andeq	r0, r0, r4, asr r6
 82c:	30001d8c 	andcc	r1, r0, ip, lsl #27
 830:	0000003c 	andeq	r0, r0, ip, lsr r0
 834:	8e080e48 	cdphi	14, 0, cr0, cr8, cr8, {2}
 838:	00028401 	andeq	r8, r2, r1, lsl #8
 83c:	00000018 	andeq	r0, r0, r8, lsl r0
 840:	00000654 	andeq	r0, r0, r4, asr r6
 844:	30001dc8 	andcc	r1, r0, r8, asr #27
 848:	0000006c 	andeq	r0, r0, ip, rrx
 84c:	8e0c0e48 	cdphi	14, 0, cr0, cr12, cr8, {2}
 850:	84028501 	strhi	r8, [r2], #-1281
 854:	00000003 	andeq	r0, r0, r3
 858:	00000014 	andeq	r0, r0, r4, lsl r0
 85c:	00000654 	andeq	r0, r0, r4, asr r6
 860:	30001e34 	andcc	r1, r0, r4, lsr lr
 864:	00000038 	andeq	r0, r0, r8, lsr r0
 868:	8e040e5c 	mcrhi	14, 0, r0, cr4, cr12, {2}
 86c:	00000001 	andeq	r0, r0, r1
 870:	00000014 	andeq	r0, r0, r4, lsl r0
 874:	00000654 	andeq	r0, r0, r4, asr r6
 878:	30001e6c 	andcc	r1, r0, ip, ror #28
 87c:	000000b8 	streqh	r0, [r0], -r8
 880:	8e080e48 	cdphi	14, 0, cr0, cr8, cr8, {2}
 884:	00028401 	andeq	r8, r2, r1, lsl #8
 888:	0000000c 	andeq	r0, r0, ip
 88c:	00000654 	andeq	r0, r0, r4, asr r6
 890:	30001f24 	andcc	r1, r0, r4, lsr #30
 894:	0000000c 	andeq	r0, r0, ip
 898:	0000001c 	andeq	r0, r0, ip, lsl r0
 89c:	00000654 	andeq	r0, r0, r4, asr r6
 8a0:	30001f30 	andcc	r1, r0, r0, lsr pc
 8a4:	00000064 	andeq	r0, r0, r4, rrx
 8a8:	8e140e44 	cdphi	14, 1, cr0, cr4, cr4, {2}
 8ac:	86028701 	strhi	r8, [r2], -r1, lsl #14
 8b0:	84048503 	strhi	r8, [r4], #-1283
 8b4:	00000005 	andeq	r0, r0, r5
 8b8:	0000001c 	andeq	r0, r0, ip, lsl r0
 8bc:	00000654 	andeq	r0, r0, r4, asr r6
 8c0:	30001f94 	mulcc	r0, r4, pc
 8c4:	000003a4 	andeq	r0, r0, r4, lsr #7
 8c8:	8e180e44 	cdphi	14, 1, cr0, cr8, cr4, {2}
 8cc:	87028801 	strhi	r8, [r2, -r1, lsl #16]
 8d0:	85048603 	strhi	r8, [r4, #-1539]
 8d4:	00068405 	andeq	r8, r6, r5, lsl #8
 8d8:	00000018 	andeq	r0, r0, r8, lsl r0
 8dc:	00000654 	andeq	r0, r0, r4, asr r6
 8e0:	30002338 	andcc	r2, r0, r8, lsr r3
 8e4:	00000140 	andeq	r0, r0, r0, asr #2
 8e8:	8e100e44 	cdphi	14, 1, cr0, cr0, cr4, {2}
 8ec:	85028601 	strhi	r8, [r2, #-1537]
 8f0:	00048403 	andeq	r8, r4, r3, lsl #8
 8f4:	0000000c 	andeq	r0, r0, ip
 8f8:	ffffffff 	swinv	0x00ffffff
 8fc:	7c010001 	stcvc	0, cr0, [r1], {1}
 900:	000d0c0e 	andeq	r0, sp, lr, lsl #24
 904:	0000001c 	andeq	r0, r0, ip, lsl r0
 908:	000008f4 	streqd	r0, [r0], -r4
 90c:	30002960 	andcc	r2, r0, r0, ror #18
 910:	00000050 	andeq	r0, r0, r0, asr r0
 914:	8e180e48 	cdphi	14, 1, cr0, cr8, cr8, {2}
 918:	87028801 	strhi	r8, [r2, -r1, lsl #16]
 91c:	85048603 	strhi	r8, [r4, #-1539]
 920:	00068405 	andeq	r8, r6, r5, lsl #8
 924:	0000000c 	andeq	r0, r0, ip
 928:	ffffffff 	swinv	0x00ffffff
 92c:	7c010001 	stcvc	0, cr0, [r1], {1}
 930:	000d0c0e 	andeq	r0, sp, lr, lsl #24
 934:	00000024 	andeq	r0, r0, r4, lsr #32
 938:	00000924 	andeq	r0, r0, r4, lsr #18
 93c:	300029b0 	strcch	r2, [r0], -r0
 940:	00000058 	andeq	r0, r0, r8, asr r0
 944:	83100e44 	tsthi	r0, #1088	; 0x440
 948:	81028201 	tsthi	r2, r1, lsl #4
 94c:	48048003 	stmmida	r4, {r0, r1, pc}
 950:	058e200e 	streq	r2, [lr, #14]
 954:	07850686 	streq	r0, [r5, r6, lsl #13]
 958:	00000884 	andeq	r0, r0, r4, lsl #17
 95c:	00000020 	andeq	r0, r0, r0, lsr #32
 960:	00000924 	andeq	r0, r0, r4, lsr #18
 964:	30002a08 	andcc	r2, r0, r8, lsl #20
 968:	00000058 	andeq	r0, r0, r8, asr r0
 96c:	44100e44 	ldrmi	r0, [r0], #-3652
 970:	058e1c0e 	streq	r1, [lr, #3086]
 974:	07840685 	streq	r0, [r4, r5, lsl #13]
 978:	02820183 	addeq	r0, r2, #-1073741792	; 0xc0000020
 97c:	04800381 	streq	r0, [r0], #897
 980:	0000000c 	andeq	r0, r0, ip
 984:	ffffffff 	swinv	0x00ffffff
 988:	7c010001 	stcvc	0, cr0, [r1], {1}
 98c:	000d0c0e 	andeq	r0, sp, lr, lsl #24
 990:	0000001c 	andeq	r0, r0, ip, lsl r0
 994:	00000980 	andeq	r0, r0, r0, lsl #19
 998:	30002a60 	andcc	r2, r0, r0, ror #20
 99c:	0000008c 	andeq	r0, r0, ip, lsl #1
 9a0:	8e180e44 	cdphi	14, 1, cr0, cr8, cr4, {2}
 9a4:	87028801 	strhi	r8, [r2, -r1, lsl #16]
 9a8:	85048603 	strhi	r8, [r4, #-1539]
 9ac:	00068405 	andeq	r8, r6, r5, lsl #8
 9b0:	0000000c 	andeq	r0, r0, ip
 9b4:	00000980 	andeq	r0, r0, r0, lsl #19
 9b8:	30002aec 	andcc	r2, r0, ip, ror #21
 9bc:	0000001c 	andeq	r0, r0, ip, lsl r0
 9c0:	0000000c 	andeq	r0, r0, ip
 9c4:	00000980 	andeq	r0, r0, r0, lsl #19
 9c8:	30002b08 	andcc	r2, r0, r8, lsl #22
 9cc:	00000024 	andeq	r0, r0, r4, lsr #32
 9d0:	0000000c 	andeq	r0, r0, ip
 9d4:	00000980 	andeq	r0, r0, r0, lsl #19
 9d8:	30002b2c 	andcc	r2, r0, ip, lsr #22
 9dc:	00000030 	andeq	r0, r0, r0, lsr r0
 9e0:	0000000c 	andeq	r0, r0, ip
 9e4:	00000980 	andeq	r0, r0, r0, lsl #19
 9e8:	30002b5c 	andcc	r2, r0, ip, asr fp
 9ec:	00000044 	andeq	r0, r0, r4, asr #32
 9f0:	0000000c 	andeq	r0, r0, ip
 9f4:	00000980 	andeq	r0, r0, r0, lsl #19
 9f8:	30002ba0 	andcc	r2, r0, r0, lsr #23
 9fc:	00000030 	andeq	r0, r0, r0, lsr r0
 a00:	00000014 	andeq	r0, r0, r4, lsl r0
 a04:	00000980 	andeq	r0, r0, r0, lsl #19
 a08:	30002bd0 	ldrccd	r2, [r0], -r0
 a0c:	00000048 	andeq	r0, r0, r8, asr #32
 a10:	8e040e48 	cdphi	14, 0, cr0, cr4, cr8, {2}
 a14:	00000001 	andeq	r0, r0, r1
 a18:	0000000c 	andeq	r0, r0, ip
 a1c:	00000980 	andeq	r0, r0, r0, lsl #19
 a20:	30002c18 	andcc	r2, r0, r8, lsl ip
 a24:	00000034 	andeq	r0, r0, r4, lsr r0
 a28:	0000000c 	andeq	r0, r0, ip
 a2c:	00000980 	andeq	r0, r0, r0, lsl #19
 a30:	30002c4c 	andcc	r2, r0, ip, asr #24
 a34:	00000024 	andeq	r0, r0, r4, lsr #32
 a38:	00000018 	andeq	r0, r0, r8, lsl r0
 a3c:	00000980 	andeq	r0, r0, r0, lsl #19
 a40:	30002c70 	andcc	r2, r0, r0, ror ip
 a44:	00000038 	andeq	r0, r0, r8, lsr r0
 a48:	8e0c0e44 	cdphi	14, 0, cr0, cr12, cr4, {2}
 a4c:	84028501 	strhi	r8, [r2], #-1281
 a50:	00000003 	andeq	r0, r0, r3
 a54:	0000000c 	andeq	r0, r0, ip
 a58:	00000980 	andeq	r0, r0, r0, lsl #19
 a5c:	30002ca8 	andcc	r2, r0, r8, lsr #25
 a60:	00000040 	andeq	r0, r0, r0, asr #32
 a64:	00000014 	andeq	r0, r0, r4, lsl r0
 a68:	00000980 	andeq	r0, r0, r0, lsl #19
 a6c:	30002ce8 	andcc	r2, r0, r8, ror #25
 a70:	00000074 	andeq	r0, r0, r4, ror r0
 a74:	8e080e44 	cdphi	14, 0, cr0, cr8, cr4, {2}
 a78:	00028401 	andeq	r8, r2, r1, lsl #8
 a7c:	00000014 	andeq	r0, r0, r4, lsl r0
 a80:	00000980 	andeq	r0, r0, r0, lsl #19
 a84:	30002d5c 	andcc	r2, r0, ip, asr sp
 a88:	0000004c 	andeq	r0, r0, ip, asr #32
 a8c:	8e040e44 	cdphi	14, 0, cr0, cr4, cr4, {2}
 a90:	00000001 	andeq	r0, r0, r1
 a94:	00000018 	andeq	r0, r0, r8, lsl r0
 a98:	00000980 	andeq	r0, r0, r0, lsl #19
 a9c:	30002da8 	andcc	r2, r0, r8, lsr #27
 aa0:	00000084 	andeq	r0, r0, r4, lsl #1
 aa4:	8e100e44 	cdphi	14, 1, cr0, cr0, cr4, {2}
 aa8:	85028601 	strhi	r8, [r2, #-1537]
 aac:	00048403 	andeq	r8, r4, r3, lsl #8
 ab0:	00000018 	andeq	r0, r0, r8, lsl r0
 ab4:	00000980 	andeq	r0, r0, r0, lsl #19
 ab8:	30002e2c 	andcc	r2, r0, ip, lsr #28
 abc:	00000038 	andeq	r0, r0, r8, lsr r0
 ac0:	8e0c0e44 	cdphi	14, 0, cr0, cr12, cr4, {2}
 ac4:	84028501 	strhi	r8, [r2], #-1281
 ac8:	00000003 	andeq	r0, r0, r3
 acc:	0000000c 	andeq	r0, r0, ip
 ad0:	00000980 	andeq	r0, r0, r0, lsl #19
 ad4:	30002e64 	andcc	r2, r0, r4, ror #28
 ad8:	00000024 	andeq	r0, r0, r4, lsr #32
 adc:	0000000c 	andeq	r0, r0, ip
 ae0:	00000980 	andeq	r0, r0, r0, lsl #19
 ae4:	30002e88 	andcc	r2, r0, r8, lsl #29
 ae8:	00000020 	andeq	r0, r0, r0, lsr #32
 aec:	0000000c 	andeq	r0, r0, ip
 af0:	00000980 	andeq	r0, r0, r0, lsl #19
 af4:	30002ea8 	andcc	r2, r0, r8, lsr #29
 af8:	00000028 	andeq	r0, r0, r8, lsr #32
 afc:	0000000c 	andeq	r0, r0, ip
 b00:	00000980 	andeq	r0, r0, r0, lsl #19
 b04:	30002ed0 	ldrccd	r2, [r0], -r0
 b08:	00000058 	andeq	r0, r0, r8, asr r0
 b0c:	0000000c 	andeq	r0, r0, ip
 b10:	00000980 	andeq	r0, r0, r0, lsl #19
 b14:	30002f28 	andcc	r2, r0, r8, lsr #30
 b18:	00000034 	andeq	r0, r0, r4, lsr r0
 b1c:	0000000c 	andeq	r0, r0, ip
 b20:	00000980 	andeq	r0, r0, r0, lsl #19
 b24:	30002f5c 	andcc	r2, r0, ip, asr pc
 b28:	00000024 	andeq	r0, r0, r4, lsr #32
 b2c:	0000001c 	andeq	r0, r0, ip, lsl r0
 b30:	00000980 	andeq	r0, r0, r0, lsl #19
 b34:	30002f80 	andcc	r2, r0, r0, lsl #31
 b38:	00000068 	andeq	r0, r0, r8, rrx
 b3c:	8e140e44 	cdphi	14, 1, cr0, cr4, cr4, {2}
 b40:	86028701 	strhi	r8, [r2], -r1, lsl #14
 b44:	84048503 	strhi	r8, [r4], #-1283
 b48:	00000005 	andeq	r0, r0, r5
 b4c:	0000000c 	andeq	r0, r0, ip
 b50:	00000980 	andeq	r0, r0, r0, lsl #19
 b54:	30002fe8 	andcc	r2, r0, r8, ror #31
 b58:	00000030 	andeq	r0, r0, r0, lsr r0
 b5c:	0000000c 	andeq	r0, r0, ip
 b60:	ffffffff 	swinv	0x00ffffff
 b64:	7c010001 	stcvc	0, cr0, [r1], {1}
 b68:	000d0c0e 	andeq	r0, sp, lr, lsl #24
 b6c:	00000018 	andeq	r0, r0, r8, lsl r0
 b70:	00000b5c 	andeq	r0, r0, ip, asr fp
 b74:	30003018 	andcc	r3, r0, r8, lsl r0
 b78:	000000f8 	streqd	r0, [r0], -r8
 b7c:	8e0c0e44 	cdphi	14, 0, cr0, cr12, cr4, {2}
 b80:	84028501 	strhi	r8, [r2], #-1281
 b84:	00000003 	andeq	r0, r0, r3
 b88:	00000014 	andeq	r0, r0, r4, lsl r0
 b8c:	00000b5c 	andeq	r0, r0, ip, asr fp
 b90:	30003110 	andcc	r3, r0, r0, lsl r1
 b94:	00000028 	andeq	r0, r0, r8, lsr #32
 b98:	8e040e44 	cdphi	14, 0, cr0, cr4, cr4, {2}
 b9c:	00000001 	andeq	r0, r0, r1
 ba0:	00000024 	andeq	r0, r0, r4, lsr #32
 ba4:	00000b5c 	andeq	r0, r0, ip, asr fp
 ba8:	30003138 	andcc	r3, r0, r8, lsr r1
 bac:	00000148 	andeq	r0, r0, r8, asr #2
 bb0:	8e240e44 	cdphi	14, 2, cr0, cr4, cr4, {2}
 bb4:	8a028b01 	bhi	a37c0 <DISABLE_IRQ+0xa3740>
 bb8:	88048903 	stmhida	r4, {r0, r1, r8, fp, pc}
 bbc:	86068705 	strhi	r8, [r6], -r5, lsl #14
 bc0:	84088507 	strhi	r8, [r8], #-1287
 bc4:	00000009 	andeq	r0, r0, r9
 bc8:	00000014 	andeq	r0, r0, r4, lsl r0
 bcc:	00000b5c 	andeq	r0, r0, ip, asr fp
 bd0:	30003280 	andcc	r3, r0, r0, lsl #5
 bd4:	0000002c 	andeq	r0, r0, ip, lsr #32
 bd8:	8e040e44 	cdphi	14, 0, cr0, cr4, cr4, {2}
 bdc:	00000001 	andeq	r0, r0, r1
 be0:	00000014 	andeq	r0, r0, r4, lsl r0
 be4:	00000b5c 	andeq	r0, r0, ip, asr fp
 be8:	300032ac 	andcc	r3, r0, ip, lsr #5
 bec:	00000050 	andeq	r0, r0, r0, asr r0
 bf0:	8e080e44 	cdphi	14, 0, cr0, cr8, cr4, {2}
 bf4:	00028401 	andeq	r8, r2, r1, lsl #8
 bf8:	00000024 	andeq	r0, r0, r4, lsr #32
 bfc:	00000b5c 	andeq	r0, r0, ip, asr fp
 c00:	300032fc 	strccd	r3, [r0], -ip
 c04:	000002e8 	andeq	r0, r0, r8, ror #5
 c08:	8e240e44 	cdphi	14, 2, cr0, cr4, cr4, {2}
 c0c:	8a028b01 	bhi	a3818 <DISABLE_IRQ+0xa3798>
 c10:	88048903 	stmhida	r4, {r0, r1, r8, fp, pc}
 c14:	86068705 	strhi	r8, [r6], -r5, lsl #14
 c18:	84088507 	strhi	r8, [r8], #-1287
 c1c:	780e5809 	stmvcda	lr, {r0, r3, fp, ip, lr}
 c20:	00000024 	andeq	r0, r0, r4, lsr #32
 c24:	00000b5c 	andeq	r0, r0, ip, asr fp
 c28:	300035e4 	andcc	r3, r0, r4, ror #11
 c2c:	0000062c 	andeq	r0, r0, ip, lsr #12
 c30:	8e240e44 	cdphi	14, 2, cr0, cr4, cr4, {2}
 c34:	8a028b01 	bhi	a3840 <DISABLE_IRQ+0xa37c0>
 c38:	88048903 	stmhida	r4, {r0, r1, r8, fp, pc}
 c3c:	86068705 	strhi	r8, [r6], -r5, lsl #14
 c40:	84088507 	strhi	r8, [r8], #-1287
 c44:	3c0e5809 	stccc	8, cr5, [lr], {9}
 c48:	00000014 	andeq	r0, r0, r4, lsl r0
 c4c:	00000b5c 	andeq	r0, r0, ip, asr fp
 c50:	30003c10 	andcc	r3, r0, r0, lsl ip
 c54:	00000020 	andeq	r0, r0, r0, lsr #32
 c58:	8e080e44 	cdphi	14, 0, cr0, cr8, cr4, {2}
 c5c:	00028401 	andeq	r8, r2, r1, lsl #8
 c60:	00000018 	andeq	r0, r0, r8, lsl r0
 c64:	00000b5c 	andeq	r0, r0, ip, asr fp
 c68:	30003c30 	andcc	r3, r0, r0, lsr ip
 c6c:	00000020 	andeq	r0, r0, r0, lsr #32
 c70:	44080e44 	strmi	r0, [r8], #-3652
 c74:	038e0c0e 	orreq	r0, lr, #3584	; 0xe00
 c78:	02820183 	addeq	r0, r2, #-1073741792	; 0xc0000020
 c7c:	0000001c 	andeq	r0, r0, ip, lsl r0
 c80:	00000b5c 	andeq	r0, r0, ip, asr fp
 c84:	30003c50 	andcc	r3, r0, r0, asr ip
 c88:	00000034 	andeq	r0, r0, r4, lsr r0
 c8c:	44080e44 	strmi	r0, [r8], #-3652
 c90:	038e100e 	orreq	r1, lr, #14	; 0xe
 c94:	01830484 	orreq	r0, r3, r4, lsl #9
 c98:	00000282 	andeq	r0, r0, r2, lsl #5
 c9c:	0000000c 	andeq	r0, r0, ip
 ca0:	00000b5c 	andeq	r0, r0, ip, asr fp
 ca4:	30003c84 	andcc	r3, r0, r4, lsl #25
 ca8:	00000010 	andeq	r0, r0, r0, lsl r0
 cac:	0000001c 	andeq	r0, r0, ip, lsl r0
 cb0:	00000b5c 	andeq	r0, r0, ip, asr fp
 cb4:	30003c94 	mulcc	r0, r4, ip
 cb8:	00000020 	andeq	r0, r0, r0, lsr #32
 cbc:	440c0e44 	strmi	r0, [ip], #-3652
 cc0:	048e100e 	streq	r1, [lr], #14
 cc4:	02820183 	addeq	r0, r2, #-1073741792	; 0xc0000020
 cc8:	00000381 	andeq	r0, r0, r1, lsl #7
 ccc:	00000020 	andeq	r0, r0, r0, lsr #32
 cd0:	00000b5c 	andeq	r0, r0, ip, asr fp
 cd4:	30003cb4 	strcch	r3, [r0], -r4
 cd8:	00000704 	andeq	r0, r0, r4, lsl #14
 cdc:	8e1c0e44 	cdphi	14, 1, cr0, cr12, cr4, {2}
 ce0:	88028a01 	stmhida	r2, {r0, r9, fp, pc}
 ce4:	86048703 	strhi	r8, [r4], -r3, lsl #14
 ce8:	84068505 	strhi	r8, [r6], #-1285
 cec:	240e5407 	strcs	r5, [lr], #-1031
 cf0:	0000001c 	andeq	r0, r0, ip, lsl r0
 cf4:	00000b5c 	andeq	r0, r0, ip, asr fp
 cf8:	300043b8 	strcch	r4, [r0], -r8
 cfc:	00000020 	andeq	r0, r0, r0, lsr #32
 d00:	440c0e44 	strmi	r0, [ip], #-3652
 d04:	048e100e 	streq	r1, [lr], #14
 d08:	02820183 	addeq	r0, r2, #-1073741792	; 0xc0000020
 d0c:	00000381 	andeq	r0, r0, r1, lsl #7
Disassembly of section .debug_pubnames:

00000000 <.debug_pubnames>:
   0:	00000042 	andeq	r0, r0, r2, asr #32
   4:	00410002 	subeq	r0, r1, r2
   8:	009a0000 	addeqs	r0, sl, r0
   c:	00250000 	eoreq	r0, r5, r0
  10:	656c0000 	strvsb	r0, [ip]!
  14:	6e695f64 	cdpvs	15, 6, cr5, cr9, cr4, {3}
  18:	37007469 	strcc	r7, [r0, -r9, ror #8]
  1c:	64000000 	strvs	r0, [r0]
  20:	79616c65 	stmvcdb	r1!, {r0, r2, r5, r6, sl, fp, sp, lr}^
  24:	00007300 	andeq	r7, r0, r0, lsl #6
  28:	6d697400 	cfstrdvs	mvd7, [r9]
  2c:	5f307265 	swipl	0x00307265
  30:	74696e69 	strvcbt	r6, [r9], #-3689
  34:	00008600 	andeq	r8, r0, r0, lsl #12
  38:	79656b00 	stmvcdb	r5!, {r8, r9, fp, sp, lr}^
  3c:	696e695f 	stmvsdb	lr!, {r0, r1, r2, r3, r4, r6, r8, fp, sp, lr}^
  40:	00000074 	andeq	r0, r0, r4, ror r0
  44:	00930000 	addeqs	r0, r3, r0
  48:	00020000 	andeq	r0, r2, r0
  4c:	000000db 	ldreqd	r0, [r0], -fp
  50:	000003b4 	streqh	r0, [r0], -r4
  54:	0000006f 	andeq	r0, r0, pc, rrx
  58:	5f717269 	swipl	0x00717269
  5c:	646e6168 	strvsbt	r6, [lr], #-360
  60:	0072656c 	rsbeqs	r6, r2, ip, ror #10
  64:	000000b1 	streqh	r0, [r0], -r1
  68:	61656c63 	cmnvs	r5, r3, ror #24
  6c:	72695f72 	rsbvc	r5, r9, #456	; 0x1c8
  70:	00c40071 	sbceq	r0, r4, r1, ror r0
  74:	636c0000 	cmnvs	ip, #0	; 0x0
  78:	61745f64 	cmnvs	r4, r4, ror #30
  7c:	fd006b73 	stc2	11, cr6, [r0, #-460]
  80:	66000000 	strvs	r0, [r0], -r0
  84:	61745f73 	cmnvs	r4, r3, ror pc
  88:	bd006b73 	fstdlt	d6, [r0, #-460]
  8c:	65000001 	strvs	r0, [r0, #-1]
  90:	76636578 	undefined
  94:	00021300 	andeq	r1, r2, r0, lsl #6
  98:	6e757200 	cdpvs	2, 7, cr7, cr5, cr0, {0}
  9c:	6d6f635f 	stcvsl	3, cr6, [pc, #-380]!
  a0:	646e6f6d 	strvsbt	r6, [lr], #-3949
  a4:	00027d00 	andeq	r7, r2, r0, lsl #26
  a8:	65687300 	strvsb	r7, [r8, #-768]!
  ac:	23006c6c 	tstcs	r0, #27648	; 0x6c00
  b0:	69000003 	stmvsdb	r0, {r0, r1}
  b4:	0074696e 	rsbeqs	r6, r4, lr, ror #18
  b8:	0000038f 	andeq	r0, r0, pc, lsl #7
  bc:	74696177 	strvcbt	r6, [r9], #-375
  c0:	6575715f 	ldrvsb	r7, [r5, #-351]!
  c4:	685f6575 	ldmvsda	pc, {r0, r2, r4, r5, r6, r8, sl, sp, lr}^
  c8:	00646165 	rsbeq	r6, r4, r5, ror #2
  cc:	000003a1 	andeq	r0, r0, r1, lsr #7
  d0:	5f667562 	swipl	0x00667562
  d4:	64616572 	strvsbt	r6, [r1], #-1394
  d8:	00000000 	andeq	r0, r0, r0
  dc:	00009d00 	andeq	r9, r0, r0, lsl #26
  e0:	8f000200 	swihi	0x00000200
  e4:	2e000004 	cdpcs	0, 0, cr0, cr0, cr4, {0}
  e8:	a4000003 	strge	r0, [r0], #-3
  ec:	67000001 	strvs	r0, [r0, -r1]
  f0:	635f7465 	cmpvs	pc, #1694498816	; 0x65000000
  f4:	65727275 	ldrvsb	r7, [r2, #-629]!
  f8:	d900746e 	stmledb	r0, {r1, r2, r3, r5, r6, sl, ip, sp, lr}
  fc:	74000001 	strvc	r0, [r0], #-1
 100:	5f6b7361 	swipl	0x006b7361
 104:	74696e69 	strvcbt	r6, [r9], #-3689
 108:	0001ec00 	andeq	lr, r1, r0, lsl #24
 10c:	616e6500 	cmnvs	lr, r0, lsl #10
 110:	5f656c62 	swipl	0x00656c62
 114:	00717269 	rsbeqs	r7, r1, r9, ror #4
 118:	000001ff 	streqd	r0, [r0], -pc
 11c:	61736964 	cmnvs	r3, r4, ror #18
 120:	5f656c62 	swipl	0x00656c62
 124:	00717269 	rsbeqs	r7, r1, r9, ror #4
 128:	00000212 	andeq	r0, r0, r2, lsl r2
 12c:	6f635f5f 	swivs	0x00635f5f
 130:	6e6f6d6d 	cdpvs	13, 6, cr6, cr15, cr13, {3}
 134:	6863735f 	stmvsda	r3!, {r0, r1, r2, r3, r4, r6, r8, r9, ip, sp, lr}^
 138:	6c756465 	cfldrdvs	mvd6, [r5], #-404
 13c:	02650065 	rsbeq	r0, r5, #101	; 0x65
 140:	77730000 	ldrvcb	r0, [r3, -r0]!
 144:	68637469 	stmvsda	r3!, {r0, r3, r5, r6, sl, ip, sp, lr}^
 148:	006f745f 	rsbeq	r7, pc, pc, asr r4
 14c:	0000028a 	andeq	r0, r0, sl, lsl #5
 150:	65686373 	strvsb	r6, [r8, #-883]!
 154:	656c7564 	strvsb	r7, [ip, #-1380]!
 158:	00029d00 	andeq	r9, r2, r0, lsl #26
 15c:	6b617700 	blvs	185dd64 <DISABLE_IRQ+0x185dce4>
 160:	70755f65 	rsbvcs	r5, r5, r5, ror #30
 164:	0002d800 	andeq	sp, r2, r0, lsl #16
 168:	656c7300 	strvsb	r7, [ip, #-768]!
 16c:	6f5f7065 	swivs	0x005f7065
 170:	031b006e 	tsteq	fp, #110	; 0x6e
 174:	6d740000 	ldcvsl	0, cr0, [r4]
 178:	00000070 	andeq	r0, r0, r0, ror r0
 17c:	00490000 	subeq	r0, r9, r0
 180:	00020000 	andeq	r0, r2, r0
 184:	000007bd 	streqh	r0, [r0], -sp
 188:	000002de 	ldreqd	r0, [r0], -lr
 18c:	000001a4 	andeq	r0, r0, r4, lsr #3
 190:	5f746567 	swipl	0x00746567
 194:	6b736174 	blvs	1cd876c <DISABLE_IRQ+0x1cd86ec>
 198:	7274735f 	rsbvcs	r7, r4, #2080374785	; 0x7c000001
 19c:	5f746375 	swipl	0x00746375
 1a0:	72646461 	rsbvc	r6, r4, #1627389952	; 0x61000000
 1a4:	0001e400 	andeq	lr, r1, r0, lsl #8
 1a8:	74656700 	strvcbt	r6, [r5], #-1792
 1ac:	7370635f 	cmnvc	r0, #2080374785	; 0x7c000001
 1b0:	020b0072 	andeq	r0, fp, #114	; 0x72
 1b4:	6f640000 	swivs	0x00640000
 1b8:	726f665f 	rsbvc	r6, pc, #99614720	; 0x5f00000
 1bc:	027b006b 	rsbeqs	r0, fp, #107	; 0x6b
 1c0:	78650000 	stmvcda	r5!, {}^
 1c4:	00006365 	andeq	r6, r0, r5, ror #6
 1c8:	3a000000 	bcc	1d0 <DISABLE_IRQ+0x150>
 1cc:	02000000 	andeq	r0, r0, #0	; 0x0
 1d0:	000a9b00 	andeq	r9, sl, r0, lsl #22
 1d4:	0000c800 	andeq	ip, r0, r0, lsl #16
 1d8:	00002500 	andeq	r2, r0, r0, lsl #10
 1dc:	74656700 	strvcbt	r6, [r5], #-1792
 1e0:	6572665f 	ldrvsb	r6, [r2, #-1631]!
 1e4:	61705f65 	cmnvs	r0, r5, ror #30
 1e8:	60006567 	andvs	r6, r0, r7, ror #10
 1ec:	66000000 	strvs	r0, [r0], -r0
 1f0:	5f656572 	swipl	0x00656572
 1f4:	65676170 	strvsb	r6, [r7, #-368]!
 1f8:	0000b500 	andeq	fp, r0, r0, lsl #10
 1fc:	6d656d00 	stcvsl	13, cr6, [r5]
 200:	70616d5f 	rsbvc	r6, r1, pc, asr sp
 204:	00000000 	andeq	r0, r0, r0
 208:	0000c500 	andeq	ip, r0, r0, lsl #10
 20c:	63000200 	tstvs	r0, #0	; 0x0
 210:	3f00000b 	swicc	0x0000000b
 214:	25000002 	strcs	r0, [r0, #-2]
 218:	69000000 	stmvsdb	r0, {}
 21c:	6f6f4273 	swivs	0x006f4273
 220:	6f724674 	swivs	0x00724674
 224:	726f4e6d 	rsbvc	r4, pc, #1744	; 0x6d0
 228:	73616c46 	cmnvc	r1, #17920	; 0x4600
 22c:	006b0068 	rsbeq	r0, fp, r8, rrx
 230:	6c630000 	stcvsl	0, cr0, [r3]
 234:	5f726165 	swipl	0x00726165
 238:	00737362 	rsbeqs	r7, r3, r2, ror #6
 23c:	000000ae 	andeq	r0, r0, lr, lsr #1
 240:	646e616e 	strvsbt	r6, [lr], #-366
 244:	696e695f 	stmvsdb	lr!, {r0, r1, r2, r3, r4, r6, r8, fp, sp, lr}^
 248:	00c10074 	sbceq	r0, r1, r4, ror r0
 24c:	616e0000 	cmnvs	lr, r0
 250:	735f646e 	cmpvc	pc, #1845493760	; 0x6e000000
 254:	63656c65 	cmnvs	r5, #25856	; 0x6500
 258:	00d40074 	sbceqs	r0, r4, r4, ror r0
 25c:	616e0000 	cmnvs	lr, r0
 260:	645f646e 	ldrvsb	r6, [pc], #1134	; 268 <DISABLE_IRQ+0x1e8>
 264:	6c657365 	stcvsl	3, cr7, [r5], #-404
 268:	00746365 	rsbeqs	r6, r4, r5, ror #6
 26c:	000000e7 	andeq	r0, r0, r7, ror #1
 270:	646e616e 	strvsbt	r6, [lr], #-366
 274:	646d635f 	strvsbt	r6, [sp], #-863
 278:	00011f00 	andeq	r1, r1, r0, lsl #30
 27c:	6e616e00 	cdpvs	14, 6, cr6, cr1, cr0, {0}
 280:	64615f64 	strvsbt	r5, [r1], #-3940
 284:	71007264 	tstvc	r0, r4, ror #4
 288:	6e000001 	cdpvs	0, 0, cr0, cr0, cr1, {0}
 28c:	5f646e61 	swipl	0x00646e61
 290:	74696177 	strvcbt	r6, [r9], #-375
 294:	6165725f 	cmnvs	r5, pc, asr r2
 298:	84007964 	strhi	r7, [r0], #-2404
 29c:	6e000001 	cdpvs	0, 0, cr0, cr0, cr1, {0}
 2a0:	5f646e61 	swipl	0x00646e61
 2a4:	61746164 	cmnvs	r4, r4, ror #2
 2a8:	00019b00 	andeq	r9, r1, r0, lsl #22
 2ac:	6e616e00 	cdpvs	14, 6, cr6, cr1, cr0, {0}
 2b0:	65725f64 	ldrvsb	r5, [r2, #-3940]!
 2b4:	f8006461 	stmnvda	r0, {r0, r5, r6, sl, sp, lr}
 2b8:	63000001 	tstvs	r0, #1	; 0x1
 2bc:	5f79706f 	swipl	0x0079706f
 2c0:	65646f63 	strvsb	r6, [r4, #-3939]!
 2c4:	5f6f745f 	swipl	0x006f745f
 2c8:	61726473 	cmnvs	r2, r3, ror r4
 2cc:	0000006d 	andeq	r0, r0, sp, rrx
 2d0:	00cf0000 	sbceq	r0, pc, r0
 2d4:	00020000 	andeq	r0, r2, r0
 2d8:	00000da2 	andeq	r0, r0, r2, lsr #27
 2dc:	000001fc 	streqd	r0, [r0], -ip
 2e0:	00000025 	andeq	r0, r0, r5, lsr #32
 2e4:	5f64636c 	swipl	0x0064636c
 2e8:	74726f70 	ldrvcbt	r6, [r2], #-3952
 2ec:	696e695f 	stmvsdb	lr!, {r0, r1, r2, r3, r4, r6, r8, fp, sp, lr}^
 2f0:	00370074 	eoreqs	r0, r7, r4, ror r0
 2f4:	636c0000 	cmnvs	ip, #0	; 0x0
 2f8:	6f635f64 	swivs	0x00635f64
 2fc:	6f72746e 	swivs	0x0072746e
 300:	5f72656c 	swipl	0x0072656c
 304:	74696e69 	strvcbt	r6, [r9], #-3689
 308:	00004900 	andeq	r4, r0, r0, lsl #18
 30c:	64636c00 	strvsbt	r6, [r3], #-3072
 310:	776f705f 	undefined
 314:	655f7265 	ldrvsb	r7, [pc, #-613]	; b7 <DISABLE_IRQ+0x37>
 318:	6c62616e 	stfvse	f6, [r2], #-440
 31c:	005b0065 	subeqs	r0, fp, r5, rrx
 320:	636c0000 	cmnvs	ip, #0	; 0x0
 324:	6e655f64 	cdpvs	15, 6, cr5, cr5, cr4, {3}
 328:	5f646976 	swipl	0x00646976
 32c:	6d006e6f 	stcvs	14, cr6, [r0, #-444]
 330:	6c000000 	stcvs	0, cr0, [r0], {0}
 334:	655f6463 	ldrvsb	r6, [pc, #-1123]	; fffffed9 <CLKDIVN+0xb3fffec5>
 338:	6469766e 	strvsbt	r7, [r9], #-1646
 33c:	66666f5f 	uqsubaddxvs	r6, r6, pc
 340:	00007f00 	andeq	r7, r0, r0, lsl #30
 344:	61726400 	cmnvs	r2, r0, lsl #8
 348:	69705f77 	ldmvsdb	r0!, {r0, r1, r2, r4, r5, r6, r8, r9, sl, fp, ip, lr}^
 34c:	006c6578 	rsbeq	r6, ip, r8, ror r5
 350:	00000109 	andeq	r0, r0, r9, lsl #2
 354:	61656c63 	cmnvs	r5, r3, ror #24
 358:	63735f72 	cmnvs	r3, #456	; 0x1c8
 35c:	6e656572 	mcrvs	5, 3, r6, cr5, cr2, {3}
 360:	00014400 	andeq	r4, r1, r0, lsl #8
 364:	61726400 	cmnvs	r2, r0, lsl #8
 368:	65725f77 	ldrvsb	r5, [r2, #-3959]!
 36c:	b3007463 	tstlt	r0, #1660944384	; 0x63000000
 370:	6c000001 	stcvs	0, cr0, [r0], {1}
 374:	695f6463 	ldmvsdb	pc, {r0, r1, r5, r6, sl, sp, lr}^
 378:	0074696e 	rsbeqs	r6, r4, lr, ror #18
 37c:	000001c5 	andeq	r0, r0, r5, asr #3
 380:	625f6266 	subvss	r6, pc, #1610612742	; 0x60000006
 384:	5f657361 	swipl	0x00657361
 388:	72646461 	rsbvc	r6, r4, #1627389952	; 0x61000000
 38c:	0001d700 	andeq	sp, r1, r0, lsl #14
 390:	69737800 	ldmvsdb	r3!, {fp, ip, sp, lr}^
 394:	e900657a 	stmdb	r0, {r1, r3, r4, r5, r6, r8, sl, sp, lr}
 398:	79000001 	stmvcdb	r0, {r0}
 39c:	657a6973 	ldrvsb	r6, [sl, #-2419]!
 3a0:	00000000 	andeq	r0, r0, r0
 3a4:	00007500 	andeq	r7, r0, r0, lsl #10
 3a8:	9e000200 	cdpls	2, 0, cr0, cr0, cr0, {0}
 3ac:	d800000f 	stmleda	r0, {r0, r1, r2, r3}
 3b0:	70000001 	andvc	r0, r0, r1
 3b4:	6c000000 	stcvs	0, cr0, [r0], {0}
 3b8:	5f747369 	swipl	0x00747369
 3bc:	74696e69 	strvcbt	r6, [r9], #-3689
 3c0:	00009500 	andeq	r9, r0, r0, lsl #10
 3c4:	6c5f5f00 	mrrcvs	15, 0, r5, pc, cr0
 3c8:	5f747369 	swipl	0x00747369
 3cc:	006c6564 	rsbeq	r6, ip, r4, ror #10
 3d0:	000000c7 	andeq	r0, r0, r7, asr #1
 3d4:	7473696c 	ldrvcbt	r6, [r3], #-2412
 3d8:	6c65645f 	cfstrdvs	mvd6, [r5], #-380
 3dc:	0000ec00 	andeq	lr, r0, r0, lsl #24
 3e0:	73696c00 	cmnvc	r9, #0	; 0x0
 3e4:	6d655f74 	stcvsl	15, cr5, [r5, #-464]!
 3e8:	00797470 	rsbeqs	r7, r9, r0, ror r4
 3ec:	00000115 	andeq	r0, r0, r5, lsl r1
 3f0:	696c5f5f 	stmvsdb	ip!, {r0, r1, r2, r3, r4, r6, r8, r9, sl, fp, ip, lr}^
 3f4:	615f7473 	cmpvs	pc, r3, ror r4
 3f8:	54006464 	strpl	r6, [r0], #-1124
 3fc:	6c000001 	stcvs	0, cr0, [r0], {1}
 400:	5f747369 	swipl	0x00747369
 404:	00646461 	rsbeq	r6, r4, r1, ror #8
 408:	00000186 	andeq	r0, r0, r6, lsl #3
 40c:	7473696c 	ldrvcbt	r6, [r3], #-2412
 410:	6464615f 	strvsbt	r6, [r4], #-351
 414:	6961745f 	stmvsdb	r1!, {r0, r1, r2, r3, r4, r6, sl, ip, sp, lr}^
 418:	0000006c 	andeq	r0, r0, ip, rrx
 41c:	00410000 	subeq	r0, r1, r0
 420:	00020000 	andeq	r0, r2, r0
 424:	00001176 	andeq	r1, r0, r6, ror r1
 428:	00000104 	andeq	r0, r0, r4, lsl #2
 42c:	00000025 	andeq	r0, r0, r5, lsr #32
 430:	74726175 	ldrvcbt	r6, [r2], #-373
 434:	6e695f30 	mcrvs	15, 3, r5, cr9, cr0, {1}
 438:	38007469 	stmccda	r0, {r0, r3, r5, r6, sl, ip, sp, lr}
 43c:	70000000 	andvc	r0, r0, r0
 440:	00637475 	rsbeq	r7, r3, r5, ror r4
 444:	00000062 	andeq	r0, r0, r2, rrx
 448:	63746567 	cmnvs	r4, #432013312	; 0x19c00000
 44c:	00007900 	andeq	r7, r0, r0, lsl #18
 450:	74757000 	ldrvcbt	r7, [r5]
 454:	00a20073 	adceq	r0, r2, r3, ror r0
 458:	65670000 	strvsb	r0, [r7]!
 45c:	00007374 	andeq	r7, r0, r4, ror r3
 460:	ea000000 	b	468 <DISABLE_IRQ+0x3e8>
 464:	02000000 	andeq	r0, r0, #0	; 0x0
 468:	00127a00 	andeqs	r7, r2, r0, lsl #20
 46c:	00065600 	andeq	r5, r6, r0, lsl #12
 470:	00027200 	andeq	r7, r2, r0, lsl #4
 474:	6d6f7200 	sfmvs	f7, 2, [pc]
 478:	675f7366 	ldrvsb	r7, [pc, -r6, ror #6]
 47c:	645f7465 	ldrvsb	r7, [pc], #1125	; 484 <DISABLE_IRQ+0x404>
 480:	72646461 	rsbvc	r6, r4, #1627389952	; 0x61000000
 484:	0002b700 	andeq	fp, r2, r0, lsl #14
 488:	6d697300 	stcvsl	3, cr7, [r9]
 48c:	5f656c70 	swipl	0x00656c70
 490:	666d6f72 	uqsub16vs	r6, sp, r2
 494:	616e5f73 	cmnvs	lr, r3, ror pc
 498:	0069656d 	rsbeq	r6, r9, sp, ror #10
 49c:	0000041c 	andeq	r0, r0, ip, lsl r4
 4a0:	6e65706f 	cdpvs	0, 6, cr7, cr5, cr15, {3}
 4a4:	00047400 	andeq	r7, r4, r0, lsl #8
 4a8:	61657200 	cmnvs	r5, r0, lsl #4
 4ac:	04f60064 	ldreqbt	r0, [r6], #100
 4b0:	6c630000 	stcvsl	0, cr0, [r3]
 4b4:	0065736f 	rsbeq	r7, r5, pc, ror #6
 4b8:	00000520 	andeq	r0, r0, r0, lsr #10
 4bc:	776f6873 	undefined
 4c0:	7269645f 	rsbvc	r6, r9, #1593835520	; 0x5f000000
 4c4:	746e655f 	strvcbt	r6, [lr], #-1375
 4c8:	e7007972 	smlsdx	r0, r2, r9, r7
 4cc:	72000005 	andvc	r0, r0, #5	; 0x5
 4d0:	73666d6f 	cmnvc	r6, #7104	; 0x1bc0
 4d4:	6f6e695f 	swivs	0x006e695f
 4d8:	f9006564 	stmnvdb	r0, {r2, r5, r6, r8, sl, sp, lr}
 4dc:	72000005 	andvc	r0, r0, #5	; 0x5
 4e0:	73666d6f 	cmnvc	r6, #7104	; 0x1bc0
 4e4:	7075735f 	rsbvcs	r7, r5, pc, asr r3
 4e8:	625f7265 	subvss	r7, pc, #1342177286	; 0x50000006
 4ec:	6b636f6c 	blvs	18dc2a4 <DISABLE_IRQ+0x18dc224>
 4f0:	00060b00 	andeq	r0, r6, r0, lsl #22
 4f4:	65706f00 	ldrvsb	r6, [r0, #-3840]!
 4f8:	6f725f6e 	swivs	0x00725f6e
 4fc:	5f73666d 	swipl	0x0073666d
 500:	646f6e69 	strvsbt	r6, [pc], #3689	; 508 <DISABLE_IRQ+0x488>
 504:	061d0065 	ldreq	r0, [sp], -r5, rrx
 508:	6f720000 	swivs	0x00720000
 50c:	5f73666d 	swipl	0x0073666d
 510:	656c6966 	strvsb	r6, [ip, #-2406]!
 514:	00062f00 	andeq	r2, r6, r0, lsl #30
 518:	6f687300 	swivs	0x00687300
 51c:	69645f77 	stmvsdb	r4!, {r0, r1, r2, r4, r5, r6, r8, r9, sl, fp, ip, lr}^
 520:	6f725f72 	swivs	0x00725f72
 524:	5f73666d 	swipl	0x0073666d
 528:	646f6e69 	strvsbt	r6, [pc], #3689	; 530 <DISABLE_IRQ+0x4b0>
 52c:	06420065 	streqb	r0, [r2], -r5, rrx
 530:	68730000 	ldmvsda	r3!, {}^
 534:	645f776f 	ldrvsb	r7, [pc], #1903	; 53c <DISABLE_IRQ+0x4bc>
 538:	725f7269 	subvcs	r7, pc, #-1879048186	; 0x90000006
 53c:	73666d6f 	cmnvc	r6, #7104	; 0x1bc0
 540:	7075735f 	rsbvcs	r7, r5, pc, asr r3
 544:	625f7265 	subvss	r7, pc, #1342177286	; 0x50000006
 548:	6b636f6c 	blvs	18dc300 <DISABLE_IRQ+0x18dc280>
 54c:	00000000 	andeq	r0, r0, r0
 550:	00017200 	andeq	r7, r1, r0, lsl #4
 554:	d0000200 	andle	r0, r0, r0, lsl #4
 558:	1a000018 	bne	5c0 <DISABLE_IRQ+0x540>
 55c:	d7000007 	strle	r0, [r0, -r7]
 560:	53000000 	tstpl	r0, #0	; 0x0
 564:	435f4944 	cmpmi	pc, #1114112	; 0x110000
 568:	6b636568 	blvs	18d9b10 <DISABLE_IRQ+0x18d9a90>
 56c:	444d435f 	strmib	r4, [sp], #-863
 570:	646e455f 	strvsbt	r4, [lr], #-1375
 574:	00017400 	andeq	r7, r1, r0, lsl #8
 578:	444d4300 	strmib	r4, [sp], #-768
 57c:	9f003331 	swils	0x00003331
 580:	43000001 	tstmi	r0, #1	; 0x1
 584:	0039444d 	eoreqs	r4, r9, sp, asr #8
 588:	000001de 	ldreqd	r0, [r0], -lr
 58c:	33444d43 	cmpcc	r4, #4288	; 0x10c0
 590:	00021d00 	andeq	r1, r2, r0, lsl #26
 594:	444d4300 	strmib	r4, [sp], #-768
 598:	024e0032 	subeq	r0, lr, #50	; 0x32
 59c:	4d430000 	stcmil	0, cr0, [r3]
 5a0:	62003044 	andvs	r3, r0, #68	; 0x44
 5a4:	43000002 	tstmi	r0, #2	; 0x2
 5a8:	0031444d 	eoreqs	r4, r1, sp, asr #8
 5ac:	0000027a 	andeq	r0, r0, sl, ror r2
 5b0:	5f494453 	swipl	0x00494453
 5b4:	5f434d4d 	swipl	0x00434d4d
 5b8:	0052434f 	subeqs	r4, r2, pc, asr #6
 5bc:	000002a3 	andeq	r0, r0, r3, lsr #5
 5c0:	37444d43 	strccb	r4, [r4, -r3, asr #26]
 5c4:	0002dc00 	andeq	sp, r2, r0, lsl #24
 5c8:	6c657300 	stcvsl	3, cr7, [r5]
 5cc:	5f746365 	swipl	0x00746365
 5d0:	645f726f 	ldrvsb	r7, [pc], #623	; 5d8 <DISABLE_IRQ+0x558>
 5d4:	6c657365 	stcvsl	3, cr7, [r5], #-404
 5d8:	00746365 	rsbeqs	r6, r4, r5, ror #6
 5dc:	00000315 	andeq	r0, r0, r5, lsl r3
 5e0:	31444d43 	cmpcc	r4, r3, asr #26
 5e4:	032d0032 	teqeq	sp, #50	; 0x32
 5e8:	4d430000 	stcmil	0, cr0, [r3]
 5ec:	00373144 	eoreqs	r3, r7, r4, asr #2
 5f0:	00000358 	andeq	r0, r0, r8, asr r3
 5f4:	31444d43 	cmpcc	r4, r3, asr #26
 5f8:	03830038 	orreq	r0, r3, #56	; 0x38
 5fc:	64730000 	ldrvsbt	r0, [r3]
 600:	6165725f 	cmnvs	r5, pc, asr r2
 604:	65735f64 	ldrvsb	r5, [r3, #-3940]!
 608:	726f7463 	rsbvc	r7, pc, #1660944384	; 0x63000000
 60c:	0003e400 	andeq	lr, r3, r0, lsl #8
 610:	444d4300 	strmib	r4, [sp], #-768
 614:	0f003432 	swieq	0x00003432
 618:	43000004 	tstmi	r0, #4	; 0x4
 61c:	3532444d 	ldrcc	r4, [r2, #-1101]!
 620:	00043a00 	andeq	r3, r4, r0, lsl #20
 624:	5f647300 	swipl	0x00647300
 628:	74697277 	strvcbt	r7, [r9], #-631
 62c:	65735f65 	ldrvsb	r5, [r3, #-3941]!
 630:	726f7463 	rsbvc	r7, pc, #1660944384	; 0x63000000
 634:	00049b00 	andeq	r9, r4, r0, lsl #22
 638:	444d4300 	strmib	r4, [sp], #-768
 63c:	c6003535 	undefined
 640:	41000004 	tstmi	r0, r4
 644:	36444d43 	strccb	r4, [r4], -r3, asr #26
 648:	0004ff00 	andeq	pc, r4, r0, lsl #30
 64c:	74655300 	strvcbt	r5, [r5], #-768
 650:	7375625f 	cmnvc	r5, #-268435451	; 0xf0000005
 654:	6469575f 	strvsbt	r5, [r9], #-1887
 658:	46006874 	undefined
 65c:	41000005 	tstmi	r0, r5
 660:	34444d43 	strccb	r4, [r4], #-3395
 664:	057f0031 	ldreqb	r0, [pc, #-49]!	; 63b <DISABLE_IRQ+0x5bb>
 668:	69660000 	stmvsdb	r6!, {}^
 66c:	645f656c 	ldrvsb	r6, [pc], #1388	; 674 <DISABLE_IRQ+0x5f4>
 670:	79616c65 	stmvcdb	r1!, {r0, r2, r5, r6, sl, fp, sp, lr}^
 674:	0005a400 	andeq	sl, r5, r0, lsl #8
 678:	49445300 	stmmidb	r4, {r8, r9, ip, lr}^
 67c:	5f44535f 	swipl	0x0044535f
 680:	0052434f 	subeqs	r4, r2, pc, asr #6
 684:	000005cd 	andeq	r0, r0, sp, asr #11
 688:	5f696473 	swipl	0x00696473
 68c:	74696e69 	strvcbt	r6, [r9], #-3689
 690:	00060200 	andeq	r0, r6, r0, lsl #4
 694:	69647300 	stmvsdb	r4!, {r8, r9, ip, sp, lr}^
 698:	7365745f 	cmnvc	r5, #1593835520	; 0x5f000000
 69c:	06e30074 	uxtabeq	r0, r3, r4
 6a0:	65730000 	ldrvsb	r0, [r3]!
 6a4:	625f646e 	subvss	r6, pc, #1845493760	; 0x6e000000
 6a8:	f5006675 	strnv	r6, [r0, #-1653]
 6ac:	72000006 	andvc	r0, r0, #6	; 0x6
 6b0:	5f766365 	swipl	0x00766365
 6b4:	00667562 	rsbeq	r7, r6, r2, ror #10
 6b8:	00000707 	andeq	r0, r0, r7, lsl #14
 6bc:	61434453 	cmpvs	r3, r3, asr r4
 6c0:	00006472 	andeq	r6, r0, r2, ror r4
 6c4:	19000000 	stmnedb	r0, {}
 6c8:	02000000 	andeq	r0, r0, #0	; 0x0
 6cc:	00207a00 	eoreq	r7, r0, r0, lsl #20
 6d0:	00005600 	andeq	r5, r0, r0, lsl #12
 6d4:	00004300 	andeq	r4, r0, r0, lsl #6
 6d8:	74635f00 	strvcbt	r5, [r3], #-3840
 6dc:	00657079 	rsbeq	r7, r5, r9, ror r0
 6e0:	00000000 	andeq	r0, r0, r0
 6e4:	0000001b 	andeq	r0, r0, fp, lsl r0
 6e8:	20d00002 	sbccss	r0, r0, r2
 6ec:	01630000 	cmneq	r3, r0
 6f0:	00b90000 	adceqs	r0, r9, r0
 6f4:	5f5f0000 	swipl	0x005f0000
 6f8:	646c756d 	strvsbt	r7, [ip], #-1389
 6fc:	00003369 	andeq	r3, r0, r9, ror #6
 700:	23000000 	tstcs	r0, #0	; 0x0
 704:	02000000 	andeq	r0, r0, #0	; 0x0
 708:	00223300 	eoreq	r3, r2, r0, lsl #6
 70c:	00013200 	andeq	r3, r1, r0, lsl #4
 710:	00004400 	andeq	r4, r0, r0, lsl #8
 714:	69727000 	ldmvsdb	r2!, {ip, sp, lr}^
 718:	006b746e 	rsbeq	r7, fp, lr, ror #8
 71c:	000000a4 	andeq	r0, r0, r4, lsr #1
 720:	6e616373 	mcrvs	3, 3, r6, cr1, cr3, {3}
 724:	00000066 	andeq	r0, r0, r6, rrx
 728:	01220000 	teqeq	r2, r0
 72c:	00020000 	andeq	r0, r2, r0
 730:	00002365 	andeq	r2, r0, r5, ror #6
 734:	00000806 	andeq	r0, r0, r6, lsl #16
 738:	00000037 	andeq	r0, r0, r7, lsr r0
 73c:	6e727473 	mrcvs	4, 3, r7, cr2, cr3, {3}
 740:	706d6369 	rsbvc	r6, sp, r9, ror #6
 744:	0000f900 	andeq	pc, r0, r0, lsl #18
 748:	72747300 	rsbvcs	r7, r4, #0	; 0x0
 74c:	00797063 	rsbeqs	r7, r9, r3, rrx
 750:	00000142 	andeq	r0, r0, r2, asr #2
 754:	6e727473 	mrcvs	4, 3, r7, cr2, cr3, {3}
 758:	00797063 	rsbeqs	r7, r9, r3, rrx
 75c:	00000192 	muleq	r0, r2, r1
 760:	63727473 	cmnvs	r2, #1929379840	; 0x73000000
 764:	d5007461 	strle	r7, [r0, #-1121]
 768:	73000001 	tstvc	r0, #1	; 0x1
 76c:	636e7274 	cmnvs	lr, #1073741831	; 0x40000007
 770:	25007461 	strcs	r7, [r0, #-1121]
 774:	73000002 	tstvc	r0, #2	; 0x2
 778:	6d637274 	sfmvs	f7, 2, [r3, #-464]!
 77c:	026d0070 	rsbeq	r0, sp, #112	; 0x70
 780:	74730000 	ldrvcbt	r0, [r3]
 784:	6d636e72 	stcvsl	14, cr6, [r3, #-456]!
 788:	02bb0070 	adceqs	r0, fp, #112	; 0x70
 78c:	74730000 	ldrvcbt	r0, [r3]
 790:	72686372 	rsbvc	r6, r8, #-939524095	; 0xc8000001
 794:	0002ed00 	andeq	lr, r2, r0, lsl #26
 798:	72747300 	rsbvcs	r7, r4, #0	; 0x0
 79c:	006e656c 	rsbeq	r6, lr, ip, ror #10
 7a0:	00000320 	andeq	r0, r0, r0, lsr #6
 7a4:	72727473 	rsbvcs	r7, r2, #1929379840	; 0x73000000
 7a8:	00726863 	rsbeqs	r6, r2, r3, ror #16
 7ac:	0000035d 	andeq	r0, r0, sp, asr r3
 7b0:	6e727473 	mrcvs	4, 3, r7, cr2, cr3, {3}
 7b4:	006e656c 	rsbeq	r6, lr, ip, ror #10
 7b8:	0000039d 	muleq	r0, sp, r3
 7bc:	73727473 	cmnvc	r2, #1929379840	; 0x73000000
 7c0:	f7006e70 	smlsdxnv	r0, r0, lr, r6
 7c4:	73000003 	tstvc	r0, #3	; 0x3
 7c8:	62707274 	rsbvss	r7, r0, #1073741831	; 0x40000007
 7cc:	4a006b72 	bmi	1b59c <DISABLE_IRQ+0x1b51c>
 7d0:	73000004 	tstvc	r0, #4	; 0x4
 7d4:	6f747274 	swivs	0x00747274
 7d8:	049c006b 	ldreq	r0, [ip], #107
 7dc:	74730000 	ldrvcbt	r0, [r3]
 7e0:	70657372 	rsbvc	r7, r5, r2, ror r3
 7e4:	0004f400 	andeq	pc, r4, r0, lsl #8
 7e8:	6d656d00 	stcvsl	13, cr6, [r5]
 7ec:	00746573 	rsbeqs	r6, r4, r3, ror r5
 7f0:	00000546 	andeq	r0, r0, r6, asr #10
 7f4:	706f6362 	rsbvc	r6, pc, r2, ror #6
 7f8:	05ac0079 	streq	r0, [ip, #121]!
 7fc:	656d0000 	strvsb	r0, [sp]!
 800:	7970636d 	ldmvcdb	r0!, {r0, r2, r3, r5, r6, r8, r9, sp, lr}^
 804:	00060d00 	andeq	r0, r6, r0, lsl #26
 808:	6d656d00 	stcvsl	13, cr6, [r5]
 80c:	65766f6d 	ldrvsb	r6, [r6, #-3949]!
 810:	00066e00 	andeq	r6, r6, r0, lsl #28
 814:	6d656d00 	stcvsl	13, cr6, [r5]
 818:	00706d63 	rsbeqs	r6, r0, r3, ror #26
 81c:	000006e8 	andeq	r0, r0, r8, ror #13
 820:	736d656d 	cmnvc	sp, #457179136	; 0x1b400000
 824:	006e6163 	rsbeq	r6, lr, r3, ror #2
 828:	0000073f 	andeq	r0, r0, pc, lsr r7
 82c:	73727473 	cmnvc	r2, #1929379840	; 0x73000000
 830:	8e007274 	mcrhi	2, 0, r7, cr0, cr4, {3}
 834:	6d000007 	stcvs	0, cr0, [r0, #-28]
 838:	68636d65 	stmvsda	r3!, {r0, r2, r5, r6, r8, sl, fp, sp, lr}^
 83c:	07f30072 	undefined
 840:	5f5f0000 	swipl	0x005f0000
 844:	7274735f 	rsbvcs	r7, r4, #2080374785	; 0x7c000001
 848:	006b6f74 	rsbeq	r6, fp, r4, ror pc
 84c:	00000000 	andeq	r0, r0, r0
 850:	000000c2 	andeq	r0, r0, r2, asr #1
 854:	2b6b0002 	blcs	1ac0864 <DISABLE_IRQ+0x1ac07e4>
 858:	097f0000 	ldmeqdb	pc!, {}^
 85c:	004f0000 	subeq	r0, pc, r0
 860:	69730000 	ldmvsdb	r3!, {}^
 864:	656c706d 	strvsb	r7, [ip, #-109]!
 868:	7274735f 	rsbvcs	r7, r4, #2080374785	; 0x7c000001
 86c:	6c756f74 	ldcvsl	15, cr6, [r5], #-464
 870:	00012c00 	andeq	r2, r1, r0, lsl #24
 874:	6d697300 	stcvsl	3, cr7, [r9]
 878:	5f656c70 	swipl	0x00656c70
 87c:	74727473 	ldrvcbt	r7, [r2], #-1139
 880:	75006c6f 	strvc	r6, [r0, #-3183]
 884:	73000001 	tstvc	r0, #1	; 0x1
 888:	6c706d69 	ldcvsl	13, cr6, [r0], #-420
 88c:	74735f65 	ldrvcbt	r5, [r3], #-3941
 890:	756f7472 	strvcb	r7, [pc, #-1138]!	; 426 <DISABLE_IRQ+0x3a6>
 894:	29006c6c 	stmcsdb	r0, {r2, r3, r5, r6, sl, fp, sp, lr}
 898:	73000002 	tstvc	r0, #2	; 0x2
 89c:	6c706d69 	ldcvsl	13, cr6, [r0], #-420
 8a0:	74735f65 	ldrvcbt	r5, [r3], #-3941
 8a4:	6c6f7472 	cfstrdvs	mvd7, [pc], #-456
 8a8:	0417006c 	ldreq	r0, [r7], #-108
 8ac:	73760000 	cmnvc	r6, #0	; 0x0
 8b0:	6972706e 	ldmvsdb	r2!, {r1, r2, r3, r5, r6, ip, sp, lr}^
 8b4:	0066746e 	rsbeq	r7, r6, lr, ror #8
 8b8:	0000055a 	andeq	r0, r0, sl, asr r5
 8bc:	6e637376 	mcrvs	3, 3, r7, cr3, cr6, {3}
 8c0:	6e697270 	mcrvs	2, 3, r7, cr9, cr0, {3}
 8c4:	bb006674 	bllt	1a29c <DISABLE_IRQ+0x1a21c>
 8c8:	73000005 	tstvc	r0, #5	; 0x5
 8cc:	6972706e 	ldmvsdb	r2!, {r1, r2, r3, r5, r6, ip, sp, lr}^
 8d0:	0066746e 	rsbeq	r7, r6, lr, ror #8
 8d4:	0000061a 	andeq	r0, r0, sl, lsl r6
 8d8:	706e6373 	rsbvc	r6, lr, r3, ror r3
 8dc:	746e6972 	strvcbt	r6, [lr], #-2418
 8e0:	067b0066 	ldreqbt	r0, [fp], -r6, rrx
 8e4:	73760000 	cmnvc	r6, #0	; 0x0
 8e8:	6e697270 	mcrvs	2, 3, r7, cr9, cr0, {3}
 8ec:	c2006674 	andgt	r6, r0, #121634816	; 0x7400000
 8f0:	73000006 	tstvc	r0, #6	; 0x6
 8f4:	6e697270 	mcrvs	2, 3, r7, cr9, cr0, {3}
 8f8:	13006674 	tstne	r0, #121634816	; 0x7400000
 8fc:	76000007 	strvc	r0, [r0], -r7
 900:	61637373 	cmnvs	r3, r3, ror r3
 904:	1500666e 	strne	r6, [r0, #-1646]
 908:	73000009 	tstvc	r0, #9	; 0x9
 90c:	6e616373 	mcrvs	3, 3, r6, cr1, cr3, {3}
 910:	00000066 	andeq	r0, r0, r6, rrx
	...
Disassembly of section .debug_str:

00000000 <.debug_str>:
   0:	5f79656b 	swipl	0x0079656b
   4:	74696e69 	strvcbt	r6, [r9], #-3689
   8:	554e4700 	strplb	r4, [lr, #-1792]
   c:	33204320 	teqcc	r0, #-2147483648	; 0x80000000
  10:	352e342e 	strcc	r3, [lr, #-1070]!
  14:	6d697400 	cfstrdvs	mvd7, [r9]
  18:	5f307265 	swipl	0x00307265
  1c:	74696e69 	strvcbt	r6, [r9], #-3689
  20:	64656c00 	strvsbt	r6, [r5], #-3072
  24:	696e695f 	stmvsdb	lr!, {r0, r1, r2, r3, r4, r6, r8, fp, sp, lr}^
  28:	6e690074 	mcrvs	0, 3, r0, cr9, cr4, {3}
  2c:	632e7469 	teqvs	lr, #1761607680	; 0x69000000
  30:	6e6d2f00 	cdpvs	15, 6, cr2, cr13, cr0, {0}
  34:	67682f74 	undefined
  38:	412f7366 	teqmi	pc, r6, ror #6
  3c:	706d7973 	rsbvc	r7, sp, r3, ror r9
  40:	65746f74 	ldrvsb	r6, [r4, #-3956]!
  44:	65706f00 	ldrvsb	r6, [r0, #-3840]!
  48:	7865006e 	stmvcda	r5!, {r1, r2, r3, r5, r6}^
  4c:	00766365 	rsbeqs	r6, r6, r5, ror #6
  50:	5f667562 	swipl	0x00667562
  54:	74697277 	strvcbt	r7, [r9], #-631
  58:	74730065 	ldrvcbt	r0, [r3], #-101
  5c:	6e656c72 	mcrvs	12, 3, r6, cr5, cr2, {3}
  60:	69617700 	stmvsdb	r1!, {r8, r9, sl, ip, sp, lr}^
  64:	75715f74 	ldrvcb	r5, [r1, #-3956]!
  68:	5f657565 	swipl	0x00657565
  6c:	64616568 	strvsbt	r6, [r1], #-1384
  70:	74656700 	strvcbt	r6, [r5], #-1792
  74:	61700063 	cmnvs	r0, r3, rrx
  78:	6e5f6874 	mrcvs	8, 2, r6, cr15, cr4, {3}
  7c:	00656d61 	rsbeq	r6, r5, r1, ror #26
  80:	5f6e7572 	swipl	0x006e7572
  84:	6d6d6f63 	stcvsl	15, cr6, [sp, #-396]!
  88:	00646e6f 	rsbeq	r6, r4, pc, ror #28
  8c:	706d5f5f 	rsbvc	r5, sp, pc, asr pc
  90:	6c007274 	sfmvs	f7, 4, [r0], {116}
  94:	745f6463 	ldrvcb	r6, [pc], #1123	; 9c <DISABLE_IRQ+0x1c>
  98:	006b7361 	rsbeq	r7, fp, r1, ror #6
  9c:	6c656873 	stcvsl	8, cr6, [r5], #-460
  a0:	7269006c 	rsbvc	r0, r9, #108	; 0x6c
  a4:	61685f71 	cmnvs	r8, r1, ror pc
  a8:	656c646e 	strvsb	r6, [ip, #-1134]!
  ac:	6e750072 	mrcvs	0, 3, r0, cr5, cr2, {3}
  b0:	6e676973 	mcrvs	9, 3, r6, cr7, cr3, {3}
  b4:	63206465 	teqvs	r0, #1694498816	; 0x65000000
  b8:	00726168 	rsbeqs	r6, r2, r8, ror #2
  bc:	745f7366 	ldrvcb	r7, [pc], #870	; c4 <DISABLE_IRQ+0x44>
  c0:	006b7361 	rsbeq	r7, fp, r1, ror #6
  c4:	67616c66 	strvsb	r6, [r1, -r6, ror #24]!
  c8:	72617500 	rsbvc	r7, r1, #0	; 0x0
  cc:	695f3074 	ldmvsdb	pc, {r2, r4, r5, r6, ip, sp}^
  d0:	0074696e 	rsbeqs	r6, r4, lr, ror #18
  d4:	63727473 	cmnvs	r2, #1929379840	; 0x73000000
  d8:	6c00706d 	stcvs	0, cr7, [r0], {109}
  dc:	5f747369 	swipl	0x00747369
  e0:	64616568 	strvsbt	r6, [r1], #-1384
  e4:	656c6300 	strvsb	r6, [ip, #-768]!
  e8:	695f7261 	ldmvsdb	pc, {r0, r5, r6, r9, ip, sp, lr}^
  ec:	6d007172 	stfvss	f7, [r0, #-456]
  f0:	2e6e6961 	cdpcs	9, 6, cr6, cr14, cr1, {3}
  f4:	635f0063 	cmpvs	pc, #99	; 0x63
  f8:	65707974 	ldrvsb	r7, [r0, #-2420]!
  fc:	69647300 	stmvsdb	r4!, {r8, r9, ip, sp, lr}^
 100:	696e695f 	stmvsdb	lr!, {r0, r1, r2, r3, r4, r6, r8, fp, sp, lr}^
 104:	75700074 	ldrvcb	r0, [r0, #-116]!
 108:	6d006374 	stcvs	3, cr6, [r0, #-464]
 10c:	70636d65 	rsbvc	r6, r3, r5, ror #26
 110:	72700079 	rsbvcs	r0, r0, #121	; 0x79
 114:	6b746e69 	blvs	1d1bac0 <DISABLE_IRQ+0x1d1ba40>
 118:	6f687300 	swivs	0x00687300
 11c:	69645f77 	stmvsdb	r4!, {r0, r1, r2, r4, r5, r6, r8, r9, sl, fp, ip, lr}^
 120:	6e655f72 	mcrvs	15, 3, r5, cr5, cr2, {3}
 124:	00797274 	rsbeqs	r7, r9, r4, ror r2
 128:	6d6d6f63 	stcvsl	15, cr6, [sp, #-396]!
 12c:	00646e61 	rsbeq	r6, r4, r1, ror #28
 130:	73747570 	cmnvc	r4, #469762048	; 0x1c000000
 134:	6f6c6300 	swivs	0x006c6300
 138:	6e006573 	cfrshl64vs	mvdx0, mvdx3, r6
 13c:	00747865 	rsbeqs	r7, r4, r5, ror #16
 140:	5f667562 	swipl	0x00667562
 144:	64616572 	strvsbt	r6, [r1], #-1394
 148:	65727000 	ldrvsb	r7, [r2]!
 14c:	5f690076 	swipl	0x00690076
 150:	00766564 	rsbeqs	r6, r6, r4, ror #10
 154:	74617473 	strvcbt	r7, [r1], #-1139
 158:	65670065 	strvsb	r0, [r7, #-101]!
 15c:	75635f74 	strvcb	r5, [r3, #-3956]!
 160:	6e657272 	mcrvs	2, 3, r7, cr5, cr2, {3}
 164:	64660074 	strvsbt	r0, [r6], #-116
 168:	646f6d5f 	strvsbt	r6, [pc], #3423	; 170 <DISABLE_IRQ+0xf0>
 16c:	63730065 	cmnvs	r3, #101	; 0x65
 170:	2e646568 	cdpcs	5, 6, cr6, cr4, cr8, {3}
 174:	61740063 	cmnvs	r4, r3, rrx
 178:	695f6b73 	ldmvsdb	pc, {r0, r1, r4, r5, r6, r8, r9, fp, sp, lr}^
 17c:	0074696e 	rsbeqs	r6, r4, lr, ror #18
 180:	705f6466 	subvcs	r6, pc, r6, ror #8
 184:	7400736f 	strvc	r7, [r0], #-879
 188:	5f6b7361 	swipl	0x006b7361
 18c:	75727473 	ldrvcb	r7, [r2, #-1139]!
 190:	66007463 	strvs	r7, [r0], -r3, ror #8
 194:	6e695f64 	cdpvs	15, 6, cr5, cr9, cr4, {3}
 198:	5f65646f 	swipl	0x0065646f
 19c:	00727470 	rsbeqs	r7, r2, r0, ror r4
 1a0:	756e5f69 	strvcb	r5, [lr, #-3945]!
 1a4:	6177006d 	cmnvs	r7, sp, rrx
 1a8:	755f656b 	ldrvcb	r6, [pc, #-1387]	; fffffc45 <CLKDIVN+0xb3fffc31>
 1ac:	5f690070 	swipl	0x00690070
 1b0:	72617473 	rsbvc	r7, r1, #1929379840	; 0x73000000
 1b4:	65735f74 	ldrvsb	r5, [r3, #-3956]!
 1b8:	69007463 	stmvsdb	r0, {r0, r1, r5, r6, sl, ip, sp, lr}
 1bc:	756e755f 	strvcb	r7, [lr, #-1375]!
 1c0:	00646573 	rsbeq	r6, r4, r3, ror r5
 1c4:	6f6d5f69 	swivs	0x006d5f69
 1c8:	69006564 	stmvsdb	r0, {r2, r5, r6, r8, sl, sp, lr}
 1cc:	746f745f 	strvcbt	r7, [pc], #1119	; 1d4 <DISABLE_IRQ+0x154>
 1d0:	735f6c61 	cmpvc	pc, #24832	; 0x6100
 1d4:	73746365 	cmnvc	r4, #-1811939327	; 0x94000001
 1d8:	616e6500 	cmnvs	lr, r0, lsl #10
 1dc:	5f656c62 	swipl	0x00656c62
 1e0:	00717269 	rsbeqs	r7, r1, r9, ror #4
 1e4:	61736964 	cmnvs	r3, r4, ror #18
 1e8:	5f656c62 	swipl	0x00656c62
 1ec:	00717269 	rsbeqs	r7, r1, r9, ror #4
 1f0:	706c6966 	rsbvc	r6, ip, r6, ror #18
 1f4:	69777300 	ldmvsdb	r7!, {r8, r9, ip, sp, lr}^
 1f8:	5f686374 	swipl	0x00686374
 1fc:	69006f74 	stmvsdb	r0, {r2, r4, r5, r6, r8, r9, sl, fp, sp, lr}
 200:	7a69735f 	bvc	1a5cf84 <DISABLE_IRQ+0x1a5cf04>
 204:	5f690065 	swipl	0x00690065
 208:	00746e63 	rsbeqs	r6, r4, r3, ror #28
 20c:	65656c73 	strvsb	r6, [r5, #-3187]!
 210:	6e6f5f70 	mcrvs	15, 3, r5, cr15, cr0, {3}
 214:	635f5f00 	cmpvs	pc, #0	; 0x0
 218:	6f6d6d6f 	swivs	0x006d6d6f
 21c:	63735f6e 	cmnvs	r3, #440	; 0x1b8
 220:	75646568 	strvcb	r6, [r4, #-1384]!
 224:	6700656c 	strvs	r6, [r0, -ip, ror #10]
 228:	745f7465 	ldrvcb	r7, [pc], #1125	; 230 <DISABLE_IRQ+0x1b0>
 22c:	5f6b7361 	swipl	0x006b7361
 230:	75727473 	ldrvcb	r7, [r2, #-1139]!
 234:	615f7463 	cmpvs	pc, r3, ror #8
 238:	00726464 	rsbeqs	r6, r2, r4, ror #8
 23c:	6b736174 	blvs	1cd8814 <DISABLE_IRQ+0x1cd8794>
 240:	6174735f 	cmnvs	r4, pc, asr r3
 244:	615f6b63 	cmpvs	pc, r3, ror #22
 248:	5f726464 	swipl	0x00726464
 24c:	65736162 	ldrvsb	r6, [r3, #-354]!
 250:	74656700 	strvcbt	r6, [r5], #-1792
 254:	7370635f 	cmnvc	r0, #2080374785	; 0x7c000001
 258:	72610072 	rsbvc	r0, r1, #114	; 0x72
 25c:	64007367 	strvs	r7, [r0], #-871
 260:	6f665f6f 	swivs	0x00665f6f
 264:	6d006b72 	fstdvs	d6, [r0, #-456]
 268:	65736d65 	ldrvsb	r6, [r3, #-3429]!
 26c:	6f660074 	swivs	0x00660074
 270:	632e6b72 	teqvs	lr, #116736	; 0x1c800
 274:	65786500 	ldrvsb	r6, [r8, #-1280]!
 278:	616e0063 	cmnvs	lr, r3, rrx
 27c:	615f646e 	cmpvs	pc, lr, ror #8
 280:	00726464 	rsbeqs	r6, r2, r4, ror #8
 284:	5f6d656d 	swipl	0x006d656d
 288:	0070616d 	rsbeqs	r6, r0, sp, ror #2
 28c:	2e6d656d 	cdpcs	5, 6, cr6, cr13, cr13, {3}
 290:	65670063 	strvsb	r0, [r7, #-99]!
 294:	72665f74 	rsbvc	r5, r6, #464	; 0x1d0
 298:	705f6565 	subvcs	r6, pc, r5, ror #10
 29c:	00656761 	rsbeq	r6, r5, r1, ror #14
 2a0:	646e616e 	strvsbt	r6, [lr], #-366
 2a4:	696e695f 	stmvsdb	lr!, {r0, r1, r2, r3, r4, r6, r8, fp, sp, lr}^
 2a8:	616e0074 	cmnvs	lr, r4, ror r0
 2ac:	645f646e 	ldrvsb	r6, [pc], #1134	; 2b4 <DISABLE_IRQ+0x234>
 2b0:	6c657365 	stcvsl	3, cr7, [r5], #-404
 2b4:	00746365 	rsbeqs	r6, r4, r5, ror #6
 2b8:	646e616e 	strvsbt	r6, [lr], #-366
 2bc:	6961775f 	stmvsdb	r1!, {r0, r1, r2, r3, r4, r6, r8, r9, sl, ip, sp, lr}^
 2c0:	65725f74 	ldrvsb	r5, [r2, #-3956]!
 2c4:	00796461 	rsbeqs	r6, r9, r1, ror #8
 2c8:	73625f5f 	cmnvc	r2, #380	; 0x17c
 2cc:	74735f73 	ldrvcbt	r5, [r3], #-3955
 2d0:	00747261 	rsbeqs	r7, r4, r1, ror #4
 2d4:	6f427369 	swivs	0x00427369
 2d8:	7246746f 	subvc	r7, r6, #1862270976	; 0x6f000000
 2dc:	6f4e6d6f 	swivs	0x004e6d6f
 2e0:	616c4672 	cmnvs	ip, r2, ror r6
 2e4:	64006873 	strvs	r6, [r0], #-2163
 2e8:	00747365 	rsbeqs	r7, r4, r5, ror #6
 2ec:	73625f5f 	cmnvc	r2, #380	; 0x17c
 2f0:	6e655f73 	mcrvs	15, 3, r5, cr5, cr3, {3}
 2f4:	616e0064 	cmnvs	lr, r4, rrx
 2f8:	645f646e 	ldrvsb	r6, [pc], #1134	; 300 <DISABLE_IRQ+0x280>
 2fc:	00617461 	rsbeq	r7, r1, r1, ror #8
 300:	646e616e 	strvsbt	r6, [lr], #-366
 304:	6165725f 	cmnvs	r5, pc, asr r2
 308:	616e0064 	cmnvs	lr, r4, rrx
 30c:	632e646e 	teqvs	lr, #1845493760	; 0x6e000000
 310:	656c6300 	strvsb	r6, [ip, #-768]!
 314:	625f7261 	subvss	r7, pc, #268435462	; 0x10000006
 318:	6e007373 	mcrvs	3, 0, r7, cr0, cr3, {3}
 31c:	5f646e61 	swipl	0x00646e61
 320:	656c6573 	strvsb	r6, [ip, #-1395]!
 324:	63007463 	tstvs	r0, #1660944384	; 0x63000000
 328:	5f79706f 	swipl	0x0079706f
 32c:	65646f63 	strvsb	r6, [r4, #-3939]!
 330:	5f6f745f 	swipl	0x006f745f
 334:	61726473 	cmnvs	r2, r3, ror r4
 338:	616e006d 	cmnvs	lr, sp, rrx
 33c:	635f646e 	cmpvs	pc, #1845493760	; 0x6e000000
 340:	7300646d 	tstvc	r0, #1828716544	; 0x6d000000
 344:	74726f68 	ldrvcbt	r6, [r2], #-3944
 348:	736e7520 	cmnvc	lr, #134217728	; 0x8000000
 34c:	656e6769 	strvsb	r6, [lr, #-1897]!
 350:	6e692064 	cdpvs	0, 6, cr2, cr9, cr4, {3}
 354:	6c620074 	stcvsl	0, cr0, [r2], #-464
 358:	6c006575 	cfstr32vs	mvfx6, [r0], {117}
 35c:	632e6463 	teqvs	lr, #1660944384	; 0x63000000
 360:	69737900 	ldmvsdb	r3!, {r8, fp, ip, sp, lr}^
 364:	6c00657a 	cfstr32vs	mvfx6, [r0], {122}
 368:	705f6463 	subvcs	r6, pc, r3, ror #8
 36c:	5f74726f 	swipl	0x0074726f
 370:	74696e69 	strvcbt	r6, [r9], #-3689
 374:	6c6f6300 	stcvsl	3, cr6, [pc]
 378:	6700726f 	strvs	r7, [r0, -pc, ror #4]
 37c:	6e656572 	mcrvs	5, 3, r6, cr5, cr2, {3}
 380:	64636c00 	strvsbt	r6, [r3], #-3072
 384:	776f705f 	undefined
 388:	655f7265 	ldrvsb	r7, [pc, #-613]	; 12b <DISABLE_IRQ+0xab>
 38c:	6c62616e 	stfvse	f6, [r2], #-440
 390:	5f780065 	swipl	0x00780065
 394:	72617473 	rsbvc	r7, r1, #1929379840	; 0x73000000
 398:	73780074 	cmnvc	r8, #116	; 0x74
 39c:	00657a69 	rsbeq	r7, r5, r9, ror #20
 3a0:	5f64636c 	swipl	0x0064636c
 3a4:	69766e65 	ldmvsdb	r6!, {r0, r2, r5, r6, r9, sl, fp, sp, lr}^
 3a8:	6e6f5f64 	cdpvs	15, 6, cr5, cr15, cr4, {3}
 3ac:	655f7800 	ldrvsb	r7, [pc, #-2048]	; fffffbb4 <CLKDIVN+0xb3fffba0>
 3b0:	6c00646e 	cfstrsvs	mvf6, [r0], {110}
 3b4:	635f6463 	cmpvs	pc, #1660944384	; 0x63000000
 3b8:	72746e6f 	rsbvcs	r6, r4, #1776	; 0x6f0
 3bc:	72656c6f 	rsbvc	r6, r5, #28416	; 0x6f00
 3c0:	696e695f 	stmvsdb	lr!, {r0, r1, r2, r3, r4, r6, r8, fp, sp, lr}^
 3c4:	5f790074 	swipl	0x00790074
 3c8:	00646e65 	rsbeq	r6, r4, r5, ror #28
 3cc:	77617264 	strvcb	r7, [r1, -r4, ror #4]!
 3d0:	7869705f 	stmvcda	r9!, {r0, r1, r2, r3, r4, r6, ip, sp, lr}^
 3d4:	79006c65 	stmvcdb	r0, {r0, r2, r5, r6, sl, fp, sp, lr}
 3d8:	6174735f 	cmnvs	r4, pc, asr r3
 3dc:	66007472 	undefined
 3e0:	61625f62 	cmnvs	r2, r2, ror #30
 3e4:	615f6573 	cmpvs	pc, r3, ror r5
 3e8:	00726464 	rsbeqs	r6, r2, r4, ror #8
 3ec:	5f64636c 	swipl	0x0064636c
 3f0:	74696e69 	strvcbt	r6, [r9], #-3689
 3f4:	656c6300 	strvsb	r6, [ip, #-768]!
 3f8:	735f7261 	cmpvc	pc, #268435462	; 0x10000006
 3fc:	65657263 	strvsb	r7, [r5, #-611]!
 400:	7264006e 	rsbvc	r0, r4, #110	; 0x6e
 404:	725f7761 	subvcs	r7, pc, #25427968	; 0x1840000
 408:	00746365 	rsbeqs	r6, r4, r5, ror #6
 40c:	5f64636c 	swipl	0x0064636c
 410:	69766e65 	ldmvsdb	r6!, {r0, r2, r5, r6, r9, sl, fp, sp, lr}^
 414:	666f5f64 	strvsbt	r5, [pc], -r4, ror #30
 418:	696c0066 	stmvsdb	ip!, {r1, r2, r5, r6}^
 41c:	655f7473 	ldrvsb	r7, [pc, #-1139]	; ffffffb1 <CLKDIVN+0xb3ffff9d>
 420:	7974706d 	ldmvcdb	r4!, {r0, r2, r3, r5, r6, ip, sp, lr}^
 424:	6c5f5f00 	mrrcvs	15, 0, r5, pc, cr0
 428:	5f747369 	swipl	0x00747369
 42c:	006c6564 	rsbeq	r6, ip, r4, ror #10
 430:	7473696c 	ldrvcbt	r6, [r3], #-2412
 434:	6464615f 	strvsbt	r6, [r4], #-351
 438:	6961745f 	stmvsdb	r1!, {r0, r1, r2, r3, r4, r6, sl, ip, sp, lr}^
 43c:	696c006c 	stmvsdb	ip!, {r2, r3, r5, r6}^
 440:	632e7473 	teqvs	lr, #1929379840	; 0x73000000
 444:	6c5f5f00 	mrrcvs	15, 0, r5, pc, cr0
 448:	5f747369 	swipl	0x00747369
 44c:	00646461 	rsbeq	r6, r4, r1, ror #8
 450:	7473696c 	ldrvcbt	r6, [r3], #-2412
 454:	696e695f 	stmvsdb	lr!, {r0, r1, r2, r3, r4, r6, r8, fp, sp, lr}^
 458:	65670074 	strvsb	r0, [r7, #-116]!
 45c:	75007374 	strvc	r7, [r0, #-884]
 460:	2e747261 	cdpcs	2, 7, cr7, cr4, cr1, {3}
 464:	5f670063 	swipl	0x00670063
 468:	754f6370 	strvcb	r6, [pc, #-880]	; 100 <DISABLE_IRQ+0x80>
 46c:	66754274 	undefined
 470:	705f6700 	subvcs	r6, pc, r0, lsl #14
 474:	426e4963 	rsbmi	r4, lr, #1622016	; 0x18c000
 478:	77006675 	smlsdxvc	r0, r5, r6, r6
 47c:	3064726f 	rsbcc	r7, r4, pc, ror #4
 480:	726f7700 	rsbvc	r7, pc, #0	; 0x0
 484:	66003164 	strvs	r3, [r0], -r4, ror #2
 488:	656d616e 	strvsb	r6, [sp, #-366]!
 48c:	554f4600 	strplb	r4, [pc, #-1536]	; fffffe94 <CLKDIVN+0xb3fffe80>
 490:	4944444e 	stmmidb	r4, {r1, r2, r3, r6, sl, lr}^
 494:	6d620052 	stcvsl	0, cr0, [r2, #-328]!
 498:	63007061 	tstvs	r0, #97	; 0x61
 49c:	746e756f 	strvcbt	r7, [lr], #-1391
 4a0:	6c696600 	stcvsl	6, cr6, [r9]
 4a4:	75625f65 	strvcb	r5, [r2, #-3941]!
 4a8:	72656666 	rsbvc	r6, r5, #106954752	; 0x6600000
 4ac:	646e6900 	strvsbt	r6, [lr], #-2304
 4b0:	73007865 	tstvc	r0, #6619136	; 0x650000
 4b4:	5f776f68 	swipl	0x00776f68
 4b8:	5f726964 	swipl	0x00726964
 4bc:	666d6f72 	uqsub16vs	r6, sp, r2
 4c0:	6e695f73 	mcrvs	15, 3, r5, cr9, cr3, {3}
 4c4:	0065646f 	rsbeq	r6, r5, pc, ror #8
 4c8:	63656863 	cmnvs	r5, #6488064	; 0x630000
 4cc:	6d75736b 	ldcvsl	3, cr7, [r5, #-428]!
 4d0:	6c696600 	stcvsl	6, cr6, [r9]
 4d4:	61645f65 	cmnvs	r4, r5, ror #30
 4d8:	615f6174 	cmpvs	pc, r4, ror r1
 4dc:	00726464 	rsbeqs	r6, r2, r4, ror #8
 4e0:	6f725f70 	swivs	0x00725f70
 4e4:	5f73666d 	swipl	0x0073666d
 4e8:	65707573 	ldrvsb	r7, [r0, #-1395]!
 4ec:	6c625f72 	stcvsl	15, cr5, [r2], #-456
 4f0:	006b636f 	rsbeq	r6, fp, pc, ror #6
 4f4:	6e65706f 	cdpvs	0, 6, cr7, cr5, cr15, {3}
 4f8:	6d6f725f 	sfmvs	f7, 2, [pc, #-380]!
 4fc:	695f7366 	ldmvsdb	pc, {r1, r2, r5, r6, r8, r9, ip, sp, lr}^
 500:	65646f6e 	strvsb	r6, [r4, #-3950]!
 504:	6d6f7200 	sfmvs	f7, 2, [pc]
 508:	675f7366 	ldrvsb	r7, [pc, -r6, ror #6]
 50c:	645f7465 	ldrvsb	r7, [pc], #1125	; 514 <DISABLE_IRQ+0x494>
 510:	72646461 	rsbvc	r6, r4, #1627389952	; 0x61000000
 514:	6d6f7200 	sfmvs	f7, 2, [pc]
 518:	632e7366 	teqvs	lr, #-1744830463	; 0x98000001
 51c:	6f687300 	swivs	0x00687300
 520:	69645f77 	stmvsdb	r4!, {r0, r1, r2, r4, r5, r6, r8, r9, sl, fp, ip, lr}^
 524:	6f725f72 	swivs	0x00725f72
 528:	5f73666d 	swipl	0x0073666d
 52c:	65707573 	ldrvsb	r7, [r0, #-1395]!
 530:	6c625f72 	stcvsl	15, cr5, [r2], #-456
 534:	006b636f 	rsbeq	r6, fp, pc, ror #6
 538:	666d6f72 	uqsub16vs	r6, sp, r2
 53c:	69665f73 	stmvsdb	r6!, {r0, r1, r4, r5, r6, r8, r9, sl, fp, ip, lr}^
 540:	6700656c 	strvs	r6, [r0, -ip, ror #10]
 544:	745f7465 	ldrvcb	r7, [pc], #1125	; 54c <DISABLE_IRQ+0x4cc>
 548:	665f6568 	ldrvsb	r6, [pc], -r8, ror #10
 54c:	5f656c69 	swipl	0x00656c69
 550:	656d616e 	strvsb	r6, [sp, #-366]!
 554:	6e697000 	cdpvs	0, 6, cr7, cr9, cr0, {0}
 558:	0065646f 	rsbeq	r6, r5, pc, ror #8
 55c:	67616c66 	strvsb	r6, [r1, -r6, ror #24]!
 560:	52450073 	subpl	r0, r5, #115	; 0x73
 564:	554f5f52 	strplb	r5, [pc, #-3922]	; fffff61a <CLKDIVN+0xb3fff606>
 568:	554e5f54 	strplb	r5, [lr, #-3924]
 56c:	45004c4c 	strmi	r4, [r0, #-3148]
 570:	4f5f5252 	swimi	0x005f5252
 574:	4b5f5455 	blmi	17d56d0 <DISABLE_IRQ+0x17d5650>
 578:	4c4c414d 	stfmie	f4, [ip], {77}
 57c:	7300434f 	tstvc	r0, #1006632961	; 0x3c000001
 580:	00636570 	rsbeq	r6, r3, r0, ror r5
 584:	65707573 	ldrvsb	r7, [r0, #-1395]!
 588:	52450072 	subpl	r0, r5, #114	; 0x72
 58c:	554f5f52 	strplb	r5, [pc, #-3922]	; fffff642 <CLKDIVN+0xb3fff62e>
 590:	4d4b5f54 	stcmil	15, cr5, [fp, #-336]
 594:	435f4d45 	cmpmi	pc, #4416	; 0x1140
 598:	45484341 	strmib	r4, [r8, #-833]
 59c:	4c4c415f 	stfmie	f4, [ip], {95}
 5a0:	6400434f 	strvs	r4, [r0], #-847
 5a4:	657a6973 	ldrvsb	r6, [sl, #-2419]!
 5a8:	6d616e00 	stcvsl	14, cr6, [r1]
 5ac:	69735f65 	ldmvsdb	r3!, {r0, r2, r5, r6, r8, r9, sl, fp, ip, lr}^
 5b0:	7300657a 	tstvc	r0, #511705088	; 0x1e800000
 5b4:	6c706d69 	ldcvsl	13, cr6, [r0], #-420
 5b8:	6f725f65 	swivs	0x00725f65
 5bc:	5f73666d 	swipl	0x0073666d
 5c0:	656d616e 	strvsb	r6, [sp, #-366]!
 5c4:	4f460069 	swimi	0x00460069
 5c8:	00444e55 	subeq	r4, r4, r5, asr lr
 5cc:	57696473 	undefined
 5d0:	00656469 	rsbeq	r6, r5, r9, ror #8
 5d4:	7261436c 	rsbvc	r4, r1, #-1342177279	; 0xb0000001
 5d8:	7a695364 	bvc	1a55370 <DISABLE_IRQ+0x1a552f0>
 5dc:	43630065 	cmnmi	r3, #101	; 0x65
 5e0:	54647261 	strplbt	r7, [r4], #-609
 5e4:	00657079 	rsbeq	r7, r5, r9, ror r0
 5e8:	696e6966 	stmvsdb	lr!, {r1, r2, r5, r6, r8, fp, sp, lr}^
 5ec:	00306873 	eoreqs	r6, r0, r3, ror r8
 5f0:	725f6473 	subvcs	r6, pc, #1929379840	; 0x73000000
 5f4:	5f646165 	swipl	0x00646165
 5f8:	74636573 	strvcbt	r6, [r3], #-1395
 5fc:	7300726f 	tstvc	r0, #-268435450	; 0xf0000006
 600:	75746174 	ldrvcb	r6, [r4, #-372]!
 604:	65730073 	ldrvsb	r0, [r3, #-115]!
 608:	7463656c 	strvcbt	r6, [r3], #-1388
 60c:	5f726f5f 	swipl	0x00726f5f
 610:	65736564 	ldrvsb	r6, [r3, #-1380]!
 614:	7463656c 	strvcbt	r6, [r3], #-1388
 618:	69647300 	stmvsdb	r4!, {r8, r9, ip, sp, lr}^
 61c:	65707954 	ldrvsb	r7, [r0, #-2388]!
 620:	5f647300 	swipl	0x00647300
 624:	6f666e69 	swivs	0x00666e69
 628:	49445300 	stmmidb	r4, {r8, r9, ip, lr}^
 62c:	6568435f 	strvsb	r4, [r8, #-863]!
 630:	435f6b63 	cmpmi	pc, #101376	; 0x18c00
 634:	455f444d 	ldrmib	r4, [pc, #-1101]	; 1ef <DISABLE_IRQ+0x16f>
 638:	6300646e 	tstvs	r0, #1845493760	; 0x6e000000
 63c:	57737542 	ldrplb	r7, [r3, -r2, asr #10]!
 640:	68746469 	ldmvsda	r4!, {r0, r3, r5, r6, sl, sp, lr}^
 644:	4d434100 	stfmie	f4, [r3]
 648:	6c003644 	stcvs	6, cr3, [r0], {68}
 64c:	64726143 	ldrvsbt	r6, [r2], #-323
 650:	00445343 	subeq	r5, r4, r3, asr #6
 654:	6365536c 	cmnvs	r5, #-1342177279	; 0xb0000001
 658:	53726f74 	cmnpl	r2, #464	; 0x1d0
 65c:	00657a69 	rsbeq	r7, r5, r9, ror #20
 660:	31444d43 	cmpcc	r4, r3, asr #26
 664:	4d430032 	stcmil	0, cr0, [r3, #-200]
 668:	00333144 	eoreqs	r3, r3, r4, asr #2
 66c:	72614369 	rsbvc	r4, r1, #-1543503871	; 0xa4000001
 670:	70795464 	rsbvcs	r5, r9, r4, ror #8
 674:	4d430065 	stcmil	0, cr0, [r3, #-404]
 678:	00373144 	eoreqs	r3, r7, r4, asr #2
 67c:	31444d43 	cmpcc	r4, r3, asr #26
 680:	64730038 	ldrvsbt	r0, [r3], #-56
 684:	41435269 	cmpmi	r3, r9, ror #4
 688:	65526300 	ldrvsb	r6, [r2, #-768]
 68c:	6e727574 	mrcvs	5, 3, r7, cr2, cr4, {3}
 690:	2e647300 	cdpcs	3, 6, cr7, cr4, cr0, {0}
 694:	44530063 	ldrmib	r0, [r3], #-99
 698:	44535f49 	ldrmib	r5, [r3], #-3913
 69c:	52434f5f 	subpl	r4, r3, #380	; 0x17c
 6a0:	69647300 	stmvsdb	r4!, {r8, r9, ip, sp, lr}^
 6a4:	7365745f 	cmnvc	r5, #1593835520	; 0x5f000000
 6a8:	4d430074 	stcmil	0, cr0, [r3, #-464]
 6ac:	00353544 	eoreqs	r3, r5, r4, asr #10
 6b0:	646e6573 	strvsbt	r6, [lr], #-1395
 6b4:	6675625f 	undefined
 6b8:	65536300 	ldrvsb	r6, [r3, #-768]
 6bc:	7365446c 	cmnvc	r5, #1811939328	; 0x6c000000
 6c0:	72006c65 	andvc	r6, r0, #25856	; 0x6500
 6c4:	5f766365 	swipl	0x00766365
 6c8:	00667562 	rsbeq	r7, r6, r2, ror #10
 6cc:	72614369 	rsbvc	r4, r1, #-1543503871	; 0xa4000001
 6d0:	41435264 	cmpmi	r3, r4, ror #4
 6d4:	444d4300 	strmib	r4, [sp], #-768
 6d8:	4d430030 	stcmil	0, cr0, [r3, #-192]
 6dc:	43003144 	tstmi	r0, #17	; 0x11
 6e0:	0032444d 	eoreqs	r4, r2, sp, asr #8
 6e4:	33444d43 	cmpcc	r4, #4288	; 0x10c0
 6e8:	5f656200 	swipl	0x00656200
 6ec:	70736572 	rsbvcs	r6, r3, r2, ror r5
 6f0:	444d4300 	strmib	r4, [sp], #-768
 6f4:	4d430037 	stcmil	0, cr0, [r3, #-220]
 6f8:	53003944 	tstpl	r0, #1114112	; 0x110000
 6fc:	4d5f4944 	ldcmil	9, cr4, [pc, #-272]
 700:	4f5f434d 	swimi	0x005f434d
 704:	53005243 	tstpl	r0, #805306372	; 0x30000004
 708:	72614344 	rsbvc	r4, r1, #268435457	; 0x10000001
 70c:	4d430064 	stcmil	0, cr0, [r3, #-400]
 710:	00353244 	eoreqs	r3, r5, r4, asr #4
 714:	72614363 	rsbvc	r4, r1, #-1946157055	; 0x8c000001
 718:	44494364 	strmib	r4, [r9], #-868
 71c:	5f647300 	swipl	0x00647300
 720:	74697277 	strvcbt	r7, [r9], #-631
 724:	65735f65 	ldrvsb	r5, [r3, #-3941]!
 728:	726f7463 	rsbvc	r7, pc, #1660944384	; 0x63000000
 72c:	6f536300 	swivs	0x00536300
 730:	53004472 	tstpl	r0, #1912602624	; 0x72000000
 734:	625f7465 	subvss	r7, pc, #1694498816	; 0x65000000
 738:	575f7375 	undefined
 73c:	68746469 	ldmvsda	r4!, {r0, r3, r5, r6, sl, sp, lr}^
 740:	4d434100 	stfmie	f4, [r3]
 744:	00313444 	eoreqs	r3, r1, r4, asr #8
 748:	636f6c62 	cmnvs	pc, #25088	; 0x6200
 74c:	756e5f6b 	strvcb	r5, [lr, #-3947]!
 750:	4d43006d 	stcmil	0, cr0, [r3, #-436]
 754:	00343244 	eoreqs	r3, r4, r4, asr #4
 758:	4453436c 	ldrmib	r4, [r3], #-876
 75c:	6c696600 	stcvsl	6, cr6, [r9]
 760:	65645f65 	strvsb	r5, [r4, #-3941]!
 764:	0079616c 	rsbeqs	r6, r9, ip, ror #2
 768:	44494363 	strmib	r4, [r9], #-867
 76c:	666e495f 	undefined
 770:	7463006f 	strvcbt	r0, [r3], #-111
 774:	2e657079 	mcrcs	0, 3, r7, cr5, cr9, {3}
 778:	6d2f0063 	stcvs	0, cr0, [pc, #-396]!
 77c:	682f746e 	stmvsda	pc!, {r1, r2, r3, r5, r6, sl, ip, sp, lr}
 780:	2f736667 	swics	0x00736667
 784:	6d797341 	ldcvsl	3, cr7, [r9, #-260]!
 788:	746f7470 	strvcbt	r7, [pc], #1136	; 790 <DISABLE_IRQ+0x710>
 78c:	696c2f65 	stmvsdb	ip!, {r0, r2, r5, r6, r8, r9, sl, fp, sp}^
 790:	49440062 	stmmidb	r4, {r1, r5, r6}^
 794:	6f696e75 	swivs	0x00696e75
 798:	4944006e 	stmmidb	r4, {r1, r2, r3, r5, r6}^
 79c:	75727473 	ldrvcb	r7, [r2, #-1139]!
 7a0:	68007463 	stmvsda	r0, {r0, r1, r5, r6, sl, ip, sp, lr}
 7a4:	00686769 	rsbeq	r6, r8, r9, ror #14
 7a8:	676e6f6c 	strvsb	r6, [lr, -ip, ror #30]!
 7ac:	6e6f6c20 	cdpvs	12, 6, cr6, cr15, cr0, {1}
 7b0:	6e752067 	cdpvs	0, 7, cr2, cr5, cr7, {3}
 7b4:	6e676973 	mcrvs	9, 3, r6, cr7, cr3, {3}
 7b8:	69206465 	stmvsdb	r0!, {r0, r2, r5, r6, sl, sp, lr}
 7bc:	5f00746e 	swipl	0x0000746e
 7c0:	0032745f 	eoreqs	r7, r2, pc, asr r4
 7c4:	676e6f6c 	strvsb	r6, [lr, -ip, ror #30]!
 7c8:	6e6f6c20 	cdpvs	12, 6, cr6, cr15, cr0, {1}
 7cc:	6e692067 	cdpvs	0, 6, cr2, cr9, cr7, {3}
 7d0:	53550074 	cmppl	r5, #116	; 0x74
 7d4:	70797449 	rsbvcs	r7, r9, r9, asr #8
 7d8:	5f5f0065 	swipl	0x005f0065
 7dc:	5f003074 	swipl	0x00003074
 7e0:	0031745f 	eoreqs	r7, r1, pc, asr r4
 7e4:	79744944 	ldmvcdb	r4!, {r2, r6, r8, fp, lr}^
 7e8:	6d006570 	cfstr32vs	mvfx6, [r0, #-448]
 7ec:	69646c75 	stmvsdb	r4!, {r0, r2, r4, r5, r6, sl, fp, sp, lr}^
 7f0:	00632e33 	rsbeq	r2, r3, r3, lsr lr
 7f4:	756d5f5f 	strvcb	r5, [sp, #-3935]!
 7f8:	3369646c 	cmncc	r9, #1811939328	; 0x6c000000
 7fc:	5f617600 	swipl	0x00617600
 800:	7473696c 	ldrvcbt	r6, [r3], #-2412
 804:	72747300 	rsbvcs	r7, r4, #0	; 0x0
 808:	00706573 	rsbeqs	r6, r0, r3, ror r5
 80c:	6d6d656d 	cfstr64vs	mvdx6, [sp, #-436]!
 810:	0065766f 	rsbeq	r7, r5, pc, ror #12
 814:	65636361 	strvsb	r6, [r3, #-865]!
 818:	73007470 	tstvc	r0, #1879048192	; 0x70000000
 81c:	5f657a69 	swipl	0x00657a69
 820:	74730074 	ldrvcbt	r0, [r3], #-116
 824:	72686372 	rsbvc	r6, r8, #-939524095	; 0xc8000001
 828:	6d656d00 	stcvsl	13, cr6, [r5]
 82c:	00706d63 	rsbeqs	r6, r0, r3, ror #26
 830:	73727473 	cmnvc	r2, #1929379840	; 0x73000000
 834:	6d007274 	sfmvs	f7, 4, [r0, #-464]
 838:	68636d65 	stmvsda	r3!, {r0, r2, r5, r6, r8, sl, fp, sp, lr}^
 83c:	656d0072 	strvsb	r0, [sp, #-114]!
 840:	6163736d 	cmnvs	r3, sp, ror #6
 844:	7473006e 	ldrvcbt	r0, [r3], #-110
 848:	676e6972 	undefined
 84c:	5f00632e 	swipl	0x0000632e
 850:	6c6f745f 	cfstrdvs	mvd7, [pc], #-380
 854:	7265776f 	rsbvc	r7, r5, #29097984	; 0x1bc0000
 858:	5f5f5f00 	swipl	0x005f5f00
 85c:	74727473 	ldrvcbt	r7, [r2], #-1139
 860:	62006b6f 	andvs	r6, r0, #113664	; 0x1bc00
 864:	79706f63 	ldmvcdb	r0!, {r0, r1, r5, r6, r8, r9, sl, fp, sp, lr}^
 868:	72747300 	rsbvcs	r7, r4, #0	; 0x0
 86c:	00797063 	rsbeqs	r7, r9, r3, rrx
 870:	63727473 	cmnvs	r2, #1929379840	; 0x73000000
 874:	73007461 	tstvc	r0, #1627389952	; 0x61000000
 878:	636e7274 	cmnvs	lr, #1073741831	; 0x40000007
 87c:	73007970 	tstvc	r0, #1835008	; 0x1c0000
 880:	6d546372 	ldcvsl	3, cr6, [r4, #-456]
 884:	74730070 	ldrvcbt	r0, [r3], #-112
 888:	72627072 	rsbvc	r7, r2, #114	; 0x72
 88c:	7473006b 	ldrvcbt	r0, [r3], #-107
 890:	61636e72 	cmnvs	r3, r2, ror lr
 894:	65730074 	ldrvsb	r0, [r3, #-116]!
 898:	7300646e 	tstvc	r0, #1845493760	; 0x6e000000
 89c:	6c6e7274 	sfmvs	f7, 2, [lr], #-464
 8a0:	64006e65 	strvs	r6, [r0], #-3685
 8a4:	54747365 	ldrplbt	r7, [r4], #-869
 8a8:	7300706d 	tstvc	r0, #109	; 0x6d
 8ac:	69676562 	stmvsdb	r7!, {r1, r5, r6, r8, sl, sp, lr}^
 8b0:	7473006e 	ldrvcbt	r0, [r3], #-110
 8b4:	6e707372 	mrcvs	3, 3, r7, cr0, cr2, {3}
 8b8:	72747300 	rsbvcs	r7, r4, #0	; 0x0
 8bc:	6d63696e 	stcvsl	9, cr6, [r3, #-440]!
 8c0:	5f5f0070 	swipl	0x005f0070
 8c4:	00736572 	rsbeqs	r6, r3, r2, ror r5
 8c8:	6e727473 	mrcvs	4, 3, r7, cr2, cr3, {3}
 8cc:	00706d63 	rsbeqs	r6, r0, r3, ror #26
 8d0:	72727473 	rsbvcs	r7, r2, #1929379840	; 0x73000000
 8d4:	00726863 	rsbeqs	r6, r2, r3, ror #16
 8d8:	706e7376 	rsbvc	r7, lr, r6, ror r3
 8dc:	746e6972 	strvcbt	r6, [lr], #-2418
 8e0:	69730066 	ldmvsdb	r3!, {r1, r2, r5, r6}^
 8e4:	656c706d 	strvsb	r7, [ip, #-109]!
 8e8:	7274735f 	rsbvcs	r7, r4, #2080374785	; 0x7c000001
 8ec:	6c756f74 	ldcvsl	15, cr6, [r5], #-464
 8f0:	72616c00 	rsbvc	r6, r1, #0	; 0x0
 8f4:	645f6567 	ldrvsb	r6, [pc], #1383	; 8fc <DISABLE_IRQ+0x87c>
 8f8:	74696769 	strvcbt	r6, [r9], #-1897
 8fc:	61760073 	cmnvs	r6, r3, ror r0
 900:	0065756c 	rsbeq	r7, r5, ip, ror #10
 904:	706d6973 	rsbvc	r6, sp, r3, ror r9
 908:	735f656c 	cmpvc	pc, #452984832	; 0x1b000000
 90c:	6f747274 	swivs	0x00747274
 910:	6b73006c 	blvs	1cc0ac8 <DISABLE_IRQ+0x1cc0a48>
 914:	615f7069 	cmpvs	pc, r9, rrx
 918:	00696f74 	rsbeq	r6, r9, r4, ror pc
 91c:	69676964 	stmvsdb	r7!, {r2, r5, r6, r8, fp, sp, lr}^
 920:	68730074 	ldmvsda	r3!, {r2, r4, r5, r6}^
 924:	2074726f 	rsbcss	r7, r4, pc, ror #4
 928:	00746e69 	rsbeqs	r6, r4, r9, ror #28
 92c:	6e637376 	mcrvs	3, 3, r7, cr3, cr6, {3}
 930:	6e697270 	mcrvs	2, 3, r7, cr9, cr0, {3}
 934:	5f006674 	swipl	0x00006674
 938:	7361625f 	cmnvc	r1, #-268435451	; 0xf0000005
 93c:	5f5f0065 	swipl	0x005f0065
 940:	70756f74 	rsbvcs	r6, r5, r4, ror pc
 944:	00726570 	rsbeqs	r6, r2, r0, ror r5
 948:	6e726177 	mrcvs	1, 3, r6, cr2, cr7, {3}
 94c:	6d697300 	stcvsl	3, cr7, [r9]
 950:	5f656c70 	swipl	0x00656c70
 954:	74727473 	ldrvcbt	r7, [r2], #-1139
 958:	6c6c756f 	cfstr64vs	mvdx7, [ip], #-444
 95c:	6d697300 	stcvsl	3, cr7, [r9]
 960:	5f656c70 	swipl	0x00656c70
 964:	74727473 	ldrvcbt	r7, [r2], #-1139
 968:	006c6c6f 	rsbeq	r6, ip, pc, ror #24
 96c:	63737376 	cmnvs	r3, #-671088639	; 0xd8000001
 970:	00666e61 	rsbeq	r6, r6, r1, ror #28
 974:	70646e65 	rsbvc	r6, r4, r5, ror #28
 978:	616d7300 	cmnvs	sp, r0, lsl #6
 97c:	645f6c6c 	ldrvsb	r6, [pc], #3180	; 984 <DISABLE_IRQ+0x904>
 980:	74696769 	strvcbt	r6, [r9], #-1897
 984:	75710073 	ldrvcb	r0, [r1, #-115]!
 988:	66696c61 	strvsbt	r6, [r9], -r1, ror #24
 98c:	00726569 	rsbeqs	r6, r2, r9, ror #10
 990:	75736572 	ldrvcb	r6, [r3, #-1394]!
 994:	7600746c 	strvc	r7, [r0], -ip, ror #8
 998:	69727073 	ldmvsdb	r2!, {r0, r1, r4, r5, r6, ip, sp, lr}^
 99c:	2e66746e 	cdpcs	4, 6, cr7, cr6, cr14, {3}
 9a0:	65720063 	ldrvsb	r0, [r2, #-99]!
 9a4:	74616570 	strvcbt	r6, [r1], #-1392
 9a8:	6d756e00 	ldcvsl	14, cr6, [r5]
 9ac:	00726562 	rsbeqs	r6, r2, r2, ror #10
 9b0:	63657270 	cmnvs	r5, #7	; 0x7
 9b4:	6f697369 	swivs	0x00697369
 9b8:	6966006e 	stmvsdb	r6!, {r1, r2, r3, r5, r6}^
 9bc:	5f646c65 	swipl	0x00646c65
 9c0:	74646977 	strvcbt	r6, [r4], #-2423
 9c4:	5f5f0068 	swipl	0x005f0068
 9c8:	006d6572 	rsbeq	r6, sp, r2, ror r5
 9cc:	735f7369 	cmpvc	pc, #-1543503871	; 0xa4000001
 9d0:	006e6769 	rsbeq	r6, lr, r9, ror #14
 9d4:	72707376 	rsbvcs	r7, r0, #-671088639	; 0xd8000001
 9d8:	66746e69 	ldrvsbt	r6, [r4], -r9, ror #28
	...
Disassembly of section .comment:

00000000 <.comment>:
   0:	43434700 	cmpmi	r3, #0	; 0x0
   4:	4728203a 	undefined
   8:	2029554e 	eorcs	r5, r9, lr, asr #10
   c:	2e342e33 	mrccs	14, 1, r2, cr4, cr3, {1}
  10:	47000035 	smladxmi	r0, r5, r0, r0
  14:	203a4343 	eorcss	r4, sl, r3, asr #6
  18:	554e4728 	strplb	r4, [lr, #-1832]
  1c:	2e332029 	cdpcs	0, 3, cr2, cr3, cr9, {1}
  20:	00352e34 	eoreqs	r2, r5, r4, lsr lr
  24:	43434700 	cmpmi	r3, #0	; 0x0
  28:	4728203a 	undefined
  2c:	2029554e 	eorcs	r5, r9, lr, asr #10
  30:	2e342e33 	mrccs	14, 1, r2, cr4, cr3, {1}
  34:	47000035 	smladxmi	r0, r5, r0, r0
  38:	203a4343 	eorcss	r4, sl, r3, asr #6
  3c:	554e4728 	strplb	r4, [lr, #-1832]
  40:	2e332029 	cdpcs	0, 3, cr2, cr3, cr9, {1}
  44:	00352e34 	eoreqs	r2, r5, r4, lsr lr
  48:	43434700 	cmpmi	r3, #0	; 0x0
  4c:	4728203a 	undefined
  50:	2029554e 	eorcs	r5, r9, lr, asr #10
  54:	2e342e33 	mrccs	14, 1, r2, cr4, cr3, {1}
  58:	47000035 	smladxmi	r0, r5, r0, r0
  5c:	203a4343 	eorcss	r4, sl, r3, asr #6
  60:	554e4728 	strplb	r4, [lr, #-1832]
  64:	2e332029 	cdpcs	0, 3, cr2, cr3, cr9, {1}
  68:	00352e34 	eoreqs	r2, r5, r4, lsr lr
  6c:	43434700 	cmpmi	r3, #0	; 0x0
  70:	4728203a 	undefined
  74:	2029554e 	eorcs	r5, r9, lr, asr #10
  78:	2e342e33 	mrccs	14, 1, r2, cr4, cr3, {1}
  7c:	47000035 	smladxmi	r0, r5, r0, r0
  80:	203a4343 	eorcss	r4, sl, r3, asr #6
  84:	554e4728 	strplb	r4, [lr, #-1832]
  88:	2e332029 	cdpcs	0, 3, cr2, cr3, cr9, {1}
  8c:	00352e34 	eoreqs	r2, r5, r4, lsr lr
  90:	43434700 	cmpmi	r3, #0	; 0x0
  94:	4728203a 	undefined
  98:	2029554e 	eorcs	r5, r9, lr, asr #10
  9c:	2e342e33 	mrccs	14, 1, r2, cr4, cr3, {1}
  a0:	47000035 	smladxmi	r0, r5, r0, r0
  a4:	203a4343 	eorcss	r4, sl, r3, asr #6
  a8:	554e4728 	strplb	r4, [lr, #-1832]
  ac:	2e332029 	cdpcs	0, 3, cr2, cr3, cr9, {1}
  b0:	00352e34 	eoreqs	r2, r5, r4, lsr lr
  b4:	43434700 	cmpmi	r3, #0	; 0x0
  b8:	4728203a 	undefined
  bc:	2029554e 	eorcs	r5, r9, lr, asr #10
  c0:	2e342e33 	mrccs	14, 1, r2, cr4, cr3, {1}
  c4:	47000035 	smladxmi	r0, r5, r0, r0
  c8:	203a4343 	eorcss	r4, sl, r3, asr #6
  cc:	554e4728 	strplb	r4, [lr, #-1832]
  d0:	2e332029 	cdpcs	0, 3, cr2, cr3, cr9, {1}
  d4:	00352e34 	eoreqs	r2, r5, r4, lsr lr
  d8:	43434700 	cmpmi	r3, #0	; 0x0
  dc:	4728203a 	undefined
  e0:	2029554e 	eorcs	r5, r9, lr, asr #10
  e4:	2e342e33 	mrccs	14, 1, r2, cr4, cr3, {1}
  e8:	47000035 	smladxmi	r0, r5, r0, r0
  ec:	203a4343 	eorcss	r4, sl, r3, asr #6
  f0:	554e4728 	strplb	r4, [lr, #-1832]
  f4:	2e332029 	cdpcs	0, 3, cr2, cr3, cr9, {1}
  f8:	00352e34 	eoreqs	r2, r5, r4, lsr lr
  fc:	43434700 	cmpmi	r3, #0	; 0x0
 100:	4728203a 	undefined
 104:	2029554e 	eorcs	r5, r9, lr, asr #10
 108:	2e342e33 	mrccs	14, 1, r2, cr4, cr3, {1}
 10c:	47000035 	smladxmi	r0, r5, r0, r0
 110:	203a4343 	eorcss	r4, sl, r3, asr #6
 114:	554e4728 	strplb	r4, [lr, #-1832]
 118:	2e332029 	cdpcs	0, 3, cr2, cr3, cr9, {1}
 11c:	00352e34 	eoreqs	r2, r5, r4, lsr lr
Disassembly of section .debug_ranges:

00000000 <.debug_ranges>:
   0:	00000004 	andeq	r0, r0, r4
   4:	00000008 	andeq	r0, r0, r8
   8:	00000018 	andeq	r0, r0, r8, lsl r0
   c:	00000020 	andeq	r0, r0, r0, lsr #32
	...
  18:	00000310 	andeq	r0, r0, r0, lsl r3
  1c:	00000318 	andeq	r0, r0, r8, lsl r3
  20:	00000320 	andeq	r0, r0, r0, lsr #6
  24:	00000338 	andeq	r0, r0, r8, lsr r3
	...
  30:	00000354 	andeq	r0, r0, r4, asr r3
  34:	00000368 	andeq	r0, r0, r8, ror #6
  38:	00000374 	andeq	r0, r0, r4, ror r3
  3c:	00000378 	andeq	r0, r0, r8, ror r3
	...
  48:	00000060 	andeq	r0, r0, r0, rrx
  4c:	00000064 	andeq	r0, r0, r4, rrx
  50:	00000070 	andeq	r0, r0, r0, ror r0
  54:	00000074 	andeq	r0, r0, r4, ror r0
  58:	00000068 	andeq	r0, r0, r8, rrx
  5c:	0000006c 	andeq	r0, r0, ip, rrx
	...
  68:	00000064 	andeq	r0, r0, r4, rrx
  6c:	00000068 	andeq	r0, r0, r8, rrx
  70:	0000006c 	andeq	r0, r0, ip, rrx
  74:	00000070 	andeq	r0, r0, r0, ror r0
	...
  80:	000000b4 	streqh	r0, [r0], -r4
  84:	000000bc 	streqh	r0, [r0], -ip
  88:	000000f8 	streqd	r0, [r0], -r8
  8c:	000000fc 	streqd	r0, [r0], -ip
  90:	000000f0 	streqd	r0, [r0], -r0
  94:	000000f4 	streqd	r0, [r0], -r4
  98:	000000c0 	andeq	r0, r0, r0, asr #1
  9c:	000000e8 	andeq	r0, r0, r8, ror #1
	...
  a8:	000003ac 	andeq	r0, r0, ip, lsr #7
  ac:	000003c0 	andeq	r0, r0, r0, asr #7
  b0:	000003d8 	ldreqd	r0, [r0], -r8
  b4:	000003dc 	ldreqd	r0, [r0], -ip
	...
  c0:	000005d8 	ldreqd	r0, [r0], -r8
  c4:	000005dc 	ldreqd	r0, [r0], -ip
  c8:	000005f8 	streqd	r0, [r0], -r8
  cc:	000005fc 	streqd	r0, [r0], -ip
  d0:	000005ec 	andeq	r0, r0, ip, ror #11
  d4:	000005f4 	streqd	r0, [r0], -r4
	...
  e0:	00000f6c 	andeq	r0, r0, ip, ror #30
  e4:	00000f70 	andeq	r0, r0, r0, ror pc
  e8:	00001214 	andeq	r1, r0, r4, lsl r2
  ec:	00001228 	andeq	r1, r0, r8, lsr #4
	...
  f8:	00001178 	andeq	r1, r0, r8, ror r1
  fc:	000011ac 	andeq	r1, r0, ip, lsr #3
 100:	000012d0 	ldreqd	r1, [r0], -r0
 104:	00001334 	andeq	r1, r0, r4, lsr r3
 108:	000011e0 	andeq	r1, r0, r0, ror #3
 10c:	000011e8 	andeq	r1, r0, r8, ror #3
	...
 118:	00001240 	andeq	r1, r0, r0, asr #4
 11c:	00001250 	andeq	r1, r0, r0, asr r2
 120:	00001360 	andeq	r1, r0, r0, ror #6
 124:	00001374 	andeq	r1, r0, r4, ror r3
 128:	00001344 	andeq	r1, r0, r4, asr #6
 12c:	0000134c 	andeq	r1, r0, ip, asr #6
 130:	00001288 	andeq	r1, r0, r8, lsl #5
 134:	00001290 	muleq	r0, r0, r2
	...
 140:	00001268 	andeq	r1, r0, r8, ror #4
 144:	00001270 	andeq	r1, r0, r0, ror r2
 148:	0000134c 	andeq	r1, r0, ip, asr #6
 14c:	00001360 	andeq	r1, r0, r0, ror #6
	...
