
task3.elf:     file format elf32-littlearm

Disassembly of section .text:

32001000 <fun_task3>:
32001000:	e92d4030 	stmdb	sp!, {r4, r5, lr}
32001004:	e3a05456 	mov	r5, #1442840576	; 0x56000000
32001008:	e24dd00c 	sub	sp, sp, #12	; 0xc
3200100c:	e3a020be 	mov	r2, #190	; 0xbe
32001010:	e3a00096 	mov	r0, #150	; 0x96
32001014:	e3e0c040 	mvn	ip, #64	; 0x40
32001018:	e1a03002 	mov	r3, r2
3200101c:	e1a01000 	mov	r1, r0
32001020:	e585c054 	str	ip, [r5, #84]
32001024:	e3a048ff 	mov	r4, #16711680	; 0xff0000
32001028:	e58d4000 	str	r4, [sp]
3200102c:	eb0000c2 	bl	3200133c <draw_rect>
32001030:	e3a02000 	mov	r2, #0	; 0x0
32001034:	e58d2008 	str	r2, [sp, #8]
32001038:	e59d3008 	ldr	r3, [sp, #8]
3200103c:	e3a01fc7 	mov	r1, #796	; 0x31c
32001040:	e2811003 	add	r1, r1, #3	; 0x3
32001044:	e1530001 	cmp	r3, r1
32001048:	8a000013 	bhi	3200109c <__section_start+0x9c>
3200104c:	e1a0c002 	mov	ip, r2
32001050:	e1a00001 	mov	r0, r1
32001054:	e58dc004 	str	ip, [sp, #4]
32001058:	e59d3004 	ldr	r3, [sp, #4]
3200105c:	e1530001 	cmp	r3, r1
32001060:	8a000005 	bhi	3200107c <__section_start+0x7c>
32001064:	e59d3004 	ldr	r3, [sp, #4]
32001068:	e2833001 	add	r3, r3, #1	; 0x1
3200106c:	e58d3004 	str	r3, [sp, #4]
32001070:	e59d2004 	ldr	r2, [sp, #4]
32001074:	e1520000 	cmp	r2, r0
32001078:	9afffff9 	bls	32001064 <__section_start+0x64>
3200107c:	e59d3008 	ldr	r3, [sp, #8]
32001080:	e2833001 	add	r3, r3, #1	; 0x1
32001084:	e58d3008 	str	r3, [sp, #8]
32001088:	e59d2008 	ldr	r2, [sp, #8]
3200108c:	e3a01fc7 	mov	r1, #796	; 0x31c
32001090:	e2811003 	add	r1, r1, #3	; 0x3
32001094:	e1520001 	cmp	r2, r1
32001098:	9affffed 	bls	32001054 <__section_start+0x54>
3200109c:	e3a020be 	mov	r2, #190	; 0xbe
320010a0:	e3a00096 	mov	r0, #150	; 0x96
320010a4:	e3a0c0ff 	mov	ip, #255	; 0xff
320010a8:	e1a03002 	mov	r3, r2
320010ac:	e1a01000 	mov	r1, r0
320010b0:	e585c054 	str	ip, [r5, #84]
320010b4:	e3e044ff 	mvn	r4, #-16777216	; 0xff000000
320010b8:	e58d4000 	str	r4, [sp]
320010bc:	eb00009e 	bl	3200133c <draw_rect>
320010c0:	e3a02000 	mov	r2, #0	; 0x0
320010c4:	e58d2008 	str	r2, [sp, #8]
320010c8:	e59d3008 	ldr	r3, [sp, #8]
320010cc:	e3a01fc7 	mov	r1, #796	; 0x31c
320010d0:	e2811003 	add	r1, r1, #3	; 0x3
320010d4:	e1530001 	cmp	r3, r1
320010d8:	8affffcb 	bhi	3200100c <__section_start+0xc>
320010dc:	e1a0c002 	mov	ip, r2
320010e0:	e1a00001 	mov	r0, r1
320010e4:	e58dc004 	str	ip, [sp, #4]
320010e8:	e59d3004 	ldr	r3, [sp, #4]
320010ec:	e1530001 	cmp	r3, r1
320010f0:	8a000005 	bhi	3200110c <__section_start+0x10c>
320010f4:	e59d3004 	ldr	r3, [sp, #4]
320010f8:	e2833001 	add	r3, r3, #1	; 0x1
320010fc:	e58d3004 	str	r3, [sp, #4]
32001100:	e59d2004 	ldr	r2, [sp, #4]
32001104:	e1520000 	cmp	r2, r0
32001108:	9afffff9 	bls	320010f4 <__section_start+0xf4>
3200110c:	e59d3008 	ldr	r3, [sp, #8]
32001110:	e2833001 	add	r3, r3, #1	; 0x1
32001114:	e58d3008 	str	r3, [sp, #8]
32001118:	e59d2008 	ldr	r2, [sp, #8]
3200111c:	e3a01fc7 	mov	r1, #796	; 0x31c
32001120:	e2811003 	add	r1, r1, #3	; 0x3
32001124:	e1520001 	cmp	r2, r1
32001128:	9affffed 	bls	320010e4 <__section_start+0xe4>
3200112c:	eaffffb6 	b	3200100c <__section_start+0xc>

32001130 <lcd_port_init>:
32001130:	e3a02caa 	mov	r2, #43520	; 0xaa00
32001134:	e28220aa 	add	r2, r2, #170	; 0xaa
32001138:	e3a01456 	mov	r1, #1442840576	; 0x56000000
3200113c:	e1822802 	orr	r2, r2, r2, lsl #16
32001140:	e3e03000 	mvn	r3, #0	; 0x0
32001144:	e5813028 	str	r3, [r1, #40]
32001148:	e5812020 	str	r2, [r1, #32]
3200114c:	e5813038 	str	r3, [r1, #56]
32001150:	e5812030 	str	r2, [r1, #48]
32001154:	e5913010 	ldr	r3, [r1, #16]
32001158:	e3c33003 	bic	r3, r3, #3	; 0x3
3200115c:	e5813010 	str	r3, [r1, #16]
32001160:	e5912010 	ldr	r2, [r1, #16]
32001164:	e3822001 	orr	r2, r2, #1	; 0x1
32001168:	e5812010 	str	r2, [r1, #16]
3200116c:	e5913014 	ldr	r3, [r1, #20]
32001170:	e3c33001 	bic	r3, r3, #1	; 0x1
32001174:	e5813014 	str	r3, [r1, #20]
32001178:	e1a0f00e 	mov	pc, lr

3200117c <lcd_controler_init>:
3200117c:	e92d4010 	stmdb	sp!, {r4, lr}
32001180:	e3a02505 	mov	r2, #20971520	; 0x1400000
32001184:	e3a01a9d 	mov	r1, #643072	; 0x9d000
32001188:	e282290f 	add	r2, r2, #245760	; 0x3c000
3200118c:	e3a00e47 	mov	r0, #1136	; 0x470
32001190:	e3a0344d 	mov	r3, #1291845632	; 0x4d000000
32001194:	e2822049 	add	r2, r2, #73	; 0x49
32001198:	e2811c0f 	add	r1, r1, #3840	; 0xf00
3200119c:	e2800008 	add	r0, r0, #8	; 0x8
320011a0:	e2811001 	add	r1, r1, #1	; 0x1
320011a4:	e3a0cc0b 	mov	ip, #2816	; 0xb00
320011a8:	e5830000 	str	r0, [r3]
320011ac:	e3a0e306 	mov	lr, #402653184	; 0x18000000
320011b0:	e3a04b7f 	mov	r4, #130048	; 0x1fc00
320011b4:	e28cc002 	add	ip, ip, #2	; 0x2
320011b8:	e28ee602 	add	lr, lr, #2097152	; 0x200000
320011bc:	e5832004 	str	r2, [r3, #4]
320011c0:	e3a02028 	mov	r2, #40	; 0x28
320011c4:	e2844c02 	add	r4, r4, #512	; 0x200
320011c8:	e5831008 	str	r1, [r3, #8]
320011cc:	e3a01000 	mov	r1, #0	; 0x0
320011d0:	e583200c 	str	r2, [r3, #12]
320011d4:	e2822f6e 	add	r2, r2, #440	; 0x1b8
320011d8:	e583c010 	str	ip, [r3, #16]
320011dc:	e583e014 	str	lr, [r3, #20]
320011e0:	e5834018 	str	r4, [r3, #24]
320011e4:	e583201c 	str	r2, [r3, #28]
320011e8:	e5831050 	str	r1, [r3, #80]
320011ec:	e8bd8010 	ldmia	sp!, {r4, pc}

320011f0 <lcd_power_enable>:
320011f0:	e3a01456 	mov	r1, #1442840576	; 0x56000000
320011f4:	e5913060 	ldr	r3, [r1, #96]
320011f8:	e3833c03 	orr	r3, r3, #768	; 0x300
320011fc:	e5813060 	str	r3, [r1, #96]
32001200:	e3a0044d 	mov	r0, #1291845632	; 0x4d000000
32001204:	e5913068 	ldr	r3, [r1, #104]
32001208:	e3833010 	orr	r3, r3, #16	; 0x10
3200120c:	e5813068 	str	r3, [r1, #104]
32001210:	e5902010 	ldr	r2, [r0, #16]
32001214:	e3c22020 	bic	r2, r2, #32	; 0x20
32001218:	e5802010 	str	r2, [r0, #16]
3200121c:	e5903010 	ldr	r3, [r0, #16]
32001220:	e3833008 	orr	r3, r3, #8	; 0x8
32001224:	e5803010 	str	r3, [r0, #16]
32001228:	e1a0f00e 	mov	pc, lr

3200122c <lcd_envid_on>:
3200122c:	e3a0244d 	mov	r2, #1291845632	; 0x4d000000
32001230:	e5923000 	ldr	r3, [r2]
32001234:	e3833001 	orr	r3, r3, #1	; 0x1
32001238:	e5823000 	str	r3, [r2]
3200123c:	e3a01456 	mov	r1, #1442840576	; 0x56000000
32001240:	e5913014 	ldr	r3, [r1, #20]
32001244:	e3833001 	orr	r3, r3, #1	; 0x1
32001248:	e5813014 	str	r3, [r1, #20]
3200124c:	e1a0f00e 	mov	pc, lr

32001250 <lcd_envid_off>:
32001250:	e3a0144d 	mov	r1, #1291845632	; 0x4d000000
32001254:	e5913000 	ldr	r3, [r1]
32001258:	e3c3337f 	bic	r3, r3, #-67108863	; 0xfc000001
3200125c:	e3c337ff 	bic	r3, r3, #66846720	; 0x3fc0000
32001260:	e5813000 	str	r3, [r1]
32001264:	e3a02456 	mov	r2, #1442840576	; 0x56000000
32001268:	e5923014 	ldr	r3, [r2, #20]
3200126c:	e3c33001 	bic	r3, r3, #1	; 0x1
32001270:	e5823014 	str	r3, [r2, #20]
32001274:	e1a0f00e 	mov	pc, lr

32001278 <draw_pixel>:
32001278:	e52de004 	str	lr, [sp, #-4]!
3200127c:	e59f3044 	ldr	r3, [pc, #68]	; 320012c8 <.text+0x2c8>
32001280:	e593c000 	ldr	ip, [r3]
32001284:	e02e019c 	mla	lr, ip, r1, r0
32001288:	e1a032a2 	mov	r3, r2, lsr #5
3200128c:	e1a0c002 	mov	ip, r2
32001290:	e1a01422 	mov	r1, r2, lsr #8
32001294:	e59f2030 	ldr	r2, [pc, #48]	; 320012cc <.text+0x2cc>
32001298:	e2033e7e 	and	r3, r3, #2016	; 0x7e0
3200129c:	e2011b3e 	and	r1, r1, #63488	; 0xf800
320012a0:	e5920000 	ldr	r0, [r2]
320012a4:	e1811003 	orr	r1, r1, r3
320012a8:	e1a03c0c 	mov	r3, ip, lsl #24
320012ac:	e181cda3 	orr	ip, r1, r3, lsr #27
320012b0:	e1a0e08e 	mov	lr, lr, lsl #1
320012b4:	e1a0244c 	mov	r2, ip, asr #8
320012b8:	e08e3000 	add	r3, lr, r0
320012bc:	e7cec000 	strb	ip, [lr, r0]
320012c0:	e5c32001 	strb	r2, [r3, #1]
320012c4:	e49df004 	ldr	pc, [sp], #4
320012c8:	320013b8 	andcc	r1, r0, #-536870910	; 0xe0000002
320012cc:	320013bc 	andcc	r1, r0, #-268435454	; 0xf0000002

320012d0 <clear_screen>:
320012d0:	e92d41f0 	stmdb	sp!, {r4, r5, r6, r7, r8, lr}
320012d4:	e59f8058 	ldr	r8, [pc, #88]	; 32001334 <.text+0x334>
320012d8:	e5983000 	ldr	r3, [r8]
320012dc:	e3a05000 	mov	r5, #0	; 0x0
320012e0:	e1550003 	cmp	r5, r3
320012e4:	e1a06000 	mov	r6, r0
320012e8:	28bd81f0 	ldmcsia	sp!, {r4, r5, r6, r7, r8, pc}
320012ec:	e59f7044 	ldr	r7, [pc, #68]	; 32001338 <.text+0x338>
320012f0:	e5973000 	ldr	r3, [r7]
320012f4:	e3a04000 	mov	r4, #0	; 0x0
320012f8:	e1540003 	cmp	r4, r3
320012fc:	2a000007 	bcs	32001320 <clear_screen+0x50>
32001300:	e1a00004 	mov	r0, r4
32001304:	e1a01005 	mov	r1, r5
32001308:	e1a02006 	mov	r2, r6
3200130c:	ebffffd9 	bl	32001278 <draw_pixel>
32001310:	e2844001 	add	r4, r4, #1	; 0x1
32001314:	e5973000 	ldr	r3, [r7]
32001318:	e1540003 	cmp	r4, r3
3200131c:	3afffff7 	bcc	32001300 <clear_screen+0x30>
32001320:	e5983000 	ldr	r3, [r8]
32001324:	e2855001 	add	r5, r5, #1	; 0x1
32001328:	e1550003 	cmp	r5, r3
3200132c:	3affffef 	bcc	320012f0 <clear_screen+0x20>
32001330:	e8bd81f0 	ldmia	sp!, {r4, r5, r6, r7, r8, pc}
32001334:	320013b4 	andcc	r1, r0, #-805306366	; 0xd0000002
32001338:	320013b8 	andcc	r1, r0, #-536870910	; 0xe0000002

3200133c <draw_rect>:
3200133c:	e92d45f0 	stmdb	sp!, {r4, r5, r6, r7, r8, sl, lr}
32001340:	e1510003 	cmp	r1, r3
32001344:	e1a0a003 	mov	sl, r3
32001348:	e1a05001 	mov	r5, r1
3200134c:	e1a08000 	mov	r8, r0
32001350:	e1a06002 	mov	r6, r2
32001354:	e59d701c 	ldr	r7, [sp, #28]
32001358:	28bd85f0 	ldmcsia	sp!, {r4, r5, r6, r7, r8, sl, pc}
3200135c:	e1a04008 	mov	r4, r8
32001360:	e1540006 	cmp	r4, r6
32001364:	2a000006 	bcs	32001384 <draw_rect+0x48>
32001368:	e1a00004 	mov	r0, r4
3200136c:	e1a01005 	mov	r1, r5
32001370:	e1a02007 	mov	r2, r7
32001374:	e2844001 	add	r4, r4, #1	; 0x1
32001378:	ebffffbe 	bl	32001278 <draw_pixel>
3200137c:	e1540006 	cmp	r4, r6
32001380:	3afffff8 	bcc	32001368 <draw_rect+0x2c>
32001384:	e2855001 	add	r5, r5, #1	; 0x1
32001388:	e155000a 	cmp	r5, sl
3200138c:	3afffff2 	bcc	3200135c <draw_rect+0x20>
32001390:	e8bd85f0 	ldmia	sp!, {r4, r5, r6, r7, r8, sl, pc}

32001394 <lcd_init>:
32001394:	e52de004 	str	lr, [sp, #-4]!
32001398:	ebffff64 	bl	32001130 <lcd_port_init>
3200139c:	ebffff76 	bl	3200117c <lcd_controler_init>
320013a0:	ebffff92 	bl	320011f0 <lcd_power_enable>
320013a4:	e3e004ff 	mvn	r0, #-16777216	; 0xff000000
320013a8:	ebffffc8 	bl	320012d0 <clear_screen>
320013ac:	e49de004 	ldr	lr, [sp], #4
320013b0:	eaffff9d 	b	3200122c <lcd_envid_on>
Disassembly of section .data:

320013b4 <ysize>:
320013b4:	00000110 	andeq	r0, r0, r0, lsl r1

320013b8 <xsize>:
320013b8:	000001e0 	andeq	r0, r0, r0, ror #3

320013bc <fb_base_addr>:
320013bc:	30400000 	subcc	r0, r0, r0
Disassembly of section .debug_abbrev:

00000000 <.debug_abbrev>:
   0:	10011101 	andne	r1, r1, r1, lsl #2
   4:	11011206 	tstne	r1, r6, lsl #4
   8:	130e2501 	tstne	lr, #4194304	; 0x400000
   c:	1b0e030b 	blne	380c40 <__section_start-0x31c803c0>
  10:	0200000e 	andeq	r0, r0, #14	; 0xe
  14:	1301012e 	tstne	r1, #-2147483637	; 0x8000000b
  18:	0e030c3f 	mcreq	12, 0, r0, cr3, cr15, {1}
  1c:	0b3b0b3a 	bleq	ec2d0c <__section_start-0x3113e2f4>
  20:	01110c27 	tsteq	r1, r7, lsr #24
  24:	0a400112 	beq	1000474 <__section_start-0x31000b8c>
  28:	34030000 	strcc	r0, [r3]
  2c:	3a080300 	bcc	200c34 <__section_start-0x31e003cc>
  30:	490b3b0b 	stmmidb	fp, {r0, r1, r3, r8, r9, fp, ip, sp}
  34:	000a0213 	andeq	r0, sl, r3, lsl r2
  38:	00350400 	eoreqs	r0, r5, r0, lsl #8
  3c:	00001349 	andeq	r1, r0, r9, asr #6
  40:	03002405 	tsteq	r0, #83886080	; 0x5000000
  44:	3e0b0b0e 	fmacdcc	d0, d11, d14
  48:	0000000b 	andeq	r0, r0, fp
  4c:	10011101 	andne	r1, r1, r1, lsl #2
  50:	11011206 	tstne	r1, r6, lsl #4
  54:	130e2501 	tstne	lr, #4194304	; 0x400000
  58:	1b0e030b 	blne	380c8c <__section_start-0x31c80374>
  5c:	0200000e 	andeq	r0, r0, #14	; 0xe
  60:	0c3f002e 	ldceq	0, cr0, [pc], #-184
  64:	0b3a0e03 	bleq	e83878 <__section_start-0x3117d788>
  68:	01110b3b 	tsteq	r1, fp, lsr fp
  6c:	0a400112 	beq	10004bc <__section_start-0x31000b44>
  70:	2e030000 	cdpcs	0, 0, cr0, cr3, cr0, {0}
  74:	3f130101 	swicc	0x00130101
  78:	3a0e030c 	bcc	380cb0 <__section_start-0x31c80350>
  7c:	270b3b0b 	strcs	r3, [fp, -fp, lsl #22]
  80:	1201110c 	andne	r1, r1, #3	; 0x3
  84:	000a4001 	andeq	r4, sl, r1
  88:	00050400 	andeq	r0, r5, r0, lsl #8
  8c:	0b3a0803 	bleq	e820a0 <__section_start-0x3117ef60>
  90:	13490b3b 	cmpne	r9, #60416	; 0xec00
  94:	00000a02 	andeq	r0, r0, r2, lsl #20
  98:	03000505 	tsteq	r0, #20971520	; 0x1400000
  9c:	3b0b3a0e 	blcc	2ce8dc <__section_start-0x31d32724>
  a0:	0213490b 	andeqs	r4, r3, #180224	; 0x2c000
  a4:	0600000a 	streq	r0, [r0], -sl
  a8:	08030034 	stmeqda	r3, {r2, r4, r5}
  ac:	0b3b0b3a 	bleq	ec2d9c <__section_start-0x3113e264>
  b0:	0a021349 	beq	84ddc <__section_start-0x31f7c224>
  b4:	34070000 	strcc	r0, [r7]
  b8:	3a0e0300 	bcc	380cc0 <__section_start-0x31c80340>
  bc:	490b3b0b 	stmmidb	fp, {r0, r1, r3, r8, r9, fp, ip, sp}
  c0:	000a0213 	andeq	r0, sl, r3, lsl r2
  c4:	00240800 	eoreq	r0, r4, r0, lsl #16
  c8:	0b0b0e03 	bleq	2c38dc <__section_start-0x31d3d724>
  cc:	00000b3e 	andeq	r0, r0, lr, lsr fp
  d0:	0b000f09 	bleq	3cfc <__section_start-0x31ffd304>
  d4:	0013490b 	andeqs	r4, r3, fp, lsl #18
  d8:	00340a00 	eoreqs	r0, r4, r0, lsl #20
  dc:	0b3a0e03 	bleq	e838f0 <__section_start-0x3117d710>
  e0:	13490b3b 	cmpne	r9, #60416	; 0xec00
  e4:	0a020c3f 	beq	831e8 <__section_start-0x31f7de18>
  e8:	Address 0xe8 is out of bounds.

Disassembly of section .debug_info:

00000000 <.debug_info>:
   0:	0000005e 	andeq	r0, r0, lr, asr r0
   4:	00000002 	andeq	r0, r0, r2
   8:	01040000 	tsteq	r4, r0
   c:	00000000 	andeq	r0, r0, r0
  10:	32001130 	andcc	r1, r0, #12	; 0xc
  14:	32001000 	andcc	r1, r0, #0	; 0x0
  18:	00000014 	andeq	r0, r0, r4, lsl r0
  1c:	00002a01 	andeq	r2, r0, r1, lsl #20
  20:	00000000 	andeq	r0, r0, r0
  24:	00550200 	subeqs	r0, r5, r0, lsl #4
  28:	20010000 	andcs	r0, r1, r0
  2c:	01000000 	tsteq	r0, r0
  30:	10000105 	andne	r0, r0, r5, lsl #2
  34:	11303200 	teqne	r0, r0, lsl #4
  38:	5d013200 	sfmpl	f3, 4, [r1]
  3c:	01006903 	tsteq	r0, r3, lsl #18
  40:	00005506 	andeq	r5, r0, r6, lsl #10
  44:	08910200 	ldmeqia	r1, {r9}
  48:	01006a03 	tsteq	r0, r3, lsl #20
  4c:	00005506 	andeq	r5, r0, r6, lsl #10
  50:	04910200 	ldreq	r0, [r1], #512
  54:	005a0400 	subeqs	r0, sl, r0, lsl #8
  58:	32050000 	andcc	r0, r5, #0	; 0x0
  5c:	04000000 	streq	r0, [r0]
  60:	01f80007 	mvneqs	r0, r7
  64:	00020000 	andeq	r0, r2, r0
  68:	0000004c 	andeq	r0, r0, ip, asr #32
  6c:	00460104 	subeq	r0, r6, r4, lsl #2
  70:	13b40000 	movnes	r0, #0	; 0x0
  74:	11303200 	teqne	r0, r0, lsl #4
  78:	00143200 	andeqs	r3, r4, r0, lsl #4
  7c:	5c010000 	stcpl	0, cr0, [r1], {0}
  80:	00000000 	andeq	r0, r0, r0
  84:	02000000 	andeq	r0, r0, #0	; 0x0
  88:	00006801 	andeq	r6, r0, r1, lsl #16
  8c:	30450100 	subcc	r0, r5, r0, lsl #2
  90:	7c320011 	ldcvc	0, cr0, [r2], #-68
  94:	01320011 	teqeq	r2, r1, lsl r0
  98:	c201025d 	andgt	r0, r1, #-805306363	; 0xd0000005
  9c:	01000000 	tsteq	r0, r0
  a0:	00117c51 	andeqs	r7, r1, r1, asr ip
  a4:	0011f032 	andeqs	pc, r1, r2, lsr r0
  a8:	025d0132 	subeqs	r0, sp, #-2147483636	; 0x8000000c
  ac:	00008201 	andeq	r8, r0, r1, lsl #4
  b0:	f0860100 	addnv	r0, r6, r0, lsl #2
  b4:	2c320011 	ldccs	0, cr0, [r2], #-68
  b8:	01320012 	teqeq	r2, r2, lsl r0
  bc:	af01025d 	swige	0x0001025d
  c0:	01000000 	tsteq	r0, r0
  c4:	00122c8f 	andeqs	r2, r2, pc, lsl #25
  c8:	00125032 	andeqs	r5, r2, r2, lsr r0
  cc:	025d0132 	subeqs	r0, sp, #-2147483636	; 0x8000000c
  d0:	00011b01 	andeq	r1, r1, r1, lsl #22
  d4:	50950100 	addpls	r0, r5, r0, lsl #2
  d8:	78320012 	ldmvcda	r2!, {r1, r4}
  dc:	01320012 	teqeq	r2, r2, lsl r0
  e0:	00ee035d 	rsceq	r0, lr, sp, asr r3
  e4:	db010000 	blle	400ec <__section_start-0x31fc0f14>
  e8:	01000000 	tsteq	r0, r0
  ec:	127801a7 	rsbnes	r0, r8, #-1073741783	; 0xc0000029
  f0:	12d03200 	sbcnes	r3, r0, #0	; 0x0
  f4:	5d013200 	sfmpl	f3, 4, [r1]
  f8:	01007804 	tsteq	r0, r4, lsl #16
  fc:	0000eea6 	andeq	lr, r0, r6, lsr #29
 100:	04500100 	ldreqb	r0, [r0], #-256
 104:	a6010079 	undefined
 108:	000000ee 	andeq	r0, r0, lr, ror #1
 10c:	76055101 	strvc	r5, [r5], -r1, lsl #2
 110:	01000000 	tsteq	r0, r0
 114:	0000eea6 	andeq	lr, r0, r6, lsr #29
 118:	065c0100 	ldreqb	r0, [ip], -r0, lsl #2
 11c:	00646572 	rsbeq	r6, r4, r2, ror r5
 120:	00f5a801 	rsceqs	sl, r5, r1, lsl #16
 124:	51010000 	tstpl	r1, r0
 128:	00007c07 	andeq	r7, r0, r7, lsl #24
 12c:	f5a80100 	strnv	r0, [r8, #256]!
 130:	01000000 	tsteq	r0, r0
 134:	00570753 	subeqs	r0, r7, r3, asr r7
 138:	a8010000 	stmgeda	r1, {}
 13c:	000000f5 	streqd	r0, [r0], -r5
 140:	f6075301 	strnv	r5, [r7], -r1, lsl #6
 144:	01000000 	tsteq	r0, r0
 148:	0000fcaa 	andeq	pc, r0, sl, lsr #25
 14c:	00530100 	subeqs	r0, r3, r0, lsl #2
 150:	00003708 	andeq	r3, r0, r8, lsl #14
 154:	08070400 	stmeqda	r7, {sl}
 158:	000000a1 	andeq	r0, r0, r1, lsr #1
 15c:	04090801 	streq	r0, [r9], #-2049
 160:	00000102 	andeq	r0, r0, r2, lsl #2
 164:	00004408 	andeq	r4, r0, r8, lsl #8
 168:	03070200 	tsteq	r7, #0	; 0x0
 16c:	00000144 	andeq	r0, r0, r4, asr #2
 170:	00010401 	andeq	r0, r1, r1, lsl #8
 174:	01ba0100 	moveqs	r0, r0, lsl #2
 178:	320012d0 	andcc	r1, r0, #13	; 0xd
 17c:	3200133c 	andcc	r1, r0, #-268435456	; 0xf0000000
 180:	76055d01 	strvc	r5, [r5], -r1, lsl #26
 184:	01000000 	tsteq	r0, r0
 188:	0000eeb9 	streqh	lr, [r0], -r9
 18c:	06560100 	ldreqb	r0, [r6], -r0, lsl #2
 190:	bb010078 	bllt	40378 <__section_start-0x31fc0c88>
 194:	000000ee 	andeq	r0, r0, lr, ror #1
 198:	79065401 	stmvcdb	r6, {r0, sl, ip, lr}
 19c:	eebb0100 	frde	f0, f3, f0
 1a0:	01000000 	tsteq	r0, r0
 1a4:	b3030055 	tstlt	r3, #85	; 0x55
 1a8:	01000001 	tsteq	r0, r1
 1ac:	00000111 	andeq	r0, r0, r1, lsl r1
 1b0:	3c01c401 	cfstrscc	mvf12, [r1], {1}
 1b4:	94320013 	ldrlst	r0, [r2], #-19
 1b8:	01320013 	teqeq	r2, r3, lsl r0
 1bc:	0093055d 	addeqs	r0, r3, sp, asr r5
 1c0:	c2010000 	andgt	r0, r1, #0	; 0x0
 1c4:	000000ee 	andeq	r0, r0, lr, ror #1
 1c8:	e6055801 	str	r5, [r5], -r1, lsl #16
 1cc:	01000000 	tsteq	r0, r0
 1d0:	0000eec2 	andeq	lr, r0, r2, asr #29
 1d4:	05510100 	ldreqb	r0, [r1, #-256]
 1d8:	000000bc 	streqh	r0, [r0], -ip
 1dc:	00eec301 	rsceq	ip, lr, r1, lsl #6
 1e0:	56010000 	strpl	r0, [r1], -r0
 1e4:	0000d505 	andeq	sp, r0, r5, lsl #10
 1e8:	eec30100 	pols	f0, f3, f0
 1ec:	01000000 	tsteq	r0, r0
 1f0:	0076055a 	rsbeqs	r0, r6, sl, asr r5
 1f4:	c3010000 	tstgt	r1, #0	; 0x0
 1f8:	000000ee 	andeq	r0, r0, lr, ror #1
 1fc:	78065701 	stmvcda	r6, {r0, r8, r9, sl, ip, lr}
 200:	eec50100 	pols	f0, f5, f0
 204:	01000000 	tsteq	r0, r0
 208:	00790654 	rsbeqs	r0, r9, r4, asr r6
 20c:	00eec501 	rsceq	ip, lr, r1, lsl #10
 210:	55010000 	strpl	r0, [r1]
 214:	fb010200 	blx	40a1e <__section_start-0x31fc05e2>
 218:	01000000 	tsteq	r0, r0
 21c:	001394cd 	andeqs	r9, r3, sp, asr #9
 220:	0013b432 	andeqs	fp, r3, r2, lsr r4
 224:	0a5d0132 	beq	17406f4 <__section_start-0x308c090c>
 228:	000000ee 	andeq	r0, r0, lr, ror #1
 22c:	00ee9a01 	rsceq	r9, lr, r1, lsl #20
 230:	05010000 	streq	r0, [r1]
 234:	0013bc03 	andeqs	fp, r3, r3, lsl #24
 238:	009b0a32 	addeqs	r0, fp, r2, lsr sl
 23c:	9b010000 	blls	40244 <__section_start-0x31fc0dbc>
 240:	000000ee 	andeq	r0, r0, lr, ror #1
 244:	b8030501 	stmltda	r3, {r0, r8, sl}
 248:	0a320013 	beq	c8029c <__section_start-0x31380d64>
 24c:	00000062 	andeq	r0, r0, r2, rrx
 250:	00ee9c01 	rsceq	r9, lr, r1, lsl #24
 254:	05010000 	streq	r0, [r1]
 258:	0013b403 	andeqs	fp, r3, r3, lsl #8
 25c:	Address 0x25c is out of bounds.

Disassembly of section .debug_line:

00000000 <.debug_line>:
   0:	00000042 	andeq	r0, r0, r2, asr #32
   4:	001b0002 	andeqs	r0, fp, r2
   8:	01020000 	tsteq	r2, r0
   c:	000a0efb 	streqd	r0, [sl], -fp
  10:	01010101 	tsteq	r1, r1, lsl #2
  14:	01000000 	tsteq	r0, r0
  18:	73617400 	cmnvc	r1, #0	; 0x0
  1c:	632e336b 	teqvs	lr, #-1409286143	; 0xac000001
  20:	00000000 	andeq	r0, r0, r0
  24:	02050000 	andeq	r0, r5, #0	; 0x0
  28:	32001000 	andcc	r1, r0, #0	; 0x0
  2c:	2c466813 	mcrrcs	8, 1, r6, r6, cr3
  30:	08652c46 	stmeqda	r5!, {r1, r2, r6, sl, fp, sp}^
  34:	f338081e 	teqnv	r8, #1966080	; 0x1e0000
  38:	2c462c46 	mcrrcs	12, 4, r2, r6, cr6
  3c:	081e0865 	ldmeqda	lr, {r0, r2, r5, r6, fp}
  40:	00120238 	andeqs	r0, r2, r8, lsr r2
  44:	00a30101 	adceq	r0, r3, r1, lsl #2
  48:	00020000 	andeq	r0, r2, r0
  4c:	00000019 	andeq	r0, r0, r9, lsl r0
  50:	0efb0102 	cdpeq	1, 15, cr0, cr11, cr2, {0}
  54:	0101000a 	tsteq	r1, sl
  58:	00000101 	andeq	r0, r0, r1, lsl #2
  5c:	6c000100 	stfvss	f0, [r0], {0}
  60:	632e6463 	teqvs	lr, #1660944384	; 0x63000000
  64:	00000000 	andeq	r0, r0, r0
  68:	02050000 	andeq	r0, r5, #0	; 0x0
  6c:	32001130 	andcc	r1, r0, #12	; 0xc
  70:	0100c603 	tsteq	r0, r3, lsl #12
  74:	482a2c46 	stmmida	sl!, {r1, r2, r6, sl, fp, sp}
  78:	642d2c2c 	strvst	r2, [sp], #-3116
  7c:	18038364 	stmneda	r3, {r2, r5, r6, r8, r9, pc}
  80:	2a2a2c2b 	bcs	a8b134 <__section_start-0x31575ecc>
  84:	2d292c48 	stccs	12, cr2, [r9, #-288]!
  88:	1503272d 	strne	r2, [r3, #-1837]
  8c:	6e032c2b 	cdpvs	12, 0, cr2, cr3, cr11, {1}
  90:	2b11032b 	blcs	440d44 <__section_start-0x31bc02bc>
  94:	2d2b6c03 	stccs	12, cr6, [fp, #-12]!
  98:	032b1303 	teqeq	fp, #201326592	; 0xc000000
  9c:	18032b6c 	stmneda	r3, {r2, r3, r5, r6, r8, r9, fp, sp}
  a0:	2b69032b 	blcs	1a40d54 <__section_start-0x305c02ac>
  a4:	032b1403 	teqeq	fp, #50331648	; 0x3000000
  a8:	11032b6d 	tstne	r3, sp, ror #22
  ac:	2e2c2c2b 	cdpcs	12, 2, cr2, cr12, cr11, {1}
  b0:	6529824c 	strvs	r8, [r9, #-588]!
  b4:	2b808464 	blcs	fe02124c <__bss_end+0xcc01fe8c>
  b8:	032b9c84 	teqeq	fp, #33792	; 0x8400
  bc:	652e7f10 	strvs	r7, [lr, #-3856]!
  c0:	2f2a2f26 	swics	0x002a2f26
  c4:	2c2a2f43 	stccs	15, cr2, [sl], #-268
  c8:	30263027 	eorcc	r3, r6, r7, lsr #32
  cc:	2e9b0b03 	cdpcs	11, 9, cr0, cr11, cr3, {0}
  d0:	80482e7c 	subhi	r2, r8, ip, ror lr
  d4:	2eda7e7e 	mrccs	14, 6, r7, cr10, cr14, {3}
  d8:	66282e28 	strvst	r2, [r8], -r8, lsr #28
  dc:	2c62642c 	cfstrdcs	mvd6, [r2], #-176
  e0:	2c85462a 	stccs	6, cr4, [r5], {42}
  e4:	482d2c2c 	stmmida	sp!, {r2, r3, r5, sl, fp, sp}
  e8:	01000402 	tsteq	r0, r2, lsl #8
  ec:	Address 0xec is out of bounds.

Disassembly of section .debug_frame:

00000000 <.debug_frame>:
   0:	0000000c 	andeq	r0, r0, ip
   4:	ffffffff 	swinv	0x00ffffff
   8:	7c010001 	stcvc	0, cr0, [r1], {1}
   c:	000d0c0e 	andeq	r0, sp, lr, lsl #24
  10:	00000018 	andeq	r0, r0, r8, lsl r0
  14:	00000000 	andeq	r0, r0, r0
  18:	32001000 	andcc	r1, r0, #0	; 0x0
  1c:	00000130 	andeq	r0, r0, r0, lsr r1
  20:	8e0c0e44 	cdphi	14, 0, cr0, cr12, cr4, {2}
  24:	84028501 	strhi	r8, [r2], #-1281
  28:	180e4803 	stmneda	lr, {r0, r1, fp, lr}
  2c:	0000000c 	andeq	r0, r0, ip
  30:	ffffffff 	swinv	0x00ffffff
  34:	7c010001 	stcvc	0, cr0, [r1], {1}
  38:	000d0c0e 	andeq	r0, sp, lr, lsl #24
  3c:	0000000c 	andeq	r0, r0, ip
  40:	0000002c 	andeq	r0, r0, ip, lsr #32
  44:	32001130 	andcc	r1, r0, #12	; 0xc
  48:	0000004c 	andeq	r0, r0, ip, asr #32
  4c:	00000014 	andeq	r0, r0, r4, lsl r0
  50:	0000002c 	andeq	r0, r0, ip, lsr #32
  54:	3200117c 	andcc	r1, r0, #31	; 0x1f
  58:	00000074 	andeq	r0, r0, r4, ror r0
  5c:	8e080e44 	cdphi	14, 0, cr0, cr8, cr4, {2}
  60:	00028401 	andeq	r8, r2, r1, lsl #8
  64:	0000000c 	andeq	r0, r0, ip
  68:	0000002c 	andeq	r0, r0, ip, lsr #32
  6c:	320011f0 	andcc	r1, r0, #60	; 0x3c
  70:	0000003c 	andeq	r0, r0, ip, lsr r0
  74:	0000000c 	andeq	r0, r0, ip
  78:	0000002c 	andeq	r0, r0, ip, lsr #32
  7c:	3200122c 	andcc	r1, r0, #-1073741822	; 0xc0000002
  80:	00000024 	andeq	r0, r0, r4, lsr #32
  84:	0000000c 	andeq	r0, r0, ip
  88:	0000002c 	andeq	r0, r0, ip, lsr #32
  8c:	32001250 	andcc	r1, r0, #5	; 0x5
  90:	00000028 	andeq	r0, r0, r8, lsr #32
  94:	00000014 	andeq	r0, r0, r4, lsl r0
  98:	0000002c 	andeq	r0, r0, ip, lsr #32
  9c:	32001278 	andcc	r1, r0, #-2147483641	; 0x80000007
  a0:	00000058 	andeq	r0, r0, r8, asr r0
  a4:	8e040e44 	cdphi	14, 0, cr0, cr4, cr4, {2}
  a8:	00000001 	andeq	r0, r0, r1
  ac:	0000001c 	andeq	r0, r0, ip, lsl r0
  b0:	0000002c 	andeq	r0, r0, ip, lsr #32
  b4:	320012d0 	andcc	r1, r0, #13	; 0xd
  b8:	0000006c 	andeq	r0, r0, ip, rrx
  bc:	8e180e44 	cdphi	14, 1, cr0, cr8, cr4, {2}
  c0:	87028801 	strhi	r8, [r2, -r1, lsl #16]
  c4:	85048603 	strhi	r8, [r4, #-1539]
  c8:	00068405 	andeq	r8, r6, r5, lsl #8
  cc:	00000020 	andeq	r0, r0, r0, lsr #32
  d0:	0000002c 	andeq	r0, r0, ip, lsr #32
  d4:	3200133c 	andcc	r1, r0, #-268435456	; 0xf0000000
  d8:	00000058 	andeq	r0, r0, r8, asr r0
  dc:	8e1c0e44 	cdphi	14, 1, cr0, cr12, cr4, {2}
  e0:	88028a01 	stmhida	r2, {r0, r9, fp, pc}
  e4:	86048703 	strhi	r8, [r4], -r3, lsl #14
  e8:	84068505 	strhi	r8, [r6], #-1285
  ec:	00000007 	andeq	r0, r0, r7
  f0:	00000014 	andeq	r0, r0, r4, lsl r0
  f4:	0000002c 	andeq	r0, r0, ip, lsr #32
  f8:	32001394 	andcc	r1, r0, #1342177282	; 0x50000002
  fc:	00000020 	andeq	r0, r0, r0, lsr #32
 100:	8e040e44 	cdphi	14, 0, cr0, cr4, cr4, {2}
 104:	00000001 	andeq	r0, r0, r1
Disassembly of section .debug_pubnames:

00000000 <.debug_pubnames>:
   0:	0000001c 	andeq	r0, r0, ip, lsl r0
   4:	00000002 	andeq	r0, r0, r2
   8:	00620000 	rsbeq	r0, r2, r0
   c:	00250000 	eoreq	r0, r5, r0
  10:	75660000 	strvcb	r0, [r6]!
  14:	61745f6e 	cmnvs	r4, lr, ror #30
  18:	00336b73 	eoreqs	r6, r3, r3, ror fp
  1c:	00000000 	andeq	r0, r0, r0
  20:	000000cf 	andeq	r0, r0, pc, asr #1
  24:	00620002 	rsbeq	r0, r2, r2
  28:	01fc0000 	mvneqs	r0, r0
  2c:	00250000 	eoreq	r0, r5, r0
  30:	636c0000 	cmnvs	ip, #0	; 0x0
  34:	6f705f64 	swivs	0x00705f64
  38:	695f7472 	ldmvsdb	pc, {r1, r4, r5, r6, sl, ip, sp, lr}^
  3c:	0074696e 	rsbeqs	r6, r4, lr, ror #18
  40:	00000037 	andeq	r0, r0, r7, lsr r0
  44:	5f64636c 	swipl	0x0064636c
  48:	746e6f63 	strvcbt	r6, [lr], #-3939
  4c:	656c6f72 	strvsb	r6, [ip, #-3954]!
  50:	6e695f72 	mcrvs	15, 3, r5, cr9, cr2, {3}
  54:	49007469 	stmmidb	r0, {r0, r3, r5, r6, sl, ip, sp, lr}
  58:	6c000000 	stcvs	0, cr0, [r0], {0}
  5c:	705f6463 	subvcs	r6, pc, r3, ror #8
  60:	7265776f 	rsbvc	r7, r5, #29097984	; 0x1bc0000
  64:	616e655f 	cmnvs	lr, pc, asr r5
  68:	00656c62 	rsbeq	r6, r5, r2, ror #24
  6c:	0000005b 	andeq	r0, r0, fp, asr r0
  70:	5f64636c 	swipl	0x0064636c
  74:	69766e65 	ldmvsdb	r6!, {r0, r2, r5, r6, r9, sl, fp, sp, lr}^
  78:	6e6f5f64 	cdpvs	15, 6, cr5, cr15, cr4, {3}
  7c:	00006d00 	andeq	r6, r0, r0, lsl #26
  80:	64636c00 	strvsbt	r6, [r3], #-3072
  84:	766e655f 	undefined
  88:	6f5f6469 	swivs	0x005f6469
  8c:	7f006666 	swivc	0x00006666
  90:	64000000 	strvs	r0, [r0]
  94:	5f776172 	swipl	0x00776172
  98:	65786970 	ldrvsb	r6, [r8, #-2416]!
  9c:	0109006c 	tsteq	r9, ip, rrx
  a0:	6c630000 	stcvsl	0, cr0, [r3]
  a4:	5f726165 	swipl	0x00726165
  a8:	65726373 	ldrvsb	r6, [r2, #-883]!
  ac:	44006e65 	strmi	r6, [r0], #-3685
  b0:	64000001 	strvs	r0, [r0], #-1
  b4:	5f776172 	swipl	0x00776172
  b8:	74636572 	strvcbt	r6, [r3], #-1394
  bc:	0001b300 	andeq	fp, r1, r0, lsl #6
  c0:	64636c00 	strvsbt	r6, [r3], #-3072
  c4:	696e695f 	stmvsdb	lr!, {r0, r1, r2, r3, r4, r6, r8, fp, sp, lr}^
  c8:	01c50074 	biceq	r0, r5, r4, ror r0
  cc:	62660000 	rsbvs	r0, r6, #0	; 0x0
  d0:	7361625f 	cmnvc	r1, #-268435451	; 0xf0000005
  d4:	64615f65 	strvsbt	r5, [r1], #-3941
  d8:	d7007264 	strle	r7, [r0, -r4, ror #4]
  dc:	78000001 	stmvcda	r0, {r0}
  e0:	657a6973 	ldrvsb	r6, [sl, #-2419]!
  e4:	0001e900 	andeq	lr, r1, r0, lsl #18
  e8:	69737900 	ldmvsdb	r3!, {r8, fp, ip, sp, lr}^
  ec:	0000657a 	andeq	r6, r0, sl, ror r5
  f0:	Address 0xf0 is out of bounds.

Disassembly of section .debug_aranges:

00000000 <.debug_aranges>:
   0:	0000001c 	andeq	r0, r0, ip, lsl r0
   4:	00000002 	andeq	r0, r0, r2
   8:	00040000 	andeq	r0, r4, r0
   c:	00000000 	andeq	r0, r0, r0
  10:	32001000 	andcc	r1, r0, #0	; 0x0
  14:	00000130 	andeq	r0, r0, r0, lsr r1
	...
  20:	0000001c 	andeq	r0, r0, ip, lsl r0
  24:	00620002 	rsbeq	r0, r2, r2
  28:	00040000 	andeq	r0, r4, r0
  2c:	00000000 	andeq	r0, r0, r0
  30:	32001130 	andcc	r1, r0, #12	; 0xc
  34:	00000284 	andeq	r0, r0, r4, lsl #5
	...
Disassembly of section .debug_str:

00000000 <.debug_str>:
   0:	746e6d2f 	strvcbt	r6, [lr], #-3375
   4:	6667682f 	strvsbt	r6, [r7], -pc, lsr #16
   8:	73412f73 	cmpvc	r1, #460	; 0x1cc
   c:	74706d79 	ldrvcbt	r6, [r0], #-3449
  10:	0065746f 	rsbeq	r7, r5, pc, ror #8
  14:	20554e47 	subcss	r4, r5, r7, asr #28
  18:	2e332043 	cdpcs	0, 3, cr2, cr3, cr3, {2}
  1c:	00352e34 	eoreqs	r2, r5, r4, lsr lr
  20:	5f6e7566 	swipl	0x006e7566
  24:	6b736174 	blvs	1cd85fc <__section_start-0x30328a04>
  28:	61740033 	cmnvs	r4, r3, lsr r0
  2c:	2e336b73 	mrccs	11, 1, r6, cr3, cr3, {3}
  30:	6f6c0063 	swivs	0x006c0063
  34:	7520676e 	strvc	r6, [r0, #-1902]!
  38:	6769736e 	strvsb	r7, [r9, -lr, ror #6]!
  3c:	2064656e 	rsbcs	r6, r4, lr, ror #10
  40:	00746e69 	rsbeqs	r6, r4, r9, ror #28
  44:	726f6873 	rsbvc	r6, pc, #7536640	; 0x730000
  48:	6e752074 	mrcvs	0, 3, r2, cr5, cr4, {3}
  4c:	6e676973 	mcrvs	9, 3, r6, cr7, cr3, {3}
  50:	69206465 	stmvsdb	r0!, {r0, r2, r5, r6, sl, sp, lr}
  54:	6200746e 	andvs	r7, r0, #1845493760	; 0x6e000000
  58:	0065756c 	rsbeq	r7, r5, ip, ror #10
  5c:	2e64636c 	cdpcs	3, 6, cr6, cr4, cr12, {3}
  60:	73790063 	cmnvc	r9, #99	; 0x63
  64:	00657a69 	rsbeq	r7, r5, r9, ror #20
  68:	5f64636c 	swipl	0x0064636c
  6c:	74726f70 	ldrvcbt	r6, [r2], #-3952
  70:	696e695f 	stmvsdb	lr!, {r0, r1, r2, r3, r4, r6, r8, fp, sp, lr}^
  74:	6f630074 	swivs	0x00630074
  78:	00726f6c 	rsbeqs	r6, r2, ip, ror #30
  7c:	65657267 	strvsb	r7, [r5, #-615]!
  80:	636c006e 	cmnvs	ip, #110	; 0x6e
  84:	6f705f64 	swivs	0x00705f64
  88:	5f726577 	swipl	0x00726577
  8c:	62616e65 	rsbvs	r6, r1, #1616	; 0x650
  90:	7800656c 	stmvcda	r0, {r2, r3, r5, r6, r8, sl, sp, lr}
  94:	6174735f 	cmnvs	r4, pc, asr r3
  98:	78007472 	stmvcda	r0, {r1, r4, r5, r6, sl, ip, sp, lr}
  9c:	657a6973 	ldrvsb	r6, [sl, #-2419]!
  a0:	736e7500 	cmnvc	lr, #0	; 0x0
  a4:	656e6769 	strvsb	r6, [lr, #-1897]!
  a8:	68632064 	stmvsda	r3!, {r2, r5, r6, sp}^
  ac:	6c007261 	sfmvs	f7, 4, [r0], {97}
  b0:	655f6463 	ldrvsb	r6, [pc, #-1123]	; fffffc55 <__bss_end+0xcdffe895>
  b4:	6469766e 	strvsbt	r7, [r9], #-1646
  b8:	006e6f5f 	rsbeq	r6, lr, pc, asr pc
  bc:	6e655f78 	mcrvs	15, 3, r5, cr5, cr8, {3}
  c0:	636c0064 	cmnvs	ip, #100	; 0x64
  c4:	6f635f64 	swivs	0x00635f64
  c8:	6f72746e 	swivs	0x0072746e
  cc:	5f72656c 	swipl	0x0072656c
  d0:	74696e69 	strvcbt	r6, [r9], #-3689
  d4:	655f7900 	ldrvsb	r7, [pc, #-2304]	; fffff7dc <__bss_end+0xcdffe41c>
  d8:	6400646e 	strvs	r6, [r0], #-1134
  dc:	5f776172 	swipl	0x00776172
  e0:	65786970 	ldrvsb	r6, [r8, #-2416]!
  e4:	5f79006c 	swipl	0x0079006c
  e8:	72617473 	rsbvc	r7, r1, #1929379840	; 0x73000000
  ec:	62660074 	rsbvs	r0, r6, #116	; 0x74
  f0:	7361625f 	cmnvc	r1, #-268435451	; 0xf0000005
  f4:	64615f65 	strvsbt	r5, [r1], #-3941
  f8:	6c007264 	sfmvs	f7, 4, [r0], {100}
  fc:	695f6463 	ldmvsdb	pc, {r0, r1, r5, r6, sl, sp, lr}^
 100:	0074696e 	rsbeqs	r6, r4, lr, ror #18
 104:	61656c63 	cmnvs	r5, r3, ror #24
 108:	63735f72 	cmnvs	r3, #456	; 0x1c8
 10c:	6e656572 	mcrvs	5, 3, r6, cr5, cr2, {3}
 110:	61726400 	cmnvs	r2, r0, lsl #8
 114:	65725f77 	ldrvsb	r5, [r2, #-3959]!
 118:	6c007463 	cfstrsvs	mvf7, [r0], {99}
 11c:	655f6463 	ldrvsb	r6, [pc, #-1123]	; fffffcc1 <__bss_end+0xcdffe901>
 120:	6469766e 	strvsbt	r7, [r9], #-1646
 124:	66666f5f 	uqsubaddxvs	r6, r6, pc
	...
Disassembly of section .comment:

00000000 <.comment>:
   0:	43434700 	cmpmi	r3, #0	; 0x0
   4:	4728203a 	undefined
   8:	2029554e 	eorcs	r5, r9, lr, asr #10
   c:	2e342e33 	mrccs	14, 1, r2, cr4, cr3, {1}
  10:	47000035 	smladxmi	r0, r5, r0, r0
  14:	203a4343 	eorcss	r4, sl, r3, asr #6
  18:	554e4728 	strplb	r4, [lr, #-1832]
  1c:	2e332029 	cdpcs	0, 3, cr2, cr3, cr9, {1}
  20:	00352e34 	eoreqs	r2, r5, r4, lsr lr
